 move_from_strain_slrt

 Timestamp is 5e45b559 (Thu Feb 13 15:45:13 2020)

 Preferred load address is 10000000

 Start         Length     Name                   Class
 0001:00000000 00063308H .text$mn                CODE
 0002:00000000 00000104H .CRT$XCA                DATA
 0002:00000104 00000104H .CRT$XCZ                DATA
 0002:00000208 00000104H .CRT$XIA                DATA
 0002:0000030c 00000110H .CRT$XIC                DATA
 0002:0000041c 00000104H .CRT$XIZ                DATA
 0002:00000520 00000104H .CRT$XPA                DATA
 0002:00000624 0000010cH .CRT$XPX                DATA
 0002:00000730 00000104H .CRT$XPXA               DATA
 0002:00000834 00000104H .CRT$XPZ                DATA
 0002:00000938 00000104H .CRT$XTA                DATA
 0002:00000a3c 00000104H .CRT$XTZ                DATA
 0002:00000b40 0000cfb0H .rdata                  DATA
 0002:0000daf0 00000390H .rdata$r                DATA
 0002:0000de80 00000110H .rdata$sxdata           DATA
 0002:0000df90 000001b4H .rdata$zzzdbg           DATA
 0002:0000e144 00000104H .rtc$IAA                DATA
 0002:0000e248 00000104H .rtc$IZZ                DATA
 0002:0000e34c 00000104H .rtc$TAA                DATA
 0002:0000e450 00000108H .rtc$TZZ                DATA
 0002:0000e558 00000ae8H .xdata$x                DATA
 0002:0000f040 000001ebH .edata                  DATA
 0003:00000000 00000fd0H .data                   DATA
 0003:00000fd0 000001f0H .data$r                 DATA
 0003:000011c0 00013ec0H .bss                    DATA
 0004:00000000 000001ccH .idata$5                DATA
 0004:000001cc 00000014H .idata$2                DATA
 0004:000001e0 00000014H .idata$3                DATA
 0004:000001f4 000001ccH .idata$4                DATA
 0004:000003c0 00000817H .idata$6                DATA
 0005:00000000 000002bfH .gfids$y                DATA
 0006:00000000 00000104H .00cfg                  DATA

  Address         Publics by Value              Rva+Base       Lib:Object

 0000:00000000       __except_list              00000000     <absolute>
 0000:00000000       ___guard_fids_count        00000000     <absolute>
 0000:00000000       ___guard_iat_table         00000000     <absolute>
 0000:00000000       ___dynamic_value_reloc_table 00000000     <absolute>
 0000:00000000       ___guard_fids_table        00000000     <absolute>
 0000:00000000       ___guard_iat_count         00000000     <absolute>
 0000:00000000       ___guard_longjmp_table     00000000     <absolute>
 0000:00000000       ___guard_longjmp_count     00000000     <absolute>
 0000:00000003       ___safe_se_handler_count   00000003     <absolute>
 0000:00000100       ___guard_flags             00000100     <absolute>
 0000:00000000       ___ImageBase               10000000     <linker-defined>
 0001:00005f90       _MdlInitialize             10006f90 f   move_from_strain.obj
 0001:00005fa0       _MdlInitializeSampleTimes  10006fa0 f   move_from_strain.obj
 0001:00005fb0       _MdlInitializeSizes        10006fb0 f   move_from_strain.obj
 0001:00005fc0       _MdlOutputs                10006fc0 f   move_from_strain.obj
 0001:00005fd0       _MdlStart                  10006fd0 f   move_from_strain.obj
 0001:00005fe0       _MdlTerminate              10006fe0 f   move_from_strain.obj
 0001:00006010       _MdlUpdate                 10007010 f   move_from_strain.obj
 0001:00006020       ___local_stdio_printf_options 10007020 f i move_from_strain.obj
 0001:00006030       __vfprintf_l               10007030 f i move_from_strain.obj
 0001:00006060       _move_from_strain          10007060 f   move_from_strain.obj
 0001:00006fb0       _printf                    10007fb0 f i move_from_strain.obj
 0001:00006ff0       _rt_modd_snf               10007ff0 f   move_from_strain.obj
 0001:000072b0       _rt_mxCreateCharMatrixFromStrings 100082b0 f   rt_matrx.obj
 0001:00007410       _rt_mxCreateDoubleMatrix   10008410 f   rt_matrx.obj
 0001:00007470       _rt_mxCreateNumericArray   10008470 f   rt_matrx.obj
 0001:000074f0       _rt_mxCreateString         100084f0 f   rt_matrx.obj
 0001:00007580       _rt_mxDuplicateArray       10008580 f   rt_matrx.obj
 0001:000075e0       _rt_mxGetDimensions        100085e0 f   rt_matrx.obj
 0001:00007620       _rt_mxGetEps               10008620 f   rt_matrx.obj
 0001:00007630       _rt_mxGetString            10008630 f   rt_matrx.obj
 0001:000076b0       _rtPrintfNoOp              100086b0 f   rt_printf.obj
 0001:000076c0       _move_from_strain_GetCAPIStaticMap 100086c0 f   move_from_strain_capi.obj
 0001:000076d0       _move_from_strain_InitializeDataMapInfo 100086d0 f   move_from_strain_capi.obj
 0001:00007760       _rtGetInf                  10008760 f   rtGetInf.obj
 0001:00007790       _rtGetInfF                 10008790 f   rtGetInf.obj
 0001:000077b0       _rtGetMinusInf             100087b0 f   rtGetInf.obj
 0001:000077e0       _rtGetMinusInfF            100087e0 f   rtGetInf.obj
 0001:00007800       _rtGetNaN                  10008800 f   rtGetNaN.obj
 0001:00007830       _rtGetNaNF                 10008830 f   rtGetNaN.obj
 0001:00007850       _rtIsInf                   10008850 f   rt_nonfinite.obj
 0001:00007890       _rtIsInfF                  10008890 f   rt_nonfinite.obj
 0001:000078d0       _rtIsNaN                   100088d0 f   rt_nonfinite.obj
 0001:000078f0       _rtIsNaNF                  100088f0 f   rt_nonfinite.obj
 0001:00007910       _rt_InitInfAndNaN          10008910 f   rt_nonfinite.obj
 0001:00007970       _rt_CleanUpForStateLogWithMMI 10008970 f   rt_logging_mmi.obj
 0001:00007a80       _rt_FillStateSigInfoFromMMI 10008a80 f   rt_logging_mmi.obj
 0001:00007e20       _rtwCAPI_CountSysRan       10008e20 f   rtw_modelmap_utils.obj
 0001:00007ec0       _rtwCAPI_EncodePath        10008ec0 f   rtw_modelmap_utils.obj
 0001:00007fc0       _rtwCAPI_FillSysRan        10008fc0 f   rtw_modelmap_utils.obj
 0001:000080b0       _rtwCAPI_FreeFullPaths     100090b0 f   rtw_modelmap_utils.obj
 0001:00008140       _rtwCAPI_GetFullStateBlockPath 10009140 f   rtw_modelmap_utils.obj
 0001:000082f0       _rtwCAPI_GetNumContStateRecords 100092f0 f   rtw_modelmap_utils.obj
 0001:000083b0       _rtwCAPI_GetNumSigLogRecords 100093b0 f   rtw_modelmap_utils.obj
 0001:00008400       _rtwCAPI_GetNumSigLogRecordsForRTWLogging 10009400 f   rtw_modelmap_utils.obj
 0001:000084a0       _rtwCAPI_GetNumStateRecords 100094a0 f   rtw_modelmap_utils.obj
 0001:000084f0       _rtwCAPI_GetNumStateRecordsForRTWLogging 100094f0 f   rtw_modelmap_utils.obj
 0001:00008590       _rtwCAPI_GetSigAddrFromMap 10009590 f   rtw_modelmap_utils.obj
 0001:00008650       _rtwCAPI_GetSigLogRecordInfo 10009650 f   rtw_modelmap_utils.obj
 0001:00008a80       _rtwCAPI_GetStateRecordInfo 10009a80 f   rtw_modelmap_utils.obj
 0001:00008f30       _rtwCAPI_GetStateWidth     10009f30 f   rtw_modelmap_utils.obj
 0001:00008f90       _rtwCAPI_HasStates         10009f90 f   rtw_modelmap_utils.obj
 0001:00009000       _rtwCAPI_UpdateFullPaths   1000a000 f   rtw_modelmap_utils.obj
 0001:000091e0       __vsnprintf_l              1000a1e0 f i rt_logging.obj
 0001:00009220       __vsprintf_l               1000a220 f i rt_logging.obj
 0001:00009260       _fprintf                   1000a260 f i rt_logging.obj
 0001:00009b70       _rt_CreateLogVar           1000ab70 f   rt_logging.obj
 0001:00009c00       _rt_CreateLogVarWithConvert 1000ac00 f   rt_logging.obj
 0001:0000a580       _rt_CreateStructLogVar     1000b580 f   rt_logging.obj
 0001:0000b2e0       _rt_GetMxIdFromDTypeId     1000c2e0 f   rt_logging.obj
 0001:0000b310       _rt_GetMxIdFromDTypeIdForRSim 1000c310 f   rt_logging.obj
 0001:0000dbe0       _rt_StartDataLogging       1000ebe0 f   rt_logging.obj
 0001:0000e0a0       _rt_StartDataLoggingWithStartTime 1000f0a0 f   rt_logging.obj
 0001:0000ea00       _rt_StopDataLogging        1000fa00 f   rt_logging.obj
 0001:0000ea20       _rt_StopDataLoggingImpl    1000fa20 f   rt_logging.obj
 0001:0000ed50       _rt_UpdateLogVar           1000fd50 f   rt_logging.obj
 0001:0000fe70       _rt_UpdateStructLogVar     10010e70 f   rt_logging.obj
 0001:0000ff00       _rt_UpdateTXXFYLogVars     10010f00 f   rt_logging.obj
 0001:00010230       _rt_UpdateTXYLogVars       10011230 f   rt_logging.obj
 0001:00010480       _sprintf                   10011480 f i rt_logging.obj
 0001:000104c0       _DllMain@12                100114c0 f   xpctarget.obj
 0001:000104d0       _SLRTSetErrorStatus        100114d0 f   xpctarget.obj
 0001:000104f0       _changeStepSize            100114f0 f   xpctarget.obj
 0001:00010560       _getDLMVersion             10011560 f   xpctarget.obj
 0001:00010570       _getRefMdlPath             10011570 f   xpctarget.obj
 0001:000105f0       _getRefMdlSignalNumber     100115f0 f   xpctarget.obj
 0001:000106a0       _getrlmdlinfo              100116a0 f   xpctarget.obj
 0001:00010880       _move_from_strain_ChangeStepSize 10011880 f   xpctarget.obj
 0001:000108f0       _updateDiscreteEvents      100118f0 f   xpctarget.obj
 0001:00010900       _getNumRef                 10011900 f   appmappingData.obj
 0001:00010910       _vprintf                   10011910 f i legacy_stdio.obj
 0001:00010950       _adquanserq8               10011950 f   adquanserq8.obj
 0001:00011070       _doquanserq8               10012070 f   doquanserq8.obj
 0001:000115a0       _GetPCIDeviceFull          100125a0 f   xpcruntime:xpcimports.obj
 0001:000115e0       _ShowPCIDevice             100125e0 f   xpcruntime:xpcimports.obj
 0001:00011da0       _xpcGetPciConfigAtSlot     10012da0 f   xpcruntime:xpcimports.obj
 0001:000120b0       _xpcInitProcs              100130b0 f   xpcruntime:xpcimports.obj
 0001:00013410       _xpceuploadevent           10014410 f   xpcruntime:xpcimports.obj
 0001:00013420       __ftoui3                   10014420 f   LIBCMT:_ftol3_.obj
 0001:0001342f       __ftoul3                   1001442f f   LIBCMT:_ftol3_.obj
 0001:0001343e       __ftol3                    1001443e f   LIBCMT:_ftol3_.obj
 0001:0001344b       __ftol3_NaN                1001444b f   LIBCMT:_ftol3_.obj
 0001:00013463       __ftol3_work               10014463 f   LIBCMT:_ftol3_.obj
 0001:000134e9       __ftol3_common             100144e9 f   LIBCMT:_ftol3_.obj
 0001:000135ab       __ftol3_arg_error          100145ab f   LIBCMT:_ftol3_.obj
 0001:000135bd       __ftol3_except             100145bd f   LIBCMT:_ftol3_.obj
 0001:00013601       __dtoui3                   10014601 f   LIBCMT:_ftol3_.obj
 0001:00013610       __dtoul3                   10014610 f   LIBCMT:_ftol3_.obj
 0001:0001361f       __dtol3                    1001461f f   LIBCMT:_ftol3_.obj
 0001:0001362c       __dtol3_NaN                1001462c f   LIBCMT:_ftol3_.obj
 0001:00013649       __dtol3_work               10014649 f   LIBCMT:_ftol3_.obj
 0001:00013730       __ultod3                   10014730 f   LIBCMT:_ftol3_.obj
 0001:00013770       __ltod3                    10014770 f   LIBCMT:_ftol3_.obj
 0001:00013874       ___raise_securityfailure   10014874 f   LIBCMT:gs_report.obj
 0001:000138a6       ___report_gsfailure        100148a6 f   LIBCMT:gs_report.obj
 0001:000139df       ___report_rangecheckfailure 100149df f   LIBCMT:gs_report.obj
 0001:000139ee       ___report_securityfailure  100149ee f   LIBCMT:gs_report.obj
 0001:00013af2       ___report_securityfailureEx 10014af2 f   LIBCMT:gs_report.obj
 0001:00013c4d       @__security_check_cookie@4 10014c4d f   LIBCMT:_secchk_.obj
 0001:00013c62       ___isa_available_init      10014c62 f   LIBCMT:_cpu_disp_.obj
 0001:0001422a       __CRT_INIT@12              1001522a f   LIBCMT:dll_dllmain.obj
 0001:00014235       __DllMainCRTStartup@12     10015235 f   LIBCMT:dll_dllmain.obj
 0001:00014260       ??$__crt_fast_decode_pointer@PAP6AXXZ@@YAPAP6AXXZQAP6AXXZ@Z 10015260 f i LIBCMT:utility.obj
 0001:00014279       ??$__crt_fast_encode_pointer@PAP6AXXZ@@YAPAP6AXXZQAP6AXXZ@Z 10015279 f i LIBCMT:utility.obj
 0001:0001429d       ?__crt_rotate_pointer_value@@YAIIH@Z 1001529d f i LIBCMT:utility.obj
 0001:000142ad       ?configure_argv@__scrt_narrow_argv_policy@@SAHXZ 100152ad f i LIBCMT:utility.obj
 0001:00014351       _NtCurrentTeb              10015351 f i LIBCMT:utility.obj
 0001:00014358       ___scrt_acquire_startup_lock 10015358 f   LIBCMT:utility.obj
 0001:0001439a       ___scrt_dllmain_after_initialize_c 1001539a f   LIBCMT:utility.obj
 0001:000143cf       ___scrt_dllmain_before_initialize_c 100153cf f   LIBCMT:utility.obj
 0001:000143e0       ___scrt_dllmain_crt_thread_attach 100153e0 f   LIBCMT:utility.obj
 0001:00014406       ___scrt_dllmain_crt_thread_detach 10015406 f   LIBCMT:utility.obj
 0001:00014416       ___scrt_dllmain_exception_filter 10015416 f   LIBCMT:utility.obj
 0001:00014455       ___scrt_dllmain_uninitialize_c 10015455 f   LIBCMT:utility.obj
 0001:00014480       ___scrt_dllmain_uninitialize_critical 10015480 f   LIBCMT:utility.obj
 0001:00014490       ___scrt_initialize_crt     10015490 f   LIBCMT:utility.obj
 0001:000144d7       ___scrt_initialize_onexit_tables 100154d7 f   LIBCMT:utility.obj
 0001:00014593       ___scrt_is_nonwritable_in_current_image 10015593 f   LIBCMT:utility.obj
 0001:0001463f       ___scrt_release_startup_lock 1001563f f   LIBCMT:utility.obj
 0001:00014663       ___scrt_uninitialize_crt   10015663 f   LIBCMT:utility.obj
 0001:00014695       __onexit                   10015695 f   LIBCMT:utility.obj
 0001:000146de       _at_quick_exit             100156de f   LIBCMT:utility.obj
 0001:0001471b       _atexit                    1001571b f   LIBCMT:utility.obj
 0001:00014735       ___security_init_cookie    10015735 f   LIBCMT:gs_support.obj
 0001:000147f8       ?__scrt_initialize_type_info@@YAXXZ 100157f8 f   LIBCMT:tncleanup.obj
 0001:00014807       ?__scrt_uninitialize_type_info@@YAXXZ 10015807 f   LIBCMT:tncleanup.obj
 0001:00014816       ___local_stdio_scanf_options 10015816 f i LIBCMT:default_local_stdio_options.obj
 0001:0001481c       ___scrt_initialize_default_local_stdio_options 1001581c f   LIBCMT:default_local_stdio_options.obj
 0001:00014840       ___scrt_get_dyn_tls_init_callback 10015840 f   LIBCMT:dyn_tls_init.obj
 0001:00014846       ___scrt_fastfail           10015846 f   LIBCMT:utility_desktop.obj
 0001:000149a7       ___scrt_get_show_window_mode 100159a7 f   LIBCMT:utility_desktop.obj
 0001:000149e6       ___scrt_initialize_winrt   100159e6 f   LIBCMT:utility_desktop.obj
 0001:000149e9       ___scrt_is_managed_app     100159e9 f   LIBCMT:utility_desktop.obj
 0001:00014a3e       ___scrt_set_unhandled_exception_filter 10015a3e f   LIBCMT:utility_desktop.obj
 0001:00014a4d       ___scrt_unhandled_exception_filter@4 10015a4d f   LIBCMT:utility_desktop.obj
 0001:00014a9e       __crt_debugger_hook        10015a9e f   LIBCMT:utility_desktop.obj
 0001:00014aa8       __RTC_Initialize           10015aa8 f   LIBCMT:_initsect_.obj
 0001:00014add       __RTC_Terminate            10015add f   LIBCMT:_initsect_.obj
 0001:00014b12       @_guard_check_icall@4      10015b12 f i LIBCMT:checkcfg.obj
 0001:00014b20       __SEH_prolog4              10015b20 f   LIBCMT:_sehprolg4_.obj
 0001:00014b66       __SEH_epilog4              10015b66 f   LIBCMT:_sehprolg4_.obj
 0001:00014b91       __get_startup_argv_mode    10015b91 f   LIBCMT:argv_mode.obj
 0001:00014b95       ___scrt_is_ucrt_dll_in_use 10015b95 f   LIBCMT:ucrt_detection.obj
 0001:00014ba4       @_guard_check_icall_nop@4  10015ba4 f i LIBCMT:guard_support.obj
 0001:00014ba5       __guard_icall_checks_enforced 10015ba5 f i LIBCMT:guard_support.obj
 0001:00014bbc       _GetModuleHandleA@4        10015bbc f   kernel32:KERNEL32.dll
 0001:00014bc2       _GetProcAddress@8          10015bc2 f   kernel32:KERNEL32.dll
 0001:00014bc8       _UnhandledExceptionFilter@4 10015bc8 f   kernel32:KERNEL32.dll
 0001:00014bce       _SetUnhandledExceptionFilter@4 10015bce f   kernel32:KERNEL32.dll
 0001:00014bd4       _GetCurrentProcess@0       10015bd4 f   kernel32:KERNEL32.dll
 0001:00014bda       _TerminateProcess@8        10015bda f   kernel32:KERNEL32.dll
 0001:00014be0       _IsProcessorFeaturePresent@4 10015be0 f   kernel32:KERNEL32.dll
 0001:00014be6       _QueryPerformanceCounter@4 10015be6 f   kernel32:KERNEL32.dll
 0001:00014bec       _GetCurrentProcessId@0     10015bec f   kernel32:KERNEL32.dll
 0001:00014bf2       _GetCurrentThreadId@0      10015bf2 f   kernel32:KERNEL32.dll
 0001:00014bf8       _GetSystemTimeAsFileTime@4 10015bf8 f   kernel32:KERNEL32.dll
 0001:00014bfe       _InitializeSListHead@4     10015bfe f   kernel32:KERNEL32.dll
 0001:00014c04       _IsDebuggerPresent@0       10015c04 f   kernel32:KERNEL32.dll
 0001:00014c0a       _GetStartupInfoW@4         10015c0a f   kernel32:KERNEL32.dll
 0001:00014c10       _GetModuleHandleW@4        10015c10 f   kernel32:KERNEL32.dll
 0001:00014c20       _memset                    10015c20 f   libvcruntime:memset.obj
 0001:00014dd0       _memcpy                    10015dd0 f   libvcruntime:memcpy.obj
 0001:000154b0       _memmove                   100164b0 f   libvcruntime:memmove.obj
 0001:00015b90       _strchr                    10016b90 f   libvcruntime:strchr.obj
 0001:00015bfe       ___from_strstr_to_strchr   10016bfe     libvcruntime:strchr.obj
 0001:00015d50       __except_handler4          10016d50 f   libvcruntime:_chandler4_.obj
 0001:00015f0f       ___vcrt_initialize         10016f0f f   libvcruntime:initialization.obj
 0001:00015f42       ___vcrt_thread_attach      10016f42 f   libvcruntime:initialization.obj
 0001:00015f4f       ___vcrt_thread_detach      10016f4f f   libvcruntime:initialization.obj
 0001:00015f5c       ___vcrt_uninitialize       10016f5c f   libvcruntime:initialization.obj
 0001:00015f82       ___vcrt_uninitialize_critical 10016f82 f   libvcruntime:initialization.obj
 0001:00015f9d       ??$?RD@__crt_internal_free_policy@@QBEXQBD@Z 10016f9d f i libvcruntime:std_type_info.obj
 0001:00015fb1       ??$?RX@__crt_internal_free_policy@@QBEXQBX@Z 10016fb1 f i libvcruntime:std_type_info.obj
 0001:00015fc5       ??$__crt_interlocked_compare_exchange_pointer@$$CBD$$T$$T@@YAPBDPDSBD$$T1@Z 10016fc5 f i libvcruntime:std_type_info.obj
 0001:00015fdb       ??$__crt_interlocked_compare_exchange_pointer@$$CBDPAD$$T@@YAPBDPDSBDQAD$$T@Z 10016fdb f i libvcruntime:std_type_info.obj
 0001:00015ff1       ??$__crt_interlocked_read_pointer@$$CBD@@YAPBDPDSBD@Z 10016ff1 f i libvcruntime:std_type_info.obj
 0001:00016005       ??0?$__crt_unique_heap_ptr@DU__crt_internal_free_policy@@@@QAE@QAD@Z 10017005 f i libvcruntime:std_type_info.obj
 0001:00016016       ??0?$__crt_unique_heap_ptr@XU__crt_internal_free_policy@@@@QAE@QAX@Z 10017016 f i libvcruntime:std_type_info.obj
 0001:00016027       ??1?$__crt_unique_heap_ptr@DU__crt_internal_free_policy@@@@QAE@XZ 10017027 f i libvcruntime:std_type_info.obj
 0001:0001603b       ??1?$__crt_unique_heap_ptr@XU__crt_internal_free_policy@@@@QAE@XZ 1001703b f i libvcruntime:std_type_info.obj
 0001:0001605b       ??B?$__crt_unique_heap_ptr@DU__crt_internal_free_policy@@@@QBE_NXZ 1001705b f i libvcruntime:std_type_info.obj
 0001:00016062       ??B?$__crt_unique_heap_ptr@XU__crt_internal_free_policy@@@@QBE_NXZ 10017062 f i libvcruntime:std_type_info.obj
 0001:00016091       ?detach@?$__crt_unique_heap_ptr@XU__crt_internal_free_policy@@@@QAEPAXXZ 10017091 f i libvcruntime:std_type_info.obj
 0001:00016097       ?get@?$__crt_unique_heap_ptr@DU__crt_internal_free_policy@@@@QBEPADXZ 10017097 f i libvcruntime:std_type_info.obj
 0001:0001609a       ?get@?$__crt_unique_heap_ptr@XU__crt_internal_free_policy@@@@QBEPAXXZ 1001709a f i libvcruntime:std_type_info.obj
 0001:0001609d       ?is_valid@?$__crt_unique_heap_ptr@DU__crt_internal_free_policy@@@@QBE_NXZ 1001709d f i libvcruntime:std_type_info.obj
 0001:000160a4       ?is_valid@?$__crt_unique_heap_ptr@XU__crt_internal_free_policy@@@@QBE_NXZ 100170a4 f i libvcruntime:std_type_info.obj
 0001:000160ab       ?release@?$__crt_unique_heap_ptr@DU__crt_internal_free_policy@@@@QAEXXZ 100170ab f i libvcruntime:std_type_info.obj
 0001:000160bf       ?release@?$__crt_unique_heap_ptr@XU__crt_internal_free_policy@@@@QAEXXZ 100170bf f i libvcruntime:std_type_info.obj
 0001:000160d3       ___std_type_info_compare   100170d3 f   libvcruntime:std_type_info.obj
 0001:0001611e       ___std_type_info_destroy_list 1001711e f   libvcruntime:std_type_info.obj
 0001:00016149       ___std_type_info_hash      10017149 f   libvcruntime:std_type_info.obj
 0001:00016178       ___std_type_info_name      10017178 f   libvcruntime:std_type_info.obj
 0001:00016280       __local_unwind4            10017280 f   libvcruntime:_exsup4_.obj
 0001:00016356       __seh_longjmp_unwind4@4    10017356 f   libvcruntime:_exsup4_.obj
 0001:0001637e       @_EH4_CallFilterFunc@8     1001737e f   libvcruntime:_exsup4_.obj
 0001:00016395       @_EH4_TransferToHandler@8  10017395 f   libvcruntime:_exsup4_.obj
 0001:000163ae       @_EH4_GlobalUnwind2@8      100173ae f   libvcruntime:_exsup4_.obj
 0001:000163c7       @_EH4_LocalUnwind@16       100173c7 f   libvcruntime:_exsup4_.obj
 0001:00016435       ___except_validate_context_record 10017435 f   libvcruntime:jbcxrval.obj
 0001:00016436       ___except_validate_jump_buffer 10017436 f   libvcruntime:jbcxrval.obj
 0001:00016437       ??$?RU__vcrt_ptd@@@__crt_internal_free_policy@@QBEXQBU__vcrt_ptd@@@Z 10017437 f i libvcruntime:per_thread_data.obj
 0001:0001644b       ??0?$__crt_unique_heap_ptr@U__vcrt_ptd@@U__crt_internal_free_policy@@@@QAE@QAU__vcrt_ptd@@@Z 1001744b f i libvcruntime:per_thread_data.obj
 0001:0001646e       ??1?$__crt_unique_heap_ptr@U__vcrt_ptd@@U__crt_internal_free_policy@@@@QAE@XZ 1001746e f i libvcruntime:per_thread_data.obj
 0001:0001648d       ??B?$__crt_unique_heap_ptr@U__vcrt_ptd@@U__crt_internal_free_policy@@@@QBE_NXZ 1001748d f i libvcruntime:per_thread_data.obj
 0001:00016494       ?detach@?$__crt_unique_heap_ptr@U__vcrt_ptd@@U__crt_internal_free_policy@@@@QAEPAU__vcrt_ptd@@XZ 10017494 f i libvcruntime:per_thread_data.obj
 0001:0001649a       ?get@?$__crt_unique_heap_ptr@U__vcrt_ptd@@U__crt_internal_free_policy@@@@QBEPAU__vcrt_ptd@@XZ 1001749a f i libvcruntime:per_thread_data.obj
 0001:0001649d       ?is_valid@?$__crt_unique_heap_ptr@U__vcrt_ptd@@U__crt_internal_free_policy@@@@QBE_NXZ 1001749d f i libvcruntime:per_thread_data.obj
 0001:000164a4       ?release@?$__crt_unique_heap_ptr@U__vcrt_ptd@@U__crt_internal_free_policy@@@@QAEXXZ 100174a4 f i libvcruntime:per_thread_data.obj
 0001:000164d8       ___vcrt_freefls@4          100174d8 f   libvcruntime:per_thread_data.obj
 0001:000164fb       ___vcrt_freeptd            100174fb f   libvcruntime:per_thread_data.obj
 0001:0001653e       ___vcrt_getptd             1001753e f   libvcruntime:per_thread_data.obj
 0001:0001654f       ___vcrt_getptd_noexit      1001754f f   libvcruntime:per_thread_data.obj
 0001:00016605       ___vcrt_initialize_ptd     10017605 f   libvcruntime:per_thread_data.obj
 0001:00016644       ___vcrt_uninitialize_ptd   10017644 f   libvcruntime:per_thread_data.obj
 0001:00016665       ___vcrt_initialize_locks   10017665 f   libvcruntime:locks.obj
 0001:000166b0       ___vcrt_lock               100176b0 f   libvcruntime:locks.obj
 0001:000166ca       ___vcrt_uninitialize_locks 100176ca f   libvcruntime:locks.obj
 0001:00016704       ___vcrt_unlock             10017704 f   libvcruntime:locks.obj
 0001:0001671e       ??$?BX@__crt_fast_encoded_nullptr_t@@QBEPAXXZ 1001771e f i libvcruntime:winapi_downlevel.obj
 0001:0001673c       ??$__crt_fast_decode_pointer@PAX@@YAPAXQAX@Z 1001773c f i libvcruntime:winapi_downlevel.obj
 0001:00016755       ??$__crt_fast_encode_pointer@PAX@@YAPAXQAX@Z 10017755 f i libvcruntime:winapi_downlevel.obj
 0001:00016779       ??$__crt_interlocked_compare_exchange_pointer@UHINSTANCE__@@$$T$$T@@YAPAUHINSTANCE__@@PDSAU0@$$T1@Z 10017779 f i libvcruntime:winapi_downlevel.obj
 0001:0001678f       ??$__crt_interlocked_compare_exchange_pointer@X$$T$$T@@YAPAXPDSAX$$T1@Z 1001778f f i libvcruntime:winapi_downlevel.obj
 0001:000167a5       ??$__crt_interlocked_exchange_pointer@UHINSTANCE__@@PAU1@@@YAPAUHINSTANCE__@@PDSAU0@QAU0@@Z 100177a5 f i libvcruntime:winapi_downlevel.obj
 0001:000167b5       ??$__crt_interlocked_exchange_pointer@UHINSTANCE__@@PAX@@YAPAUHINSTANCE__@@PDSAU0@QAX@Z 100177b5 f i libvcruntime:winapi_downlevel.obj
 0001:000167c5       ??$__crt_interlocked_exchange_pointer@XPAX@@YAPAXPDSAXQAX@Z 100177c5 f i libvcruntime:winapi_downlevel.obj
 0001:000167d5       ??$__crt_interlocked_read_pointer@UHINSTANCE__@@@@YAPAUHINSTANCE__@@PDSAU0@@Z 100177d5 f i libvcruntime:winapi_downlevel.obj
 0001:000167e9       ??$__crt_interlocked_read_pointer@X@@YAPAXPDSAX@Z 100177e9 f i libvcruntime:winapi_downlevel.obj
 0001:000167fd       ?__crt_fast_encode_pointer@@YA?AU__crt_fast_encoded_nullptr_t@@$$T@Z 100177fd f i libvcruntime:winapi_downlevel.obj
 0001:00016b41       ___vcrt_EventRegister      10017b41 f   libvcruntime:winapi_downlevel.obj
 0001:00016b91       ___vcrt_EventSetInformation 10017b91 f   libvcruntime:winapi_downlevel.obj
 0001:00016be4       ___vcrt_EventUnregister    10017be4 f   libvcruntime:winapi_downlevel.obj
 0001:00016c2c       ___vcrt_EventWriteTransfer 10017c2c f   libvcruntime:winapi_downlevel.obj
 0001:00016c87       ___vcrt_FlsAlloc           10017c87 f   libvcruntime:winapi_downlevel.obj
 0001:00016ccf       ___vcrt_FlsFree            10017ccf f   libvcruntime:winapi_downlevel.obj
 0001:00016d17       ___vcrt_FlsGetValue        10017d17 f   libvcruntime:winapi_downlevel.obj
 0001:00016d5f       ___vcrt_FlsSetValue        10017d5f f   libvcruntime:winapi_downlevel.obj
 0001:00016dab       ___vcrt_InitializeCriticalSectionEx 10017dab f   libvcruntime:winapi_downlevel.obj
 0001:00016e02       ___vcrt_initialize_winapi_thunks 10017e02 f   libvcruntime:winapi_downlevel.obj
 0001:00016e4a       ___vcrt_uninitialize_winapi_thunks 10017e4a f   libvcruntime:winapi_downlevel.obj
 0001:00016e88       ??$?B$$A6AXXZ@__crt_fast_encoded_nullptr_t@@QBEP6AXXZXZ 10017e88 f i libvcruntime:purevirt_data.obj
 0001:00016ea6       ??$__crt_fast_encode_pointer@P6AXXZ@@YAP6AXXZQ6AXXZ@Z 10017ea6 f i libvcruntime:purevirt_data.obj
 0001:00016eca       ___vcrt_initialize_pure_virtual_call_handler 10017eca f   libvcruntime:purevirt_data.obj
 0001:00016eee       ??$__vcrt_va_start_verify_argument_type@QBD@@YAXXZ 10017eee f i libvcruntime:undname.obj
 0001:00016eef       ??0Block@_HeapManager@@QAE@XZ 10017eef f i libvcruntime:undname.obj
 0001:00016ef5       ??0DName@@QAE@AAPBDD@Z     10017ef5 f   libvcruntime:undname.obj
 0001:00016fdc       ??0DName@@QAE@ABV0@@Z      10017fdc f i libvcruntime:undname.obj
 0001:00016ff7       ??0DName@@QAE@D@Z          10017ff7 f   libvcruntime:undname.obj
 0001:0001702e       ??0DName@@QAE@PAV0@@Z      1001802e f   libvcruntime:undname.obj
 0001:0001708e       ??0DName@@QAE@PBD@Z        1001808e f   libvcruntime:undname.obj
 0001:000170d6       ??0DName@@QAE@W4DNameStatus@@@Z 100180d6 f   libvcruntime:undname.obj
 0001:00017129       ??0DName@@QAE@XZ           10018129 f i libvcruntime:undname.obj
 0001:0001713e       ??0DName@@QAE@_J@Z         1001813e f   libvcruntime:undname.obj
 0001:000171f8       ??0DName@@QAE@_K@Z         100181f8 f   libvcruntime:undname.obj
 0001:00017282       ??0DNameNode@@IAE@XZ       10018282 f   libvcruntime:undname.obj
 0001:0001728d       ??0DNameStatusNode@@AAE@W4DNameStatus@@@Z 1001828d f   libvcruntime:undname.obj
 0001:000172b8       ??0Replicator@@QAE@XZ      100182b8 f i libvcruntime:undname.obj
 0001:000172be       ??0UnDecorator@@QAE@PADPBDHP6APADJ@ZK@Z 100182be f i libvcruntime:undname.obj
 0001:00017341       ??0charNode@@QAE@D@Z       10018341 f   libvcruntime:undname.obj
 0001:0001735b       ??0pDNameNode@@QAE@PAVDName@@@Z 1001835b f   libvcruntime:undname.obj
 0001:0001738d       ??0pairNode@@QAE@PAVDNameNode@@0@Z 1001838d f   libvcruntime:undname.obj
 0001:000173b3       ??0pcharNode@@QAE@PBDH@Z   100183b3 f   libvcruntime:undname.obj
 0001:00017422       ??2@YAPAXIAAV_HeapManager@@H@Z 10018422 f i libvcruntime:undname.obj
 0001:0001743c       ??4DName@@QAEAAV0@ABV0@@Z  1001843c f   libvcruntime:undname.obj
 0001:00017457       ??4DName@@QAEAAV0@D@Z      10018457 f i libvcruntime:undname.obj
 0001:0001748e       ??4DName@@QAEAAV0@PAV0@@Z  1001848e f   libvcruntime:undname.obj
 0001:000174e9       ??4DName@@QAEAAV0@PBD@Z    100184e9 f   libvcruntime:undname.obj
 0001:00017527       ??4DName@@QAEAAV0@W4DNameStatus@@@Z 10018527 f   libvcruntime:undname.obj
 0001:00017569       ??AReplicator@@QBE?AVDName@@H@Z 10018569 f   libvcruntime:undname.obj
 0001:000175b4       ??BUnDecorator@@QAEPADXZ   100185b4 f i libvcruntime:undname.obj
 0001:0001778b       ??H@YA?AVDName@@DABV0@@Z   1001878b f i libvcruntime:undname.obj
 0001:000177b8       ??H@YA?AVDName@@PBDABV0@@Z 100187b8 f i libvcruntime:undname.obj
 0001:000177e5       ??H@YA?AVDName@@W4DNameStatus@@ABV0@@Z 100187e5 f i libvcruntime:undname.obj
 0001:00017812       ??HDName@@QBE?AV0@ABV0@@Z  10018812 f   libvcruntime:undname.obj
 0001:0001783c       ??HDName@@QBE?AV0@D@Z      1001883c f   libvcruntime:undname.obj
 0001:00017866       ??HDName@@QBE?AV0@PAV0@@Z  10018866 f   libvcruntime:undname.obj
 0001:00017890       ??HDName@@QBE?AV0@PBD@Z    10018890 f   libvcruntime:undname.obj
 0001:000178ba       ??HDName@@QBE?AV0@W4DNameStatus@@@Z 100188ba f   libvcruntime:undname.obj
 0001:000178e4       ??YDName@@QAEAAV0@ABV0@@Z  100188e4 f   libvcruntime:undname.obj
 0001:00017937       ??YDName@@QAEAAV0@D@Z      10018937 f   libvcruntime:undname.obj
 0001:0001799b       ??YDName@@QAEAAV0@PAV0@@Z  1001899b f   libvcruntime:undname.obj
 0001:00017a19       ??YDName@@QAEAAV0@PBD@Z    10018a19 f   libvcruntime:undname.obj
 0001:00017a92       ??YDName@@QAEAAV0@W4DNameStatus@@@Z 10018a92 f   libvcruntime:undname.obj
 0001:00017ae2       ??YReplicator@@QAEAAV0@ABVDName@@@Z 10018ae2 f   libvcruntime:undname.obj
 0001:00017b3e       ??_5DName@@QAEAAV0@ABV0@@Z 10018b3e f   libvcruntime:undname.obj
 0001:00017b61       ?Constructor@_HeapManager@@QAEXP6APAXI@ZP6AXPAX@Z@Z 10018b61 f i libvcruntime:undname.obj
 0001:00017b85       ?Destructor@_HeapManager@@QAEXXZ 10018b85 f i libvcruntime:undname.obj
 0001:00017bcc       ?UScore@UnDecorator@@SAPBDW4Tokens@@@Z 10018bcc f   libvcruntime:undname.obj
 0001:00017bf0       ?append@DName@@AAEXPAVDNameNode@@@Z 10018bf0 f   libvcruntime:undname.obj
 0001:00017c47       ?composeDeclaration@UnDecorator@@CA?AVDName@@ABV2@@Z 10018c47 f i libvcruntime:undname.obj
 0001:00018c82       ?doAccessSpecifiers@UnDecorator@@SAHXZ 10019c82 f i libvcruntime:undname.obj
 0001:00018c93       ?doAllocationLanguage@UnDecorator@@SAHXZ 10019c93 f i libvcruntime:undname.obj
 0001:00018ca4       ?doAllocationModel@UnDecorator@@SAHXZ 10019ca4 f i libvcruntime:undname.obj
 0001:00018cb5       ?doEcsu@UnDecorator@@SAHXZ 10019cb5 f i libvcruntime:undname.obj
 0001:00018cc6       ?doEllipsis@UnDecorator@@SAHXZ 10019cc6 f i libvcruntime:undname.obj
 0001:00018cd7       ?doFunctionReturns@UnDecorator@@SAHXZ 10019cd7 f i libvcruntime:undname.obj
 0001:00018ce8       ?doMSKeywords@UnDecorator@@SAHXZ 10019ce8 f i libvcruntime:undname.obj
 0001:00018cf8       ?doMemberTypes@UnDecorator@@SAHXZ 10019cf8 f i libvcruntime:undname.obj
 0001:00018d09       ?doNameOnly@UnDecorator@@SAHXZ 10019d09 f i libvcruntime:undname.obj
 0001:00018d16       ?doNoIdentCharCheck@UnDecorator@@SAHXZ 10019d16 f i libvcruntime:undname.obj
 0001:00018d23       ?doPchar@DName@@AAEXPBDH@Z 10019d23 f   libvcruntime:undname.obj
 0001:00018dcf       ?doPtr64@UnDecorator@@SAHXZ 10019dcf f i libvcruntime:undname.obj
 0001:00018de0       ?doRestrictionSpec@UnDecorator@@SAHXZ 10019de0 f i libvcruntime:undname.obj
 0001:00018df1       ?doThisTypes@UnDecorator@@SAHXZ 10019df1 f i libvcruntime:undname.obj
 0001:00018e07       ?doThrowTypes@UnDecorator@@SAHXZ 10019e07 f i libvcruntime:undname.obj
 0001:00018e18       ?doTypeOnly@UnDecorator@@SAHXZ 10019e18 f i libvcruntime:undname.obj
 0001:00018e25       ?doUnderScore@UnDecorator@@SAHXZ 10019e25 f i libvcruntime:undname.obj
 0001:00018e32       ?getArgumentList@UnDecorator@@CA?AVDName@@XZ 10019e32 f   libvcruntime:undname.obj
 0001:00018f81       ?getArgumentTypes@UnDecorator@@CA?AVDName@@XZ 10019f81 f   libvcruntime:undname.obj
 0001:00019099       ?getArrayType@UnDecorator@@CA?AVDName@@ABV2@@Z 1001a099 f i libvcruntime:undname.obj
 0001:0001931b       ?getBasedType@UnDecorator@@CA?AVDName@@XZ 1001a31b f   libvcruntime:undname.obj
 0001:000193da       ?getBasicDataType@UnDecorator@@CA?AVDName@@ABV2@@Z 1001a3da f   libvcruntime:undname.obj
 0001:000198c4       ?getCallIndex@UnDecorator@@CA?AVDName@@XZ 1001a8c4 f i libvcruntime:undname.obj
 0001:000198dd       ?getCallingConvention@UnDecorator@@CA?AVDName@@XZ 1001a8dd f   libvcruntime:undname.obj
 0001:000199cb       ?getDataIndirectType@UnDecorator@@CA?AVDName@@ABV2@PBD0H@Z 1001a9cb f   libvcruntime:undname.obj
 0001:0001a176       ?getDataIndirectType@UnDecorator@@CA?AVDName@@XZ 1001b176 f i libvcruntime:undname.obj
 0001:0001a1bd       ?getDataType@UnDecorator@@CA?AVDName@@PAV2@@Z 1001b1bd f   libvcruntime:undname.obj
 0001:0001a2c3       ?getDecoratedName@UnDecorator@@CA?AVDName@@XZ 1001b2c3 f   libvcruntime:undname.obj
 0001:0001a5a2       ?getDimension@UnDecorator@@CA?AVDName@@_N@Z 1001b5a2 f   libvcruntime:undname.obj
 0001:0001a726       ?getDispatchTarget@UnDecorator@@CA?AVDName@@XZ 1001b726 f   libvcruntime:undname.obj
 0001:0001a797       ?getDisplacement@UnDecorator@@CA?AVDName@@XZ 1001b797 f i libvcruntime:undname.obj
 0001:0001a7b0       ?getECSUDataType@UnDecorator@@CA?AVDName@@XZ 1001b7b0 f   libvcruntime:undname.obj
 0001:0001a914       ?getECSUName@UnDecorator@@CA?AVDName@@XZ 1001b914 f i libvcruntime:undname.obj
 0001:0001a929       ?getEnumType@UnDecorator@@CA?AVDName@@XZ 1001b929 f i libvcruntime:undname.obj
 0001:0001aa50       ?getExtendedDataIndirectType@UnDecorator@@CA?AVDName@@AAPBDAA_NH@Z 1001ba50 f   libvcruntime:undname.obj
 0001:0001ac63       ?getExternalDataType@UnDecorator@@CA?AVDName@@ABV2@@Z 1001bc63 f i libvcruntime:undname.obj
 0001:0001acfa       ?getFunctionIndirectType@UnDecorator@@CA?AVDName@@ABV2@@Z 1001bcfa f   libvcruntime:undname.obj
 0001:0001b205       ?getGuardNumber@UnDecorator@@CA?AVDName@@XZ 1001c205 f i libvcruntime:undname.obj
 0001:0001b21e       ?getLastChar@DName@@QBEDXZ 1001c21e f i libvcruntime:undname.obj
 0001:0001b244       ?getLastChar@DNameStatusNode@@UBEDXZ 1001c244 f i libvcruntime:undname.obj
 0001:0001b253       ?getLastChar@charNode@@UBEDXZ 1001c253 f i libvcruntime:undname.obj
 0001:0001b257       ?getLastChar@pDNameNode@@UBEDXZ 1001c257 f i libvcruntime:undname.obj
 0001:0001b268       ?getLastChar@pairNode@@UBEDXZ 1001c268 f i libvcruntime:undname.obj
 0001:0001b2a7       ?getLastChar@pcharNode@@UBEDXZ 1001c2a7 f i libvcruntime:undname.obj
 0001:0001b2bd       ?getLexicalFrame@UnDecorator@@CA?AVDName@@XZ 1001c2bd f i libvcruntime:undname.obj
 0001:0001b309       ?getMemory@_HeapManager@@QAEPAXIH@Z 1001c309 f   libvcruntime:undname.obj
 0001:0001b3ba       ?getNumberOfDimensions@UnDecorator@@CAHXZ 1001c3ba f   libvcruntime:undname.obj
 0001:0001b433       ?getOperatorName@UnDecorator@@CA?AVDName@@_NPA_N@Z 1001c433 f i libvcruntime:undname.obj
 0001:0001bbe3       ?getPointerType@UnDecorator@@CA?AVDName@@ABV2@0@Z 1001cbe3 f i libvcruntime:undname.obj
 0001:0001bc08       ?getPointerTypeArray@UnDecorator@@CA?AVDName@@ABV2@0@Z 1001cc08 f i libvcruntime:undname.obj
 0001:0001bc2d       ?getPrimaryDataType@UnDecorator@@CA?AVDName@@ABV2@@Z 1001cc2d f   libvcruntime:undname.obj
 0001:0001be9e       ?getPtrRefDataType@UnDecorator@@CA?AVDName@@ABV2@H@Z 1001ce9e f   libvcruntime:undname.obj
 0001:0001bfe0       ?getPtrRefType@UnDecorator@@CA?AVDName@@ABV2@0PBD@Z 1001cfe0 f   libvcruntime:undname.obj
 0001:0001c11b       ?getReferenceType@UnDecorator@@CA?AVDName@@ABV2@0PBD@Z 1001d11b f i libvcruntime:undname.obj
 0001:0001c13e       ?getRestrictionSpec@UnDecorator@@CA?AVDName@@XZ 1001d13e f   libvcruntime:undname.obj
 0001:0001c26c       ?getReturnType@UnDecorator@@CA?AVDName@@PAV2@@Z 1001d26c f   libvcruntime:undname.obj
 0001:0001c2a6       ?getScope@UnDecorator@@CA?AVDName@@XZ 1001d2a6 f   libvcruntime:undname.obj
 0001:0001c77b       ?getScopedName@UnDecorator@@CA?AVDName@@XZ 1001d77b f   libvcruntime:undname.obj
 0001:0001c8b4       ?getSignedDimension@UnDecorator@@CA?AVDName@@XZ 1001d8b4 f   libvcruntime:undname.obj
 0001:0001c91b       ?getStorageConvention@UnDecorator@@CA?AVDName@@XZ 1001d91b f i libvcruntime:undname.obj
 0001:0001c930       ?getString@DName@@QBEPADPAD0@Z 1001d930 f i libvcruntime:undname.obj
 0001:0001c967       ?getString@DName@@QBEPADPADH@Z 1001d967 f i libvcruntime:undname.obj
 0001:0001c9d2       ?getString@DNameStatusNode@@UBEPADPAD0@Z 1001d9d2 f i libvcruntime:undname.obj
 0001:0001ca02       ?getString@charNode@@UBEPADPAD0@Z 1001da02 f i libvcruntime:undname.obj
 0001:0001ca1c       ?getString@pDNameNode@@UBEPADPAD0@Z 1001da1c f i libvcruntime:undname.obj
 0001:0001ca38       ?getString@pairNode@@UBEPADPAD0@Z 1001da38 f i libvcruntime:undname.obj
 0001:0001ca8d       ?getString@pcharNode@@UBEPADPAD0@Z 1001da8d f i libvcruntime:undname.obj
 0001:0001caae       ?getStringEncoding@UnDecorator@@CA?AVDName@@PADH@Z 1001daae f   libvcruntime:undname.obj
 0001:0001cb79       ?getStringHelper@@YAPADPAD00H@Z 1001db79 f i libvcruntime:undname.obj
 0001:0001cbbd       ?getSymbolName@UnDecorator@@CA?AVDName@@XZ 1001dbbd f i libvcruntime:undname.obj
 0001:0001cc17       ?getTemplateArgumentList@UnDecorator@@CA?AVDName@@XZ 1001dc17 f   libvcruntime:undname.obj
 0001:0001cf64       ?getTemplateConstant@UnDecorator@@CA?AVDName@@XZ 1001df64 f   libvcruntime:undname.obj
 0001:0001d379       ?getTemplateName@UnDecorator@@CA?AVDName@@_N@Z 1001e379 f   libvcruntime:undname.obj
 0001:0001d524       ?getThisType@UnDecorator@@CA?AVDName@@XZ 1001e524 f i libvcruntime:undname.obj
 0001:0001d56c       ?getThrowTypes@UnDecorator@@CA?AVDName@@XZ 1001e56c f   libvcruntime:undname.obj
 0001:0001d618       ?getTypeEncoding@UnDecorator@@CAHXZ 1001e618 f i libvcruntime:undname.obj
 0001:0001da14       ?getVCallThunkType@UnDecorator@@CA?AVDName@@XZ 1001ea14 f i libvcruntime:undname.obj
 0001:0001da5d       ?getVbTableType@UnDecorator@@CA?AVDName@@ABV2@@Z 1001ea5d f i libvcruntime:undname.obj
 0001:0001da77       ?getVdispMapType@UnDecorator@@CA?AVDName@@ABV2@@Z 1001ea77 f i libvcruntime:undname.obj
 0001:0001dae2       ?getVfTableType@UnDecorator@@CA?AVDName@@ABV2@@Z 1001eae2 f i libvcruntime:undname.obj
 0001:0001dca0       ?getZName@UnDecorator@@CA?AVDName@@_N0@Z 1001eca0 f   libvcruntime:undname.obj
 0001:0001df70       ?haveTemplateParameters@UnDecorator@@SAHXZ 1001ef70 f i libvcruntime:undname.obj
 0001:0001df7d       ?isArray@DName@@QBEHXZ     1001ef7d f i libvcruntime:undname.obj
 0001:0001df89       ?isComArray@DName@@QBEHXZ  1001ef89 f i libvcruntime:undname.obj
 0001:0001df95       ?isEmpty@DName@@QBEHXZ     1001ef95 f i libvcruntime:undname.obj
 0001:0001df9f       ?isFull@Replicator@@QBEHXZ 1001ef9f f i libvcruntime:undname.obj
 0001:0001dfaa       ?isNoTE@DName@@QBEHXZ      1001efaa f i libvcruntime:undname.obj
 0001:0001dfb6       ?isPinPtr@DName@@QBEHXZ    1001efb6 f i libvcruntime:undname.obj
 0001:0001dfc2       ?isPtrRef@DName@@QBEHXZ    1001efc2 f i libvcruntime:undname.obj
 0001:0001dfce       ?isUDC@DName@@QBEHXZ       1001efce f i libvcruntime:undname.obj
 0001:0001dfe3       ?isUDTThunk@DName@@QBEHXZ  1001efe3 f i libvcruntime:undname.obj
 0001:0001dff8       ?isVCallThunk@DName@@QBEHXZ 1001eff8 f i libvcruntime:undname.obj
 0001:0001e004       ?isValid@DName@@QBEHXZ     1001f004 f i libvcruntime:undname.obj
 0001:0001e010       ?length@DName@@QBEHXZ      1001f010 f i libvcruntime:undname.obj
 0001:0001e035       ?length@DNameStatusNode@@UBEHXZ 1001f035 f i libvcruntime:undname.obj
 0001:0001e039       ?length@charNode@@UBEHXZ   1001f039 f i libvcruntime:undname.obj
 0001:0001e03d       ?length@pDNameNode@@UBEHXZ 1001f03d f i libvcruntime:undname.obj
 0001:0001e04e       ?length@pairNode@@UBEHXZ   1001f04e f i libvcruntime:undname.obj
 0001:0001e0aa       ?length@pcharNode@@UBEHXZ  1001f0aa f i libvcruntime:undname.obj
 0001:0001e0ae       ?make@DNameStatusNode@@SAPAV1@W4DNameStatus@@@Z 1001f0ae f i libvcruntime:undname.obj
 0001:0001e155       ?setIsArray@DName@@QAEXXZ  1001f155 f i libvcruntime:undname.obj
 0001:0001e15f       ?setIsComArray@DName@@QAEXXZ 1001f15f f i libvcruntime:undname.obj
 0001:0001e169       ?setIsNoTE@DName@@QAEXXZ   1001f169 f i libvcruntime:undname.obj
 0001:0001e173       ?setIsPinPtr@DName@@QAEXXZ 1001f173 f i libvcruntime:undname.obj
 0001:0001e17d       ?setIsUDC@DName@@QAEXXZ    1001f17d f i libvcruntime:undname.obj
 0001:0001e18d       ?setIsVCallThunk@DName@@QAEXXZ 1001f18d f i libvcruntime:undname.obj
 0001:0001e197       ?setPtrRef@DName@@QAEAAV1@XZ 1001f197 f i libvcruntime:undname.obj
 0001:0001e1a3       ?status@DName@@QBE?AW4DNameStatus@@XZ 1001f1a3 f i libvcruntime:undname.obj
 0001:0001e228       ___unDName                 1001f228 f   libvcruntime:undname.obj
 0001:0001e2e2       ___unDNameEx               1001f2e2 f   libvcruntime:undname.obj
 0001:0001e39c       __vsprintf_s_l             1001f39c f i libvcruntime:undname.obj
 0001:0001e3d4       _sprintf_s                 1001f3d4 f i libvcruntime:undname.obj
 0001:0001e400       __global_unwind2           1001f400 f   libvcruntime:_exsup_.obj
 0001:0001e465       __local_unwind2            1001f465 f   libvcruntime:_exsup_.obj
 0001:0001e4e9       __abnormal_termination     1001f4e9 f   libvcruntime:_exsup_.obj
 0001:0001e50c       __NLG_Notify1              1001f50c f   libvcruntime:_exsup_.obj
 0001:0001e515       __NLG_Notify               1001f515 f   libvcruntime:_exsup_.obj
 0001:0001e52c       __NLG_Dispatch             1001f52c     libvcruntime:_exsup_.obj
 0001:0001e52c       __NLG_Dispatch2            1001f52c     libvcruntime:_exsup_.obj
 0001:0001e534       __NLG_Call                 1001f534 f   libvcruntime:_exsup_.obj
 0001:0001e536       __NLG_Return2              1001f536     libvcruntime:_exsup_.obj
 0001:0001e584       ??$__crt_fast_decode_pointer@P6AXXZ@@YAP6AXXZQ6AXXZ@Z 1001f584 f i libvcruntime:purevirt.obj
 0001:0001e59d       ??$__crt_interlocked_compare_exchange_pointer@$$A6AXXZ$$T$$T@@YAP6AXXZPDS6AXXZ$$T1@Z 1001f59d f i libvcruntime:purevirt.obj
 0001:0001e5b3       ??$__crt_interlocked_exchange_pointer@$$A6AXXZP6AXXZ@@YAP6AXXZPDS6AXXZQ6AXXZ@Z 1001f5b3 f i libvcruntime:purevirt.obj
 0001:0001e5c3       ??$__crt_interlocked_read_pointer@$$A6AXXZ@@YAP6AXXZPDS6AXXZ@Z 1001f5c3 f i libvcruntime:purevirt.obj
 0001:0001e5d7       __get_purecall_handler     1001f5d7 f   libvcruntime:purevirt.obj
 0001:0001e5fd       __purecall                 1001f5fd f   libvcruntime:purevirt.obj
 0001:0001e61e       __set_purecall_handler     1001f61e f   libvcruntime:purevirt.obj
 0001:0001e64c       _malloc                    1001f64c f   libucrt:malloc.obj
 0001:0001e659       ??$?RPAU__crt_stdio_stream_data@@@__crt_internal_free_policy@@QBEXQBQAU__crt_stdio_stream_data@@@Z 1001f659 f i libucrt:_file.obj
 0001:0001e66f       ??0?$__crt_unique_heap_ptr@PAU__crt_stdio_stream_data@@U__crt_internal_free_policy@@@@QAE@QAPAU__crt_stdio_stream_data@@@Z 1001f66f f i libucrt:_file.obj
 0001:0001e683       ??0__crt_stdio_stream@@QAE@QAU_iobuf@@@Z 1001f683 f i libucrt:_file.obj
 0001:0001e697       ??1?$__crt_unique_heap_ptr@PAU__crt_stdio_stream_data@@U__crt_internal_free_policy@@@@QAE@XZ 1001f697 f i libucrt:_file.obj
 0001:0001e6ad       ??C__crt_stdio_stream@@QBEPAU__crt_stdio_stream_data@@XZ 1001f6ad f i libucrt:_file.obj
 0001:0001e6b0       ?detach@?$__crt_unique_heap_ptr@PAU__crt_stdio_stream_data@@U__crt_internal_free_policy@@@@QAEPAPAU__crt_stdio_stream_data@@XZ 1001f6b0 f i libucrt:_file.obj
 0001:0001e6b6       ?release@?$__crt_unique_heap_ptr@PAU__crt_stdio_stream_data@@U__crt_internal_free_policy@@@@QAEXXZ 1001f6b6 f i libucrt:_file.obj
 0001:0001e6cc       ___acrt_initialize_stdio   1001f6cc f   libucrt:_file.obj
 0001:0001e7c6       ___acrt_iob_func           1001f7c6 f   libucrt:_file.obj
 0001:0001e7da       ___acrt_uninitialize_stdio 1001f7da f   libucrt:_file.obj
 0001:0001e839       __get_stream_buffer_pointers 1001f839 f   libucrt:_file.obj
 0001:0001e890       __lock_file                1001f890 f   libucrt:_file.obj
 0001:0001e8a9       __unlock_file              1001f8a9 f   libucrt:_file.obj
 0001:0001e8c2       ??$?0ABV?$stream_output_adapter@D@__crt_stdio_output@@AB_KABQBDABQAU__crt_locale_pointers@@ABQAD@?$format_validation_base@DV?$stream_output_adapter@D@__crt_stdio_output@@@__crt_stdio_output@@IAE@ABV?$stream_output_adapter@D@1@AB_KABQBDABQAU__crt_locale_pointers@@ABQAD@Z 1001f8c2 f i libucrt:output.obj
 0001:0001e8ed       ??$?0ABV?$stream_output_adapter@D@__crt_stdio_output@@AB_KABQBDABQAU__crt_locale_pointers@@ABQAD@?$positional_parameter_base@DV?$stream_output_adapter@D@__crt_stdio_output@@@__crt_stdio_output@@IAE@ABV?$stream_output_adapter@D@1@AB_KABQBDABQAU__crt_locale_pointers@@ABQAD@Z 1001f8ed f i libucrt:output.obj
 0001:0001e947       ??$?0ABV?$stream_output_adapter@D@__crt_stdio_output@@AB_KABQBDABQAU__crt_locale_pointers@@ABQAD@?$standard_base@DV?$stream_output_adapter@D@__crt_stdio_output@@@__crt_stdio_output@@IAE@ABV?$stream_output_adapter@D@1@AB_KABQBDABQAU__crt_locale_pointers@@ABQAD@Z 1001f947 f i libucrt:output.obj
 0001:0001e989       ??$?0ABV?$stream_output_adapter@_W@__crt_stdio_output@@AB_KABQB_WABQAU__crt_locale_pointers@@ABQAD@?$format_validation_base@_WV?$stream_output_adapter@_W@__crt_stdio_output@@@__crt_stdio_output@@IAE@ABV?$stream_output_adapter@_W@1@AB_KABQB_WABQAU__crt_locale_pointers@@ABQAD@Z 1001f989 f i libucrt:output.obj
 0001:0001e9b4       ??$?0ABV?$stream_output_adapter@_W@__crt_stdio_output@@AB_KABQB_WABQAU__crt_locale_pointers@@ABQAD@?$positional_parameter_base@_WV?$stream_output_adapter@_W@__crt_stdio_output@@@__crt_stdio_output@@IAE@ABV?$stream_output_adapter@_W@1@AB_KABQB_WABQAU__crt_locale_pointers@@ABQAD@Z 1001f9b4 f i libucrt:output.obj
 0001:0001ea0e       ??$?0ABV?$stream_output_adapter@_W@__crt_stdio_output@@AB_KABQB_WABQAU__crt_locale_pointers@@ABQAD@?$standard_base@_WV?$stream_output_adapter@_W@__crt_stdio_output@@@__crt_stdio_output@@IAE@ABV?$stream_output_adapter@_W@1@AB_KABQB_WABQAU__crt_locale_pointers@@ABQAD@Z 1001fa0e f i libucrt:output.obj
 0001:0001ea50       ??$?0ABV?$string_output_adapter@D@__crt_stdio_output@@AB_KABQBDABQAU__crt_locale_pointers@@ABQAD@?$format_validation_base@DV?$string_output_adapter@D@__crt_stdio_output@@@__crt_stdio_output@@IAE@ABV?$string_output_adapter@D@1@AB_KABQBDABQAU__crt_locale_pointers@@ABQAD@Z 1001fa50 f i libucrt:output.obj
 0001:0001ea7b       ??$?0ABV?$string_output_adapter@D@__crt_stdio_output@@AB_KABQBDABQAU__crt_locale_pointers@@ABQAD@?$positional_parameter_base@DV?$string_output_adapter@D@__crt_stdio_output@@@__crt_stdio_output@@IAE@ABV?$string_output_adapter@D@1@AB_KABQBDABQAU__crt_locale_pointers@@ABQAD@Z 1001fa7b f i libucrt:output.obj
 0001:0001ead5       ??$?0ABV?$string_output_adapter@D@__crt_stdio_output@@AB_KABQBDABQAU__crt_locale_pointers@@ABQAD@?$standard_base@DV?$string_output_adapter@D@__crt_stdio_output@@@__crt_stdio_output@@IAE@ABV?$string_output_adapter@D@1@AB_KABQBDABQAU__crt_locale_pointers@@ABQAD@Z 1001fad5 f i libucrt:output.obj
 0001:0001eb17       ??$?0ABV?$string_output_adapter@_W@__crt_stdio_output@@AB_KABQB_WABQAU__crt_locale_pointers@@ABQAD@?$format_validation_base@_WV?$string_output_adapter@_W@__crt_stdio_output@@@__crt_stdio_output@@IAE@ABV?$string_output_adapter@_W@1@AB_KABQB_WABQAU__crt_locale_pointers@@ABQAD@Z 1001fb17 f i libucrt:output.obj
 0001:0001eb42       ??$?0ABV?$string_output_adapter@_W@__crt_stdio_output@@AB_KABQB_WABQAU__crt_locale_pointers@@ABQAD@?$positional_parameter_base@_WV?$string_output_adapter@_W@__crt_stdio_output@@@__crt_stdio_output@@IAE@ABV?$string_output_adapter@_W@1@AB_KABQB_WABQAU__crt_locale_pointers@@ABQAD@Z 1001fb42 f i libucrt:output.obj
 0001:0001eb9c       ??$?0ABV?$string_output_adapter@_W@__crt_stdio_output@@AB_KABQB_WABQAU__crt_locale_pointers@@ABQAD@?$standard_base@_WV?$string_output_adapter@_W@__crt_stdio_output@@@__crt_stdio_output@@IAE@ABV?$string_output_adapter@_W@1@AB_KABQB_WABQAU__crt_locale_pointers@@ABQAD@Z 1001fb9c f i libucrt:output.obj
 0001:0001ebde       ??$?RV<lambda_3a2a6cca1b0f7007a3db339dcecd1562>@@AAV<lambda_e38011a3ba6e07c7dbcef4d549f26102>@@V<lambda_b2332a2b562101f3c3c34baab19e0511>@@@?$__crt_seh_guarded_call@H@@QAEH$$QAV<lambda_3a2a6cca1b0f7007a3db339dcecd1562>@@AAV<lambda_e38011a3ba6e07c7dbcef4d549f26102>@@$$QAV<lambda_b2332a2b562101f3c3c34baab19e0511>@@@Z 1001fbde f i libucrt:output.obj
 0001:0001ec43       ??$?RV<lambda_75d23329f2fb3d02b2e1cf5509bb1caf>@@AAV<lambda_c4f131f91cb4ec00a5b0a26aa161b8b4>@@V<lambda_114dc79c86b00c313cb0b6b3b001aaf8>@@@?$__crt_seh_guarded_call@H@@QAEH$$QAV<lambda_75d23329f2fb3d02b2e1cf5509bb1caf>@@AAV<lambda_c4f131f91cb4ec00a5b0a26aa161b8b4>@@$$QAV<lambda_114dc79c86b00c313cb0b6b3b001aaf8>@@@Z 1001fc43 f i libucrt:output.obj
 0001:0001eca8       ??$?RV<lambda_80d7abc6eae2375db70be92ccaaf9b57>@@AAV<lambda_df52180bf14694d51fdefd82613e8f07>@@V<lambda_4fa1155033dff2042363dba4e2dc3802>@@@?$__crt_seh_guarded_call@H@@QAEH$$QAV<lambda_80d7abc6eae2375db70be92ccaaf9b57>@@AAV<lambda_df52180bf14694d51fdefd82613e8f07>@@$$QAV<lambda_4fa1155033dff2042363dba4e2dc3802>@@@Z 1001fca8 f i libucrt:output.obj
 0001:0001ed0d       ??$?RV<lambda_b4329732a1a72698597872ef534ad66d>@@AAV<lambda_96392db5b14a27f72535a2156da24b09>@@V<lambda_0f47277b42e3e84c3311fed419af0b3c>@@@?$__crt_seh_guarded_call@H@@QAEH$$QAV<lambda_b4329732a1a72698597872ef534ad66d>@@AAV<lambda_96392db5b14a27f72535a2156da24b09>@@$$QAV<lambda_0f47277b42e3e84c3311fed419af0b3c>@@@Z 1001fd0d f i libucrt:output.obj
 0001:0001ed72       ??$?RV<lambda_b7f50223258ab9fcc98080d45d02b1a4>@@AAV<lambda_42506531d319a600ce771deb5a236a10>@@V<lambda_31f843250ba6188c6e1f35d2bec6db0e>@@@?$__crt_seh_guarded_call@H@@QAEH$$QAV<lambda_b7f50223258ab9fcc98080d45d02b1a4>@@AAV<lambda_42506531d319a600ce771deb5a236a10>@@$$QAV<lambda_31f843250ba6188c6e1f35d2bec6db0e>@@@Z 1001fd72 f i libucrt:output.obj
 0001:0001edd7       ??$?RV<lambda_cc35d49d909def412005bd38ddc96b77>@@AAV<lambda_d6a382b8dd98a6801a8abd6c28bdff2d>@@V<lambda_148068cfb9786d9714740654406e93d5>@@@?$__crt_seh_guarded_call@H@@QAEH$$QAV<lambda_cc35d49d909def412005bd38ddc96b77>@@AAV<lambda_d6a382b8dd98a6801a8abd6c28bdff2d>@@$$QAV<lambda_148068cfb9786d9714740654406e93d5>@@@Z 1001fdd7 f i libucrt:output.obj
 0001:0001ee3c       ??$__acrt_lock_stream_and_call@V<lambda_42506531d319a600ce771deb5a236a10>@@@@YAHQAU_iobuf@@$$QAV<lambda_42506531d319a600ce771deb5a236a10>@@@Z 1001fe3c f i libucrt:output.obj
 0001:0001ee6e       ??$__acrt_lock_stream_and_call@V<lambda_96392db5b14a27f72535a2156da24b09>@@@@YAHQAU_iobuf@@$$QAV<lambda_96392db5b14a27f72535a2156da24b09>@@@Z 1001fe6e f i libucrt:output.obj
 0001:0001eea0       ??$__acrt_lock_stream_and_call@V<lambda_c4f131f91cb4ec00a5b0a26aa161b8b4>@@@@YAHQAU_iobuf@@$$QAV<lambda_c4f131f91cb4ec00a5b0a26aa161b8b4>@@@Z 1001fea0 f i libucrt:output.obj
 0001:0001eed2       ??$__acrt_lock_stream_and_call@V<lambda_d6a382b8dd98a6801a8abd6c28bdff2d>@@@@YAHQAU_iobuf@@$$QAV<lambda_d6a382b8dd98a6801a8abd6c28bdff2d>@@@Z 1001fed2 f i libucrt:output.obj
 0001:0001ef04       ??$__acrt_lock_stream_and_call@V<lambda_df52180bf14694d51fdefd82613e8f07>@@@@YAHQAU_iobuf@@$$QAV<lambda_df52180bf14694d51fdefd82613e8f07>@@@Z 1001ff04 f i libucrt:output.obj
 0001:0001ef36       ??$__acrt_lock_stream_and_call@V<lambda_e38011a3ba6e07c7dbcef4d549f26102>@@@@YAHQAU_iobuf@@$$QAV<lambda_e38011a3ba6e07c7dbcef4d549f26102>@@@Z 1001ff36 f i libucrt:output.obj
 0001:0001ef68       ??$__crt_interlocked_read@J@@YAJPDJ@Z 1001ff68 f i libucrt:output.obj
 0001:000201ab       ??$count@D@formatting_buffer@__crt_stdio_output@@QBEIXZ 100211ab f i libucrt:output.obj
 0001:000201c9       ??$count@_W@formatting_buffer@__crt_stdio_output@@QBEIXZ 100211c9 f i libucrt:output.obj
 0001:000201e8       ??$data@D@formatting_buffer@__crt_stdio_output@@QAEPADXZ 100211e8 f i libucrt:output.obj
 0001:000201f8       ??$data@_W@formatting_buffer@__crt_stdio_output@@QAEPA_WXZ 100211f8 f i libucrt:output.obj
 0001:00020208       ??$ensure_buffer_is_big_enough@D@formatting_buffer@__crt_stdio_output@@QAE_NI@Z 10021208 f i libucrt:output.obj
 0001:000202af       ??$extract_argument_from_va_list@C_J@?$positional_parameter_base@DV?$stream_output_adapter@D@__crt_stdio_output@@@__crt_stdio_output@@IAE_NAA_J@Z 100212af f i libucrt:output.obj
 0001:0002034d       ??$extract_argument_from_va_list@C_J@?$positional_parameter_base@DV?$string_output_adapter@D@__crt_stdio_output@@@__crt_stdio_output@@IAE_NAA_J@Z 1002134d f i libucrt:output.obj
 0001:000203eb       ??$extract_argument_from_va_list@C_J@?$positional_parameter_base@_WV?$stream_output_adapter@_W@__crt_stdio_output@@@__crt_stdio_output@@IAE_NAA_J@Z 100213eb f i libucrt:output.obj
 0001:00020489       ??$extract_argument_from_va_list@C_J@?$positional_parameter_base@_WV?$string_output_adapter@_W@__crt_stdio_output@@@__crt_stdio_output@@IAE_NAA_J@Z 10021489 f i libucrt:output.obj
 0001:00020527       ??$extract_argument_from_va_list@C_J@?$standard_base@DV?$stream_output_adapter@D@__crt_stdio_output@@@__crt_stdio_output@@IAE_NAA_J@Z 10021527 f i libucrt:output.obj
 0001:0002054d       ??$extract_argument_from_va_list@C_J@?$standard_base@DV?$string_output_adapter@D@__crt_stdio_output@@@__crt_stdio_output@@IAE_NAA_J@Z 1002154d f i libucrt:output.obj
 0001:00020573       ??$extract_argument_from_va_list@C_J@?$standard_base@_WV?$stream_output_adapter@_W@__crt_stdio_output@@@__crt_stdio_output@@IAE_NAA_J@Z 10021573 f i libucrt:output.obj
 0001:00020599       ??$extract_argument_from_va_list@C_J@?$standard_base@_WV?$string_output_adapter@_W@__crt_stdio_output@@@__crt_stdio_output@@IAE_NAA_J@Z 10021599 f i libucrt:output.obj
 0001:000205bf       ??$extract_argument_from_va_list@E_J@?$positional_parameter_base@DV?$stream_output_adapter@D@__crt_stdio_output@@@__crt_stdio_output@@IAE_NAA_J@Z 100215bf f i libucrt:output.obj
 0001:0002065d       ??$extract_argument_from_va_list@E_J@?$positional_parameter_base@DV?$string_output_adapter@D@__crt_stdio_output@@@__crt_stdio_output@@IAE_NAA_J@Z 1002165d f i libucrt:output.obj
 0001:000206fb       ??$extract_argument_from_va_list@E_J@?$positional_parameter_base@_WV?$stream_output_adapter@_W@__crt_stdio_output@@@__crt_stdio_output@@IAE_NAA_J@Z 100216fb f i libucrt:output.obj
 0001:00020799       ??$extract_argument_from_va_list@E_J@?$positional_parameter_base@_WV?$string_output_adapter@_W@__crt_stdio_output@@@__crt_stdio_output@@IAE_NAA_J@Z 10021799 f i libucrt:output.obj
 0001:00020837       ??$extract_argument_from_va_list@E_J@?$standard_base@DV?$stream_output_adapter@D@__crt_stdio_output@@@__crt_stdio_output@@IAE_NAA_J@Z 10021837 f i libucrt:output.obj
 0001:0002085d       ??$extract_argument_from_va_list@E_J@?$standard_base@DV?$string_output_adapter@D@__crt_stdio_output@@@__crt_stdio_output@@IAE_NAA_J@Z 1002185d f i libucrt:output.obj
 0001:00020883       ??$extract_argument_from_va_list@E_J@?$standard_base@_WV?$stream_output_adapter@_W@__crt_stdio_output@@@__crt_stdio_output@@IAE_NAA_J@Z 10021883 f i libucrt:output.obj
 0001:000208a9       ??$extract_argument_from_va_list@E_J@?$standard_base@_WV?$string_output_adapter@_W@__crt_stdio_output@@@__crt_stdio_output@@IAE_NAA_J@Z 100218a9 f i libucrt:output.obj
 0001:000208cf       ??$extract_argument_from_va_list@F_J@?$positional_parameter_base@DV?$stream_output_adapter@D@__crt_stdio_output@@@__crt_stdio_output@@IAE_NAA_J@Z 100218cf f i libucrt:output.obj
 0001:0002096d       ??$extract_argument_from_va_list@F_J@?$positional_parameter_base@DV?$string_output_adapter@D@__crt_stdio_output@@@__crt_stdio_output@@IAE_NAA_J@Z 1002196d f i libucrt:output.obj
 0001:00020a0b       ??$extract_argument_from_va_list@F_J@?$positional_parameter_base@_WV?$stream_output_adapter@_W@__crt_stdio_output@@@__crt_stdio_output@@IAE_NAA_J@Z 10021a0b f i libucrt:output.obj
 0001:00020aa9       ??$extract_argument_from_va_list@F_J@?$positional_parameter_base@_WV?$string_output_adapter@_W@__crt_stdio_output@@@__crt_stdio_output@@IAE_NAA_J@Z 10021aa9 f i libucrt:output.obj
 0001:00020b47       ??$extract_argument_from_va_list@F_J@?$standard_base@DV?$stream_output_adapter@D@__crt_stdio_output@@@__crt_stdio_output@@IAE_NAA_J@Z 10021b47 f i libucrt:output.obj
 0001:00020b6d       ??$extract_argument_from_va_list@F_J@?$standard_base@DV?$string_output_adapter@D@__crt_stdio_output@@@__crt_stdio_output@@IAE_NAA_J@Z 10021b6d f i libucrt:output.obj
 0001:00020b93       ??$extract_argument_from_va_list@F_J@?$standard_base@_WV?$stream_output_adapter@_W@__crt_stdio_output@@@__crt_stdio_output@@IAE_NAA_J@Z 10021b93 f i libucrt:output.obj
 0001:00020bb9       ??$extract_argument_from_va_list@F_J@?$standard_base@_WV?$string_output_adapter@_W@__crt_stdio_output@@@__crt_stdio_output@@IAE_NAA_J@Z 10021bb9 f i libucrt:output.obj
 0001:00020bdf       ??$extract_argument_from_va_list@GD@?$positional_parameter_base@DV?$stream_output_adapter@D@__crt_stdio_output@@@__crt_stdio_output@@IAE_NAAD@Z 10021bdf f i libucrt:output.obj
 0001:00020c7c       ??$extract_argument_from_va_list@GD@?$positional_parameter_base@DV?$string_output_adapter@D@__crt_stdio_output@@@__crt_stdio_output@@IAE_NAAD@Z 10021c7c f i libucrt:output.obj
 0001:00020d19       ??$extract_argument_from_va_list@GD@?$standard_base@DV?$stream_output_adapter@D@__crt_stdio_output@@@__crt_stdio_output@@IAE_NAAD@Z 10021d19 f i libucrt:output.obj
 0001:00020d39       ??$extract_argument_from_va_list@GD@?$standard_base@DV?$string_output_adapter@D@__crt_stdio_output@@@__crt_stdio_output@@IAE_NAAD@Z 10021d39 f i libucrt:output.obj
 0001:00020d59       ??$extract_argument_from_va_list@G_J@?$positional_parameter_base@DV?$stream_output_adapter@D@__crt_stdio_output@@@__crt_stdio_output@@IAE_NAA_J@Z 10021d59 f i libucrt:output.obj
 0001:00020df7       ??$extract_argument_from_va_list@G_J@?$positional_parameter_base@DV?$string_output_adapter@D@__crt_stdio_output@@@__crt_stdio_output@@IAE_NAA_J@Z 10021df7 f i libucrt:output.obj
 0001:00020e95       ??$extract_argument_from_va_list@G_J@?$positional_parameter_base@_WV?$stream_output_adapter@_W@__crt_stdio_output@@@__crt_stdio_output@@IAE_NAA_J@Z 10021e95 f i libucrt:output.obj
 0001:00020f33       ??$extract_argument_from_va_list@G_J@?$positional_parameter_base@_WV?$string_output_adapter@_W@__crt_stdio_output@@@__crt_stdio_output@@IAE_NAA_J@Z 10021f33 f i libucrt:output.obj
 0001:00020fd1       ??$extract_argument_from_va_list@G_J@?$standard_base@DV?$stream_output_adapter@D@__crt_stdio_output@@@__crt_stdio_output@@IAE_NAA_J@Z 10021fd1 f i libucrt:output.obj
 0001:00020ff7       ??$extract_argument_from_va_list@G_J@?$standard_base@DV?$string_output_adapter@D@__crt_stdio_output@@@__crt_stdio_output@@IAE_NAA_J@Z 10021ff7 f i libucrt:output.obj
 0001:0002101d       ??$extract_argument_from_va_list@G_J@?$standard_base@_WV?$stream_output_adapter@_W@__crt_stdio_output@@@__crt_stdio_output@@IAE_NAA_J@Z 1002201d f i libucrt:output.obj
 0001:00021043       ??$extract_argument_from_va_list@G_J@?$standard_base@_WV?$string_output_adapter@_W@__crt_stdio_output@@@__crt_stdio_output@@IAE_NAA_J@Z 10022043 f i libucrt:output.obj
 0001:00021069       ??$extract_argument_from_va_list@H_J@?$positional_parameter_base@DV?$stream_output_adapter@D@__crt_stdio_output@@@__crt_stdio_output@@IAE_NAA_J@Z 10022069 f i libucrt:output.obj
 0001:00021105       ??$extract_argument_from_va_list@H_J@?$positional_parameter_base@DV?$string_output_adapter@D@__crt_stdio_output@@@__crt_stdio_output@@IAE_NAA_J@Z 10022105 f i libucrt:output.obj
 0001:000211a1       ??$extract_argument_from_va_list@H_J@?$positional_parameter_base@_WV?$stream_output_adapter@_W@__crt_stdio_output@@@__crt_stdio_output@@IAE_NAA_J@Z 100221a1 f i libucrt:output.obj
 0001:0002123d       ??$extract_argument_from_va_list@H_J@?$positional_parameter_base@_WV?$string_output_adapter@_W@__crt_stdio_output@@@__crt_stdio_output@@IAE_NAA_J@Z 1002223d f i libucrt:output.obj
 0001:000212d9       ??$extract_argument_from_va_list@H_J@?$standard_base@DV?$stream_output_adapter@D@__crt_stdio_output@@@__crt_stdio_output@@IAE_NAA_J@Z 100222d9 f i libucrt:output.obj
 0001:000212fe       ??$extract_argument_from_va_list@H_J@?$standard_base@DV?$string_output_adapter@D@__crt_stdio_output@@@__crt_stdio_output@@IAE_NAA_J@Z 100222fe f i libucrt:output.obj
 0001:00021323       ??$extract_argument_from_va_list@H_J@?$standard_base@_WV?$stream_output_adapter@_W@__crt_stdio_output@@@__crt_stdio_output@@IAE_NAA_J@Z 10022323 f i libucrt:output.obj
 0001:00021348       ??$extract_argument_from_va_list@H_J@?$standard_base@_WV?$string_output_adapter@_W@__crt_stdio_output@@@__crt_stdio_output@@IAE_NAA_J@Z 10022348 f i libucrt:output.obj
 0001:0002136d       ??$extract_argument_from_va_list@I_J@?$positional_parameter_base@DV?$stream_output_adapter@D@__crt_stdio_output@@@__crt_stdio_output@@IAE_NAA_J@Z 1002236d f i libucrt:output.obj
 0001:00021414       ??$extract_argument_from_va_list@I_J@?$positional_parameter_base@DV?$string_output_adapter@D@__crt_stdio_output@@@__crt_stdio_output@@IAE_NAA_J@Z 10022414 f i libucrt:output.obj
 0001:000214bb       ??$extract_argument_from_va_list@I_J@?$positional_parameter_base@_WV?$stream_output_adapter@_W@__crt_stdio_output@@@__crt_stdio_output@@IAE_NAA_J@Z 100224bb f i libucrt:output.obj
 0001:00021562       ??$extract_argument_from_va_list@I_J@?$positional_parameter_base@_WV?$string_output_adapter@_W@__crt_stdio_output@@@__crt_stdio_output@@IAE_NAA_J@Z 10022562 f i libucrt:output.obj
 0001:00021609       ??$extract_argument_from_va_list@I_J@?$standard_base@DV?$stream_output_adapter@D@__crt_stdio_output@@@__crt_stdio_output@@IAE_NAA_J@Z 10022609 f i libucrt:output.obj
 0001:0002162e       ??$extract_argument_from_va_list@I_J@?$standard_base@DV?$string_output_adapter@D@__crt_stdio_output@@@__crt_stdio_output@@IAE_NAA_J@Z 1002262e f i libucrt:output.obj
 0001:00021653       ??$extract_argument_from_va_list@I_J@?$standard_base@_WV?$stream_output_adapter@_W@__crt_stdio_output@@@__crt_stdio_output@@IAE_NAA_J@Z 10022653 f i libucrt:output.obj
 0001:00021678       ??$extract_argument_from_va_list@I_J@?$standard_base@_WV?$string_output_adapter@_W@__crt_stdio_output@@@__crt_stdio_output@@IAE_NAA_J@Z 10022678 f i libucrt:output.obj
 0001:0002169d       ??$extract_argument_from_va_list@PADPAD@?$positional_parameter_base@DV?$stream_output_adapter@D@__crt_stdio_output@@@__crt_stdio_output@@IAE_NAAPAD@Z 1002269d f i libucrt:output.obj
 0001:0002173a       ??$extract_argument_from_va_list@PADPAD@?$positional_parameter_base@DV?$string_output_adapter@D@__crt_stdio_output@@@__crt_stdio_output@@IAE_NAAPAD@Z 1002273a f i libucrt:output.obj
 0001:000217d7       ??$extract_argument_from_va_list@PADPAD@?$positional_parameter_base@_WV?$stream_output_adapter@_W@__crt_stdio_output@@@__crt_stdio_output@@IAE_NAAPAD@Z 100227d7 f i libucrt:output.obj
 0001:00021874       ??$extract_argument_from_va_list@PADPAD@?$positional_parameter_base@_WV?$string_output_adapter@_W@__crt_stdio_output@@@__crt_stdio_output@@IAE_NAAPAD@Z 10022874 f i libucrt:output.obj
 0001:00021911       ??$extract_argument_from_va_list@PADPAD@?$standard_base@DV?$stream_output_adapter@D@__crt_stdio_output@@@__crt_stdio_output@@IAE_NAAPAD@Z 10022911 f i libucrt:output.obj
 0001:00021931       ??$extract_argument_from_va_list@PADPAD@?$standard_base@DV?$string_output_adapter@D@__crt_stdio_output@@@__crt_stdio_output@@IAE_NAAPAD@Z 10022931 f i libucrt:output.obj
 0001:00021951       ??$extract_argument_from_va_list@PADPAD@?$standard_base@_WV?$stream_output_adapter@_W@__crt_stdio_output@@@__crt_stdio_output@@IAE_NAAPAD@Z 10022951 f i libucrt:output.obj
 0001:00021971       ??$extract_argument_from_va_list@PADPAD@?$standard_base@_WV?$string_output_adapter@_W@__crt_stdio_output@@@__crt_stdio_output@@IAE_NAAPAD@Z 10022971 f i libucrt:output.obj
 0001:00021991       ??$extract_argument_from_va_list@PAUansi_string@?1??type_case_Z@?$output_processor@DV?$stream_output_adapter@D@__crt_stdio_output@@V?$format_validation_base@DV?$stream_output_adapter@D@__crt_stdio_output@@@2@@__crt_stdio_output@@AAE_NXZ@PAU1?1??234@AAE_NXZ@@?$standard_base@DV?$stream_output_adapter@D@__crt_stdio_output@@@__crt_stdio_output@@IAE_NAAPAUansi_string@?1??type_case_Z@?$output_processor@DV?$stream_output_adapter@D@__crt_stdio_output@@V?$format_validation_base@DV?$stream_output_adapter@D@__crt_stdio_output@@@2@@1@AAE_NXZ@@Z 10022991 f i libucrt:output.obj
 0001:000219b1       ??$extract_argument_from_va_list@PAUansi_string@?1??type_case_Z@?$output_processor@DV?$stream_output_adapter@D@__crt_stdio_output@@V?$positional_parameter_base@DV?$stream_output_adapter@D@__crt_stdio_output@@@2@@__crt_stdio_output@@AAE_NXZ@PAU1?1??234@AAE_NXZ@@?$positional_parameter_base@DV?$stream_output_adapter@D@__crt_stdio_output@@@__crt_stdio_output@@IAE_NAAPAUansi_string@?1??type_case_Z@?$output_processor@DV?$stream_output_adapter@D@__crt_stdio_output@@V?$positional_parameter_base@DV?$stream_output_adapter@D@__crt_stdio_output@@@2@@1@AAE_NXZ@@Z 100229b1 f i libucrt:output.obj
 0001:00021a4e       ??$extract_argument_from_va_list@PAUansi_string@?1??type_case_Z@?$output_processor@DV?$stream_output_adapter@D@__crt_stdio_output@@V?$positional_parameter_base@DV?$stream_output_adapter@D@__crt_stdio_output@@@2@@__crt_stdio_output@@AAE_NXZ@PAU1?1??234@AAE_NXZ@@?$standard_base@DV?$stream_output_adapter@D@__crt_stdio_output@@@__crt_stdio_output@@IAE_NAAPAUansi_string@?1??type_case_Z@?$output_processor@DV?$stream_output_adapter@D@__crt_stdio_output@@V?$positional_parameter_base@DV?$stream_output_adapter@D@__crt_stdio_output@@@2@@1@AAE_NXZ@@Z 10022a4e f i libucrt:output.obj
 0001:00021a6e       ??$extract_argument_from_va_list@PAUansi_string@?1??type_case_Z@?$output_processor@DV?$stream_output_adapter@D@__crt_stdio_output@@V?$standard_base@DV?$stream_output_adapter@D@__crt_stdio_output@@@2@@__crt_stdio_output@@AAE_NXZ@PAU1?1??234@AAE_NXZ@@?$standard_base@DV?$stream_output_adapter@D@__crt_stdio_output@@@__crt_stdio_output@@IAE_NAAPAUansi_string@?1??type_case_Z@?$output_processor@DV?$stream_output_adapter@D@__crt_stdio_output@@V?$standard_base@DV?$stream_output_adapter@D@__crt_stdio_output@@@2@@1@AAE_NXZ@@Z 10022a6e f i libucrt:output.obj
 0001:00021a8e       ??$extract_argument_from_va_list@PAUansi_string@?1??type_case_Z@?$output_processor@DV?$string_output_adapter@D@__crt_stdio_output@@V?$format_validation_base@DV?$string_output_adapter@D@__crt_stdio_output@@@2@@__crt_stdio_output@@AAE_NXZ@PAU1?1??234@AAE_NXZ@@?$standard_base@DV?$string_output_adapter@D@__crt_stdio_output@@@__crt_stdio_output@@IAE_NAAPAUansi_string@?1??type_case_Z@?$output_processor@DV?$string_output_adapter@D@__crt_stdio_output@@V?$format_validation_base@DV?$string_output_adapter@D@__crt_stdio_output@@@2@@1@AAE_NXZ@@Z 10022a8e f i libucrt:output.obj
 0001:00021aae       ??$extract_argument_from_va_list@PAUansi_string@?1??type_case_Z@?$output_processor@DV?$string_output_adapter@D@__crt_stdio_output@@V?$positional_parameter_base@DV?$string_output_adapter@D@__crt_stdio_output@@@2@@__crt_stdio_output@@AAE_NXZ@PAU1?1??234@AAE_NXZ@@?$positional_parameter_base@DV?$string_output_adapter@D@__crt_stdio_output@@@__crt_stdio_output@@IAE_NAAPAUansi_string@?1??type_case_Z@?$output_processor@DV?$string_output_adapter@D@__crt_stdio_output@@V?$positional_parameter_base@DV?$string_output_adapter@D@__crt_stdio_output@@@2@@1@AAE_NXZ@@Z 10022aae f i libucrt:output.obj
 0001:00021b4b       ??$extract_argument_from_va_list@PAUansi_string@?1??type_case_Z@?$output_processor@DV?$string_output_adapter@D@__crt_stdio_output@@V?$positional_parameter_base@DV?$string_output_adapter@D@__crt_stdio_output@@@2@@__crt_stdio_output@@AAE_NXZ@PAU1?1??234@AAE_NXZ@@?$standard_base@DV?$string_output_adapter@D@__crt_stdio_output@@@__crt_stdio_output@@IAE_NAAPAUansi_string@?1??type_case_Z@?$output_processor@DV?$string_output_adapter@D@__crt_stdio_output@@V?$positional_parameter_base@DV?$string_output_adapter@D@__crt_stdio_output@@@2@@1@AAE_NXZ@@Z 10022b4b f i libucrt:output.obj
 0001:00021b6b       ??$extract_argument_from_va_list@PAUansi_string@?1??type_case_Z@?$output_processor@DV?$string_output_adapter@D@__crt_stdio_output@@V?$standard_base@DV?$string_output_adapter@D@__crt_stdio_output@@@2@@__crt_stdio_output@@AAE_NXZ@PAU1?1??234@AAE_NXZ@@?$standard_base@DV?$string_output_adapter@D@__crt_stdio_output@@@__crt_stdio_output@@IAE_NAAPAUansi_string@?1??type_case_Z@?$output_processor@DV?$string_output_adapter@D@__crt_stdio_output@@V?$standard_base@DV?$string_output_adapter@D@__crt_stdio_output@@@2@@1@AAE_NXZ@@Z 10022b6b f i libucrt:output.obj
 0001:00021b8b       ??$extract_argument_from_va_list@PAUansi_string@?1??type_case_Z@?$output_processor@_WV?$stream_output_adapter@_W@__crt_stdio_output@@V?$format_validation_base@_WV?$stream_output_adapter@_W@__crt_stdio_output@@@2@@__crt_stdio_output@@AAE_NXZ@PAU1?1??234@AAE_NXZ@@?$standard_base@_WV?$stream_output_adapter@_W@__crt_stdio_output@@@__crt_stdio_output@@IAE_NAAPAUansi_string@?1??type_case_Z@?$output_processor@_WV?$stream_output_adapter@_W@__crt_stdio_output@@V?$format_validation_base@_WV?$stream_output_adapter@_W@__crt_stdio_output@@@2@@1@AAE_NXZ@@Z 10022b8b f i libucrt:output.obj
 0001:00021bab       ??$extract_argument_from_va_list@PAUansi_string@?1??type_case_Z@?$output_processor@_WV?$stream_output_adapter@_W@__crt_stdio_output@@V?$positional_parameter_base@_WV?$stream_output_adapter@_W@__crt_stdio_output@@@2@@__crt_stdio_output@@AAE_NXZ@PAU1?1??234@AAE_NXZ@@?$positional_parameter_base@_WV?$stream_output_adapter@_W@__crt_stdio_output@@@__crt_stdio_output@@IAE_NAAPAUansi_string@?1??type_case_Z@?$output_processor@_WV?$stream_output_adapter@_W@__crt_stdio_output@@V?$positional_parameter_base@_WV?$stream_output_adapter@_W@__crt_stdio_output@@@2@@1@AAE_NXZ@@Z 10022bab f i libucrt:output.obj
 0001:00021c48       ??$extract_argument_from_va_list@PAUansi_string@?1??type_case_Z@?$output_processor@_WV?$stream_output_adapter@_W@__crt_stdio_output@@V?$positional_parameter_base@_WV?$stream_output_adapter@_W@__crt_stdio_output@@@2@@__crt_stdio_output@@AAE_NXZ@PAU1?1??234@AAE_NXZ@@?$standard_base@_WV?$stream_output_adapter@_W@__crt_stdio_output@@@__crt_stdio_output@@IAE_NAAPAUansi_string@?1??type_case_Z@?$output_processor@_WV?$stream_output_adapter@_W@__crt_stdio_output@@V?$positional_parameter_base@_WV?$stream_output_adapter@_W@__crt_stdio_output@@@2@@1@AAE_NXZ@@Z 10022c48 f i libucrt:output.obj
 0001:00021c68       ??$extract_argument_from_va_list@PAUansi_string@?1??type_case_Z@?$output_processor@_WV?$stream_output_adapter@_W@__crt_stdio_output@@V?$standard_base@_WV?$stream_output_adapter@_W@__crt_stdio_output@@@2@@__crt_stdio_output@@AAE_NXZ@PAU1?1??234@AAE_NXZ@@?$standard_base@_WV?$stream_output_adapter@_W@__crt_stdio_output@@@__crt_stdio_output@@IAE_NAAPAUansi_string@?1??type_case_Z@?$output_processor@_WV?$stream_output_adapter@_W@__crt_stdio_output@@V?$standard_base@_WV?$stream_output_adapter@_W@__crt_stdio_output@@@2@@1@AAE_NXZ@@Z 10022c68 f i libucrt:output.obj
 0001:00021c88       ??$extract_argument_from_va_list@PAUansi_string@?1??type_case_Z@?$output_processor@_WV?$string_output_adapter@_W@__crt_stdio_output@@V?$format_validation_base@_WV?$string_output_adapter@_W@__crt_stdio_output@@@2@@__crt_stdio_output@@AAE_NXZ@PAU1?1??234@AAE_NXZ@@?$standard_base@_WV?$string_output_adapter@_W@__crt_stdio_output@@@__crt_stdio_output@@IAE_NAAPAUansi_string@?1??type_case_Z@?$output_processor@_WV?$string_output_adapter@_W@__crt_stdio_output@@V?$format_validation_base@_WV?$string_output_adapter@_W@__crt_stdio_output@@@2@@1@AAE_NXZ@@Z 10022c88 f i libucrt:output.obj
 0001:00021ca8       ??$extract_argument_from_va_list@PAUansi_string@?1??type_case_Z@?$output_processor@_WV?$string_output_adapter@_W@__crt_stdio_output@@V?$positional_parameter_base@_WV?$string_output_adapter@_W@__crt_stdio_output@@@2@@__crt_stdio_output@@AAE_NXZ@PAU1?1??234@AAE_NXZ@@?$positional_parameter_base@_WV?$string_output_adapter@_W@__crt_stdio_output@@@__crt_stdio_output@@IAE_NAAPAUansi_string@?1??type_case_Z@?$output_processor@_WV?$string_output_adapter@_W@__crt_stdio_output@@V?$positional_parameter_base@_WV?$string_output_adapter@_W@__crt_stdio_output@@@2@@1@AAE_NXZ@@Z 10022ca8 f i libucrt:output.obj
 0001:00021d45       ??$extract_argument_from_va_list@PAUansi_string@?1??type_case_Z@?$output_processor@_WV?$string_output_adapter@_W@__crt_stdio_output@@V?$positional_parameter_base@_WV?$string_output_adapter@_W@__crt_stdio_output@@@2@@__crt_stdio_output@@AAE_NXZ@PAU1?1??234@AAE_NXZ@@?$standard_base@_WV?$string_output_adapter@_W@__crt_stdio_output@@@__crt_stdio_output@@IAE_NAAPAUansi_string@?1??type_case_Z@?$output_processor@_WV?$string_output_adapter@_W@__crt_stdio_output@@V?$positional_parameter_base@_WV?$string_output_adapter@_W@__crt_stdio_output@@@2@@1@AAE_NXZ@@Z 10022d45 f i libucrt:output.obj
 0001:00021d65       ??$extract_argument_from_va_list@PAUansi_string@?1??type_case_Z@?$output_processor@_WV?$string_output_adapter@_W@__crt_stdio_output@@V?$standard_base@_WV?$string_output_adapter@_W@__crt_stdio_output@@@2@@__crt_stdio_output@@AAE_NXZ@PAU1?1??234@AAE_NXZ@@?$standard_base@_WV?$string_output_adapter@_W@__crt_stdio_output@@@__crt_stdio_output@@IAE_NAAPAUansi_string@?1??type_case_Z@?$output_processor@_WV?$string_output_adapter@_W@__crt_stdio_output@@V?$standard_base@_WV?$string_output_adapter@_W@__crt_stdio_output@@@2@@1@AAE_NXZ@@Z 10022d65 f i libucrt:output.obj
 0001:00021d85       ??$extract_argument_from_va_list@PAXPAX@?$positional_parameter_base@DV?$stream_output_adapter@D@__crt_stdio_output@@@__crt_stdio_output@@IAE_NAAPAX@Z 10022d85 f i libucrt:output.obj
 0001:00021e22       ??$extract_argument_from_va_list@PAXPAX@?$positional_parameter_base@DV?$string_output_adapter@D@__crt_stdio_output@@@__crt_stdio_output@@IAE_NAAPAX@Z 10022e22 f i libucrt:output.obj
 0001:00021ebf       ??$extract_argument_from_va_list@PAXPAX@?$positional_parameter_base@_WV?$stream_output_adapter@_W@__crt_stdio_output@@@__crt_stdio_output@@IAE_NAAPAX@Z 10022ebf f i libucrt:output.obj
 0001:00021f5c       ??$extract_argument_from_va_list@PAXPAX@?$positional_parameter_base@_WV?$string_output_adapter@_W@__crt_stdio_output@@@__crt_stdio_output@@IAE_NAAPAX@Z 10022f5c f i libucrt:output.obj
 0001:00021ff9       ??$extract_argument_from_va_list@PAXPAX@?$standard_base@DV?$stream_output_adapter@D@__crt_stdio_output@@@__crt_stdio_output@@IAE_NAAPAX@Z 10022ff9 f i libucrt:output.obj
 0001:00022019       ??$extract_argument_from_va_list@PAXPAX@?$standard_base@DV?$string_output_adapter@D@__crt_stdio_output@@@__crt_stdio_output@@IAE_NAAPAX@Z 10023019 f i libucrt:output.obj
 0001:00022039       ??$extract_argument_from_va_list@PAXPAX@?$standard_base@_WV?$stream_output_adapter@_W@__crt_stdio_output@@@__crt_stdio_output@@IAE_NAAPAX@Z 10023039 f i libucrt:output.obj
 0001:00022059       ??$extract_argument_from_va_list@PAXPAX@?$standard_base@_WV?$string_output_adapter@_W@__crt_stdio_output@@@__crt_stdio_output@@IAE_NAAPAX@Z 10023059 f i libucrt:output.obj
 0001:00022079       ??$extract_argument_from_va_list@U_CRT_DOUBLE@@U1@@?$positional_parameter_base@DV?$stream_output_adapter@D@__crt_stdio_output@@@__crt_stdio_output@@IAE_NAAU_CRT_DOUBLE@@@Z 10023079 f i libucrt:output.obj
 0001:0002212a       ??$extract_argument_from_va_list@U_CRT_DOUBLE@@U1@@?$positional_parameter_base@DV?$string_output_adapter@D@__crt_stdio_output@@@__crt_stdio_output@@IAE_NAAU_CRT_DOUBLE@@@Z 1002312a f i libucrt:output.obj
 0001:000221db       ??$extract_argument_from_va_list@U_CRT_DOUBLE@@U1@@?$positional_parameter_base@_WV?$stream_output_adapter@_W@__crt_stdio_output@@@__crt_stdio_output@@IAE_NAAU_CRT_DOUBLE@@@Z 100231db f i libucrt:output.obj
 0001:0002228c       ??$extract_argument_from_va_list@U_CRT_DOUBLE@@U1@@?$positional_parameter_base@_WV?$string_output_adapter@_W@__crt_stdio_output@@@__crt_stdio_output@@IAE_NAAU_CRT_DOUBLE@@@Z 1002328c f i libucrt:output.obj
 0001:0002233d       ??$extract_argument_from_va_list@U_CRT_DOUBLE@@U1@@?$standard_base@DV?$stream_output_adapter@D@__crt_stdio_output@@@__crt_stdio_output@@IAE_NAAU_CRT_DOUBLE@@@Z 1002333d f i libucrt:output.obj
 0001:00022365       ??$extract_argument_from_va_list@U_CRT_DOUBLE@@U1@@?$standard_base@DV?$string_output_adapter@D@__crt_stdio_output@@@__crt_stdio_output@@IAE_NAAU_CRT_DOUBLE@@@Z 10023365 f i libucrt:output.obj
 0001:0002238d       ??$extract_argument_from_va_list@U_CRT_DOUBLE@@U1@@?$standard_base@_WV?$stream_output_adapter@_W@__crt_stdio_output@@@__crt_stdio_output@@IAE_NAAU_CRT_DOUBLE@@@Z 1002338d f i libucrt:output.obj
 0001:000223b5       ??$extract_argument_from_va_list@U_CRT_DOUBLE@@U1@@?$standard_base@_WV?$string_output_adapter@_W@__crt_stdio_output@@@__crt_stdio_output@@IAE_NAAU_CRT_DOUBLE@@@Z 100233b5 f i libucrt:output.obj
 0001:000223dd       ??$extract_argument_from_va_list@_J_J@?$positional_parameter_base@DV?$stream_output_adapter@D@__crt_stdio_output@@@__crt_stdio_output@@IAE_NAA_J@Z 100233dd f i libucrt:output.obj
 0001:0002248e       ??$extract_argument_from_va_list@_J_J@?$positional_parameter_base@DV?$string_output_adapter@D@__crt_stdio_output@@@__crt_stdio_output@@IAE_NAA_J@Z 1002348e f i libucrt:output.obj
 0001:0002253f       ??$extract_argument_from_va_list@_J_J@?$positional_parameter_base@_WV?$stream_output_adapter@_W@__crt_stdio_output@@@__crt_stdio_output@@IAE_NAA_J@Z 1002353f f i libucrt:output.obj
 0001:000225f0       ??$extract_argument_from_va_list@_J_J@?$positional_parameter_base@_WV?$string_output_adapter@_W@__crt_stdio_output@@@__crt_stdio_output@@IAE_NAA_J@Z 100235f0 f i libucrt:output.obj
 0001:000226a1       ??$extract_argument_from_va_list@_J_J@?$standard_base@DV?$stream_output_adapter@D@__crt_stdio_output@@@__crt_stdio_output@@IAE_NAA_J@Z 100236a1 f i libucrt:output.obj
 0001:000226c9       ??$extract_argument_from_va_list@_J_J@?$standard_base@DV?$string_output_adapter@D@__crt_stdio_output@@@__crt_stdio_output@@IAE_NAA_J@Z 100236c9 f i libucrt:output.obj
 0001:000226f1       ??$extract_argument_from_va_list@_J_J@?$standard_base@_WV?$stream_output_adapter@_W@__crt_stdio_output@@@__crt_stdio_output@@IAE_NAA_J@Z 100236f1 f i libucrt:output.obj
 0001:00022719       ??$extract_argument_from_va_list@_J_J@?$standard_base@_WV?$string_output_adapter@_W@__crt_stdio_output@@@__crt_stdio_output@@IAE_NAA_J@Z 10023719 f i libucrt:output.obj
 0001:00022741       ??$extract_argument_from_va_list@_K_J@?$positional_parameter_base@DV?$stream_output_adapter@D@__crt_stdio_output@@@__crt_stdio_output@@IAE_NAA_J@Z 10023741 f i libucrt:output.obj
 0001:000227f2       ??$extract_argument_from_va_list@_K_J@?$positional_parameter_base@DV?$string_output_adapter@D@__crt_stdio_output@@@__crt_stdio_output@@IAE_NAA_J@Z 100237f2 f i libucrt:output.obj
 0001:000228a3       ??$extract_argument_from_va_list@_K_J@?$positional_parameter_base@_WV?$stream_output_adapter@_W@__crt_stdio_output@@@__crt_stdio_output@@IAE_NAA_J@Z 100238a3 f i libucrt:output.obj
 0001:00022954       ??$extract_argument_from_va_list@_K_J@?$positional_parameter_base@_WV?$string_output_adapter@_W@__crt_stdio_output@@@__crt_stdio_output@@IAE_NAA_J@Z 10023954 f i libucrt:output.obj
 0001:00022a05       ??$extract_argument_from_va_list@_K_J@?$standard_base@DV?$stream_output_adapter@D@__crt_stdio_output@@@__crt_stdio_output@@IAE_NAA_J@Z 10023a05 f i libucrt:output.obj
 0001:00022a2d       ??$extract_argument_from_va_list@_K_J@?$standard_base@DV?$string_output_adapter@D@__crt_stdio_output@@@__crt_stdio_output@@IAE_NAA_J@Z 10023a2d f i libucrt:output.obj
 0001:00022a55       ??$extract_argument_from_va_list@_K_J@?$standard_base@_WV?$stream_output_adapter@_W@__crt_stdio_output@@@__crt_stdio_output@@IAE_NAA_J@Z 10023a55 f i libucrt:output.obj
 0001:00022a7d       ??$extract_argument_from_va_list@_K_J@?$standard_base@_WV?$string_output_adapter@_W@__crt_stdio_output@@@__crt_stdio_output@@IAE_NAA_J@Z 10023a7d f i libucrt:output.obj
 0001:00022aa5       ??$extract_argument_from_va_list@_W_W@?$positional_parameter_base@DV?$stream_output_adapter@D@__crt_stdio_output@@@__crt_stdio_output@@IAE_NAA_W@Z 10023aa5 f i libucrt:output.obj
 0001:00022b47       ??$extract_argument_from_va_list@_W_W@?$positional_parameter_base@DV?$string_output_adapter@D@__crt_stdio_output@@@__crt_stdio_output@@IAE_NAA_W@Z 10023b47 f i libucrt:output.obj
 0001:00022be9       ??$extract_argument_from_va_list@_W_W@?$positional_parameter_base@_WV?$stream_output_adapter@_W@__crt_stdio_output@@@__crt_stdio_output@@IAE_NAA_W@Z 10023be9 f i libucrt:output.obj
 0001:00022c8b       ??$extract_argument_from_va_list@_W_W@?$positional_parameter_base@_WV?$string_output_adapter@_W@__crt_stdio_output@@@__crt_stdio_output@@IAE_NAA_W@Z 10023c8b f i libucrt:output.obj
 0001:00022d2d       ??$extract_argument_from_va_list@_W_W@?$standard_base@DV?$stream_output_adapter@D@__crt_stdio_output@@@__crt_stdio_output@@IAE_NAA_W@Z 10023d2d f i libucrt:output.obj
 0001:00022d50       ??$extract_argument_from_va_list@_W_W@?$standard_base@DV?$string_output_adapter@D@__crt_stdio_output@@@__crt_stdio_output@@IAE_NAA_W@Z 10023d50 f i libucrt:output.obj
 0001:00022d73       ??$extract_argument_from_va_list@_W_W@?$standard_base@_WV?$stream_output_adapter@_W@__crt_stdio_output@@@__crt_stdio_output@@IAE_NAA_W@Z 10023d73 f i libucrt:output.obj
 0001:00022d96       ??$extract_argument_from_va_list@_W_W@?$standard_base@_WV?$string_output_adapter@_W@__crt_stdio_output@@@__crt_stdio_output@@IAE_NAA_W@Z 10023d96 f i libucrt:output.obj
 0001:00022db9       ??$get_parameter_type@D@?$positional_parameter_base@DV?$stream_output_adapter@D@__crt_stdio_output@@@__crt_stdio_output@@CA?AW4parameter_type@01@PAD@Z 10023db9 f i libucrt:output.obj
 0001:00022dbd       ??$get_parameter_type@D@?$positional_parameter_base@DV?$string_output_adapter@D@__crt_stdio_output@@@__crt_stdio_output@@CA?AW4parameter_type@01@PAD@Z 10023dbd f i libucrt:output.obj
 0001:00022dc1       ??$get_parameter_type@D@?$positional_parameter_base@_WV?$stream_output_adapter@_W@__crt_stdio_output@@@__crt_stdio_output@@CA?AW4parameter_type@01@PAD@Z 10023dc1 f i libucrt:output.obj
 0001:00022dc5       ??$get_parameter_type@D@?$positional_parameter_base@_WV?$string_output_adapter@_W@__crt_stdio_output@@@__crt_stdio_output@@CA?AW4parameter_type@01@PAD@Z 10023dc5 f i libucrt:output.obj
 0001:00022dc9       ??$get_parameter_type@Uansi_string@?1??type_case_Z@?$output_processor@DV?$stream_output_adapter@D@__crt_stdio_output@@V?$positional_parameter_base@DV?$stream_output_adapter@D@__crt_stdio_output@@@2@@__crt_stdio_output@@AAE_NXZ@@?$positional_parameter_base@DV?$stream_output_adapter@D@__crt_stdio_output@@@__crt_stdio_output@@CA?AW4parameter_type@01@PAUansi_string@?1??type_case_Z@?$output_processor@DV?$stream_output_adapter@D@__crt_stdio_output@@V?$positional_parameter_base@DV?$stream_output_adapter@D@__crt_stdio_output@@@2@@1@AAE_NXZ@@Z 10023dc9 f i libucrt:output.obj
 0001:00022dcd       ??$get_parameter_type@Uansi_string@?1??type_case_Z@?$output_processor@DV?$string_output_adapter@D@__crt_stdio_output@@V?$positional_parameter_base@DV?$string_output_adapter@D@__crt_stdio_output@@@2@@__crt_stdio_output@@AAE_NXZ@@?$positional_parameter_base@DV?$string_output_adapter@D@__crt_stdio_output@@@__crt_stdio_output@@CA?AW4parameter_type@01@PAUansi_string@?1??type_case_Z@?$output_processor@DV?$string_output_adapter@D@__crt_stdio_output@@V?$positional_parameter_base@DV?$string_output_adapter@D@__crt_stdio_output@@@2@@1@AAE_NXZ@@Z 10023dcd f i libucrt:output.obj
 0001:00022dd1       ??$get_parameter_type@Uansi_string@?1??type_case_Z@?$output_processor@_WV?$stream_output_adapter@_W@__crt_stdio_output@@V?$positional_parameter_base@_WV?$stream_output_adapter@_W@__crt_stdio_output@@@2@@__crt_stdio_output@@AAE_NXZ@@?$positional_parameter_base@_WV?$stream_output_adapter@_W@__crt_stdio_output@@@__crt_stdio_output@@CA?AW4parameter_type@01@PAUansi_string@?1??type_case_Z@?$output_processor@_WV?$stream_output_adapter@_W@__crt_stdio_output@@V?$positional_parameter_base@_WV?$stream_output_adapter@_W@__crt_stdio_output@@@2@@1@AAE_NXZ@@Z 10023dd1 f i libucrt:output.obj
 0001:00022dd5       ??$get_parameter_type@Uansi_string@?1??type_case_Z@?$output_processor@_WV?$string_output_adapter@_W@__crt_stdio_output@@V?$positional_parameter_base@_WV?$string_output_adapter@_W@__crt_stdio_output@@@2@@__crt_stdio_output@@AAE_NXZ@@?$positional_parameter_base@_WV?$string_output_adapter@_W@__crt_stdio_output@@@__crt_stdio_output@@CA?AW4parameter_type@01@PAUansi_string@?1??type_case_Z@?$output_processor@_WV?$string_output_adapter@_W@__crt_stdio_output@@V?$positional_parameter_base@_WV?$string_output_adapter@_W@__crt_stdio_output@@@2@@1@AAE_NXZ@@Z 10023dd5 f i libucrt:output.obj
 0001:00022dd9       ??$get_parameter_type@X@?$positional_parameter_base@DV?$stream_output_adapter@D@__crt_stdio_output@@@__crt_stdio_output@@CA?AW4parameter_type@01@PAX@Z 10023dd9 f i libucrt:output.obj
 0001:00022ddd       ??$get_parameter_type@X@?$positional_parameter_base@DV?$string_output_adapter@D@__crt_stdio_output@@@__crt_stdio_output@@CA?AW4parameter_type@01@PAX@Z 10023ddd f i libucrt:output.obj
 0001:00022de1       ??$get_parameter_type@X@?$positional_parameter_base@_WV?$stream_output_adapter@_W@__crt_stdio_output@@@__crt_stdio_output@@CA?AW4parameter_type@01@PAX@Z 10023de1 f i libucrt:output.obj
 0001:00022de5       ??$get_parameter_type@X@?$positional_parameter_base@_WV?$string_output_adapter@_W@__crt_stdio_output@@@__crt_stdio_output@@CA?AW4parameter_type@01@PAX@Z 10023de5 f i libucrt:output.obj
 0001:00022de9       ??$is_character_specifier@D@?$positional_parameter_base@DV?$stream_output_adapter@D@__crt_stdio_output@@@__crt_stdio_output@@CA_ND@Z 10023de9 f i libucrt:output.obj
 0001:00022e08       ??$is_character_specifier@D@?$positional_parameter_base@DV?$string_output_adapter@D@__crt_stdio_output@@@__crt_stdio_output@@CA_ND@Z 10023e08 f i libucrt:output.obj
 0001:00022e27       ??$is_character_specifier@_W@?$positional_parameter_base@_WV?$stream_output_adapter@_W@__crt_stdio_output@@@__crt_stdio_output@@CA_N_W@Z 10023e27 f i libucrt:output.obj
 0001:00022e4a       ??$is_character_specifier@_W@?$positional_parameter_base@_WV?$string_output_adapter@_W@__crt_stdio_output@@@__crt_stdio_output@@CA_N_W@Z 10023e4a f i libucrt:output.obj
 0001:00022e6d       ??$is_integral_specifier@D@?$positional_parameter_base@DV?$stream_output_adapter@D@__crt_stdio_output@@@__crt_stdio_output@@CA_ND@Z 10023e6d f i libucrt:output.obj
 0001:00022ea5       ??$is_integral_specifier@D@?$positional_parameter_base@DV?$string_output_adapter@D@__crt_stdio_output@@@__crt_stdio_output@@CA_ND@Z 10023ea5 f i libucrt:output.obj
 0001:00022edd       ??$is_integral_specifier@_W@?$positional_parameter_base@_WV?$stream_output_adapter@_W@__crt_stdio_output@@@__crt_stdio_output@@CA_N_W@Z 10023edd f i libucrt:output.obj
 0001:00022f28       ??$is_integral_specifier@_W@?$positional_parameter_base@_WV?$string_output_adapter@_W@__crt_stdio_output@@@__crt_stdio_output@@CA_N_W@Z 10023f28 f i libucrt:output.obj
 0001:00022f73       ??$is_pointer_specifier@D@?$positional_parameter_base@DV?$stream_output_adapter@D@__crt_stdio_output@@@__crt_stdio_output@@CA_ND@Z 10023f73 f i libucrt:output.obj
 0001:00022f87       ??$is_pointer_specifier@D@?$positional_parameter_base@DV?$string_output_adapter@D@__crt_stdio_output@@@__crt_stdio_output@@CA_ND@Z 10023f87 f i libucrt:output.obj
 0001:00022f9b       ??$is_pointer_specifier@_W@?$positional_parameter_base@_WV?$stream_output_adapter@_W@__crt_stdio_output@@@__crt_stdio_output@@CA_N_W@Z 10023f9b f i libucrt:output.obj
 0001:00022fb0       ??$is_pointer_specifier@_W@?$positional_parameter_base@_WV?$string_output_adapter@_W@__crt_stdio_output@@@__crt_stdio_output@@CA_N_W@Z 10023fb0 f i libucrt:output.obj
 0001:00022fc5       ??$is_string_specifier@D@?$positional_parameter_base@DV?$stream_output_adapter@D@__crt_stdio_output@@@__crt_stdio_output@@CA_ND@Z 10023fc5 f i libucrt:output.obj
 0001:00022fe4       ??$is_string_specifier@D@?$positional_parameter_base@DV?$string_output_adapter@D@__crt_stdio_output@@@__crt_stdio_output@@CA_ND@Z 10023fe4 f i libucrt:output.obj
 0001:00023003       ??$is_string_specifier@_W@?$positional_parameter_base@_WV?$stream_output_adapter@_W@__crt_stdio_output@@@__crt_stdio_output@@CA_N_W@Z 10024003 f i libucrt:output.obj
 0001:00023026       ??$is_string_specifier@_W@?$positional_parameter_base@_WV?$string_output_adapter@_W@__crt_stdio_output@@@__crt_stdio_output@@CA_N_W@Z 10024026 f i libucrt:output.obj
 0001:00023049       ??$is_wide_character_specifier@D@__crt_stdio_output@@YA_N_KDW4length_modifier@0@@Z 10024049 f i libucrt:output.obj
 0001:00023099       ??$is_wide_character_specifier@_W@__crt_stdio_output@@YA_N_K_WW4length_modifier@0@@Z 10024099 f i libucrt:output.obj
 0001:000230fb       ??$peek_va_arg@C@__crt_stdio_output@@YACPAD@Z 100240fb f i libucrt:output.obj
 0001:0002310a       ??$peek_va_arg@E@__crt_stdio_output@@YAEPAD@Z 1002410a f i libucrt:output.obj
 0001:00023119       ??$peek_va_arg@F@__crt_stdio_output@@YAFPAD@Z 10024119 f i libucrt:output.obj
 0001:00023129       ??$peek_va_arg@G@__crt_stdio_output@@YAGPAD@Z 10024129 f i libucrt:output.obj
 0001:00023139       ??$peek_va_arg@H@__crt_stdio_output@@YAHPAD@Z 10024139 f i libucrt:output.obj
 0001:00023148       ??$peek_va_arg@I@__crt_stdio_output@@YAIPAD@Z 10024148 f i libucrt:output.obj
 0001:00023157       ??$peek_va_arg@PAD@__crt_stdio_output@@YAPADPAD@Z 10024157 f i libucrt:output.obj
 0001:00023166       ??$peek_va_arg@PAUansi_string@?1??type_case_Z@?$output_processor@DV?$stream_output_adapter@D@__crt_stdio_output@@V?$positional_parameter_base@DV?$stream_output_adapter@D@__crt_stdio_output@@@2@@__crt_stdio_output@@AAE_NXZ@@__crt_stdio_output@@YAPAUansi_string@?1??type_case_Z@?$output_processor@DV?$stream_output_adapter@D@__crt_stdio_output@@V?$positional_parameter_base@DV?$stream_output_adapter@D@__crt_stdio_output@@@2@@0@AAE_NXZ@PAD@Z 10024166 f i libucrt:output.obj
 0001:00023175       ??$peek_va_arg@PAUansi_string@?1??type_case_Z@?$output_processor@DV?$string_output_adapter@D@__crt_stdio_output@@V?$positional_parameter_base@DV?$string_output_adapter@D@__crt_stdio_output@@@2@@__crt_stdio_output@@AAE_NXZ@@__crt_stdio_output@@YAPAUansi_string@?1??type_case_Z@?$output_processor@DV?$string_output_adapter@D@__crt_stdio_output@@V?$positional_parameter_base@DV?$string_output_adapter@D@__crt_stdio_output@@@2@@0@AAE_NXZ@PAD@Z 10024175 f i libucrt:output.obj
 0001:00023184       ??$peek_va_arg@PAUansi_string@?1??type_case_Z@?$output_processor@_WV?$stream_output_adapter@_W@__crt_stdio_output@@V?$positional_parameter_base@_WV?$stream_output_adapter@_W@__crt_stdio_output@@@2@@__crt_stdio_output@@AAE_NXZ@@__crt_stdio_output@@YAPAUansi_string@?1??type_case_Z@?$output_processor@_WV?$stream_output_adapter@_W@__crt_stdio_output@@V?$positional_parameter_base@_WV?$stream_output_adapter@_W@__crt_stdio_output@@@2@@0@AAE_NXZ@PAD@Z 10024184 f i libucrt:output.obj
 0001:00023193       ??$peek_va_arg@PAUansi_string@?1??type_case_Z@?$output_processor@_WV?$string_output_adapter@_W@__crt_stdio_output@@V?$positional_parameter_base@_WV?$string_output_adapter@_W@__crt_stdio_output@@@2@@__crt_stdio_output@@AAE_NXZ@@__crt_stdio_output@@YAPAUansi_string@?1??type_case_Z@?$output_processor@_WV?$string_output_adapter@_W@__crt_stdio_output@@V?$positional_parameter_base@_WV?$string_output_adapter@_W@__crt_stdio_output@@@2@@0@AAE_NXZ@PAD@Z 10024193 f i libucrt:output.obj
 0001:000231a2       ??$peek_va_arg@PAX@__crt_stdio_output@@YAPAXPAD@Z 100241a2 f i libucrt:output.obj
 0001:000231b1       ??$peek_va_arg@U_CRT_DOUBLE@@@__crt_stdio_output@@YA?AU_CRT_DOUBLE@@PAD@Z 100241b1 f i libucrt:output.obj
 0001:000231c3       ??$peek_va_arg@_J@__crt_stdio_output@@YA_JPAD@Z 100241c3 f i libucrt:output.obj
 0001:000231d5       ??$peek_va_arg@_K@__crt_stdio_output@@YA_KPAD@Z 100241d5 f i libucrt:output.obj
 0001:000231e7       ??$peek_va_arg@_W@__crt_stdio_output@@YA_WPAD@Z 100241e7 f i libucrt:output.obj
 0001:000231f7       ??$puttc_nolock@ABDPAU_iobuf@@@?$__crt_char_traits@D@@SAHABD$$QAPAU_iobuf@@@Z 100241f7 f i libucrt:output.obj
 0001:00023217       ??$puttc_nolock@AB_WPAU_iobuf@@@?$__crt_char_traits@_W@@SAGAB_W$$QAPAU_iobuf@@@Z 10024217 f i libucrt:output.obj
 0001:00023237       ??$read_va_arg@C@__crt_stdio_output@@YACAAPAD@Z 10024237 f i libucrt:output.obj
 0001:0002324d       ??$read_va_arg@E@__crt_stdio_output@@YAEAAPAD@Z 1002424d f i libucrt:output.obj
 0001:00023263       ??$read_va_arg@F@__crt_stdio_output@@YAFAAPAD@Z 10024263 f i libucrt:output.obj
 0001:0002327a       ??$read_va_arg@G@__crt_stdio_output@@YAGAAPAD@Z 1002427a f i libucrt:output.obj
 0001:00023291       ??$read_va_arg@H@__crt_stdio_output@@YAHAAPAD@Z 10024291 f i libucrt:output.obj
 0001:000232a7       ??$read_va_arg@I@__crt_stdio_output@@YAIAAPAD@Z 100242a7 f i libucrt:output.obj
 0001:000232bd       ??$read_va_arg@PAD@__crt_stdio_output@@YAPADAAPAD@Z 100242bd f i libucrt:output.obj
 0001:000232d3       ??$read_va_arg@PAUansi_string@?1??type_case_Z@?$output_processor@DV?$stream_output_adapter@D@__crt_stdio_output@@V?$format_validation_base@DV?$stream_output_adapter@D@__crt_stdio_output@@@2@@__crt_stdio_output@@AAE_NXZ@@__crt_stdio_output@@YAPAUansi_string@?1??type_case_Z@?$output_processor@DV?$stream_output_adapter@D@__crt_stdio_output@@V?$format_validation_base@DV?$stream_output_adapter@D@__crt_stdio_output@@@2@@0@AAE_NXZ@AAPAD@Z 100242d3 f i libucrt:output.obj
 0001:000232e9       ??$read_va_arg@PAUansi_string@?1??type_case_Z@?$output_processor@DV?$stream_output_adapter@D@__crt_stdio_output@@V?$positional_parameter_base@DV?$stream_output_adapter@D@__crt_stdio_output@@@2@@__crt_stdio_output@@AAE_NXZ@@__crt_stdio_output@@YAPAUansi_string@?1??type_case_Z@?$output_processor@DV?$stream_output_adapter@D@__crt_stdio_output@@V?$positional_parameter_base@DV?$stream_output_adapter@D@__crt_stdio_output@@@2@@0@AAE_NXZ@AAPAD@Z 100242e9 f i libucrt:output.obj
 0001:000232ff       ??$read_va_arg@PAUansi_string@?1??type_case_Z@?$output_processor@DV?$stream_output_adapter@D@__crt_stdio_output@@V?$standard_base@DV?$stream_output_adapter@D@__crt_stdio_output@@@2@@__crt_stdio_output@@AAE_NXZ@@__crt_stdio_output@@YAPAUansi_string@?1??type_case_Z@?$output_processor@DV?$stream_output_adapter@D@__crt_stdio_output@@V?$standard_base@DV?$stream_output_adapter@D@__crt_stdio_output@@@2@@0@AAE_NXZ@AAPAD@Z 100242ff f i libucrt:output.obj
 0001:00023315       ??$read_va_arg@PAUansi_string@?1??type_case_Z@?$output_processor@DV?$string_output_adapter@D@__crt_stdio_output@@V?$format_validation_base@DV?$string_output_adapter@D@__crt_stdio_output@@@2@@__crt_stdio_output@@AAE_NXZ@@__crt_stdio_output@@YAPAUansi_string@?1??type_case_Z@?$output_processor@DV?$string_output_adapter@D@__crt_stdio_output@@V?$format_validation_base@DV?$string_output_adapter@D@__crt_stdio_output@@@2@@0@AAE_NXZ@AAPAD@Z 10024315 f i libucrt:output.obj
 0001:0002332b       ??$read_va_arg@PAUansi_string@?1??type_case_Z@?$output_processor@DV?$string_output_adapter@D@__crt_stdio_output@@V?$positional_parameter_base@DV?$string_output_adapter@D@__crt_stdio_output@@@2@@__crt_stdio_output@@AAE_NXZ@@__crt_stdio_output@@YAPAUansi_string@?1??type_case_Z@?$output_processor@DV?$string_output_adapter@D@__crt_stdio_output@@V?$positional_parameter_base@DV?$string_output_adapter@D@__crt_stdio_output@@@2@@0@AAE_NXZ@AAPAD@Z 1002432b f i libucrt:output.obj
 0001:00023341       ??$read_va_arg@PAUansi_string@?1??type_case_Z@?$output_processor@DV?$string_output_adapter@D@__crt_stdio_output@@V?$standard_base@DV?$string_output_adapter@D@__crt_stdio_output@@@2@@__crt_stdio_output@@AAE_NXZ@@__crt_stdio_output@@YAPAUansi_string@?1??type_case_Z@?$output_processor@DV?$string_output_adapter@D@__crt_stdio_output@@V?$standard_base@DV?$string_output_adapter@D@__crt_stdio_output@@@2@@0@AAE_NXZ@AAPAD@Z 10024341 f i libucrt:output.obj
 0001:00023357       ??$read_va_arg@PAUansi_string@?1??type_case_Z@?$output_processor@_WV?$stream_output_adapter@_W@__crt_stdio_output@@V?$format_validation_base@_WV?$stream_output_adapter@_W@__crt_stdio_output@@@2@@__crt_stdio_output@@AAE_NXZ@@__crt_stdio_output@@YAPAUansi_string@?1??type_case_Z@?$output_processor@_WV?$stream_output_adapter@_W@__crt_stdio_output@@V?$format_validation_base@_WV?$stream_output_adapter@_W@__crt_stdio_output@@@2@@0@AAE_NXZ@AAPAD@Z 10024357 f i libucrt:output.obj
 0001:0002336d       ??$read_va_arg@PAUansi_string@?1??type_case_Z@?$output_processor@_WV?$stream_output_adapter@_W@__crt_stdio_output@@V?$positional_parameter_base@_WV?$stream_output_adapter@_W@__crt_stdio_output@@@2@@__crt_stdio_output@@AAE_NXZ@@__crt_stdio_output@@YAPAUansi_string@?1??type_case_Z@?$output_processor@_WV?$stream_output_adapter@_W@__crt_stdio_output@@V?$positional_parameter_base@_WV?$stream_output_adapter@_W@__crt_stdio_output@@@2@@0@AAE_NXZ@AAPAD@Z 1002436d f i libucrt:output.obj
 0001:00023383       ??$read_va_arg@PAUansi_string@?1??type_case_Z@?$output_processor@_WV?$stream_output_adapter@_W@__crt_stdio_output@@V?$standard_base@_WV?$stream_output_adapter@_W@__crt_stdio_output@@@2@@__crt_stdio_output@@AAE_NXZ@@__crt_stdio_output@@YAPAUansi_string@?1??type_case_Z@?$output_processor@_WV?$stream_output_adapter@_W@__crt_stdio_output@@V?$standard_base@_WV?$stream_output_adapter@_W@__crt_stdio_output@@@2@@0@AAE_NXZ@AAPAD@Z 10024383 f i libucrt:output.obj
 0001:00023399       ??$read_va_arg@PAUansi_string@?1??type_case_Z@?$output_processor@_WV?$string_output_adapter@_W@__crt_stdio_output@@V?$format_validation_base@_WV?$string_output_adapter@_W@__crt_stdio_output@@@2@@__crt_stdio_output@@AAE_NXZ@@__crt_stdio_output@@YAPAUansi_string@?1??type_case_Z@?$output_processor@_WV?$string_output_adapter@_W@__crt_stdio_output@@V?$format_validation_base@_WV?$string_output_adapter@_W@__crt_stdio_output@@@2@@0@AAE_NXZ@AAPAD@Z 10024399 f i libucrt:output.obj
 0001:000233af       ??$read_va_arg@PAUansi_string@?1??type_case_Z@?$output_processor@_WV?$string_output_adapter@_W@__crt_stdio_output@@V?$positional_parameter_base@_WV?$string_output_adapter@_W@__crt_stdio_output@@@2@@__crt_stdio_output@@AAE_NXZ@@__crt_stdio_output@@YAPAUansi_string@?1??type_case_Z@?$output_processor@_WV?$string_output_adapter@_W@__crt_stdio_output@@V?$positional_parameter_base@_WV?$string_output_adapter@_W@__crt_stdio_output@@@2@@0@AAE_NXZ@AAPAD@Z 100243af f i libucrt:output.obj
 0001:000233c5       ??$read_va_arg@PAUansi_string@?1??type_case_Z@?$output_processor@_WV?$string_output_adapter@_W@__crt_stdio_output@@V?$standard_base@_WV?$string_output_adapter@_W@__crt_stdio_output@@@2@@__crt_stdio_output@@AAE_NXZ@@__crt_stdio_output@@YAPAUansi_string@?1??type_case_Z@?$output_processor@_WV?$string_output_adapter@_W@__crt_stdio_output@@V?$standard_base@_WV?$string_output_adapter@_W@__crt_stdio_output@@@2@@0@AAE_NXZ@AAPAD@Z 100243c5 f i libucrt:output.obj
 0001:000233db       ??$read_va_arg@PAX@__crt_stdio_output@@YAPAXAAPAD@Z 100243db f i libucrt:output.obj
 0001:000233f1       ??$read_va_arg@U_CRT_DOUBLE@@@__crt_stdio_output@@YA?AU_CRT_DOUBLE@@AAPAD@Z 100243f1 f i libucrt:output.obj
 0001:0002340b       ??$read_va_arg@_J@__crt_stdio_output@@YA_JAAPAD@Z 1002440b f i libucrt:output.obj
 0001:00023425       ??$read_va_arg@_K@__crt_stdio_output@@YA_KAAPAD@Z 10024425 f i libucrt:output.obj
 0001:0002343f       ??$read_va_arg@_W@__crt_stdio_output@@YA_WAAPAD@Z 1002443f f i libucrt:output.obj
 0001:00023456       ??$scratch_count@D@formatting_buffer@__crt_stdio_output@@QBEIXZ 10024456 f i libucrt:output.obj
 0001:0002345b       ??$scratch_data@D@formatting_buffer@__crt_stdio_output@@QAEPADXZ 1002445b f i libucrt:output.obj
 0001:00023480       ??$tcstol@AAPBDPAPADH@?$__crt_char_traits@D@@SAJAAPBD$$QAPAPAD$$QAH@Z 10024480 f i libucrt:output.obj
 0001:000234a5       ??$tcstol@AAPB_WPAPA_WH@?$__crt_char_traits@_W@@SAJAAPB_W$$QAPAPA_W$$QAH@Z 100244a5 f i libucrt:output.obj
 0001:000234ca       ??$tcstol@PBDPAPADH@?$__crt_char_traits@D@@SAJ$$QAPBD$$QAPAPAD$$QAH@Z 100244ca f i libucrt:output.obj
 0001:000234ef       ??$tcstol@PB_WPAPA_WH@?$__crt_char_traits@_W@@SAJ$$QAPB_W$$QAPAPA_W$$QAH@Z 100244ef f i libucrt:output.obj
 0001:00023514       ??$type_case_integer_parse_into_buffer@I@?$output_processor@DV?$stream_output_adapter@D@__crt_stdio_output@@V?$format_validation_base@DV?$stream_output_adapter@D@__crt_stdio_output@@@2@@__crt_stdio_output@@AAEXII_N@Z 10024514 f i libucrt:output.obj
 0001:000235a2       ??$type_case_integer_parse_into_buffer@I@?$output_processor@DV?$stream_output_adapter@D@__crt_stdio_output@@V?$positional_parameter_base@DV?$stream_output_adapter@D@__crt_stdio_output@@@2@@__crt_stdio_output@@AAEXII_N@Z 100245a2 f i libucrt:output.obj
 0001:00023630       ??$type_case_integer_parse_into_buffer@I@?$output_processor@DV?$stream_output_adapter@D@__crt_stdio_output@@V?$standard_base@DV?$stream_output_adapter@D@__crt_stdio_output@@@2@@__crt_stdio_output@@AAEXII_N@Z 10024630 f i libucrt:output.obj
 0001:000236be       ??$type_case_integer_parse_into_buffer@I@?$output_processor@DV?$string_output_adapter@D@__crt_stdio_output@@V?$format_validation_base@DV?$string_output_adapter@D@__crt_stdio_output@@@2@@__crt_stdio_output@@AAEXII_N@Z 100246be f i libucrt:output.obj
 0001:0002374c       ??$type_case_integer_parse_into_buffer@I@?$output_processor@DV?$string_output_adapter@D@__crt_stdio_output@@V?$positional_parameter_base@DV?$string_output_adapter@D@__crt_stdio_output@@@2@@__crt_stdio_output@@AAEXII_N@Z 1002474c f i libucrt:output.obj
 0001:000237da       ??$type_case_integer_parse_into_buffer@I@?$output_processor@DV?$string_output_adapter@D@__crt_stdio_output@@V?$standard_base@DV?$string_output_adapter@D@__crt_stdio_output@@@2@@__crt_stdio_output@@AAEXII_N@Z 100247da f i libucrt:output.obj
 0001:00023868       ??$type_case_integer_parse_into_buffer@I@?$output_processor@_WV?$stream_output_adapter@_W@__crt_stdio_output@@V?$format_validation_base@_WV?$stream_output_adapter@_W@__crt_stdio_output@@@2@@__crt_stdio_output@@AAEXII_N@Z 10024868 f i libucrt:output.obj
 0001:0002390f       ??$type_case_integer_parse_into_buffer@I@?$output_processor@_WV?$stream_output_adapter@_W@__crt_stdio_output@@V?$positional_parameter_base@_WV?$stream_output_adapter@_W@__crt_stdio_output@@@2@@__crt_stdio_output@@AAEXII_N@Z 1002490f f i libucrt:output.obj
 0001:000239b6       ??$type_case_integer_parse_into_buffer@I@?$output_processor@_WV?$stream_output_adapter@_W@__crt_stdio_output@@V?$standard_base@_WV?$stream_output_adapter@_W@__crt_stdio_output@@@2@@__crt_stdio_output@@AAEXII_N@Z 100249b6 f i libucrt:output.obj
 0001:00023a5d       ??$type_case_integer_parse_into_buffer@I@?$output_processor@_WV?$string_output_adapter@_W@__crt_stdio_output@@V?$format_validation_base@_WV?$string_output_adapter@_W@__crt_stdio_output@@@2@@__crt_stdio_output@@AAEXII_N@Z 10024a5d f i libucrt:output.obj
 0001:00023b04       ??$type_case_integer_parse_into_buffer@I@?$output_processor@_WV?$string_output_adapter@_W@__crt_stdio_output@@V?$positional_parameter_base@_WV?$string_output_adapter@_W@__crt_stdio_output@@@2@@__crt_stdio_output@@AAEXII_N@Z 10024b04 f i libucrt:output.obj
 0001:00023bab       ??$type_case_integer_parse_into_buffer@I@?$output_processor@_WV?$string_output_adapter@_W@__crt_stdio_output@@V?$standard_base@_WV?$string_output_adapter@_W@__crt_stdio_output@@@2@@__crt_stdio_output@@AAEXII_N@Z 10024bab f i libucrt:output.obj
 0001:00023c52       ??$type_case_integer_parse_into_buffer@_K@?$output_processor@DV?$stream_output_adapter@D@__crt_stdio_output@@V?$format_validation_base@DV?$stream_output_adapter@D@__crt_stdio_output@@@2@@__crt_stdio_output@@AAEX_KI_N@Z 10024c52 f i libucrt:output.obj
 0001:00023cfa       ??$type_case_integer_parse_into_buffer@_K@?$output_processor@DV?$stream_output_adapter@D@__crt_stdio_output@@V?$positional_parameter_base@DV?$stream_output_adapter@D@__crt_stdio_output@@@2@@__crt_stdio_output@@AAEX_KI_N@Z 10024cfa f i libucrt:output.obj
 0001:00023da2       ??$type_case_integer_parse_into_buffer@_K@?$output_processor@DV?$stream_output_adapter@D@__crt_stdio_output@@V?$standard_base@DV?$stream_output_adapter@D@__crt_stdio_output@@@2@@__crt_stdio_output@@AAEX_KI_N@Z 10024da2 f i libucrt:output.obj
 0001:00023e4a       ??$type_case_integer_parse_into_buffer@_K@?$output_processor@DV?$string_output_adapter@D@__crt_stdio_output@@V?$format_validation_base@DV?$string_output_adapter@D@__crt_stdio_output@@@2@@__crt_stdio_output@@AAEX_KI_N@Z 10024e4a f i libucrt:output.obj
 0001:00023ef2       ??$type_case_integer_parse_into_buffer@_K@?$output_processor@DV?$string_output_adapter@D@__crt_stdio_output@@V?$positional_parameter_base@DV?$string_output_adapter@D@__crt_stdio_output@@@2@@__crt_stdio_output@@AAEX_KI_N@Z 10024ef2 f i libucrt:output.obj
 0001:00023f9a       ??$type_case_integer_parse_into_buffer@_K@?$output_processor@DV?$string_output_adapter@D@__crt_stdio_output@@V?$standard_base@DV?$string_output_adapter@D@__crt_stdio_output@@@2@@__crt_stdio_output@@AAEX_KI_N@Z 10024f9a f i libucrt:output.obj
 0001:00024042       ??$type_case_integer_parse_into_buffer@_K@?$output_processor@_WV?$stream_output_adapter@_W@__crt_stdio_output@@V?$format_validation_base@_WV?$stream_output_adapter@_W@__crt_stdio_output@@@2@@__crt_stdio_output@@AAEX_KI_N@Z 10025042 f i libucrt:output.obj
 0001:00024103       ??$type_case_integer_parse_into_buffer@_K@?$output_processor@_WV?$stream_output_adapter@_W@__crt_stdio_output@@V?$positional_parameter_base@_WV?$stream_output_adapter@_W@__crt_stdio_output@@@2@@__crt_stdio_output@@AAEX_KI_N@Z 10025103 f i libucrt:output.obj
 0001:000241c4       ??$type_case_integer_parse_into_buffer@_K@?$output_processor@_WV?$stream_output_adapter@_W@__crt_stdio_output@@V?$standard_base@_WV?$stream_output_adapter@_W@__crt_stdio_output@@@2@@__crt_stdio_output@@AAEX_KI_N@Z 100251c4 f i libucrt:output.obj
 0001:00024285       ??$type_case_integer_parse_into_buffer@_K@?$output_processor@_WV?$string_output_adapter@_W@__crt_stdio_output@@V?$format_validation_base@_WV?$string_output_adapter@_W@__crt_stdio_output@@@2@@__crt_stdio_output@@AAEX_KI_N@Z 10025285 f i libucrt:output.obj
 0001:00024346       ??$type_case_integer_parse_into_buffer@_K@?$output_processor@_WV?$string_output_adapter@_W@__crt_stdio_output@@V?$positional_parameter_base@_WV?$string_output_adapter@_W@__crt_stdio_output@@@2@@__crt_stdio_output@@AAEX_KI_N@Z 10025346 f i libucrt:output.obj
 0001:00024407       ??$type_case_integer_parse_into_buffer@_K@?$output_processor@_WV?$string_output_adapter@_W@__crt_stdio_output@@V?$standard_base@_WV?$string_output_adapter@_W@__crt_stdio_output@@@2@@__crt_stdio_output@@AAEX_KI_N@Z 10025407 f i libucrt:output.obj
 0001:000244c8       ??$write_multiple_characters@V?$stream_output_adapter@D@__crt_stdio_output@@D@__crt_stdio_output@@YAXABV?$stream_output_adapter@D@0@DHQAH@Z 100254c8 f i libucrt:output.obj
 0001:000244ff       ??$write_multiple_characters@V?$stream_output_adapter@_W@__crt_stdio_output@@D@__crt_stdio_output@@YAXABV?$stream_output_adapter@_W@0@DHQAH@Z 100254ff f i libucrt:output.obj
 0001:0002453c       ??$write_multiple_characters@V?$string_output_adapter@D@__crt_stdio_output@@D@__crt_stdio_output@@YAXABV?$string_output_adapter@D@0@DHQAH@Z 1002553c f i libucrt:output.obj
 0001:00024573       ??$write_multiple_characters@V?$string_output_adapter@_W@__crt_stdio_output@@D@__crt_stdio_output@@YAXABV?$string_output_adapter@_W@0@DHQAH@Z 10025573 f i libucrt:output.obj
 0001:000247e4       ??0?$common_data@D@__crt_stdio_output@@IAE@XZ 100257e4 f i libucrt:output.obj
 0001:0002483c       ??0?$common_data@_W@__crt_stdio_output@@IAE@XZ 1002583c f i libucrt:output.obj
 0001:0002489b       ??0?$output_adapter_data@DV?$stream_output_adapter@D@__crt_stdio_output@@@__crt_stdio_output@@IAE@ABV?$stream_output_adapter@D@1@_KQBDQAU__crt_locale_pointers@@QAD@Z 1002589b f i libucrt:output.obj
 0001:000248e6       ??0?$output_adapter_data@DV?$string_output_adapter@D@__crt_stdio_output@@@__crt_stdio_output@@IAE@ABV?$string_output_adapter@D@1@_KQBDQAU__crt_locale_pointers@@QAD@Z 100258e6 f i libucrt:output.obj
 0001:00024931       ??0?$output_adapter_data@_WV?$stream_output_adapter@_W@__crt_stdio_output@@@__crt_stdio_output@@IAE@ABV?$stream_output_adapter@_W@1@_KQB_WQAU__crt_locale_pointers@@QAD@Z 10025931 f i libucrt:output.obj
 0001:0002497c       ??0?$output_adapter_data@_WV?$string_output_adapter@_W@__crt_stdio_output@@@__crt_stdio_output@@IAE@ABV?$string_output_adapter@_W@1@_KQB_WQAU__crt_locale_pointers@@QAD@Z 1002597c f i libucrt:output.obj
 0001:000249c7       ??0?$output_processor@DV?$stream_output_adapter@D@__crt_stdio_output@@V?$format_validation_base@DV?$stream_output_adapter@D@__crt_stdio_output@@@2@@__crt_stdio_output@@QAE@ABV?$stream_output_adapter@D@1@_KQBDQAU__crt_locale_pointers@@QAD@Z 100259c7 f i libucrt:output.obj
 0001:000249ff       ??0?$output_processor@DV?$stream_output_adapter@D@__crt_stdio_output@@V?$positional_parameter_base@DV?$stream_output_adapter@D@__crt_stdio_output@@@2@@__crt_stdio_output@@QAE@ABV?$stream_output_adapter@D@1@_KQBDQAU__crt_locale_pointers@@QAD@Z 100259ff f i libucrt:output.obj
 0001:00024a2f       ??0?$output_processor@DV?$stream_output_adapter@D@__crt_stdio_output@@V?$standard_base@DV?$stream_output_adapter@D@__crt_stdio_output@@@2@@__crt_stdio_output@@QAE@ABV?$stream_output_adapter@D@1@_KQBDQAU__crt_locale_pointers@@QAD@Z 10025a2f f i libucrt:output.obj
 0001:00024a67       ??0?$output_processor@DV?$string_output_adapter@D@__crt_stdio_output@@V?$format_validation_base@DV?$string_output_adapter@D@__crt_stdio_output@@@2@@__crt_stdio_output@@QAE@ABV?$string_output_adapter@D@1@_KQBDQAU__crt_locale_pointers@@QAD@Z 10025a67 f i libucrt:output.obj
 0001:00024a9f       ??0?$output_processor@DV?$string_output_adapter@D@__crt_stdio_output@@V?$positional_parameter_base@DV?$string_output_adapter@D@__crt_stdio_output@@@2@@__crt_stdio_output@@QAE@ABV?$string_output_adapter@D@1@_KQBDQAU__crt_locale_pointers@@QAD@Z 10025a9f f i libucrt:output.obj
 0001:00024acf       ??0?$output_processor@DV?$string_output_adapter@D@__crt_stdio_output@@V?$standard_base@DV?$string_output_adapter@D@__crt_stdio_output@@@2@@__crt_stdio_output@@QAE@ABV?$string_output_adapter@D@1@_KQBDQAU__crt_locale_pointers@@QAD@Z 10025acf f i libucrt:output.obj
 0001:00024b07       ??0?$output_processor@_WV?$stream_output_adapter@_W@__crt_stdio_output@@V?$format_validation_base@_WV?$stream_output_adapter@_W@__crt_stdio_output@@@2@@__crt_stdio_output@@QAE@ABV?$stream_output_adapter@_W@1@_KQB_WQAU__crt_locale_pointers@@QAD@Z 10025b07 f i libucrt:output.obj
 0001:00024b3f       ??0?$output_processor@_WV?$stream_output_adapter@_W@__crt_stdio_output@@V?$positional_parameter_base@_WV?$stream_output_adapter@_W@__crt_stdio_output@@@2@@__crt_stdio_output@@QAE@ABV?$stream_output_adapter@_W@1@_KQB_WQAU__crt_locale_pointers@@QAD@Z 10025b3f f i libucrt:output.obj
 0001:00024b6f       ??0?$output_processor@_WV?$stream_output_adapter@_W@__crt_stdio_output@@V?$standard_base@_WV?$stream_output_adapter@_W@__crt_stdio_output@@@2@@__crt_stdio_output@@QAE@ABV?$stream_output_adapter@_W@1@_KQB_WQAU__crt_locale_pointers@@QAD@Z 10025b6f f i libucrt:output.obj
 0001:00024ba7       ??0?$output_processor@_WV?$string_output_adapter@_W@__crt_stdio_output@@V?$format_validation_base@_WV?$string_output_adapter@_W@__crt_stdio_output@@@2@@__crt_stdio_output@@QAE@ABV?$string_output_adapter@_W@1@_KQB_WQAU__crt_locale_pointers@@QAD@Z 10025ba7 f i libucrt:output.obj
 0001:00024bdf       ??0?$output_processor@_WV?$string_output_adapter@_W@__crt_stdio_output@@V?$positional_parameter_base@_WV?$string_output_adapter@_W@__crt_stdio_output@@@2@@__crt_stdio_output@@QAE@ABV?$string_output_adapter@_W@1@_KQB_WQAU__crt_locale_pointers@@QAD@Z 10025bdf f i libucrt:output.obj
 0001:00024c0f       ??0?$output_processor@_WV?$string_output_adapter@_W@__crt_stdio_output@@V?$standard_base@_WV?$string_output_adapter@_W@__crt_stdio_output@@@2@@__crt_stdio_output@@QAE@ABV?$string_output_adapter@_W@1@_KQB_WQAU__crt_locale_pointers@@QAD@Z 10025c0f f i libucrt:output.obj
 0001:00024c47       ??0?$stream_output_adapter@D@__crt_stdio_output@@QAE@QAU_iobuf@@@Z 10025c47 f i libucrt:output.obj
 0001:00024c5b       ??0?$stream_output_adapter@_W@__crt_stdio_output@@QAE@QAU_iobuf@@@Z 10025c5b f i libucrt:output.obj
 0001:00024c6f       ??0?$string_output_adapter@D@__crt_stdio_output@@QAE@QAU?$string_output_adapter_context@D@1@@Z 10025c6f f i libucrt:output.obj
 0001:00024c83       ??0?$string_output_adapter@_W@__crt_stdio_output@@QAE@QAU?$string_output_adapter_context@_W@1@@Z 10025c83 f i libucrt:output.obj
 0001:00024c97       ??0_LocaleUpdate@@QAE@QAU__crt_locale_pointers@@@Z 10025c97 f i libucrt:output.obj
 0001:00024d3a       ??0__acrt_stdio_temporary_buffering_guard@@QAE@QAU_iobuf@@@Z 10025d3a f i libucrt:output.obj
 0001:00024d5f       ??0__crt_deferred_errno_cache@@QAE@XZ 10025d5f f i libucrt:output.obj
 0001:00024d65       ??0__crt_errno_guard@@QAE@QAH@Z 10025d65 f i libucrt:output.obj
 0001:00024d83       ??0formatting_buffer@__crt_stdio_output@@QAE@XZ 10025d83 f i libucrt:output.obj
 0001:00024d98       ??1?$common_data@D@__crt_stdio_output@@QAE@XZ 10025d98 f i libucrt:output.obj
 0001:00024da2       ??1?$common_data@_W@__crt_stdio_output@@QAE@XZ 10025da2 f i libucrt:output.obj
 0001:00024dac       ??1?$format_validation_base@DV?$stream_output_adapter@D@__crt_stdio_output@@@__crt_stdio_output@@QAE@XZ 10025dac f i libucrt:output.obj
 0001:00024db6       ??1?$format_validation_base@DV?$string_output_adapter@D@__crt_stdio_output@@@__crt_stdio_output@@QAE@XZ 10025db6 f i libucrt:output.obj
 0001:00024dc0       ??1?$format_validation_base@_WV?$stream_output_adapter@_W@__crt_stdio_output@@@__crt_stdio_output@@QAE@XZ 10025dc0 f i libucrt:output.obj
 0001:00024dca       ??1?$format_validation_base@_WV?$string_output_adapter@_W@__crt_stdio_output@@@__crt_stdio_output@@QAE@XZ 10025dca f i libucrt:output.obj
 0001:00024dd4       ??1?$output_adapter_data@DV?$stream_output_adapter@D@__crt_stdio_output@@@__crt_stdio_output@@QAE@XZ 10025dd4 f i libucrt:output.obj
 0001:00024dde       ??1?$output_adapter_data@DV?$string_output_adapter@D@__crt_stdio_output@@@__crt_stdio_output@@QAE@XZ 10025dde f i libucrt:output.obj
 0001:00024de8       ??1?$output_adapter_data@_WV?$stream_output_adapter@_W@__crt_stdio_output@@@__crt_stdio_output@@QAE@XZ 10025de8 f i libucrt:output.obj
 0001:00024df2       ??1?$output_adapter_data@_WV?$string_output_adapter@_W@__crt_stdio_output@@@__crt_stdio_output@@QAE@XZ 10025df2 f i libucrt:output.obj
 0001:00024dfc       ??1?$output_processor@DV?$stream_output_adapter@D@__crt_stdio_output@@V?$format_validation_base@DV?$stream_output_adapter@D@__crt_stdio_output@@@2@@__crt_stdio_output@@QAE@XZ 10025dfc f i libucrt:output.obj
 0001:00024e06       ??1?$output_processor@DV?$stream_output_adapter@D@__crt_stdio_output@@V?$positional_parameter_base@DV?$stream_output_adapter@D@__crt_stdio_output@@@2@@__crt_stdio_output@@QAE@XZ 10025e06 f i libucrt:output.obj
 0001:00024e10       ??1?$output_processor@DV?$stream_output_adapter@D@__crt_stdio_output@@V?$standard_base@DV?$stream_output_adapter@D@__crt_stdio_output@@@2@@__crt_stdio_output@@QAE@XZ 10025e10 f i libucrt:output.obj
 0001:00024e1a       ??1?$output_processor@DV?$string_output_adapter@D@__crt_stdio_output@@V?$format_validation_base@DV?$string_output_adapter@D@__crt_stdio_output@@@2@@__crt_stdio_output@@QAE@XZ 10025e1a f i libucrt:output.obj
 0001:00024e24       ??1?$output_processor@DV?$string_output_adapter@D@__crt_stdio_output@@V?$positional_parameter_base@DV?$string_output_adapter@D@__crt_stdio_output@@@2@@__crt_stdio_output@@QAE@XZ 10025e24 f i libucrt:output.obj
 0001:00024e2e       ??1?$output_processor@DV?$string_output_adapter@D@__crt_stdio_output@@V?$standard_base@DV?$string_output_adapter@D@__crt_stdio_output@@@2@@__crt_stdio_output@@QAE@XZ 10025e2e f i libucrt:output.obj
 0001:00024e38       ??1?$output_processor@_WV?$stream_output_adapter@_W@__crt_stdio_output@@V?$format_validation_base@_WV?$stream_output_adapter@_W@__crt_stdio_output@@@2@@__crt_stdio_output@@QAE@XZ 10025e38 f i libucrt:output.obj
 0001:00024e42       ??1?$output_processor@_WV?$stream_output_adapter@_W@__crt_stdio_output@@V?$positional_parameter_base@_WV?$stream_output_adapter@_W@__crt_stdio_output@@@2@@__crt_stdio_output@@QAE@XZ 10025e42 f i libucrt:output.obj
 0001:00024e4c       ??1?$output_processor@_WV?$stream_output_adapter@_W@__crt_stdio_output@@V?$standard_base@_WV?$stream_output_adapter@_W@__crt_stdio_output@@@2@@__crt_stdio_output@@QAE@XZ 10025e4c f i libucrt:output.obj
 0001:00024e56       ??1?$output_processor@_WV?$string_output_adapter@_W@__crt_stdio_output@@V?$format_validation_base@_WV?$string_output_adapter@_W@__crt_stdio_output@@@2@@__crt_stdio_output@@QAE@XZ 10025e56 f i libucrt:output.obj
 0001:00024e60       ??1?$output_processor@_WV?$string_output_adapter@_W@__crt_stdio_output@@V?$positional_parameter_base@_WV?$string_output_adapter@_W@__crt_stdio_output@@@2@@__crt_stdio_output@@QAE@XZ 10025e60 f i libucrt:output.obj
 0001:00024e6a       ??1?$output_processor@_WV?$string_output_adapter@_W@__crt_stdio_output@@V?$standard_base@_WV?$string_output_adapter@_W@__crt_stdio_output@@@2@@__crt_stdio_output@@QAE@XZ 10025e6a f i libucrt:output.obj
 0001:00024e74       ??1?$positional_parameter_base@DV?$stream_output_adapter@D@__crt_stdio_output@@@__crt_stdio_output@@QAE@XZ 10025e74 f i libucrt:output.obj
 0001:00024e7e       ??1?$positional_parameter_base@DV?$string_output_adapter@D@__crt_stdio_output@@@__crt_stdio_output@@QAE@XZ 10025e7e f i libucrt:output.obj
 0001:00024e88       ??1?$positional_parameter_base@_WV?$stream_output_adapter@_W@__crt_stdio_output@@@__crt_stdio_output@@QAE@XZ 10025e88 f i libucrt:output.obj
 0001:00024e92       ??1?$positional_parameter_base@_WV?$string_output_adapter@_W@__crt_stdio_output@@@__crt_stdio_output@@QAE@XZ 10025e92 f i libucrt:output.obj
 0001:00024e9c       ??1?$standard_base@DV?$stream_output_adapter@D@__crt_stdio_output@@@__crt_stdio_output@@QAE@XZ 10025e9c f i libucrt:output.obj
 0001:00024ea6       ??1?$standard_base@DV?$string_output_adapter@D@__crt_stdio_output@@@__crt_stdio_output@@QAE@XZ 10025ea6 f i libucrt:output.obj
 0001:00024eb0       ??1?$standard_base@_WV?$stream_output_adapter@_W@__crt_stdio_output@@@__crt_stdio_output@@QAE@XZ 10025eb0 f i libucrt:output.obj
 0001:00024eba       ??1?$standard_base@_WV?$string_output_adapter@_W@__crt_stdio_output@@@__crt_stdio_output@@QAE@XZ 10025eba f i libucrt:output.obj
 0001:00024ec4       ??1_LocaleUpdate@@QAE@XZ   10025ec4 f i libucrt:output.obj
 0001:00024ed8       ??1__acrt_stdio_temporary_buffering_guard@@QAE@XZ 10025ed8 f i libucrt:output.obj
 0001:00024eea       ??1__crt_errno_guard@@QAE@XZ 10025eea f i libucrt:output.obj
 0001:00024eff       ??1formatting_buffer@__crt_stdio_output@@QAE@XZ 10025eff f i libucrt:output.obj
 0001:00024f1f       ??4?$__crt_unique_heap_ptr@DU__crt_internal_free_policy@@@@QAEAAV0@$$QAV0@@Z 10025f1f f i libucrt:output.obj
 0001:000255fa       ?GetLocaleT@_LocaleUpdate@@QAEPAU__crt_locale_pointers@@XZ 100265fa f i libucrt:output.obj
 0001:000255fe       ?__crt_interlocked_read_32@@YAHPDH@Z 100265fe f i libucrt:output.obj
 0001:0002560d       ?adjust_hexit@?$output_processor@DV?$stream_output_adapter@D@__crt_stdio_output@@V?$format_validation_base@DV?$stream_output_adapter@D@__crt_stdio_output@@@2@@__crt_stdio_output@@CADH_N@Z 1002660d f i libucrt:output.obj
 0001:00025632       ?adjust_hexit@?$output_processor@DV?$stream_output_adapter@D@__crt_stdio_output@@V?$positional_parameter_base@DV?$stream_output_adapter@D@__crt_stdio_output@@@2@@__crt_stdio_output@@CADH_N@Z 10026632 f i libucrt:output.obj
 0001:00025657       ?adjust_hexit@?$output_processor@DV?$stream_output_adapter@D@__crt_stdio_output@@V?$standard_base@DV?$stream_output_adapter@D@__crt_stdio_output@@@2@@__crt_stdio_output@@CADH_N@Z 10026657 f i libucrt:output.obj
 0001:0002567c       ?adjust_hexit@?$output_processor@DV?$string_output_adapter@D@__crt_stdio_output@@V?$format_validation_base@DV?$string_output_adapter@D@__crt_stdio_output@@@2@@__crt_stdio_output@@CADH_N@Z 1002667c f i libucrt:output.obj
 0001:000256a1       ?adjust_hexit@?$output_processor@DV?$string_output_adapter@D@__crt_stdio_output@@V?$positional_parameter_base@DV?$string_output_adapter@D@__crt_stdio_output@@@2@@__crt_stdio_output@@CADH_N@Z 100266a1 f i libucrt:output.obj
 0001:000256c6       ?adjust_hexit@?$output_processor@DV?$string_output_adapter@D@__crt_stdio_output@@V?$standard_base@DV?$string_output_adapter@D@__crt_stdio_output@@@2@@__crt_stdio_output@@CADH_N@Z 100266c6 f i libucrt:output.obj
 0001:000256eb       ?adjust_hexit@?$output_processor@_WV?$stream_output_adapter@_W@__crt_stdio_output@@V?$format_validation_base@_WV?$stream_output_adapter@_W@__crt_stdio_output@@@2@@__crt_stdio_output@@CADH_N@Z 100266eb f i libucrt:output.obj
 0001:00025710       ?adjust_hexit@?$output_processor@_WV?$stream_output_adapter@_W@__crt_stdio_output@@V?$positional_parameter_base@_WV?$stream_output_adapter@_W@__crt_stdio_output@@@2@@__crt_stdio_output@@CADH_N@Z 10026710 f i libucrt:output.obj
 0001:00025735       ?adjust_hexit@?$output_processor@_WV?$stream_output_adapter@_W@__crt_stdio_output@@V?$standard_base@_WV?$stream_output_adapter@_W@__crt_stdio_output@@@2@@__crt_stdio_output@@CADH_N@Z 10026735 f i libucrt:output.obj
 0001:0002575a       ?adjust_hexit@?$output_processor@_WV?$string_output_adapter@_W@__crt_stdio_output@@V?$format_validation_base@_WV?$string_output_adapter@_W@__crt_stdio_output@@@2@@__crt_stdio_output@@CADH_N@Z 1002675a f i libucrt:output.obj
 0001:0002577f       ?adjust_hexit@?$output_processor@_WV?$string_output_adapter@_W@__crt_stdio_output@@V?$positional_parameter_base@_WV?$string_output_adapter@_W@__crt_stdio_output@@@2@@__crt_stdio_output@@CADH_N@Z 1002677f f i libucrt:output.obj
 0001:000257a4       ?adjust_hexit@?$output_processor@_WV?$string_output_adapter@_W@__crt_stdio_output@@V?$standard_base@_WV?$string_output_adapter@_W@__crt_stdio_output@@@2@@__crt_stdio_output@@CADH_N@Z 100267a4 f i libucrt:output.obj
 0001:000257c9       ?advance_to_next_pass@?$positional_parameter_base@DV?$stream_output_adapter@D@__crt_stdio_output@@@__crt_stdio_output@@IAE_NXZ 100267c9 f i libucrt:output.obj
 0001:00025828       ?advance_to_next_pass@?$positional_parameter_base@DV?$string_output_adapter@D@__crt_stdio_output@@@__crt_stdio_output@@IAE_NXZ 10026828 f i libucrt:output.obj
 0001:00025887       ?advance_to_next_pass@?$positional_parameter_base@_WV?$stream_output_adapter@_W@__crt_stdio_output@@@__crt_stdio_output@@IAE_NXZ 10026887 f i libucrt:output.obj
 0001:000258e6       ?advance_to_next_pass@?$positional_parameter_base@_WV?$string_output_adapter@_W@__crt_stdio_output@@@__crt_stdio_output@@IAE_NXZ 100268e6 f i libucrt:output.obj
 0001:00025945       ?advance_to_next_pass@?$standard_base@DV?$stream_output_adapter@D@__crt_stdio_output@@@__crt_stdio_output@@IAE_NXZ 10026945 f i libucrt:output.obj
 0001:0002595c       ?advance_to_next_pass@?$standard_base@DV?$string_output_adapter@D@__crt_stdio_output@@@__crt_stdio_output@@IAE_NXZ 1002695c f i libucrt:output.obj
 0001:00025973       ?advance_to_next_pass@?$standard_base@_WV?$stream_output_adapter@_W@__crt_stdio_output@@@__crt_stdio_output@@IAE_NXZ 10026973 f i libucrt:output.obj
 0001:0002598a       ?advance_to_next_pass@?$standard_base@_WV?$string_output_adapter@_W@__crt_stdio_output@@@__crt_stdio_output@@IAE_NXZ 1002698a f i libucrt:output.obj
 0001:000259a1       ?crop_zeroes@__crt_stdio_output@@YAXPADQAU__crt_locale_pointers@@@Z 100269a1 f i libucrt:output.obj
 0001:00025a0d       ?find_next_state@?$output_processor@DV?$stream_output_adapter@D@__crt_stdio_output@@V?$format_validation_base@DV?$stream_output_adapter@D@__crt_stdio_output@@@2@@__crt_stdio_output@@ABE?AW4state@2@DW432@@Z 10026a0d f i libucrt:output.obj
 0001:00025a4f       ?find_next_state@?$output_processor@DV?$stream_output_adapter@D@__crt_stdio_output@@V?$positional_parameter_base@DV?$stream_output_adapter@D@__crt_stdio_output@@@2@@__crt_stdio_output@@ABE?AW4state@2@DW432@@Z 10026a4f f i libucrt:output.obj
 0001:00025a91       ?find_next_state@?$output_processor@DV?$stream_output_adapter@D@__crt_stdio_output@@V?$standard_base@DV?$stream_output_adapter@D@__crt_stdio_output@@@2@@__crt_stdio_output@@ABE?AW4state@2@DW432@@Z 10026a91 f i libucrt:output.obj
 0001:00025acf       ?find_next_state@?$output_processor@DV?$string_output_adapter@D@__crt_stdio_output@@V?$format_validation_base@DV?$string_output_adapter@D@__crt_stdio_output@@@2@@__crt_stdio_output@@ABE?AW4state@2@DW432@@Z 10026acf f i libucrt:output.obj
 0001:00025b11       ?find_next_state@?$output_processor@DV?$string_output_adapter@D@__crt_stdio_output@@V?$positional_parameter_base@DV?$string_output_adapter@D@__crt_stdio_output@@@2@@__crt_stdio_output@@ABE?AW4state@2@DW432@@Z 10026b11 f i libucrt:output.obj
 0001:00025b53       ?find_next_state@?$output_processor@DV?$string_output_adapter@D@__crt_stdio_output@@V?$standard_base@DV?$string_output_adapter@D@__crt_stdio_output@@@2@@__crt_stdio_output@@ABE?AW4state@2@DW432@@Z 10026b53 f i libucrt:output.obj
 0001:00025b91       ?find_next_state@?$output_processor@_WV?$stream_output_adapter@_W@__crt_stdio_output@@V?$format_validation_base@_WV?$stream_output_adapter@_W@__crt_stdio_output@@@2@@__crt_stdio_output@@ABE?AW4state@2@_WW432@@Z 10026b91 f i libucrt:output.obj
 0001:00025bd5       ?find_next_state@?$output_processor@_WV?$stream_output_adapter@_W@__crt_stdio_output@@V?$positional_parameter_base@_WV?$stream_output_adapter@_W@__crt_stdio_output@@@2@@__crt_stdio_output@@ABE?AW4state@2@_WW432@@Z 10026bd5 f i libucrt:output.obj
 0001:00025c19       ?find_next_state@?$output_processor@_WV?$stream_output_adapter@_W@__crt_stdio_output@@V?$standard_base@_WV?$stream_output_adapter@_W@__crt_stdio_output@@@2@@__crt_stdio_output@@ABE?AW4state@2@_WW432@@Z 10026c19 f i libucrt:output.obj
 0001:00025c5a       ?find_next_state@?$output_processor@_WV?$string_output_adapter@_W@__crt_stdio_output@@V?$format_validation_base@_WV?$string_output_adapter@_W@__crt_stdio_output@@@2@@__crt_stdio_output@@ABE?AW4state@2@_WW432@@Z 10026c5a f i libucrt:output.obj
 0001:00025c9e       ?find_next_state@?$output_processor@_WV?$string_output_adapter@_W@__crt_stdio_output@@V?$positional_parameter_base@_WV?$string_output_adapter@_W@__crt_stdio_output@@@2@@__crt_stdio_output@@ABE?AW4state@2@_WW432@@Z 10026c9e f i libucrt:output.obj
 0001:00025ce2       ?find_next_state@?$output_processor@_WV?$string_output_adapter@_W@__crt_stdio_output@@V?$standard_base@_WV?$string_output_adapter@_W@__crt_stdio_output@@@2@@__crt_stdio_output@@ABE?AW4state@2@_WW432@@Z 10026ce2 f i libucrt:output.obj
 0001:00025d23       ?force_decimal_point@__crt_stdio_output@@YAXPADQAU__crt_locale_pointers@@@Z 10026d23 f i libucrt:output.obj
 0001:00025d96       ?get@__crt_deferred_errno_cache@@QAEAAHXZ 10026d96 f i libucrt:output.obj
 0001:00025db0       ?get_flags@__crt_stdio_stream@@QBEJXZ 10026db0 f i libucrt:output.obj
 0001:00025db6       ?get_parameter_type@?$positional_parameter_base@DV?$stream_output_adapter@D@__crt_stdio_output@@@__crt_stdio_output@@CA?AW4parameter_type@12@F@Z 10026db6 f i libucrt:output.obj
 0001:00025dba       ?get_parameter_type@?$positional_parameter_base@DV?$stream_output_adapter@D@__crt_stdio_output@@@__crt_stdio_output@@CA?AW4parameter_type@12@G@Z 10026dba f i libucrt:output.obj
 0001:00025dbe       ?get_parameter_type@?$positional_parameter_base@DV?$stream_output_adapter@D@__crt_stdio_output@@@__crt_stdio_output@@CA?AW4parameter_type@12@H@Z 10026dbe f i libucrt:output.obj
 0001:00025dc2       ?get_parameter_type@?$positional_parameter_base@DV?$stream_output_adapter@D@__crt_stdio_output@@@__crt_stdio_output@@CA?AW4parameter_type@12@I@Z 10026dc2 f i libucrt:output.obj
 0001:00025dc6       ?get_parameter_type@?$positional_parameter_base@DV?$stream_output_adapter@D@__crt_stdio_output@@@__crt_stdio_output@@CA?AW4parameter_type@12@U_CRT_DOUBLE@@@Z 10026dc6 f i libucrt:output.obj
 0001:00025dca       ?get_parameter_type@?$positional_parameter_base@DV?$stream_output_adapter@D@__crt_stdio_output@@@__crt_stdio_output@@CA?AW4parameter_type@12@_J@Z 10026dca f i libucrt:output.obj
 0001:00025dce       ?get_parameter_type@?$positional_parameter_base@DV?$stream_output_adapter@D@__crt_stdio_output@@@__crt_stdio_output@@CA?AW4parameter_type@12@_K@Z 10026dce f i libucrt:output.obj
 0001:00025dd2       ?get_parameter_type@?$positional_parameter_base@DV?$stream_output_adapter@D@__crt_stdio_output@@@__crt_stdio_output@@CA?AW4parameter_type@12@_W@Z 10026dd2 f i libucrt:output.obj
 0001:00025dd6       ?get_parameter_type@?$positional_parameter_base@DV?$string_output_adapter@D@__crt_stdio_output@@@__crt_stdio_output@@CA?AW4parameter_type@12@F@Z 10026dd6 f i libucrt:output.obj
 0001:00025dda       ?get_parameter_type@?$positional_parameter_base@DV?$string_output_adapter@D@__crt_stdio_output@@@__crt_stdio_output@@CA?AW4parameter_type@12@G@Z 10026dda f i libucrt:output.obj
 0001:00025dde       ?get_parameter_type@?$positional_parameter_base@DV?$string_output_adapter@D@__crt_stdio_output@@@__crt_stdio_output@@CA?AW4parameter_type@12@H@Z 10026dde f i libucrt:output.obj
 0001:00025de2       ?get_parameter_type@?$positional_parameter_base@DV?$string_output_adapter@D@__crt_stdio_output@@@__crt_stdio_output@@CA?AW4parameter_type@12@I@Z 10026de2 f i libucrt:output.obj
 0001:00025de6       ?get_parameter_type@?$positional_parameter_base@DV?$string_output_adapter@D@__crt_stdio_output@@@__crt_stdio_output@@CA?AW4parameter_type@12@U_CRT_DOUBLE@@@Z 10026de6 f i libucrt:output.obj
 0001:00025dea       ?get_parameter_type@?$positional_parameter_base@DV?$string_output_adapter@D@__crt_stdio_output@@@__crt_stdio_output@@CA?AW4parameter_type@12@_J@Z 10026dea f i libucrt:output.obj
 0001:00025dee       ?get_parameter_type@?$positional_parameter_base@DV?$string_output_adapter@D@__crt_stdio_output@@@__crt_stdio_output@@CA?AW4parameter_type@12@_K@Z 10026dee f i libucrt:output.obj
 0001:00025df2       ?get_parameter_type@?$positional_parameter_base@DV?$string_output_adapter@D@__crt_stdio_output@@@__crt_stdio_output@@CA?AW4parameter_type@12@_W@Z 10026df2 f i libucrt:output.obj
 0001:00025df6       ?get_parameter_type@?$positional_parameter_base@_WV?$stream_output_adapter@_W@__crt_stdio_output@@@__crt_stdio_output@@CA?AW4parameter_type@12@F@Z 10026df6 f i libucrt:output.obj
 0001:00025dfa       ?get_parameter_type@?$positional_parameter_base@_WV?$stream_output_adapter@_W@__crt_stdio_output@@@__crt_stdio_output@@CA?AW4parameter_type@12@G@Z 10026dfa f i libucrt:output.obj
 0001:00025dfe       ?get_parameter_type@?$positional_parameter_base@_WV?$stream_output_adapter@_W@__crt_stdio_output@@@__crt_stdio_output@@CA?AW4parameter_type@12@H@Z 10026dfe f i libucrt:output.obj
 0001:00025e02       ?get_parameter_type@?$positional_parameter_base@_WV?$stream_output_adapter@_W@__crt_stdio_output@@@__crt_stdio_output@@CA?AW4parameter_type@12@I@Z 10026e02 f i libucrt:output.obj
 0001:00025e06       ?get_parameter_type@?$positional_parameter_base@_WV?$stream_output_adapter@_W@__crt_stdio_output@@@__crt_stdio_output@@CA?AW4parameter_type@12@U_CRT_DOUBLE@@@Z 10026e06 f i libucrt:output.obj
 0001:00025e0a       ?get_parameter_type@?$positional_parameter_base@_WV?$stream_output_adapter@_W@__crt_stdio_output@@@__crt_stdio_output@@CA?AW4parameter_type@12@_J@Z 10026e0a f i libucrt:output.obj
 0001:00025e0e       ?get_parameter_type@?$positional_parameter_base@_WV?$stream_output_adapter@_W@__crt_stdio_output@@@__crt_stdio_output@@CA?AW4parameter_type@12@_K@Z 10026e0e f i libucrt:output.obj
 0001:00025e12       ?get_parameter_type@?$positional_parameter_base@_WV?$stream_output_adapter@_W@__crt_stdio_output@@@__crt_stdio_output@@CA?AW4parameter_type@12@_W@Z 10026e12 f i libucrt:output.obj
 0001:00025e16       ?get_parameter_type@?$positional_parameter_base@_WV?$string_output_adapter@_W@__crt_stdio_output@@@__crt_stdio_output@@CA?AW4parameter_type@12@F@Z 10026e16 f i libucrt:output.obj
 0001:00025e1a       ?get_parameter_type@?$positional_parameter_base@_WV?$string_output_adapter@_W@__crt_stdio_output@@@__crt_stdio_output@@CA?AW4parameter_type@12@G@Z 10026e1a f i libucrt:output.obj
 0001:00025e1e       ?get_parameter_type@?$positional_parameter_base@_WV?$string_output_adapter@_W@__crt_stdio_output@@@__crt_stdio_output@@CA?AW4parameter_type@12@H@Z 10026e1e f i libucrt:output.obj
 0001:00025e22       ?get_parameter_type@?$positional_parameter_base@_WV?$string_output_adapter@_W@__crt_stdio_output@@@__crt_stdio_output@@CA?AW4parameter_type@12@I@Z 10026e22 f i libucrt:output.obj
 0001:00025e26       ?get_parameter_type@?$positional_parameter_base@_WV?$string_output_adapter@_W@__crt_stdio_output@@@__crt_stdio_output@@CA?AW4parameter_type@12@U_CRT_DOUBLE@@@Z 10026e26 f i libucrt:output.obj
 0001:00025e2a       ?get_parameter_type@?$positional_parameter_base@_WV?$string_output_adapter@_W@__crt_stdio_output@@@__crt_stdio_output@@CA?AW4parameter_type@12@_J@Z 10026e2a f i libucrt:output.obj
 0001:00025e2e       ?get_parameter_type@?$positional_parameter_base@_WV?$string_output_adapter@_W@__crt_stdio_output@@@__crt_stdio_output@@CA?AW4parameter_type@12@_K@Z 10026e2e f i libucrt:output.obj
 0001:00025e32       ?get_parameter_type@?$positional_parameter_base@_WV?$string_output_adapter@_W@__crt_stdio_output@@@__crt_stdio_output@@CA?AW4parameter_type@12@_W@Z 10026e32 f i libucrt:output.obj
 0001:00025e36       ?has_flag@?$output_processor@DV?$stream_output_adapter@D@__crt_stdio_output@@V?$format_validation_base@DV?$stream_output_adapter@D@__crt_stdio_output@@@2@@__crt_stdio_output@@ABE_NI@Z 10026e36 f i libucrt:output.obj
 0001:00025e50       ?has_flag@?$output_processor@DV?$stream_output_adapter@D@__crt_stdio_output@@V?$positional_parameter_base@DV?$stream_output_adapter@D@__crt_stdio_output@@@2@@__crt_stdio_output@@ABE_NI@Z 10026e50 f i libucrt:output.obj
 0001:00025e6a       ?has_flag@?$output_processor@DV?$stream_output_adapter@D@__crt_stdio_output@@V?$standard_base@DV?$stream_output_adapter@D@__crt_stdio_output@@@2@@__crt_stdio_output@@ABE_NI@Z 10026e6a f i libucrt:output.obj
 0001:00025e84       ?has_flag@?$output_processor@DV?$string_output_adapter@D@__crt_stdio_output@@V?$format_validation_base@DV?$string_output_adapter@D@__crt_stdio_output@@@2@@__crt_stdio_output@@ABE_NI@Z 10026e84 f i libucrt:output.obj
 0001:00025e9e       ?has_flag@?$output_processor@DV?$string_output_adapter@D@__crt_stdio_output@@V?$positional_parameter_base@DV?$string_output_adapter@D@__crt_stdio_output@@@2@@__crt_stdio_output@@ABE_NI@Z 10026e9e f i libucrt:output.obj
 0001:00025eb8       ?has_flag@?$output_processor@DV?$string_output_adapter@D@__crt_stdio_output@@V?$standard_base@DV?$string_output_adapter@D@__crt_stdio_output@@@2@@__crt_stdio_output@@ABE_NI@Z 10026eb8 f i libucrt:output.obj
 0001:00025ed2       ?has_flag@?$output_processor@_WV?$stream_output_adapter@_W@__crt_stdio_output@@V?$format_validation_base@_WV?$stream_output_adapter@_W@__crt_stdio_output@@@2@@__crt_stdio_output@@ABE_NI@Z 10026ed2 f i libucrt:output.obj
 0001:00025eec       ?has_flag@?$output_processor@_WV?$stream_output_adapter@_W@__crt_stdio_output@@V?$positional_parameter_base@_WV?$stream_output_adapter@_W@__crt_stdio_output@@@2@@__crt_stdio_output@@ABE_NI@Z 10026eec f i libucrt:output.obj
 0001:00025f06       ?has_flag@?$output_processor@_WV?$stream_output_adapter@_W@__crt_stdio_output@@V?$standard_base@_WV?$stream_output_adapter@_W@__crt_stdio_output@@@2@@__crt_stdio_output@@ABE_NI@Z 10026f06 f i libucrt:output.obj
 0001:00025f20       ?has_flag@?$output_processor@_WV?$string_output_adapter@_W@__crt_stdio_output@@V?$format_validation_base@_WV?$string_output_adapter@_W@__crt_stdio_output@@@2@@__crt_stdio_output@@ABE_NI@Z 10026f20 f i libucrt:output.obj
 0001:00025f3a       ?has_flag@?$output_processor@_WV?$string_output_adapter@_W@__crt_stdio_output@@V?$positional_parameter_base@_WV?$string_output_adapter@_W@__crt_stdio_output@@@2@@__crt_stdio_output@@ABE_NI@Z 10026f3a f i libucrt:output.obj
 0001:00025f54       ?has_flag@?$output_processor@_WV?$string_output_adapter@_W@__crt_stdio_output@@V?$standard_base@_WV?$string_output_adapter@_W@__crt_stdio_output@@@2@@__crt_stdio_output@@ABE_NI@Z 10026f54 f i libucrt:output.obj
 0001:00025f6e       ?is_positional_parameter_reappearance_consistent@?$positional_parameter_base@DV?$stream_output_adapter@D@__crt_stdio_output@@@__crt_stdio_output@@AAE_NABUparameter_data@12@W4parameter_type@12@DW4length_modifier@2@@Z 10026f6e f i libucrt:output.obj
 0001:000260e7       ?is_positional_parameter_reappearance_consistent@?$positional_parameter_base@DV?$string_output_adapter@D@__crt_stdio_output@@@__crt_stdio_output@@AAE_NABUparameter_data@12@W4parameter_type@12@DW4length_modifier@2@@Z 100270e7 f i libucrt:output.obj
 0001:00026260       ?is_positional_parameter_reappearance_consistent@?$positional_parameter_base@_WV?$stream_output_adapter@_W@__crt_stdio_output@@@__crt_stdio_output@@AAE_NABUparameter_data@12@W4parameter_type@12@_WW4length_modifier@2@@Z 10027260 f i libucrt:output.obj
 0001:000263cb       ?is_positional_parameter_reappearance_consistent@?$positional_parameter_base@_WV?$string_output_adapter@_W@__crt_stdio_output@@@__crt_stdio_output@@AAE_NABUparameter_data@12@W4parameter_type@12@_WW4length_modifier@2@@Z 100273cb f i libucrt:output.obj
 0001:00026536       ?is_string_backed@__crt_stdio_stream@@QBE_NXZ 10027536 f i libucrt:output.obj
 0001:00026545       ?narrow_null_string@?$output_processor@DV?$stream_output_adapter@D@__crt_stdio_output@@V?$format_validation_base@DV?$stream_output_adapter@D@__crt_stdio_output@@@2@@__crt_stdio_output@@CAPADXZ 10027545 f i libucrt:output.obj
 0001:0002654b       ?narrow_null_string@?$output_processor@DV?$stream_output_adapter@D@__crt_stdio_output@@V?$positional_parameter_base@DV?$stream_output_adapter@D@__crt_stdio_output@@@2@@__crt_stdio_output@@CAPADXZ 1002754b f i libucrt:output.obj
 0001:00026551       ?narrow_null_string@?$output_processor@DV?$stream_output_adapter@D@__crt_stdio_output@@V?$standard_base@DV?$stream_output_adapter@D@__crt_stdio_output@@@2@@__crt_stdio_output@@CAPADXZ 10027551 f i libucrt:output.obj
 0001:00026557       ?narrow_null_string@?$output_processor@DV?$string_output_adapter@D@__crt_stdio_output@@V?$format_validation_base@DV?$string_output_adapter@D@__crt_stdio_output@@@2@@__crt_stdio_output@@CAPADXZ 10027557 f i libucrt:output.obj
 0001:0002655d       ?narrow_null_string@?$output_processor@DV?$string_output_adapter@D@__crt_stdio_output@@V?$positional_parameter_base@DV?$string_output_adapter@D@__crt_stdio_output@@@2@@__crt_stdio_output@@CAPADXZ 1002755d f i libucrt:output.obj
 0001:00026563       ?narrow_null_string@?$output_processor@DV?$string_output_adapter@D@__crt_stdio_output@@V?$standard_base@DV?$string_output_adapter@D@__crt_stdio_output@@@2@@__crt_stdio_output@@CAPADXZ 10027563 f i libucrt:output.obj
 0001:00026569       ?narrow_null_string@?$output_processor@_WV?$stream_output_adapter@_W@__crt_stdio_output@@V?$format_validation_base@_WV?$stream_output_adapter@_W@__crt_stdio_output@@@2@@__crt_stdio_output@@CAPADXZ 10027569 f i libucrt:output.obj
 0001:0002656f       ?narrow_null_string@?$output_processor@_WV?$stream_output_adapter@_W@__crt_stdio_output@@V?$positional_parameter_base@_WV?$stream_output_adapter@_W@__crt_stdio_output@@@2@@__crt_stdio_output@@CAPADXZ 1002756f f i libucrt:output.obj
 0001:00026575       ?narrow_null_string@?$output_processor@_WV?$stream_output_adapter@_W@__crt_stdio_output@@V?$standard_base@_WV?$stream_output_adapter@_W@__crt_stdio_output@@@2@@__crt_stdio_output@@CAPADXZ 10027575 f i libucrt:output.obj
 0001:0002657b       ?narrow_null_string@?$output_processor@_WV?$string_output_adapter@_W@__crt_stdio_output@@V?$format_validation_base@_WV?$string_output_adapter@_W@__crt_stdio_output@@@2@@__crt_stdio_output@@CAPADXZ 1002757b f i libucrt:output.obj
 0001:00026581       ?narrow_null_string@?$output_processor@_WV?$string_output_adapter@_W@__crt_stdio_output@@V?$positional_parameter_base@_WV?$string_output_adapter@_W@__crt_stdio_output@@@2@@__crt_stdio_output@@CAPADXZ 10027581 f i libucrt:output.obj
 0001:00026587       ?narrow_null_string@?$output_processor@_WV?$string_output_adapter@_W@__crt_stdio_output@@V?$standard_base@_WV?$string_output_adapter@_W@__crt_stdio_output@@@2@@__crt_stdio_output@@CAPADXZ 10027587 f i libucrt:output.obj
 0001:0002658d       ?parse_int_from_format_string@?$output_processor@DV?$stream_output_adapter@D@__crt_stdio_output@@V?$format_validation_base@DV?$stream_output_adapter@D@__crt_stdio_output@@@2@@__crt_stdio_output@@AAE_NQAH@Z 1002758d f i libucrt:output.obj
 0001:00026623       ?parse_int_from_format_string@?$output_processor@DV?$stream_output_adapter@D@__crt_stdio_output@@V?$positional_parameter_base@DV?$stream_output_adapter@D@__crt_stdio_output@@@2@@__crt_stdio_output@@AAE_NQAH@Z 10027623 f i libucrt:output.obj
 0001:000266b9       ?parse_int_from_format_string@?$output_processor@DV?$stream_output_adapter@D@__crt_stdio_output@@V?$standard_base@DV?$stream_output_adapter@D@__crt_stdio_output@@@2@@__crt_stdio_output@@AAE_NQAH@Z 100276b9 f i libucrt:output.obj
 0001:0002674f       ?parse_int_from_format_string@?$output_processor@DV?$string_output_adapter@D@__crt_stdio_output@@V?$format_validation_base@DV?$string_output_adapter@D@__crt_stdio_output@@@2@@__crt_stdio_output@@AAE_NQAH@Z 1002774f f i libucrt:output.obj
 0001:000267e5       ?parse_int_from_format_string@?$output_processor@DV?$string_output_adapter@D@__crt_stdio_output@@V?$positional_parameter_base@DV?$string_output_adapter@D@__crt_stdio_output@@@2@@__crt_stdio_output@@AAE_NQAH@Z 100277e5 f i libucrt:output.obj
 0001:0002687b       ?parse_int_from_format_string@?$output_processor@DV?$string_output_adapter@D@__crt_stdio_output@@V?$standard_base@DV?$string_output_adapter@D@__crt_stdio_output@@@2@@__crt_stdio_output@@AAE_NQAH@Z 1002787b f i libucrt:output.obj
 0001:00026911       ?parse_int_from_format_string@?$output_processor@_WV?$stream_output_adapter@_W@__crt_stdio_output@@V?$format_validation_base@_WV?$stream_output_adapter@_W@__crt_stdio_output@@@2@@__crt_stdio_output@@AAE_NQAH@Z 10027911 f i libucrt:output.obj
 0001:000269a9       ?parse_int_from_format_string@?$output_processor@_WV?$stream_output_adapter@_W@__crt_stdio_output@@V?$positional_parameter_base@_WV?$stream_output_adapter@_W@__crt_stdio_output@@@2@@__crt_stdio_output@@AAE_NQAH@Z 100279a9 f i libucrt:output.obj
 0001:00026a41       ?parse_int_from_format_string@?$output_processor@_WV?$stream_output_adapter@_W@__crt_stdio_output@@V?$standard_base@_WV?$stream_output_adapter@_W@__crt_stdio_output@@@2@@__crt_stdio_output@@AAE_NQAH@Z 10027a41 f i libucrt:output.obj
 0001:00026ad9       ?parse_int_from_format_string@?$output_processor@_WV?$string_output_adapter@_W@__crt_stdio_output@@V?$format_validation_base@_WV?$string_output_adapter@_W@__crt_stdio_output@@@2@@__crt_stdio_output@@AAE_NQAH@Z 10027ad9 f i libucrt:output.obj
 0001:00026b71       ?parse_int_from_format_string@?$output_processor@_WV?$string_output_adapter@_W@__crt_stdio_output@@V?$positional_parameter_base@_WV?$string_output_adapter@_W@__crt_stdio_output@@@2@@__crt_stdio_output@@AAE_NQAH@Z 10027b71 f i libucrt:output.obj
 0001:00026c09       ?parse_int_from_format_string@?$output_processor@_WV?$string_output_adapter@_W@__crt_stdio_output@@V?$standard_base@_WV?$string_output_adapter@_W@__crt_stdio_output@@@2@@__crt_stdio_output@@AAE_NQAH@Z 10027c09 f i libucrt:output.obj
 0001:00026ca1       ?process@?$output_processor@DV?$stream_output_adapter@D@__crt_stdio_output@@V?$format_validation_base@DV?$stream_output_adapter@D@__crt_stdio_output@@@2@@__crt_stdio_output@@QAEHXZ 10027ca1 f i libucrt:output.obj
 0001:00026e13       ?process@?$output_processor@DV?$stream_output_adapter@D@__crt_stdio_output@@V?$positional_parameter_base@DV?$stream_output_adapter@D@__crt_stdio_output@@@2@@__crt_stdio_output@@QAEHXZ 10027e13 f i libucrt:output.obj
 0001:00026fc6       ?process@?$output_processor@DV?$stream_output_adapter@D@__crt_stdio_output@@V?$standard_base@DV?$stream_output_adapter@D@__crt_stdio_output@@@2@@__crt_stdio_output@@QAEHXZ 10027fc6 f i libucrt:output.obj
 0001:00027129       ?process@?$output_processor@DV?$string_output_adapter@D@__crt_stdio_output@@V?$format_validation_base@DV?$string_output_adapter@D@__crt_stdio_output@@@2@@__crt_stdio_output@@QAEHXZ 10028129 f i libucrt:output.obj
 0001:0002729b       ?process@?$output_processor@DV?$string_output_adapter@D@__crt_stdio_output@@V?$positional_parameter_base@DV?$string_output_adapter@D@__crt_stdio_output@@@2@@__crt_stdio_output@@QAEHXZ 1002829b f i libucrt:output.obj
 0001:0002744e       ?process@?$output_processor@DV?$string_output_adapter@D@__crt_stdio_output@@V?$standard_base@DV?$string_output_adapter@D@__crt_stdio_output@@@2@@__crt_stdio_output@@QAEHXZ 1002844e f i libucrt:output.obj
 0001:000275b1       ?process@?$output_processor@_WV?$stream_output_adapter@_W@__crt_stdio_output@@V?$format_validation_base@_WV?$stream_output_adapter@_W@__crt_stdio_output@@@2@@__crt_stdio_output@@QAEHXZ 100285b1 f i libucrt:output.obj
 0001:0002772d       ?process@?$output_processor@_WV?$stream_output_adapter@_W@__crt_stdio_output@@V?$positional_parameter_base@_WV?$stream_output_adapter@_W@__crt_stdio_output@@@2@@__crt_stdio_output@@QAEHXZ 1002872d f i libucrt:output.obj
 0001:000278e5       ?process@?$output_processor@_WV?$stream_output_adapter@_W@__crt_stdio_output@@V?$standard_base@_WV?$stream_output_adapter@_W@__crt_stdio_output@@@2@@__crt_stdio_output@@QAEHXZ 100288e5 f i libucrt:output.obj
 0001:00027a4d       ?process@?$output_processor@_WV?$string_output_adapter@_W@__crt_stdio_output@@V?$format_validation_base@_WV?$string_output_adapter@_W@__crt_stdio_output@@@2@@__crt_stdio_output@@QAEHXZ 10028a4d f i libucrt:output.obj
 0001:00027bc9       ?process@?$output_processor@_WV?$string_output_adapter@_W@__crt_stdio_output@@V?$positional_parameter_base@_WV?$string_output_adapter@_W@__crt_stdio_output@@@2@@__crt_stdio_output@@QAEHXZ 10028bc9 f i libucrt:output.obj
 0001:00027d81       ?process@?$output_processor@_WV?$string_output_adapter@_W@__crt_stdio_output@@V?$standard_base@_WV?$string_output_adapter@_W@__crt_stdio_output@@@2@@__crt_stdio_output@@QAEHXZ 10028d81 f i libucrt:output.obj
 0001:00027ee9       ?public_stream@__crt_stdio_stream@@QBEPAU_iobuf@@XZ 10028ee9 f i libucrt:output.obj
 0001:00027eec       ?set_flag@?$output_processor@DV?$stream_output_adapter@D@__crt_stdio_output@@V?$format_validation_base@DV?$stream_output_adapter@D@__crt_stdio_output@@@2@@__crt_stdio_output@@AAEXI@Z 10028eec f i libucrt:output.obj
 0001:00027efe       ?set_flag@?$output_processor@DV?$stream_output_adapter@D@__crt_stdio_output@@V?$positional_parameter_base@DV?$stream_output_adapter@D@__crt_stdio_output@@@2@@__crt_stdio_output@@AAEXI@Z 10028efe f i libucrt:output.obj
 0001:00027f10       ?set_flag@?$output_processor@DV?$stream_output_adapter@D@__crt_stdio_output@@V?$standard_base@DV?$stream_output_adapter@D@__crt_stdio_output@@@2@@__crt_stdio_output@@AAEXI@Z 10028f10 f i libucrt:output.obj
 0001:00027f22       ?set_flag@?$output_processor@DV?$string_output_adapter@D@__crt_stdio_output@@V?$format_validation_base@DV?$string_output_adapter@D@__crt_stdio_output@@@2@@__crt_stdio_output@@AAEXI@Z 10028f22 f i libucrt:output.obj
 0001:00027f34       ?set_flag@?$output_processor@DV?$string_output_adapter@D@__crt_stdio_output@@V?$positional_parameter_base@DV?$string_output_adapter@D@__crt_stdio_output@@@2@@__crt_stdio_output@@AAEXI@Z 10028f34 f i libucrt:output.obj
 0001:00027f46       ?set_flag@?$output_processor@DV?$string_output_adapter@D@__crt_stdio_output@@V?$standard_base@DV?$string_output_adapter@D@__crt_stdio_output@@@2@@__crt_stdio_output@@AAEXI@Z 10028f46 f i libucrt:output.obj
 0001:00027f58       ?set_flag@?$output_processor@_WV?$stream_output_adapter@_W@__crt_stdio_output@@V?$format_validation_base@_WV?$stream_output_adapter@_W@__crt_stdio_output@@@2@@__crt_stdio_output@@AAEXI@Z 10028f58 f i libucrt:output.obj
 0001:00027f6a       ?set_flag@?$output_processor@_WV?$stream_output_adapter@_W@__crt_stdio_output@@V?$positional_parameter_base@_WV?$stream_output_adapter@_W@__crt_stdio_output@@@2@@__crt_stdio_output@@AAEXI@Z 10028f6a f i libucrt:output.obj
 0001:00027f7c       ?set_flag@?$output_processor@_WV?$stream_output_adapter@_W@__crt_stdio_output@@V?$standard_base@_WV?$stream_output_adapter@_W@__crt_stdio_output@@@2@@__crt_stdio_output@@AAEXI@Z 10028f7c f i libucrt:output.obj
 0001:00027f8e       ?set_flag@?$output_processor@_WV?$string_output_adapter@_W@__crt_stdio_output@@V?$format_validation_base@_WV?$string_output_adapter@_W@__crt_stdio_output@@@2@@__crt_stdio_output@@AAEXI@Z 10028f8e f i libucrt:output.obj
 0001:00027fa0       ?set_flag@?$output_processor@_WV?$string_output_adapter@_W@__crt_stdio_output@@V?$positional_parameter_base@_WV?$string_output_adapter@_W@__crt_stdio_output@@@2@@__crt_stdio_output@@AAEXI@Z 10028fa0 f i libucrt:output.obj
 0001:00027fb2       ?set_flag@?$output_processor@_WV?$string_output_adapter@_W@__crt_stdio_output@@V?$standard_base@_WV?$string_output_adapter@_W@__crt_stdio_output@@@2@@__crt_stdio_output@@AAEXI@Z 10028fb2 f i libucrt:output.obj
 0001:00027fc4       ?should_format@?$positional_parameter_base@DV?$stream_output_adapter@D@__crt_stdio_output@@@__crt_stdio_output@@IAE_NXZ 10028fc4 f i libucrt:output.obj
 0001:00027fdf       ?should_format@?$positional_parameter_base@DV?$string_output_adapter@D@__crt_stdio_output@@@__crt_stdio_output@@IAE_NXZ 10028fdf f i libucrt:output.obj
 0001:00027ffa       ?should_format@?$positional_parameter_base@_WV?$stream_output_adapter@_W@__crt_stdio_output@@@__crt_stdio_output@@IAE_NXZ 10028ffa f i libucrt:output.obj
 0001:00028015       ?should_format@?$positional_parameter_base@_WV?$string_output_adapter@_W@__crt_stdio_output@@@__crt_stdio_output@@IAE_NXZ 10029015 f i libucrt:output.obj
 0001:00028030       ?should_format@?$standard_base@DV?$stream_output_adapter@D@__crt_stdio_output@@@__crt_stdio_output@@IAE_NXZ 10029030 f i libucrt:output.obj
 0001:00028033       ?should_format@?$standard_base@DV?$string_output_adapter@D@__crt_stdio_output@@@__crt_stdio_output@@IAE_NXZ 10029033 f i libucrt:output.obj
 0001:00028036       ?should_format@?$standard_base@_WV?$stream_output_adapter@_W@__crt_stdio_output@@@__crt_stdio_output@@IAE_NXZ 10029036 f i libucrt:output.obj
 0001:00028039       ?should_format@?$standard_base@_WV?$string_output_adapter@_W@__crt_stdio_output@@@__crt_stdio_output@@IAE_NXZ 10029039 f i libucrt:output.obj
 0001:0002803c       ?should_skip_normal_state_processing@?$positional_parameter_base@DV?$stream_output_adapter@D@__crt_stdio_output@@@__crt_stdio_output@@IAE_NXZ 1002903c f i libucrt:output.obj
 0001:0002806e       ?should_skip_normal_state_processing@?$positional_parameter_base@DV?$string_output_adapter@D@__crt_stdio_output@@@__crt_stdio_output@@IAE_NXZ 1002906e f i libucrt:output.obj
 0001:000280a0       ?should_skip_normal_state_processing@?$positional_parameter_base@_WV?$stream_output_adapter@_W@__crt_stdio_output@@@__crt_stdio_output@@IAE_NXZ 100290a0 f i libucrt:output.obj
 0001:000280d2       ?should_skip_normal_state_processing@?$positional_parameter_base@_WV?$string_output_adapter@_W@__crt_stdio_output@@@__crt_stdio_output@@IAE_NXZ 100290d2 f i libucrt:output.obj
 0001:00028104       ?should_skip_normal_state_processing@?$standard_base@DV?$stream_output_adapter@D@__crt_stdio_output@@@__crt_stdio_output@@IAE_NXZ 10029104 f i libucrt:output.obj
 0001:00028107       ?should_skip_normal_state_processing@?$standard_base@DV?$string_output_adapter@D@__crt_stdio_output@@@__crt_stdio_output@@IAE_NXZ 10029107 f i libucrt:output.obj
 0001:0002810a       ?should_skip_normal_state_processing@?$standard_base@_WV?$stream_output_adapter@_W@__crt_stdio_output@@@__crt_stdio_output@@IAE_NXZ 1002910a f i libucrt:output.obj
 0001:0002810d       ?should_skip_normal_state_processing@?$standard_base@_WV?$string_output_adapter@_W@__crt_stdio_output@@@__crt_stdio_output@@IAE_NXZ 1002910d f i libucrt:output.obj
 0001:00028110       ?should_skip_type_state_output@?$positional_parameter_base@DV?$stream_output_adapter@D@__crt_stdio_output@@@__crt_stdio_output@@IBE_NXZ 10029110 f i libucrt:output.obj
 0001:0002812c       ?should_skip_type_state_output@?$positional_parameter_base@DV?$string_output_adapter@D@__crt_stdio_output@@@__crt_stdio_output@@IBE_NXZ 1002912c f i libucrt:output.obj
 0001:00028148       ?should_skip_type_state_output@?$positional_parameter_base@_WV?$stream_output_adapter@_W@__crt_stdio_output@@@__crt_stdio_output@@IBE_NXZ 10029148 f i libucrt:output.obj
 0001:00028164       ?should_skip_type_state_output@?$positional_parameter_base@_WV?$string_output_adapter@_W@__crt_stdio_output@@@__crt_stdio_output@@IBE_NXZ 10029164 f i libucrt:output.obj
 0001:00028180       ?should_skip_type_state_output@?$standard_base@DV?$stream_output_adapter@D@__crt_stdio_output@@@__crt_stdio_output@@IBE_NXZ 10029180 f i libucrt:output.obj
 0001:00028183       ?should_skip_type_state_output@?$standard_base@DV?$string_output_adapter@D@__crt_stdio_output@@@__crt_stdio_output@@IBE_NXZ 10029183 f i libucrt:output.obj
 0001:00028186       ?should_skip_type_state_output@?$standard_base@_WV?$stream_output_adapter@_W@__crt_stdio_output@@@__crt_stdio_output@@IBE_NXZ 10029186 f i libucrt:output.obj
 0001:00028189       ?should_skip_type_state_output@?$standard_base@_WV?$string_output_adapter@_W@__crt_stdio_output@@@__crt_stdio_output@@IBE_NXZ 10029189 f i libucrt:output.obj
 0001:0002818c       ?state_case_dot@?$output_processor@DV?$stream_output_adapter@D@__crt_stdio_output@@V?$format_validation_base@DV?$stream_output_adapter@D@__crt_stdio_output@@@2@@__crt_stdio_output@@AAE_NXZ 1002918c f i libucrt:output.obj
 0001:00028193       ?state_case_dot@?$output_processor@DV?$stream_output_adapter@D@__crt_stdio_output@@V?$positional_parameter_base@DV?$stream_output_adapter@D@__crt_stdio_output@@@2@@__crt_stdio_output@@AAE_NXZ 10029193 f i libucrt:output.obj
 0001:0002819a       ?state_case_dot@?$output_processor@DV?$stream_output_adapter@D@__crt_stdio_output@@V?$standard_base@DV?$stream_output_adapter@D@__crt_stdio_output@@@2@@__crt_stdio_output@@AAE_NXZ 1002919a f i libucrt:output.obj
 0001:000281a1       ?state_case_dot@?$output_processor@DV?$string_output_adapter@D@__crt_stdio_output@@V?$format_validation_base@DV?$string_output_adapter@D@__crt_stdio_output@@@2@@__crt_stdio_output@@AAE_NXZ 100291a1 f i libucrt:output.obj
 0001:000281a8       ?state_case_dot@?$output_processor@DV?$string_output_adapter@D@__crt_stdio_output@@V?$positional_parameter_base@DV?$string_output_adapter@D@__crt_stdio_output@@@2@@__crt_stdio_output@@AAE_NXZ 100291a8 f i libucrt:output.obj
 0001:000281af       ?state_case_dot@?$output_processor@DV?$string_output_adapter@D@__crt_stdio_output@@V?$standard_base@DV?$string_output_adapter@D@__crt_stdio_output@@@2@@__crt_stdio_output@@AAE_NXZ 100291af f i libucrt:output.obj
 0001:000281b6       ?state_case_dot@?$output_processor@_WV?$stream_output_adapter@_W@__crt_stdio_output@@V?$format_validation_base@_WV?$stream_output_adapter@_W@__crt_stdio_output@@@2@@__crt_stdio_output@@AAE_NXZ 100291b6 f i libucrt:output.obj
 0001:000281bd       ?state_case_dot@?$output_processor@_WV?$stream_output_adapter@_W@__crt_stdio_output@@V?$positional_parameter_base@_WV?$stream_output_adapter@_W@__crt_stdio_output@@@2@@__crt_stdio_output@@AAE_NXZ 100291bd f i libucrt:output.obj
 0001:000281c4       ?state_case_dot@?$output_processor@_WV?$stream_output_adapter@_W@__crt_stdio_output@@V?$standard_base@_WV?$stream_output_adapter@_W@__crt_stdio_output@@@2@@__crt_stdio_output@@AAE_NXZ 100291c4 f i libucrt:output.obj
 0001:000281cb       ?state_case_dot@?$output_processor@_WV?$string_output_adapter@_W@__crt_stdio_output@@V?$format_validation_base@_WV?$string_output_adapter@_W@__crt_stdio_output@@@2@@__crt_stdio_output@@AAE_NXZ 100291cb f i libucrt:output.obj
 0001:000281d2       ?state_case_dot@?$output_processor@_WV?$string_output_adapter@_W@__crt_stdio_output@@V?$positional_parameter_base@_WV?$string_output_adapter@_W@__crt_stdio_output@@@2@@__crt_stdio_output@@AAE_NXZ 100291d2 f i libucrt:output.obj
 0001:000281d9       ?state_case_dot@?$output_processor@_WV?$string_output_adapter@_W@__crt_stdio_output@@V?$standard_base@_WV?$string_output_adapter@_W@__crt_stdio_output@@@2@@__crt_stdio_output@@AAE_NXZ 100291d9 f i libucrt:output.obj
 0001:000281e0       ?state_case_flag@?$output_processor@DV?$stream_output_adapter@D@__crt_stdio_output@@V?$format_validation_base@DV?$stream_output_adapter@D@__crt_stdio_output@@@2@@__crt_stdio_output@@AAE_NXZ 100291e0 f i libucrt:output.obj
 0001:0002822c       ?state_case_flag@?$output_processor@DV?$stream_output_adapter@D@__crt_stdio_output@@V?$positional_parameter_base@DV?$stream_output_adapter@D@__crt_stdio_output@@@2@@__crt_stdio_output@@AAE_NXZ 1002922c f i libucrt:output.obj
 0001:00028278       ?state_case_flag@?$output_processor@DV?$stream_output_adapter@D@__crt_stdio_output@@V?$standard_base@DV?$stream_output_adapter@D@__crt_stdio_output@@@2@@__crt_stdio_output@@AAE_NXZ 10029278 f i libucrt:output.obj
 0001:000282c4       ?state_case_flag@?$output_processor@DV?$string_output_adapter@D@__crt_stdio_output@@V?$format_validation_base@DV?$string_output_adapter@D@__crt_stdio_output@@@2@@__crt_stdio_output@@AAE_NXZ 100292c4 f i libucrt:output.obj
 0001:00028310       ?state_case_flag@?$output_processor@DV?$string_output_adapter@D@__crt_stdio_output@@V?$positional_parameter_base@DV?$string_output_adapter@D@__crt_stdio_output@@@2@@__crt_stdio_output@@AAE_NXZ 10029310 f i libucrt:output.obj
 0001:0002835c       ?state_case_flag@?$output_processor@DV?$string_output_adapter@D@__crt_stdio_output@@V?$standard_base@DV?$string_output_adapter@D@__crt_stdio_output@@@2@@__crt_stdio_output@@AAE_NXZ 1002935c f i libucrt:output.obj
 0001:000283a8       ?state_case_flag@?$output_processor@_WV?$stream_output_adapter@_W@__crt_stdio_output@@V?$format_validation_base@_WV?$stream_output_adapter@_W@__crt_stdio_output@@@2@@__crt_stdio_output@@AAE_NXZ 100293a8 f i libucrt:output.obj
 0001:000283f4       ?state_case_flag@?$output_processor@_WV?$stream_output_adapter@_W@__crt_stdio_output@@V?$positional_parameter_base@_WV?$stream_output_adapter@_W@__crt_stdio_output@@@2@@__crt_stdio_output@@AAE_NXZ 100293f4 f i libucrt:output.obj
 0001:00028440       ?state_case_flag@?$output_processor@_WV?$stream_output_adapter@_W@__crt_stdio_output@@V?$standard_base@_WV?$stream_output_adapter@_W@__crt_stdio_output@@@2@@__crt_stdio_output@@AAE_NXZ 10029440 f i libucrt:output.obj
 0001:0002848c       ?state_case_flag@?$output_processor@_WV?$string_output_adapter@_W@__crt_stdio_output@@V?$format_validation_base@_WV?$string_output_adapter@_W@__crt_stdio_output@@@2@@__crt_stdio_output@@AAE_NXZ 1002948c f i libucrt:output.obj
 0001:000284d8       ?state_case_flag@?$output_processor@_WV?$string_output_adapter@_W@__crt_stdio_output@@V?$positional_parameter_base@_WV?$string_output_adapter@_W@__crt_stdio_output@@@2@@__crt_stdio_output@@AAE_NXZ 100294d8 f i libucrt:output.obj
 0001:00028524       ?state_case_flag@?$output_processor@_WV?$string_output_adapter@_W@__crt_stdio_output@@V?$standard_base@_WV?$string_output_adapter@_W@__crt_stdio_output@@@2@@__crt_stdio_output@@AAE_NXZ 10029524 f i libucrt:output.obj
 0001:00028570       ?state_case_normal@?$output_processor@DV?$stream_output_adapter@D@__crt_stdio_output@@V?$format_validation_base@DV?$stream_output_adapter@D@__crt_stdio_output@@@2@@__crt_stdio_output@@AAE_NXZ 10029570 f i libucrt:output.obj
 0001:00028596       ?state_case_normal@?$output_processor@DV?$stream_output_adapter@D@__crt_stdio_output@@V?$positional_parameter_base@DV?$stream_output_adapter@D@__crt_stdio_output@@@2@@__crt_stdio_output@@AAE_NXZ 10029596 f i libucrt:output.obj
 0001:000285d3       ?state_case_normal@?$output_processor@DV?$stream_output_adapter@D@__crt_stdio_output@@V?$standard_base@DV?$stream_output_adapter@D@__crt_stdio_output@@@2@@__crt_stdio_output@@AAE_NXZ 100295d3 f i libucrt:output.obj
 0001:000285f9       ?state_case_normal@?$output_processor@DV?$string_output_adapter@D@__crt_stdio_output@@V?$format_validation_base@DV?$string_output_adapter@D@__crt_stdio_output@@@2@@__crt_stdio_output@@AAE_NXZ 100295f9 f i libucrt:output.obj
 0001:0002861f       ?state_case_normal@?$output_processor@DV?$string_output_adapter@D@__crt_stdio_output@@V?$positional_parameter_base@DV?$string_output_adapter@D@__crt_stdio_output@@@2@@__crt_stdio_output@@AAE_NXZ 1002961f f i libucrt:output.obj
 0001:0002865c       ?state_case_normal@?$output_processor@DV?$string_output_adapter@D@__crt_stdio_output@@V?$standard_base@DV?$string_output_adapter@D@__crt_stdio_output@@@2@@__crt_stdio_output@@AAE_NXZ 1002965c f i libucrt:output.obj
 0001:00028682       ?state_case_normal@?$output_processor@_WV?$stream_output_adapter@_W@__crt_stdio_output@@V?$format_validation_base@_WV?$stream_output_adapter@_W@__crt_stdio_output@@@2@@__crt_stdio_output@@AAE_NXZ 10029682 f i libucrt:output.obj
 0001:000286a8       ?state_case_normal@?$output_processor@_WV?$stream_output_adapter@_W@__crt_stdio_output@@V?$positional_parameter_base@_WV?$stream_output_adapter@_W@__crt_stdio_output@@@2@@__crt_stdio_output@@AAE_NXZ 100296a8 f i libucrt:output.obj
 0001:000286e5       ?state_case_normal@?$output_processor@_WV?$stream_output_adapter@_W@__crt_stdio_output@@V?$standard_base@_WV?$stream_output_adapter@_W@__crt_stdio_output@@@2@@__crt_stdio_output@@AAE_NXZ 100296e5 f i libucrt:output.obj
 0001:0002870b       ?state_case_normal@?$output_processor@_WV?$string_output_adapter@_W@__crt_stdio_output@@V?$format_validation_base@_WV?$string_output_adapter@_W@__crt_stdio_output@@@2@@__crt_stdio_output@@AAE_NXZ 1002970b f i libucrt:output.obj
 0001:00028731       ?state_case_normal@?$output_processor@_WV?$string_output_adapter@_W@__crt_stdio_output@@V?$positional_parameter_base@_WV?$string_output_adapter@_W@__crt_stdio_output@@@2@@__crt_stdio_output@@AAE_NXZ 10029731 f i libucrt:output.obj
 0001:0002876e       ?state_case_normal@?$output_processor@_WV?$string_output_adapter@_W@__crt_stdio_output@@V?$standard_base@_WV?$string_output_adapter@_W@__crt_stdio_output@@@2@@__crt_stdio_output@@AAE_NXZ 1002976e f i libucrt:output.obj
 0001:00028794       ?state_case_normal_common@?$output_processor@DV?$stream_output_adapter@D@__crt_stdio_output@@V?$format_validation_base@DV?$stream_output_adapter@D@__crt_stdio_output@@@2@@__crt_stdio_output@@AAE_NXZ 10029794 f i libucrt:output.obj
 0001:000287c8       ?state_case_normal_common@?$output_processor@DV?$stream_output_adapter@D@__crt_stdio_output@@V?$positional_parameter_base@DV?$stream_output_adapter@D@__crt_stdio_output@@@2@@__crt_stdio_output@@AAE_NXZ 100297c8 f i libucrt:output.obj
 0001:000287fc       ?state_case_normal_common@?$output_processor@DV?$stream_output_adapter@D@__crt_stdio_output@@V?$standard_base@DV?$stream_output_adapter@D@__crt_stdio_output@@@2@@__crt_stdio_output@@AAE_NXZ 100297fc f i libucrt:output.obj
 0001:00028830       ?state_case_normal_common@?$output_processor@DV?$string_output_adapter@D@__crt_stdio_output@@V?$format_validation_base@DV?$string_output_adapter@D@__crt_stdio_output@@@2@@__crt_stdio_output@@AAE_NXZ 10029830 f i libucrt:output.obj
 0001:00028864       ?state_case_normal_common@?$output_processor@DV?$string_output_adapter@D@__crt_stdio_output@@V?$positional_parameter_base@DV?$string_output_adapter@D@__crt_stdio_output@@@2@@__crt_stdio_output@@AAE_NXZ 10029864 f i libucrt:output.obj
 0001:00028898       ?state_case_normal_common@?$output_processor@DV?$string_output_adapter@D@__crt_stdio_output@@V?$standard_base@DV?$string_output_adapter@D@__crt_stdio_output@@@2@@__crt_stdio_output@@AAE_NXZ 10029898 f i libucrt:output.obj
 0001:000288cc       ?state_case_normal_common@?$output_processor@_WV?$stream_output_adapter@_W@__crt_stdio_output@@V?$format_validation_base@_WV?$stream_output_adapter@_W@__crt_stdio_output@@@2@@__crt_stdio_output@@AAE_NXZ 100298cc f i libucrt:output.obj
 0001:000288ed       ?state_case_normal_common@?$output_processor@_WV?$stream_output_adapter@_W@__crt_stdio_output@@V?$positional_parameter_base@_WV?$stream_output_adapter@_W@__crt_stdio_output@@@2@@__crt_stdio_output@@AAE_NXZ 100298ed f i libucrt:output.obj
 0001:0002890e       ?state_case_normal_common@?$output_processor@_WV?$stream_output_adapter@_W@__crt_stdio_output@@V?$standard_base@_WV?$stream_output_adapter@_W@__crt_stdio_output@@@2@@__crt_stdio_output@@AAE_NXZ 1002990e f i libucrt:output.obj
 0001:0002892f       ?state_case_normal_common@?$output_processor@_WV?$string_output_adapter@_W@__crt_stdio_output@@V?$format_validation_base@_WV?$string_output_adapter@_W@__crt_stdio_output@@@2@@__crt_stdio_output@@AAE_NXZ 1002992f f i libucrt:output.obj
 0001:00028950       ?state_case_normal_common@?$output_processor@_WV?$string_output_adapter@_W@__crt_stdio_output@@V?$positional_parameter_base@_WV?$string_output_adapter@_W@__crt_stdio_output@@@2@@__crt_stdio_output@@AAE_NXZ 10029950 f i libucrt:output.obj
 0001:00028971       ?state_case_normal_common@?$output_processor@_WV?$string_output_adapter@_W@__crt_stdio_output@@V?$standard_base@_WV?$string_output_adapter@_W@__crt_stdio_output@@@2@@__crt_stdio_output@@AAE_NXZ 10029971 f i libucrt:output.obj
 0001:00028992       ?state_case_normal_tchar@?$output_processor@DV?$stream_output_adapter@D@__crt_stdio_output@@V?$format_validation_base@DV?$stream_output_adapter@D@__crt_stdio_output@@@2@@__crt_stdio_output@@AAE_ND@Z 10029992 f i libucrt:output.obj
 0001:00028a0b       ?state_case_normal_tchar@?$output_processor@DV?$stream_output_adapter@D@__crt_stdio_output@@V?$positional_parameter_base@DV?$stream_output_adapter@D@__crt_stdio_output@@@2@@__crt_stdio_output@@AAE_ND@Z 10029a0b f i libucrt:output.obj
 0001:00028a84       ?state_case_normal_tchar@?$output_processor@DV?$stream_output_adapter@D@__crt_stdio_output@@V?$standard_base@DV?$stream_output_adapter@D@__crt_stdio_output@@@2@@__crt_stdio_output@@AAE_ND@Z 10029a84 f i libucrt:output.obj
 0001:00028afd       ?state_case_normal_tchar@?$output_processor@DV?$string_output_adapter@D@__crt_stdio_output@@V?$format_validation_base@DV?$string_output_adapter@D@__crt_stdio_output@@@2@@__crt_stdio_output@@AAE_ND@Z 10029afd f i libucrt:output.obj
 0001:00028b76       ?state_case_normal_tchar@?$output_processor@DV?$string_output_adapter@D@__crt_stdio_output@@V?$positional_parameter_base@DV?$string_output_adapter@D@__crt_stdio_output@@@2@@__crt_stdio_output@@AAE_ND@Z 10029b76 f i libucrt:output.obj
 0001:00028bef       ?state_case_normal_tchar@?$output_processor@DV?$string_output_adapter@D@__crt_stdio_output@@V?$standard_base@DV?$string_output_adapter@D@__crt_stdio_output@@@2@@__crt_stdio_output@@AAE_ND@Z 10029bef f i libucrt:output.obj
 0001:00028c68       ?state_case_normal_tchar@?$output_processor@_WV?$stream_output_adapter@_W@__crt_stdio_output@@V?$format_validation_base@_WV?$stream_output_adapter@_W@__crt_stdio_output@@@2@@__crt_stdio_output@@AAE_N_W@Z 10029c68 f i libucrt:output.obj
 0001:00028c73       ?state_case_normal_tchar@?$output_processor@_WV?$stream_output_adapter@_W@__crt_stdio_output@@V?$positional_parameter_base@_WV?$stream_output_adapter@_W@__crt_stdio_output@@@2@@__crt_stdio_output@@AAE_N_W@Z 10029c73 f i libucrt:output.obj
 0001:00028c7e       ?state_case_normal_tchar@?$output_processor@_WV?$stream_output_adapter@_W@__crt_stdio_output@@V?$standard_base@_WV?$stream_output_adapter@_W@__crt_stdio_output@@@2@@__crt_stdio_output@@AAE_N_W@Z 10029c7e f i libucrt:output.obj
 0001:00028c89       ?state_case_normal_tchar@?$output_processor@_WV?$string_output_adapter@_W@__crt_stdio_output@@V?$format_validation_base@_WV?$string_output_adapter@_W@__crt_stdio_output@@@2@@__crt_stdio_output@@AAE_N_W@Z 10029c89 f i libucrt:output.obj
 0001:00028c94       ?state_case_normal_tchar@?$output_processor@_WV?$string_output_adapter@_W@__crt_stdio_output@@V?$positional_parameter_base@_WV?$string_output_adapter@_W@__crt_stdio_output@@@2@@__crt_stdio_output@@AAE_N_W@Z 10029c94 f i libucrt:output.obj
 0001:00028c9f       ?state_case_normal_tchar@?$output_processor@_WV?$string_output_adapter@_W@__crt_stdio_output@@V?$standard_base@_WV?$string_output_adapter@_W@__crt_stdio_output@@@2@@__crt_stdio_output@@AAE_N_W@Z 10029c9f f i libucrt:output.obj
 0001:00028caa       ?state_case_percent@?$output_processor@DV?$stream_output_adapter@D@__crt_stdio_output@@V?$format_validation_base@DV?$stream_output_adapter@D@__crt_stdio_output@@@2@@__crt_stdio_output@@AAE_NXZ 10029caa f i libucrt:output.obj
 0001:00028cc8       ?state_case_percent@?$output_processor@DV?$stream_output_adapter@D@__crt_stdio_output@@V?$positional_parameter_base@DV?$stream_output_adapter@D@__crt_stdio_output@@@2@@__crt_stdio_output@@AAE_NXZ 10029cc8 f i libucrt:output.obj
 0001:00028ce6       ?state_case_percent@?$output_processor@DV?$stream_output_adapter@D@__crt_stdio_output@@V?$standard_base@DV?$stream_output_adapter@D@__crt_stdio_output@@@2@@__crt_stdio_output@@AAE_NXZ 10029ce6 f i libucrt:output.obj
 0001:00028d04       ?state_case_percent@?$output_processor@DV?$string_output_adapter@D@__crt_stdio_output@@V?$format_validation_base@DV?$string_output_adapter@D@__crt_stdio_output@@@2@@__crt_stdio_output@@AAE_NXZ 10029d04 f i libucrt:output.obj
 0001:00028d22       ?state_case_percent@?$output_processor@DV?$string_output_adapter@D@__crt_stdio_output@@V?$positional_parameter_base@DV?$string_output_adapter@D@__crt_stdio_output@@@2@@__crt_stdio_output@@AAE_NXZ 10029d22 f i libucrt:output.obj
 0001:00028d40       ?state_case_percent@?$output_processor@DV?$string_output_adapter@D@__crt_stdio_output@@V?$standard_base@DV?$string_output_adapter@D@__crt_stdio_output@@@2@@__crt_stdio_output@@AAE_NXZ 10029d40 f i libucrt:output.obj
 0001:00028d5e       ?state_case_percent@?$output_processor@_WV?$stream_output_adapter@_W@__crt_stdio_output@@V?$format_validation_base@_WV?$stream_output_adapter@_W@__crt_stdio_output@@@2@@__crt_stdio_output@@AAE_NXZ 10029d5e f i libucrt:output.obj
 0001:00028d7c       ?state_case_percent@?$output_processor@_WV?$stream_output_adapter@_W@__crt_stdio_output@@V?$positional_parameter_base@_WV?$stream_output_adapter@_W@__crt_stdio_output@@@2@@__crt_stdio_output@@AAE_NXZ 10029d7c f i libucrt:output.obj
 0001:00028d9a       ?state_case_percent@?$output_processor@_WV?$stream_output_adapter@_W@__crt_stdio_output@@V?$standard_base@_WV?$stream_output_adapter@_W@__crt_stdio_output@@@2@@__crt_stdio_output@@AAE_NXZ 10029d9a f i libucrt:output.obj
 0001:00028db8       ?state_case_percent@?$output_processor@_WV?$string_output_adapter@_W@__crt_stdio_output@@V?$format_validation_base@_WV?$string_output_adapter@_W@__crt_stdio_output@@@2@@__crt_stdio_output@@AAE_NXZ 10029db8 f i libucrt:output.obj
 0001:00028dd6       ?state_case_percent@?$output_processor@_WV?$string_output_adapter@_W@__crt_stdio_output@@V?$positional_parameter_base@_WV?$string_output_adapter@_W@__crt_stdio_output@@@2@@__crt_stdio_output@@AAE_NXZ 10029dd6 f i libucrt:output.obj
 0001:00028df4       ?state_case_percent@?$output_processor@_WV?$string_output_adapter@_W@__crt_stdio_output@@V?$standard_base@_WV?$string_output_adapter@_W@__crt_stdio_output@@@2@@__crt_stdio_output@@AAE_NXZ 10029df4 f i libucrt:output.obj
 0001:00028e12       ?state_case_precision@?$output_processor@DV?$stream_output_adapter@D@__crt_stdio_output@@V?$format_validation_base@DV?$stream_output_adapter@D@__crt_stdio_output@@@2@@__crt_stdio_output@@AAE_NXZ 10029e12 f i libucrt:output.obj
 0001:00028e44       ?state_case_precision@?$output_processor@DV?$stream_output_adapter@D@__crt_stdio_output@@V?$positional_parameter_base@DV?$stream_output_adapter@D@__crt_stdio_output@@@2@@__crt_stdio_output@@AAE_NXZ 10029e44 f i libucrt:output.obj
 0001:00028e8c       ?state_case_precision@?$output_processor@DV?$stream_output_adapter@D@__crt_stdio_output@@V?$standard_base@DV?$stream_output_adapter@D@__crt_stdio_output@@@2@@__crt_stdio_output@@AAE_NXZ 10029e8c f i libucrt:output.obj
 0001:00028ebe       ?state_case_precision@?$output_processor@DV?$string_output_adapter@D@__crt_stdio_output@@V?$format_validation_base@DV?$string_output_adapter@D@__crt_stdio_output@@@2@@__crt_stdio_output@@AAE_NXZ 10029ebe f i libucrt:output.obj
 0001:00028ef0       ?state_case_precision@?$output_processor@DV?$string_output_adapter@D@__crt_stdio_output@@V?$positional_parameter_base@DV?$string_output_adapter@D@__crt_stdio_output@@@2@@__crt_stdio_output@@AAE_NXZ 10029ef0 f i libucrt:output.obj
 0001:00028f38       ?state_case_precision@?$output_processor@DV?$string_output_adapter@D@__crt_stdio_output@@V?$standard_base@DV?$string_output_adapter@D@__crt_stdio_output@@@2@@__crt_stdio_output@@AAE_NXZ 10029f38 f i libucrt:output.obj
 0001:00028f6a       ?state_case_precision@?$output_processor@_WV?$stream_output_adapter@_W@__crt_stdio_output@@V?$format_validation_base@_WV?$stream_output_adapter@_W@__crt_stdio_output@@@2@@__crt_stdio_output@@AAE_NXZ 10029f6a f i libucrt:output.obj
 0001:00028f9d       ?state_case_precision@?$output_processor@_WV?$stream_output_adapter@_W@__crt_stdio_output@@V?$positional_parameter_base@_WV?$stream_output_adapter@_W@__crt_stdio_output@@@2@@__crt_stdio_output@@AAE_NXZ 10029f9d f i libucrt:output.obj
 0001:00028fe6       ?state_case_precision@?$output_processor@_WV?$stream_output_adapter@_W@__crt_stdio_output@@V?$standard_base@_WV?$stream_output_adapter@_W@__crt_stdio_output@@@2@@__crt_stdio_output@@AAE_NXZ 10029fe6 f i libucrt:output.obj
 0001:00029019       ?state_case_precision@?$output_processor@_WV?$string_output_adapter@_W@__crt_stdio_output@@V?$format_validation_base@_WV?$string_output_adapter@_W@__crt_stdio_output@@@2@@__crt_stdio_output@@AAE_NXZ 1002a019 f i libucrt:output.obj
 0001:0002904c       ?state_case_precision@?$output_processor@_WV?$string_output_adapter@_W@__crt_stdio_output@@V?$positional_parameter_base@_WV?$string_output_adapter@_W@__crt_stdio_output@@@2@@__crt_stdio_output@@AAE_NXZ 1002a04c f i libucrt:output.obj
 0001:00029095       ?state_case_precision@?$output_processor@_WV?$string_output_adapter@_W@__crt_stdio_output@@V?$standard_base@_WV?$string_output_adapter@_W@__crt_stdio_output@@@2@@__crt_stdio_output@@AAE_NXZ 1002a095 f i libucrt:output.obj
 0001:000290c8       ?state_case_size@?$output_processor@DV?$stream_output_adapter@D@__crt_stdio_output@@V?$format_validation_base@DV?$stream_output_adapter@D@__crt_stdio_output@@@2@@__crt_stdio_output@@AAE_NXZ 1002a0c8 f i libucrt:output.obj
 0001:0002928b       ?state_case_size@?$output_processor@DV?$stream_output_adapter@D@__crt_stdio_output@@V?$positional_parameter_base@DV?$stream_output_adapter@D@__crt_stdio_output@@@2@@__crt_stdio_output@@AAE_NXZ 1002a28b f i libucrt:output.obj
 0001:0002944e       ?state_case_size@?$output_processor@DV?$stream_output_adapter@D@__crt_stdio_output@@V?$standard_base@DV?$stream_output_adapter@D@__crt_stdio_output@@@2@@__crt_stdio_output@@AAE_NXZ 1002a44e f i libucrt:output.obj
 0001:00029611       ?state_case_size@?$output_processor@DV?$string_output_adapter@D@__crt_stdio_output@@V?$format_validation_base@DV?$string_output_adapter@D@__crt_stdio_output@@@2@@__crt_stdio_output@@AAE_NXZ 1002a611 f i libucrt:output.obj
 0001:000297d4       ?state_case_size@?$output_processor@DV?$string_output_adapter@D@__crt_stdio_output@@V?$positional_parameter_base@DV?$string_output_adapter@D@__crt_stdio_output@@@2@@__crt_stdio_output@@AAE_NXZ 1002a7d4 f i libucrt:output.obj
 0001:00029997       ?state_case_size@?$output_processor@DV?$string_output_adapter@D@__crt_stdio_output@@V?$standard_base@DV?$string_output_adapter@D@__crt_stdio_output@@@2@@__crt_stdio_output@@AAE_NXZ 1002a997 f i libucrt:output.obj
 0001:00029b5a       ?state_case_size@?$output_processor@_WV?$stream_output_adapter@_W@__crt_stdio_output@@V?$format_validation_base@_WV?$stream_output_adapter@_W@__crt_stdio_output@@@2@@__crt_stdio_output@@AAE_NXZ 1002ab5a f i libucrt:output.obj
 0001:00029d35       ?state_case_size@?$output_processor@_WV?$stream_output_adapter@_W@__crt_stdio_output@@V?$positional_parameter_base@_WV?$stream_output_adapter@_W@__crt_stdio_output@@@2@@__crt_stdio_output@@AAE_NXZ 1002ad35 f i libucrt:output.obj
 0001:00029f10       ?state_case_size@?$output_processor@_WV?$stream_output_adapter@_W@__crt_stdio_output@@V?$standard_base@_WV?$stream_output_adapter@_W@__crt_stdio_output@@@2@@__crt_stdio_output@@AAE_NXZ 1002af10 f i libucrt:output.obj
 0001:0002a0eb       ?state_case_size@?$output_processor@_WV?$string_output_adapter@_W@__crt_stdio_output@@V?$format_validation_base@_WV?$string_output_adapter@_W@__crt_stdio_output@@@2@@__crt_stdio_output@@AAE_NXZ 1002b0eb f i libucrt:output.obj
 0001:0002a2c6       ?state_case_size@?$output_processor@_WV?$string_output_adapter@_W@__crt_stdio_output@@V?$positional_parameter_base@_WV?$string_output_adapter@_W@__crt_stdio_output@@@2@@__crt_stdio_output@@AAE_NXZ 1002b2c6 f i libucrt:output.obj
 0001:0002a4a1       ?state_case_size@?$output_processor@_WV?$string_output_adapter@_W@__crt_stdio_output@@V?$standard_base@_WV?$string_output_adapter@_W@__crt_stdio_output@@@2@@__crt_stdio_output@@AAE_NXZ 1002b4a1 f i libucrt:output.obj
 0001:0002a67c       ?state_case_type@?$output_processor@DV?$stream_output_adapter@D@__crt_stdio_output@@V?$format_validation_base@DV?$stream_output_adapter@D@__crt_stdio_output@@@2@@__crt_stdio_output@@AAE_NXZ 1002b67c f i libucrt:output.obj
 0001:0002a938       ?state_case_type@?$output_processor@DV?$stream_output_adapter@D@__crt_stdio_output@@V?$positional_parameter_base@DV?$stream_output_adapter@D@__crt_stdio_output@@@2@@__crt_stdio_output@@AAE_NXZ 1002b938 f i libucrt:output.obj
 0001:0002ac01       ?state_case_type@?$output_processor@DV?$stream_output_adapter@D@__crt_stdio_output@@V?$standard_base@DV?$stream_output_adapter@D@__crt_stdio_output@@@2@@__crt_stdio_output@@AAE_NXZ 1002bc01 f i libucrt:output.obj
 0001:0002aebd       ?state_case_type@?$output_processor@DV?$string_output_adapter@D@__crt_stdio_output@@V?$format_validation_base@DV?$string_output_adapter@D@__crt_stdio_output@@@2@@__crt_stdio_output@@AAE_NXZ 1002bebd f i libucrt:output.obj
 0001:0002b179       ?state_case_type@?$output_processor@DV?$string_output_adapter@D@__crt_stdio_output@@V?$positional_parameter_base@DV?$string_output_adapter@D@__crt_stdio_output@@@2@@__crt_stdio_output@@AAE_NXZ 1002c179 f i libucrt:output.obj
 0001:0002b442       ?state_case_type@?$output_processor@DV?$string_output_adapter@D@__crt_stdio_output@@V?$standard_base@DV?$string_output_adapter@D@__crt_stdio_output@@@2@@__crt_stdio_output@@AAE_NXZ 1002c442 f i libucrt:output.obj
 0001:0002b6fe       ?state_case_type@?$output_processor@_WV?$stream_output_adapter@_W@__crt_stdio_output@@V?$format_validation_base@_WV?$stream_output_adapter@_W@__crt_stdio_output@@@2@@__crt_stdio_output@@AAE_NXZ 1002c6fe f i libucrt:output.obj
 0001:0002b9f3       ?state_case_type@?$output_processor@_WV?$stream_output_adapter@_W@__crt_stdio_output@@V?$positional_parameter_base@_WV?$stream_output_adapter@_W@__crt_stdio_output@@@2@@__crt_stdio_output@@AAE_NXZ 1002c9f3 f i libucrt:output.obj
 0001:0002bcfb       ?state_case_type@?$output_processor@_WV?$stream_output_adapter@_W@__crt_stdio_output@@V?$standard_base@_WV?$stream_output_adapter@_W@__crt_stdio_output@@@2@@__crt_stdio_output@@AAE_NXZ 1002ccfb f i libucrt:output.obj
 0001:0002bff0       ?state_case_type@?$output_processor@_WV?$string_output_adapter@_W@__crt_stdio_output@@V?$format_validation_base@_WV?$string_output_adapter@_W@__crt_stdio_output@@@2@@__crt_stdio_output@@AAE_NXZ 1002cff0 f i libucrt:output.obj
 0001:0002c2e5       ?state_case_type@?$output_processor@_WV?$string_output_adapter@_W@__crt_stdio_output@@V?$positional_parameter_base@_WV?$string_output_adapter@_W@__crt_stdio_output@@@2@@__crt_stdio_output@@AAE_NXZ 1002d2e5 f i libucrt:output.obj
 0001:0002c5ed       ?state_case_type@?$output_processor@_WV?$string_output_adapter@_W@__crt_stdio_output@@V?$standard_base@_WV?$string_output_adapter@_W@__crt_stdio_output@@@2@@__crt_stdio_output@@AAE_NXZ 1002d5ed f i libucrt:output.obj
 0001:0002c8e2       ?state_case_width@?$output_processor@DV?$stream_output_adapter@D@__crt_stdio_output@@V?$format_validation_base@DV?$stream_output_adapter@D@__crt_stdio_output@@@2@@__crt_stdio_output@@AAE_NXZ 1002d8e2 f i libucrt:output.obj
 0001:0002c917       ?state_case_width@?$output_processor@DV?$stream_output_adapter@D@__crt_stdio_output@@V?$positional_parameter_base@DV?$stream_output_adapter@D@__crt_stdio_output@@@2@@__crt_stdio_output@@AAE_NXZ 1002d917 f i libucrt:output.obj
 0001:0002c967       ?state_case_width@?$output_processor@DV?$stream_output_adapter@D@__crt_stdio_output@@V?$standard_base@DV?$stream_output_adapter@D@__crt_stdio_output@@@2@@__crt_stdio_output@@AAE_NXZ 1002d967 f i libucrt:output.obj
 0001:0002c99c       ?state_case_width@?$output_processor@DV?$string_output_adapter@D@__crt_stdio_output@@V?$format_validation_base@DV?$string_output_adapter@D@__crt_stdio_output@@@2@@__crt_stdio_output@@AAE_NXZ 1002d99c f i libucrt:output.obj
 0001:0002c9d1       ?state_case_width@?$output_processor@DV?$string_output_adapter@D@__crt_stdio_output@@V?$positional_parameter_base@DV?$string_output_adapter@D@__crt_stdio_output@@@2@@__crt_stdio_output@@AAE_NXZ 1002d9d1 f i libucrt:output.obj
 0001:0002ca21       ?state_case_width@?$output_processor@DV?$string_output_adapter@D@__crt_stdio_output@@V?$standard_base@DV?$string_output_adapter@D@__crt_stdio_output@@@2@@__crt_stdio_output@@AAE_NXZ 1002da21 f i libucrt:output.obj
 0001:0002ca56       ?state_case_width@?$output_processor@_WV?$stream_output_adapter@_W@__crt_stdio_output@@V?$format_validation_base@_WV?$stream_output_adapter@_W@__crt_stdio_output@@@2@@__crt_stdio_output@@AAE_NXZ 1002da56 f i libucrt:output.obj
 0001:0002ca8d       ?state_case_width@?$output_processor@_WV?$stream_output_adapter@_W@__crt_stdio_output@@V?$positional_parameter_base@_WV?$stream_output_adapter@_W@__crt_stdio_output@@@2@@__crt_stdio_output@@AAE_NXZ 1002da8d f i libucrt:output.obj
 0001:0002cade       ?state_case_width@?$output_processor@_WV?$stream_output_adapter@_W@__crt_stdio_output@@V?$standard_base@_WV?$stream_output_adapter@_W@__crt_stdio_output@@@2@@__crt_stdio_output@@AAE_NXZ 1002dade f i libucrt:output.obj
 0001:0002cb15       ?state_case_width@?$output_processor@_WV?$string_output_adapter@_W@__crt_stdio_output@@V?$format_validation_base@_WV?$string_output_adapter@_W@__crt_stdio_output@@@2@@__crt_stdio_output@@AAE_NXZ 1002db15 f i libucrt:output.obj
 0001:0002cb4c       ?state_case_width@?$output_processor@_WV?$string_output_adapter@_W@__crt_stdio_output@@V?$positional_parameter_base@_WV?$string_output_adapter@_W@__crt_stdio_output@@@2@@__crt_stdio_output@@AAE_NXZ 1002db4c f i libucrt:output.obj
 0001:0002cb9d       ?state_case_width@?$output_processor@_WV?$string_output_adapter@_W@__crt_stdio_output@@V?$standard_base@_WV?$string_output_adapter@_W@__crt_stdio_output@@@2@@__crt_stdio_output@@AAE_NXZ 1002db9d f i libucrt:output.obj
 0001:0002cbd4       ?state_count@?$format_validation_base@DV?$stream_output_adapter@D@__crt_stdio_output@@@__crt_stdio_output@@KAIXZ 1002dbd4 f i libucrt:output.obj
 0001:0002cbd8       ?state_count@?$format_validation_base@DV?$string_output_adapter@D@__crt_stdio_output@@@__crt_stdio_output@@KAIXZ 1002dbd8 f i libucrt:output.obj
 0001:0002cbdc       ?state_count@?$format_validation_base@_WV?$stream_output_adapter@_W@__crt_stdio_output@@@__crt_stdio_output@@KAIXZ 1002dbdc f i libucrt:output.obj
 0001:0002cbe0       ?state_count@?$format_validation_base@_WV?$string_output_adapter@_W@__crt_stdio_output@@@__crt_stdio_output@@KAIXZ 1002dbe0 f i libucrt:output.obj
 0001:0002cbe4       ?state_count@?$standard_base@DV?$stream_output_adapter@D@__crt_stdio_output@@@__crt_stdio_output@@KAIXZ 1002dbe4 f i libucrt:output.obj
 0001:0002cbe8       ?state_count@?$standard_base@DV?$string_output_adapter@D@__crt_stdio_output@@@__crt_stdio_output@@KAIXZ 1002dbe8 f i libucrt:output.obj
 0001:0002cbec       ?state_count@?$standard_base@_WV?$stream_output_adapter@_W@__crt_stdio_output@@@__crt_stdio_output@@KAIXZ 1002dbec f i libucrt:output.obj
 0001:0002cbf0       ?state_count@?$standard_base@_WV?$string_output_adapter@_W@__crt_stdio_output@@@__crt_stdio_output@@KAIXZ 1002dbf0 f i libucrt:output.obj
 0001:0002cbf4       ?state_transition_table@?$format_validation_base@DV?$stream_output_adapter@D@__crt_stdio_output@@@__crt_stdio_output@@KAPBEXZ 1002dbf4 f i libucrt:output.obj
 0001:0002cbfa       ?state_transition_table@?$format_validation_base@DV?$string_output_adapter@D@__crt_stdio_output@@@__crt_stdio_output@@KAPBEXZ 1002dbfa f i libucrt:output.obj
 0001:0002cc00       ?state_transition_table@?$format_validation_base@_WV?$stream_output_adapter@_W@__crt_stdio_output@@@__crt_stdio_output@@KAPBEXZ 1002dc00 f i libucrt:output.obj
 0001:0002cc06       ?state_transition_table@?$format_validation_base@_WV?$string_output_adapter@_W@__crt_stdio_output@@@__crt_stdio_output@@KAPBEXZ 1002dc06 f i libucrt:output.obj
 0001:0002cc0c       ?state_transition_table@?$standard_base@DV?$stream_output_adapter@D@__crt_stdio_output@@@__crt_stdio_output@@KAPBEXZ 1002dc0c f i libucrt:output.obj
 0001:0002cc12       ?state_transition_table@?$standard_base@DV?$string_output_adapter@D@__crt_stdio_output@@@__crt_stdio_output@@KAPBEXZ 1002dc12 f i libucrt:output.obj
 0001:0002cc18       ?state_transition_table@?$standard_base@_WV?$stream_output_adapter@_W@__crt_stdio_output@@@__crt_stdio_output@@KAPBEXZ 1002dc18 f i libucrt:output.obj
 0001:0002cc1e       ?state_transition_table@?$standard_base@_WV?$string_output_adapter@_W@__crt_stdio_output@@@__crt_stdio_output@@KAPBEXZ 1002dc1e f i libucrt:output.obj
 0001:0002cc24       ?tchar_string@?$common_data@D@__crt_stdio_output@@IAEAAPADD@Z 1002dc24 f i libucrt:output.obj
 0001:0002cc2a       ?tchar_string@?$common_data@D@__crt_stdio_output@@IAEAAPADXZ 1002dc2a f i libucrt:output.obj
 0001:0002cc2e       ?tchar_string@?$common_data@_W@__crt_stdio_output@@IAEAAPA_WXZ 1002dc2e f i libucrt:output.obj
 0001:0002cc32       ?tchar_string@?$common_data@_W@__crt_stdio_output@@IAEAAPA_W_W@Z 1002dc32 f i libucrt:output.obj
 0001:0002cc38       ?to_integer_size@__crt_stdio_output@@YAIW4length_modifier@1@@Z 1002dc38 f i libucrt:output.obj
 0001:0002ccab       ?type_case_X@?$output_processor@DV?$stream_output_adapter@D@__crt_stdio_output@@V?$format_validation_base@DV?$stream_output_adapter@D@__crt_stdio_output@@@2@@__crt_stdio_output@@AAE_NXZ 1002dcab f i libucrt:output.obj
 0001:0002ccb7       ?type_case_X@?$output_processor@DV?$stream_output_adapter@D@__crt_stdio_output@@V?$positional_parameter_base@DV?$stream_output_adapter@D@__crt_stdio_output@@@2@@__crt_stdio_output@@AAE_NXZ 1002dcb7 f i libucrt:output.obj
 0001:0002ccc3       ?type_case_X@?$output_processor@DV?$stream_output_adapter@D@__crt_stdio_output@@V?$standard_base@DV?$stream_output_adapter@D@__crt_stdio_output@@@2@@__crt_stdio_output@@AAE_NXZ 1002dcc3 f i libucrt:output.obj
 0001:0002cccf       ?type_case_X@?$output_processor@DV?$string_output_adapter@D@__crt_stdio_output@@V?$format_validation_base@DV?$string_output_adapter@D@__crt_stdio_output@@@2@@__crt_stdio_output@@AAE_NXZ 1002dccf f i libucrt:output.obj
 0001:0002ccdb       ?type_case_X@?$output_processor@DV?$string_output_adapter@D@__crt_stdio_output@@V?$positional_parameter_base@DV?$string_output_adapter@D@__crt_stdio_output@@@2@@__crt_stdio_output@@AAE_NXZ 1002dcdb f i libucrt:output.obj
 0001:0002cce7       ?type_case_X@?$output_processor@DV?$string_output_adapter@D@__crt_stdio_output@@V?$standard_base@DV?$string_output_adapter@D@__crt_stdio_output@@@2@@__crt_stdio_output@@AAE_NXZ 1002dce7 f i libucrt:output.obj
 0001:0002ccf3       ?type_case_X@?$output_processor@_WV?$stream_output_adapter@_W@__crt_stdio_output@@V?$format_validation_base@_WV?$stream_output_adapter@_W@__crt_stdio_output@@@2@@__crt_stdio_output@@AAE_NXZ 1002dcf3 f i libucrt:output.obj
 0001:0002ccff       ?type_case_X@?$output_processor@_WV?$stream_output_adapter@_W@__crt_stdio_output@@V?$positional_parameter_base@_WV?$stream_output_adapter@_W@__crt_stdio_output@@@2@@__crt_stdio_output@@AAE_NXZ 1002dcff f i libucrt:output.obj
 0001:0002cd0b       ?type_case_X@?$output_processor@_WV?$stream_output_adapter@_W@__crt_stdio_output@@V?$standard_base@_WV?$stream_output_adapter@_W@__crt_stdio_output@@@2@@__crt_stdio_output@@AAE_NXZ 1002dd0b f i libucrt:output.obj
 0001:0002cd17       ?type_case_X@?$output_processor@_WV?$string_output_adapter@_W@__crt_stdio_output@@V?$format_validation_base@_WV?$string_output_adapter@_W@__crt_stdio_output@@@2@@__crt_stdio_output@@AAE_NXZ 1002dd17 f i libucrt:output.obj
 0001:0002cd23       ?type_case_X@?$output_processor@_WV?$string_output_adapter@_W@__crt_stdio_output@@V?$positional_parameter_base@_WV?$string_output_adapter@_W@__crt_stdio_output@@@2@@__crt_stdio_output@@AAE_NXZ 1002dd23 f i libucrt:output.obj
 0001:0002cd2f       ?type_case_X@?$output_processor@_WV?$string_output_adapter@_W@__crt_stdio_output@@V?$standard_base@_WV?$string_output_adapter@_W@__crt_stdio_output@@@2@@__crt_stdio_output@@AAE_NXZ 1002dd2f f i libucrt:output.obj
 0001:0002cd3b       ?type_case_Z@?$output_processor@DV?$stream_output_adapter@D@__crt_stdio_output@@V?$format_validation_base@DV?$stream_output_adapter@D@__crt_stdio_output@@@2@@__crt_stdio_output@@AAE_NXZ 1002dd3b f i libucrt:output.obj
 0001:0002cdb6       ?type_case_Z@?$output_processor@DV?$stream_output_adapter@D@__crt_stdio_output@@V?$positional_parameter_base@DV?$stream_output_adapter@D@__crt_stdio_output@@@2@@__crt_stdio_output@@AAE_NXZ 1002ddb6 f i libucrt:output.obj
 0001:0002ce54       ?type_case_Z@?$output_processor@DV?$stream_output_adapter@D@__crt_stdio_output@@V?$standard_base@DV?$stream_output_adapter@D@__crt_stdio_output@@@2@@__crt_stdio_output@@AAE_NXZ 1002de54 f i libucrt:output.obj
 0001:0002cecf       ?type_case_Z@?$output_processor@DV?$string_output_adapter@D@__crt_stdio_output@@V?$format_validation_base@DV?$string_output_adapter@D@__crt_stdio_output@@@2@@__crt_stdio_output@@AAE_NXZ 1002decf f i libucrt:output.obj
 0001:0002cf4a       ?type_case_Z@?$output_processor@DV?$string_output_adapter@D@__crt_stdio_output@@V?$positional_parameter_base@DV?$string_output_adapter@D@__crt_stdio_output@@@2@@__crt_stdio_output@@AAE_NXZ 1002df4a f i libucrt:output.obj
 0001:0002cfe8       ?type_case_Z@?$output_processor@DV?$string_output_adapter@D@__crt_stdio_output@@V?$standard_base@DV?$string_output_adapter@D@__crt_stdio_output@@@2@@__crt_stdio_output@@AAE_NXZ 1002dfe8 f i libucrt:output.obj
 0001:0002d063       ?type_case_Z@?$output_processor@_WV?$stream_output_adapter@_W@__crt_stdio_output@@V?$format_validation_base@_WV?$stream_output_adapter@_W@__crt_stdio_output@@@2@@__crt_stdio_output@@AAE_NXZ 1002e063 f i libucrt:output.obj
 0001:0002d0de       ?type_case_Z@?$output_processor@_WV?$stream_output_adapter@_W@__crt_stdio_output@@V?$positional_parameter_base@_WV?$stream_output_adapter@_W@__crt_stdio_output@@@2@@__crt_stdio_output@@AAE_NXZ 1002e0de f i libucrt:output.obj
 0001:0002d17c       ?type_case_Z@?$output_processor@_WV?$stream_output_adapter@_W@__crt_stdio_output@@V?$standard_base@_WV?$stream_output_adapter@_W@__crt_stdio_output@@@2@@__crt_stdio_output@@AAE_NXZ 1002e17c f i libucrt:output.obj
 0001:0002d1f7       ?type_case_Z@?$output_processor@_WV?$string_output_adapter@_W@__crt_stdio_output@@V?$format_validation_base@_WV?$string_output_adapter@_W@__crt_stdio_output@@@2@@__crt_stdio_output@@AAE_NXZ 1002e1f7 f i libucrt:output.obj
 0001:0002d272       ?type_case_Z@?$output_processor@_WV?$string_output_adapter@_W@__crt_stdio_output@@V?$positional_parameter_base@_WV?$string_output_adapter@_W@__crt_stdio_output@@@2@@__crt_stdio_output@@AAE_NXZ 1002e272 f i libucrt:output.obj
 0001:0002d310       ?type_case_Z@?$output_processor@_WV?$string_output_adapter@_W@__crt_stdio_output@@V?$standard_base@_WV?$string_output_adapter@_W@__crt_stdio_output@@@2@@__crt_stdio_output@@AAE_NXZ 1002e310 f i libucrt:output.obj
 0001:0002d38b       ?type_case_a@?$output_processor@DV?$stream_output_adapter@D@__crt_stdio_output@@V?$format_validation_base@DV?$stream_output_adapter@D@__crt_stdio_output@@@2@@__crt_stdio_output@@AAE_NXZ 1002e38b f i libucrt:output.obj
 0001:0002d53b       ?type_case_a@?$output_processor@DV?$stream_output_adapter@D@__crt_stdio_output@@V?$positional_parameter_base@DV?$stream_output_adapter@D@__crt_stdio_output@@@2@@__crt_stdio_output@@AAE_NXZ 1002e53b f i libucrt:output.obj
 0001:0002d712       ?type_case_a@?$output_processor@DV?$stream_output_adapter@D@__crt_stdio_output@@V?$standard_base@DV?$stream_output_adapter@D@__crt_stdio_output@@@2@@__crt_stdio_output@@AAE_NXZ 1002e712 f i libucrt:output.obj
 0001:0002d8c2       ?type_case_a@?$output_processor@DV?$string_output_adapter@D@__crt_stdio_output@@V?$format_validation_base@DV?$string_output_adapter@D@__crt_stdio_output@@@2@@__crt_stdio_output@@AAE_NXZ 1002e8c2 f i libucrt:output.obj
 0001:0002da72       ?type_case_a@?$output_processor@DV?$string_output_adapter@D@__crt_stdio_output@@V?$positional_parameter_base@DV?$string_output_adapter@D@__crt_stdio_output@@@2@@__crt_stdio_output@@AAE_NXZ 1002ea72 f i libucrt:output.obj
 0001:0002dc49       ?type_case_a@?$output_processor@DV?$string_output_adapter@D@__crt_stdio_output@@V?$standard_base@DV?$string_output_adapter@D@__crt_stdio_output@@@2@@__crt_stdio_output@@AAE_NXZ 1002ec49 f i libucrt:output.obj
 0001:0002ddf9       ?type_case_a@?$output_processor@_WV?$stream_output_adapter@_W@__crt_stdio_output@@V?$format_validation_base@_WV?$stream_output_adapter@_W@__crt_stdio_output@@@2@@__crt_stdio_output@@AAE_NXZ 1002edf9 f i libucrt:output.obj
 0001:0002dfc7       ?type_case_a@?$output_processor@_WV?$stream_output_adapter@_W@__crt_stdio_output@@V?$positional_parameter_base@_WV?$stream_output_adapter@_W@__crt_stdio_output@@@2@@__crt_stdio_output@@AAE_NXZ 1002efc7 f i libucrt:output.obj
 0001:0002e1bc       ?type_case_a@?$output_processor@_WV?$stream_output_adapter@_W@__crt_stdio_output@@V?$standard_base@_WV?$stream_output_adapter@_W@__crt_stdio_output@@@2@@__crt_stdio_output@@AAE_NXZ 1002f1bc f i libucrt:output.obj
 0001:0002e38a       ?type_case_a@?$output_processor@_WV?$string_output_adapter@_W@__crt_stdio_output@@V?$format_validation_base@_WV?$string_output_adapter@_W@__crt_stdio_output@@@2@@__crt_stdio_output@@AAE_NXZ 1002f38a f i libucrt:output.obj
 0001:0002e558       ?type_case_a@?$output_processor@_WV?$string_output_adapter@_W@__crt_stdio_output@@V?$positional_parameter_base@_WV?$string_output_adapter@_W@__crt_stdio_output@@@2@@__crt_stdio_output@@AAE_NXZ 1002f558 f i libucrt:output.obj
 0001:0002e74d       ?type_case_a@?$output_processor@_WV?$string_output_adapter@_W@__crt_stdio_output@@V?$standard_base@_WV?$string_output_adapter@_W@__crt_stdio_output@@@2@@__crt_stdio_output@@AAE_NXZ 1002f74d f i libucrt:output.obj
 0001:0002e91b       ?type_case_c@?$output_processor@DV?$stream_output_adapter@D@__crt_stdio_output@@V?$format_validation_base@DV?$stream_output_adapter@D@__crt_stdio_output@@@2@@__crt_stdio_output@@AAE_NXZ 1002f91b f i libucrt:output.obj
 0001:0002e925       ?type_case_c@?$output_processor@DV?$stream_output_adapter@D@__crt_stdio_output@@V?$positional_parameter_base@DV?$stream_output_adapter@D@__crt_stdio_output@@@2@@__crt_stdio_output@@AAE_NXZ 1002f925 f i libucrt:output.obj
 0001:0002e92f       ?type_case_c@?$output_processor@DV?$stream_output_adapter@D@__crt_stdio_output@@V?$standard_base@DV?$stream_output_adapter@D@__crt_stdio_output@@@2@@__crt_stdio_output@@AAE_NXZ 1002f92f f i libucrt:output.obj
 0001:0002e939       ?type_case_c@?$output_processor@DV?$string_output_adapter@D@__crt_stdio_output@@V?$format_validation_base@DV?$string_output_adapter@D@__crt_stdio_output@@@2@@__crt_stdio_output@@AAE_NXZ 1002f939 f i libucrt:output.obj
 0001:0002e943       ?type_case_c@?$output_processor@DV?$string_output_adapter@D@__crt_stdio_output@@V?$positional_parameter_base@DV?$string_output_adapter@D@__crt_stdio_output@@@2@@__crt_stdio_output@@AAE_NXZ 1002f943 f i libucrt:output.obj
 0001:0002e94d       ?type_case_c@?$output_processor@DV?$string_output_adapter@D@__crt_stdio_output@@V?$standard_base@DV?$string_output_adapter@D@__crt_stdio_output@@@2@@__crt_stdio_output@@AAE_NXZ 1002f94d f i libucrt:output.obj
 0001:0002e957       ?type_case_c@?$output_processor@_WV?$stream_output_adapter@_W@__crt_stdio_output@@V?$format_validation_base@_WV?$stream_output_adapter@_W@__crt_stdio_output@@@2@@__crt_stdio_output@@AAE_NXZ 1002f957 f i libucrt:output.obj
 0001:0002e961       ?type_case_c@?$output_processor@_WV?$stream_output_adapter@_W@__crt_stdio_output@@V?$positional_parameter_base@_WV?$stream_output_adapter@_W@__crt_stdio_output@@@2@@__crt_stdio_output@@AAE_NXZ 1002f961 f i libucrt:output.obj
 0001:0002e96b       ?type_case_c@?$output_processor@_WV?$stream_output_adapter@_W@__crt_stdio_output@@V?$standard_base@_WV?$stream_output_adapter@_W@__crt_stdio_output@@@2@@__crt_stdio_output@@AAE_NXZ 1002f96b f i libucrt:output.obj
 0001:0002e975       ?type_case_c@?$output_processor@_WV?$string_output_adapter@_W@__crt_stdio_output@@V?$format_validation_base@_WV?$string_output_adapter@_W@__crt_stdio_output@@@2@@__crt_stdio_output@@AAE_NXZ 1002f975 f i libucrt:output.obj
 0001:0002e97f       ?type_case_c@?$output_processor@_WV?$string_output_adapter@_W@__crt_stdio_output@@V?$positional_parameter_base@_WV?$string_output_adapter@_W@__crt_stdio_output@@@2@@__crt_stdio_output@@AAE_NXZ 1002f97f f i libucrt:output.obj
 0001:0002e989       ?type_case_c@?$output_processor@_WV?$string_output_adapter@_W@__crt_stdio_output@@V?$standard_base@_WV?$string_output_adapter@_W@__crt_stdio_output@@@2@@__crt_stdio_output@@AAE_NXZ 1002f989 f i libucrt:output.obj
 0001:0002e993       ?type_case_c_tchar@?$output_processor@DV?$stream_output_adapter@D@__crt_stdio_output@@V?$format_validation_base@DV?$stream_output_adapter@D@__crt_stdio_output@@@2@@__crt_stdio_output@@AAE_ND@Z 1002f993 f i libucrt:output.obj
 0001:0002ea47       ?type_case_c_tchar@?$output_processor@DV?$stream_output_adapter@D@__crt_stdio_output@@V?$positional_parameter_base@DV?$stream_output_adapter@D@__crt_stdio_output@@@2@@__crt_stdio_output@@AAE_ND@Z 1002fa47 f i libucrt:output.obj
 0001:0002eb37       ?type_case_c_tchar@?$output_processor@DV?$stream_output_adapter@D@__crt_stdio_output@@V?$standard_base@DV?$stream_output_adapter@D@__crt_stdio_output@@@2@@__crt_stdio_output@@AAE_ND@Z 1002fb37 f i libucrt:output.obj
 0001:0002ebeb       ?type_case_c_tchar@?$output_processor@DV?$string_output_adapter@D@__crt_stdio_output@@V?$format_validation_base@DV?$string_output_adapter@D@__crt_stdio_output@@@2@@__crt_stdio_output@@AAE_ND@Z 1002fbeb f i libucrt:output.obj
 0001:0002ec9f       ?type_case_c_tchar@?$output_processor@DV?$string_output_adapter@D@__crt_stdio_output@@V?$positional_parameter_base@DV?$string_output_adapter@D@__crt_stdio_output@@@2@@__crt_stdio_output@@AAE_ND@Z 1002fc9f f i libucrt:output.obj
 0001:0002ed8f       ?type_case_c_tchar@?$output_processor@DV?$string_output_adapter@D@__crt_stdio_output@@V?$standard_base@DV?$string_output_adapter@D@__crt_stdio_output@@@2@@__crt_stdio_output@@AAE_ND@Z 1002fd8f f i libucrt:output.obj
 0001:0002ee43       ?type_case_c_tchar@?$output_processor@_WV?$stream_output_adapter@_W@__crt_stdio_output@@V?$format_validation_base@_WV?$stream_output_adapter@_W@__crt_stdio_output@@@2@@__crt_stdio_output@@AAE_N_W@Z 1002fe43 f i libucrt:output.obj
 0001:0002ef01       ?type_case_c_tchar@?$output_processor@_WV?$stream_output_adapter@_W@__crt_stdio_output@@V?$positional_parameter_base@_WV?$stream_output_adapter@_W@__crt_stdio_output@@@2@@__crt_stdio_output@@AAE_N_W@Z 1002ff01 f i libucrt:output.obj
 0001:0002efdb       ?type_case_c_tchar@?$output_processor@_WV?$stream_output_adapter@_W@__crt_stdio_output@@V?$standard_base@_WV?$stream_output_adapter@_W@__crt_stdio_output@@@2@@__crt_stdio_output@@AAE_N_W@Z 1002ffdb f i libucrt:output.obj
 0001:0002f099       ?type_case_c_tchar@?$output_processor@_WV?$string_output_adapter@_W@__crt_stdio_output@@V?$format_validation_base@_WV?$string_output_adapter@_W@__crt_stdio_output@@@2@@__crt_stdio_output@@AAE_N_W@Z 10030099 f i libucrt:output.obj
 0001:0002f157       ?type_case_c_tchar@?$output_processor@_WV?$string_output_adapter@_W@__crt_stdio_output@@V?$positional_parameter_base@_WV?$string_output_adapter@_W@__crt_stdio_output@@@2@@__crt_stdio_output@@AAE_N_W@Z 10030157 f i libucrt:output.obj
 0001:0002f231       ?type_case_c_tchar@?$output_processor@_WV?$string_output_adapter@_W@__crt_stdio_output@@V?$standard_base@_WV?$string_output_adapter@_W@__crt_stdio_output@@@2@@__crt_stdio_output@@AAE_N_W@Z 10030231 f i libucrt:output.obj
 0001:0002f2ef       ?type_case_d@?$output_processor@DV?$stream_output_adapter@D@__crt_stdio_output@@V?$format_validation_base@DV?$stream_output_adapter@D@__crt_stdio_output@@@2@@__crt_stdio_output@@AAE_NXZ 100302ef f i libucrt:output.obj
 0001:0002f300       ?type_case_d@?$output_processor@DV?$stream_output_adapter@D@__crt_stdio_output@@V?$positional_parameter_base@DV?$stream_output_adapter@D@__crt_stdio_output@@@2@@__crt_stdio_output@@AAE_NXZ 10030300 f i libucrt:output.obj
 0001:0002f311       ?type_case_d@?$output_processor@DV?$stream_output_adapter@D@__crt_stdio_output@@V?$standard_base@DV?$stream_output_adapter@D@__crt_stdio_output@@@2@@__crt_stdio_output@@AAE_NXZ 10030311 f i libucrt:output.obj
 0001:0002f322       ?type_case_d@?$output_processor@DV?$string_output_adapter@D@__crt_stdio_output@@V?$format_validation_base@DV?$string_output_adapter@D@__crt_stdio_output@@@2@@__crt_stdio_output@@AAE_NXZ 10030322 f i libucrt:output.obj
 0001:0002f333       ?type_case_d@?$output_processor@DV?$string_output_adapter@D@__crt_stdio_output@@V?$positional_parameter_base@DV?$string_output_adapter@D@__crt_stdio_output@@@2@@__crt_stdio_output@@AAE_NXZ 10030333 f i libucrt:output.obj
 0001:0002f344       ?type_case_d@?$output_processor@DV?$string_output_adapter@D@__crt_stdio_output@@V?$standard_base@DV?$string_output_adapter@D@__crt_stdio_output@@@2@@__crt_stdio_output@@AAE_NXZ 10030344 f i libucrt:output.obj
 0001:0002f355       ?type_case_d@?$output_processor@_WV?$stream_output_adapter@_W@__crt_stdio_output@@V?$format_validation_base@_WV?$stream_output_adapter@_W@__crt_stdio_output@@@2@@__crt_stdio_output@@AAE_NXZ 10030355 f i libucrt:output.obj
 0001:0002f366       ?type_case_d@?$output_processor@_WV?$stream_output_adapter@_W@__crt_stdio_output@@V?$positional_parameter_base@_WV?$stream_output_adapter@_W@__crt_stdio_output@@@2@@__crt_stdio_output@@AAE_NXZ 10030366 f i libucrt:output.obj
 0001:0002f377       ?type_case_d@?$output_processor@_WV?$stream_output_adapter@_W@__crt_stdio_output@@V?$standard_base@_WV?$stream_output_adapter@_W@__crt_stdio_output@@@2@@__crt_stdio_output@@AAE_NXZ 10030377 f i libucrt:output.obj
 0001:0002f388       ?type_case_d@?$output_processor@_WV?$string_output_adapter@_W@__crt_stdio_output@@V?$format_validation_base@_WV?$string_output_adapter@_W@__crt_stdio_output@@@2@@__crt_stdio_output@@AAE_NXZ 10030388 f i libucrt:output.obj
 0001:0002f399       ?type_case_d@?$output_processor@_WV?$string_output_adapter@_W@__crt_stdio_output@@V?$positional_parameter_base@_WV?$string_output_adapter@_W@__crt_stdio_output@@@2@@__crt_stdio_output@@AAE_NXZ 10030399 f i libucrt:output.obj
 0001:0002f3aa       ?type_case_d@?$output_processor@_WV?$string_output_adapter@_W@__crt_stdio_output@@V?$standard_base@_WV?$string_output_adapter@_W@__crt_stdio_output@@@2@@__crt_stdio_output@@AAE_NXZ 100303aa f i libucrt:output.obj
 0001:0002f3bb       ?type_case_integer@?$output_processor@DV?$stream_output_adapter@D@__crt_stdio_output@@V?$format_validation_base@DV?$stream_output_adapter@D@__crt_stdio_output@@@2@@__crt_stdio_output@@AAE_NI_N@Z 100303bb f i libucrt:output.obj
 0001:0002f55c       ?type_case_integer@?$output_processor@DV?$stream_output_adapter@D@__crt_stdio_output@@V?$positional_parameter_base@DV?$stream_output_adapter@D@__crt_stdio_output@@@2@@__crt_stdio_output@@AAE_NI_N@Z 1003055c f i libucrt:output.obj
 0001:0002f73e       ?type_case_integer@?$output_processor@DV?$stream_output_adapter@D@__crt_stdio_output@@V?$standard_base@DV?$stream_output_adapter@D@__crt_stdio_output@@@2@@__crt_stdio_output@@AAE_NI_N@Z 1003073e f i libucrt:output.obj
 0001:0002f8df       ?type_case_integer@?$output_processor@DV?$string_output_adapter@D@__crt_stdio_output@@V?$format_validation_base@DV?$string_output_adapter@D@__crt_stdio_output@@@2@@__crt_stdio_output@@AAE_NI_N@Z 100308df f i libucrt:output.obj
 0001:0002fa80       ?type_case_integer@?$output_processor@DV?$string_output_adapter@D@__crt_stdio_output@@V?$positional_parameter_base@DV?$string_output_adapter@D@__crt_stdio_output@@@2@@__crt_stdio_output@@AAE_NI_N@Z 10030a80 f i libucrt:output.obj
 0001:0002fc62       ?type_case_integer@?$output_processor@DV?$string_output_adapter@D@__crt_stdio_output@@V?$standard_base@DV?$string_output_adapter@D@__crt_stdio_output@@@2@@__crt_stdio_output@@AAE_NI_N@Z 10030c62 f i libucrt:output.obj
 0001:0002fe03       ?type_case_integer@?$output_processor@_WV?$stream_output_adapter@_W@__crt_stdio_output@@V?$format_validation_base@_WV?$stream_output_adapter@_W@__crt_stdio_output@@@2@@__crt_stdio_output@@AAE_NI_N@Z 10030e03 f i libucrt:output.obj
 0001:0002ffa9       ?type_case_integer@?$output_processor@_WV?$stream_output_adapter@_W@__crt_stdio_output@@V?$positional_parameter_base@_WV?$stream_output_adapter@_W@__crt_stdio_output@@@2@@__crt_stdio_output@@AAE_NI_N@Z 10030fa9 f i libucrt:output.obj
 0001:00030190       ?type_case_integer@?$output_processor@_WV?$stream_output_adapter@_W@__crt_stdio_output@@V?$standard_base@_WV?$stream_output_adapter@_W@__crt_stdio_output@@@2@@__crt_stdio_output@@AAE_NI_N@Z 10031190 f i libucrt:output.obj
 0001:00030336       ?type_case_integer@?$output_processor@_WV?$string_output_adapter@_W@__crt_stdio_output@@V?$format_validation_base@_WV?$string_output_adapter@_W@__crt_stdio_output@@@2@@__crt_stdio_output@@AAE_NI_N@Z 10031336 f i libucrt:output.obj
 0001:000304dc       ?type_case_integer@?$output_processor@_WV?$string_output_adapter@_W@__crt_stdio_output@@V?$positional_parameter_base@_WV?$string_output_adapter@_W@__crt_stdio_output@@@2@@__crt_stdio_output@@AAE_NI_N@Z 100314dc f i libucrt:output.obj
 0001:000306c3       ?type_case_integer@?$output_processor@_WV?$string_output_adapter@_W@__crt_stdio_output@@V?$standard_base@_WV?$string_output_adapter@_W@__crt_stdio_output@@@2@@__crt_stdio_output@@AAE_NI_N@Z 100316c3 f i libucrt:output.obj
 0001:00030869       ?type_case_n@?$output_processor@DV?$stream_output_adapter@D@__crt_stdio_output@@V?$format_validation_base@DV?$stream_output_adapter@D@__crt_stdio_output@@@2@@__crt_stdio_output@@AAE_NXZ 10031869 f i libucrt:output.obj
 0001:000308fa       ?type_case_n@?$output_processor@DV?$stream_output_adapter@D@__crt_stdio_output@@V?$positional_parameter_base@DV?$stream_output_adapter@D@__crt_stdio_output@@@2@@__crt_stdio_output@@AAE_NXZ 100318fa f i libucrt:output.obj
 0001:000309b9       ?type_case_n@?$output_processor@DV?$stream_output_adapter@D@__crt_stdio_output@@V?$standard_base@DV?$stream_output_adapter@D@__crt_stdio_output@@@2@@__crt_stdio_output@@AAE_NXZ 100319b9 f i libucrt:output.obj
 0001:00030a4a       ?type_case_n@?$output_processor@DV?$string_output_adapter@D@__crt_stdio_output@@V?$format_validation_base@DV?$string_output_adapter@D@__crt_stdio_output@@@2@@__crt_stdio_output@@AAE_NXZ 10031a4a f i libucrt:output.obj
 0001:00030adb       ?type_case_n@?$output_processor@DV?$string_output_adapter@D@__crt_stdio_output@@V?$positional_parameter_base@DV?$string_output_adapter@D@__crt_stdio_output@@@2@@__crt_stdio_output@@AAE_NXZ 10031adb f i libucrt:output.obj
 0001:00030b9a       ?type_case_n@?$output_processor@DV?$string_output_adapter@D@__crt_stdio_output@@V?$standard_base@DV?$string_output_adapter@D@__crt_stdio_output@@@2@@__crt_stdio_output@@AAE_NXZ 10031b9a f i libucrt:output.obj
 0001:00030c2b       ?type_case_n@?$output_processor@_WV?$stream_output_adapter@_W@__crt_stdio_output@@V?$format_validation_base@_WV?$stream_output_adapter@_W@__crt_stdio_output@@@2@@__crt_stdio_output@@AAE_NXZ 10031c2b f i libucrt:output.obj
 0001:00030cbc       ?type_case_n@?$output_processor@_WV?$stream_output_adapter@_W@__crt_stdio_output@@V?$positional_parameter_base@_WV?$stream_output_adapter@_W@__crt_stdio_output@@@2@@__crt_stdio_output@@AAE_NXZ 10031cbc f i libucrt:output.obj
 0001:00030d7b       ?type_case_n@?$output_processor@_WV?$stream_output_adapter@_W@__crt_stdio_output@@V?$standard_base@_WV?$stream_output_adapter@_W@__crt_stdio_output@@@2@@__crt_stdio_output@@AAE_NXZ 10031d7b f i libucrt:output.obj
 0001:00030e0c       ?type_case_n@?$output_processor@_WV?$string_output_adapter@_W@__crt_stdio_output@@V?$format_validation_base@_WV?$string_output_adapter@_W@__crt_stdio_output@@@2@@__crt_stdio_output@@AAE_NXZ 10031e0c f i libucrt:output.obj
 0001:00030e9d       ?type_case_n@?$output_processor@_WV?$string_output_adapter@_W@__crt_stdio_output@@V?$positional_parameter_base@_WV?$string_output_adapter@_W@__crt_stdio_output@@@2@@__crt_stdio_output@@AAE_NXZ 10031e9d f i libucrt:output.obj
 0001:00030f5c       ?type_case_n@?$output_processor@_WV?$string_output_adapter@_W@__crt_stdio_output@@V?$standard_base@_WV?$string_output_adapter@_W@__crt_stdio_output@@@2@@__crt_stdio_output@@AAE_NXZ 10031f5c f i libucrt:output.obj
 0001:00030fed       ?type_case_o@?$output_processor@DV?$stream_output_adapter@D@__crt_stdio_output@@V?$format_validation_base@DV?$stream_output_adapter@D@__crt_stdio_output@@@2@@__crt_stdio_output@@AAE_NXZ 10031fed f i libucrt:output.obj
 0001:00031013       ?type_case_o@?$output_processor@DV?$stream_output_adapter@D@__crt_stdio_output@@V?$positional_parameter_base@DV?$stream_output_adapter@D@__crt_stdio_output@@@2@@__crt_stdio_output@@AAE_NXZ 10032013 f i libucrt:output.obj
 0001:00031039       ?type_case_o@?$output_processor@DV?$stream_output_adapter@D@__crt_stdio_output@@V?$standard_base@DV?$stream_output_adapter@D@__crt_stdio_output@@@2@@__crt_stdio_output@@AAE_NXZ 10032039 f i libucrt:output.obj
 0001:0003105f       ?type_case_o@?$output_processor@DV?$string_output_adapter@D@__crt_stdio_output@@V?$format_validation_base@DV?$string_output_adapter@D@__crt_stdio_output@@@2@@__crt_stdio_output@@AAE_NXZ 1003205f f i libucrt:output.obj
 0001:00031085       ?type_case_o@?$output_processor@DV?$string_output_adapter@D@__crt_stdio_output@@V?$positional_parameter_base@DV?$string_output_adapter@D@__crt_stdio_output@@@2@@__crt_stdio_output@@AAE_NXZ 10032085 f i libucrt:output.obj
 0001:000310ab       ?type_case_o@?$output_processor@DV?$string_output_adapter@D@__crt_stdio_output@@V?$standard_base@DV?$string_output_adapter@D@__crt_stdio_output@@@2@@__crt_stdio_output@@AAE_NXZ 100320ab f i libucrt:output.obj
 0001:000310d1       ?type_case_o@?$output_processor@_WV?$stream_output_adapter@_W@__crt_stdio_output@@V?$format_validation_base@_WV?$stream_output_adapter@_W@__crt_stdio_output@@@2@@__crt_stdio_output@@AAE_NXZ 100320d1 f i libucrt:output.obj
 0001:000310f7       ?type_case_o@?$output_processor@_WV?$stream_output_adapter@_W@__crt_stdio_output@@V?$positional_parameter_base@_WV?$stream_output_adapter@_W@__crt_stdio_output@@@2@@__crt_stdio_output@@AAE_NXZ 100320f7 f i libucrt:output.obj
 0001:0003111d       ?type_case_o@?$output_processor@_WV?$stream_output_adapter@_W@__crt_stdio_output@@V?$standard_base@_WV?$stream_output_adapter@_W@__crt_stdio_output@@@2@@__crt_stdio_output@@AAE_NXZ 1003211d f i libucrt:output.obj
 0001:00031143       ?type_case_o@?$output_processor@_WV?$string_output_adapter@_W@__crt_stdio_output@@V?$format_validation_base@_WV?$string_output_adapter@_W@__crt_stdio_output@@@2@@__crt_stdio_output@@AAE_NXZ 10032143 f i libucrt:output.obj
 0001:00031169       ?type_case_o@?$output_processor@_WV?$string_output_adapter@_W@__crt_stdio_output@@V?$positional_parameter_base@_WV?$string_output_adapter@_W@__crt_stdio_output@@@2@@__crt_stdio_output@@AAE_NXZ 10032169 f i libucrt:output.obj
 0001:0003118f       ?type_case_o@?$output_processor@_WV?$string_output_adapter@_W@__crt_stdio_output@@V?$standard_base@_WV?$string_output_adapter@_W@__crt_stdio_output@@@2@@__crt_stdio_output@@AAE_NXZ 1003218f f i libucrt:output.obj
 0001:000311b5       ?type_case_p@?$output_processor@DV?$stream_output_adapter@D@__crt_stdio_output@@V?$format_validation_base@DV?$stream_output_adapter@D@__crt_stdio_output@@@2@@__crt_stdio_output@@AAE_NXZ 100321b5 f i libucrt:output.obj
 0001:000311d3       ?type_case_p@?$output_processor@DV?$stream_output_adapter@D@__crt_stdio_output@@V?$positional_parameter_base@DV?$stream_output_adapter@D@__crt_stdio_output@@@2@@__crt_stdio_output@@AAE_NXZ 100321d3 f i libucrt:output.obj
 0001:000311f1       ?type_case_p@?$output_processor@DV?$stream_output_adapter@D@__crt_stdio_output@@V?$standard_base@DV?$stream_output_adapter@D@__crt_stdio_output@@@2@@__crt_stdio_output@@AAE_NXZ 100321f1 f i libucrt:output.obj
 0001:0003120f       ?type_case_p@?$output_processor@DV?$string_output_adapter@D@__crt_stdio_output@@V?$format_validation_base@DV?$string_output_adapter@D@__crt_stdio_output@@@2@@__crt_stdio_output@@AAE_NXZ 1003220f f i libucrt:output.obj
 0001:0003122d       ?type_case_p@?$output_processor@DV?$string_output_adapter@D@__crt_stdio_output@@V?$positional_parameter_base@DV?$string_output_adapter@D@__crt_stdio_output@@@2@@__crt_stdio_output@@AAE_NXZ 1003222d f i libucrt:output.obj
 0001:0003124b       ?type_case_p@?$output_processor@DV?$string_output_adapter@D@__crt_stdio_output@@V?$standard_base@DV?$string_output_adapter@D@__crt_stdio_output@@@2@@__crt_stdio_output@@AAE_NXZ 1003224b f i libucrt:output.obj
 0001:00031269       ?type_case_p@?$output_processor@_WV?$stream_output_adapter@_W@__crt_stdio_output@@V?$format_validation_base@_WV?$stream_output_adapter@_W@__crt_stdio_output@@@2@@__crt_stdio_output@@AAE_NXZ 10032269 f i libucrt:output.obj
 0001:00031287       ?type_case_p@?$output_processor@_WV?$stream_output_adapter@_W@__crt_stdio_output@@V?$positional_parameter_base@_WV?$stream_output_adapter@_W@__crt_stdio_output@@@2@@__crt_stdio_output@@AAE_NXZ 10032287 f i libucrt:output.obj
 0001:000312a5       ?type_case_p@?$output_processor@_WV?$stream_output_adapter@_W@__crt_stdio_output@@V?$standard_base@_WV?$stream_output_adapter@_W@__crt_stdio_output@@@2@@__crt_stdio_output@@AAE_NXZ 100322a5 f i libucrt:output.obj
 0001:000312c3       ?type_case_p@?$output_processor@_WV?$string_output_adapter@_W@__crt_stdio_output@@V?$format_validation_base@_WV?$string_output_adapter@_W@__crt_stdio_output@@@2@@__crt_stdio_output@@AAE_NXZ 100322c3 f i libucrt:output.obj
 0001:000312e1       ?type_case_p@?$output_processor@_WV?$string_output_adapter@_W@__crt_stdio_output@@V?$positional_parameter_base@_WV?$string_output_adapter@_W@__crt_stdio_output@@@2@@__crt_stdio_output@@AAE_NXZ 100322e1 f i libucrt:output.obj
 0001:000312ff       ?type_case_p@?$output_processor@_WV?$string_output_adapter@_W@__crt_stdio_output@@V?$standard_base@_WV?$string_output_adapter@_W@__crt_stdio_output@@@2@@__crt_stdio_output@@AAE_NXZ 100322ff f i libucrt:output.obj
 0001:0003131d       ?type_case_s@?$output_processor@DV?$stream_output_adapter@D@__crt_stdio_output@@V?$format_validation_base@DV?$stream_output_adapter@D@__crt_stdio_output@@@2@@__crt_stdio_output@@AAE_NXZ 1003231d f i libucrt:output.obj
 0001:000313ac       ?type_case_s@?$output_processor@DV?$stream_output_adapter@D@__crt_stdio_output@@V?$positional_parameter_base@DV?$stream_output_adapter@D@__crt_stdio_output@@@2@@__crt_stdio_output@@AAE_NXZ 100323ac f i libucrt:output.obj
 0001:00031447       ?type_case_s@?$output_processor@DV?$stream_output_adapter@D@__crt_stdio_output@@V?$standard_base@DV?$stream_output_adapter@D@__crt_stdio_output@@@2@@__crt_stdio_output@@AAE_NXZ 10032447 f i libucrt:output.obj
 0001:000314d6       ?type_case_s@?$output_processor@DV?$string_output_adapter@D@__crt_stdio_output@@V?$format_validation_base@DV?$string_output_adapter@D@__crt_stdio_output@@@2@@__crt_stdio_output@@AAE_NXZ 100324d6 f i libucrt:output.obj
 0001:00031565       ?type_case_s@?$output_processor@DV?$string_output_adapter@D@__crt_stdio_output@@V?$positional_parameter_base@DV?$string_output_adapter@D@__crt_stdio_output@@@2@@__crt_stdio_output@@AAE_NXZ 10032565 f i libucrt:output.obj
 0001:00031600       ?type_case_s@?$output_processor@DV?$string_output_adapter@D@__crt_stdio_output@@V?$standard_base@DV?$string_output_adapter@D@__crt_stdio_output@@@2@@__crt_stdio_output@@AAE_NXZ 10032600 f i libucrt:output.obj
 0001:0003168f       ?type_case_s@?$output_processor@_WV?$stream_output_adapter@_W@__crt_stdio_output@@V?$format_validation_base@_WV?$stream_output_adapter@_W@__crt_stdio_output@@@2@@__crt_stdio_output@@AAE_NXZ 1003268f f i libucrt:output.obj
 0001:00031720       ?type_case_s@?$output_processor@_WV?$stream_output_adapter@_W@__crt_stdio_output@@V?$positional_parameter_base@_WV?$stream_output_adapter@_W@__crt_stdio_output@@@2@@__crt_stdio_output@@AAE_NXZ 10032720 f i libucrt:output.obj
 0001:000317bd       ?type_case_s@?$output_processor@_WV?$stream_output_adapter@_W@__crt_stdio_output@@V?$standard_base@_WV?$stream_output_adapter@_W@__crt_stdio_output@@@2@@__crt_stdio_output@@AAE_NXZ 100327bd f i libucrt:output.obj
 0001:0003184e       ?type_case_s@?$output_processor@_WV?$string_output_adapter@_W@__crt_stdio_output@@V?$format_validation_base@_WV?$string_output_adapter@_W@__crt_stdio_output@@@2@@__crt_stdio_output@@AAE_NXZ 1003284e f i libucrt:output.obj
 0001:000318df       ?type_case_s@?$output_processor@_WV?$string_output_adapter@_W@__crt_stdio_output@@V?$positional_parameter_base@_WV?$string_output_adapter@_W@__crt_stdio_output@@@2@@__crt_stdio_output@@AAE_NXZ 100328df f i libucrt:output.obj
 0001:0003197c       ?type_case_s@?$output_processor@_WV?$string_output_adapter@_W@__crt_stdio_output@@V?$standard_base@_WV?$string_output_adapter@_W@__crt_stdio_output@@@2@@__crt_stdio_output@@AAE_NXZ 1003297c f i libucrt:output.obj
 0001:00031a0d       ?type_case_s_compute_narrow_string_length@?$output_processor@DV?$stream_output_adapter@D@__crt_stdio_output@@V?$format_validation_base@DV?$stream_output_adapter@D@__crt_stdio_output@@@2@@__crt_stdio_output@@ABEHHD@Z 10032a0d f i libucrt:output.obj
 0001:00031a28       ?type_case_s_compute_narrow_string_length@?$output_processor@DV?$stream_output_adapter@D@__crt_stdio_output@@V?$positional_parameter_base@DV?$stream_output_adapter@D@__crt_stdio_output@@@2@@__crt_stdio_output@@ABEHHD@Z 10032a28 f i libucrt:output.obj
 0001:00031a43       ?type_case_s_compute_narrow_string_length@?$output_processor@DV?$stream_output_adapter@D@__crt_stdio_output@@V?$standard_base@DV?$stream_output_adapter@D@__crt_stdio_output@@@2@@__crt_stdio_output@@ABEHHD@Z 10032a43 f i libucrt:output.obj
 0001:00031a5e       ?type_case_s_compute_narrow_string_length@?$output_processor@DV?$string_output_adapter@D@__crt_stdio_output@@V?$format_validation_base@DV?$string_output_adapter@D@__crt_stdio_output@@@2@@__crt_stdio_output@@ABEHHD@Z 10032a5e f i libucrt:output.obj
 0001:00031a79       ?type_case_s_compute_narrow_string_length@?$output_processor@DV?$string_output_adapter@D@__crt_stdio_output@@V?$positional_parameter_base@DV?$string_output_adapter@D@__crt_stdio_output@@@2@@__crt_stdio_output@@ABEHHD@Z 10032a79 f i libucrt:output.obj
 0001:00031a94       ?type_case_s_compute_narrow_string_length@?$output_processor@DV?$string_output_adapter@D@__crt_stdio_output@@V?$standard_base@DV?$string_output_adapter@D@__crt_stdio_output@@@2@@__crt_stdio_output@@ABEHHD@Z 10032a94 f i libucrt:output.obj
 0001:00031aaf       ?type_case_s_compute_narrow_string_length@?$output_processor@_WV?$stream_output_adapter@_W@__crt_stdio_output@@V?$format_validation_base@_WV?$stream_output_adapter@_W@__crt_stdio_output@@@2@@__crt_stdio_output@@ABEHH_W@Z 10032aaf f i libucrt:output.obj
 0001:00031aff       ?type_case_s_compute_narrow_string_length@?$output_processor@_WV?$stream_output_adapter@_W@__crt_stdio_output@@V?$positional_parameter_base@_WV?$stream_output_adapter@_W@__crt_stdio_output@@@2@@__crt_stdio_output@@ABEHH_W@Z 10032aff f i libucrt:output.obj
 0001:00031b4f       ?type_case_s_compute_narrow_string_length@?$output_processor@_WV?$stream_output_adapter@_W@__crt_stdio_output@@V?$standard_base@_WV?$stream_output_adapter@_W@__crt_stdio_output@@@2@@__crt_stdio_output@@ABEHH_W@Z 10032b4f f i libucrt:output.obj
 0001:00031b9f       ?type_case_s_compute_narrow_string_length@?$output_processor@_WV?$string_output_adapter@_W@__crt_stdio_output@@V?$format_validation_base@_WV?$string_output_adapter@_W@__crt_stdio_output@@@2@@__crt_stdio_output@@ABEHH_W@Z 10032b9f f i libucrt:output.obj
 0001:00031bef       ?type_case_s_compute_narrow_string_length@?$output_processor@_WV?$string_output_adapter@_W@__crt_stdio_output@@V?$positional_parameter_base@_WV?$string_output_adapter@_W@__crt_stdio_output@@@2@@__crt_stdio_output@@ABEHH_W@Z 10032bef f i libucrt:output.obj
 0001:00031c3f       ?type_case_s_compute_narrow_string_length@?$output_processor@_WV?$string_output_adapter@_W@__crt_stdio_output@@V?$standard_base@_WV?$string_output_adapter@_W@__crt_stdio_output@@@2@@__crt_stdio_output@@ABEHH_W@Z 10032c3f f i libucrt:output.obj
 0001:00031c8f       ?type_case_u@?$output_processor@DV?$stream_output_adapter@D@__crt_stdio_output@@V?$format_validation_base@DV?$stream_output_adapter@D@__crt_stdio_output@@@2@@__crt_stdio_output@@AAE_NXZ 10032c8f f i libucrt:output.obj
 0001:00031c9b       ?type_case_u@?$output_processor@DV?$stream_output_adapter@D@__crt_stdio_output@@V?$positional_parameter_base@DV?$stream_output_adapter@D@__crt_stdio_output@@@2@@__crt_stdio_output@@AAE_NXZ 10032c9b f i libucrt:output.obj
 0001:00031ca7       ?type_case_u@?$output_processor@DV?$stream_output_adapter@D@__crt_stdio_output@@V?$standard_base@DV?$stream_output_adapter@D@__crt_stdio_output@@@2@@__crt_stdio_output@@AAE_NXZ 10032ca7 f i libucrt:output.obj
 0001:00031cb3       ?type_case_u@?$output_processor@DV?$string_output_adapter@D@__crt_stdio_output@@V?$format_validation_base@DV?$string_output_adapter@D@__crt_stdio_output@@@2@@__crt_stdio_output@@AAE_NXZ 10032cb3 f i libucrt:output.obj
 0001:00031cbf       ?type_case_u@?$output_processor@DV?$string_output_adapter@D@__crt_stdio_output@@V?$positional_parameter_base@DV?$string_output_adapter@D@__crt_stdio_output@@@2@@__crt_stdio_output@@AAE_NXZ 10032cbf f i libucrt:output.obj
 0001:00031ccb       ?type_case_u@?$output_processor@DV?$string_output_adapter@D@__crt_stdio_output@@V?$standard_base@DV?$string_output_adapter@D@__crt_stdio_output@@@2@@__crt_stdio_output@@AAE_NXZ 10032ccb f i libucrt:output.obj
 0001:00031cd7       ?type_case_u@?$output_processor@_WV?$stream_output_adapter@_W@__crt_stdio_output@@V?$format_validation_base@_WV?$stream_output_adapter@_W@__crt_stdio_output@@@2@@__crt_stdio_output@@AAE_NXZ 10032cd7 f i libucrt:output.obj
 0001:00031ce3       ?type_case_u@?$output_processor@_WV?$stream_output_adapter@_W@__crt_stdio_output@@V?$positional_parameter_base@_WV?$stream_output_adapter@_W@__crt_stdio_output@@@2@@__crt_stdio_output@@AAE_NXZ 10032ce3 f i libucrt:output.obj
 0001:00031cef       ?type_case_u@?$output_processor@_WV?$stream_output_adapter@_W@__crt_stdio_output@@V?$standard_base@_WV?$stream_output_adapter@_W@__crt_stdio_output@@@2@@__crt_stdio_output@@AAE_NXZ 10032cef f i libucrt:output.obj
 0001:00031cfb       ?type_case_u@?$output_processor@_WV?$string_output_adapter@_W@__crt_stdio_output@@V?$format_validation_base@_WV?$string_output_adapter@_W@__crt_stdio_output@@@2@@__crt_stdio_output@@AAE_NXZ 10032cfb f i libucrt:output.obj
 0001:00031d07       ?type_case_u@?$output_processor@_WV?$string_output_adapter@_W@__crt_stdio_output@@V?$positional_parameter_base@_WV?$string_output_adapter@_W@__crt_stdio_output@@@2@@__crt_stdio_output@@AAE_NXZ 10032d07 f i libucrt:output.obj
 0001:00031d13       ?type_case_u@?$output_processor@_WV?$string_output_adapter@_W@__crt_stdio_output@@V?$standard_base@_WV?$string_output_adapter@_W@__crt_stdio_output@@@2@@__crt_stdio_output@@AAE_NXZ 10032d13 f i libucrt:output.obj
 0001:00031d1f       ?type_case_x@?$output_processor@DV?$stream_output_adapter@D@__crt_stdio_output@@V?$format_validation_base@DV?$stream_output_adapter@D@__crt_stdio_output@@@2@@__crt_stdio_output@@AAE_NXZ 10032d1f f i libucrt:output.obj
 0001:00031d2b       ?type_case_x@?$output_processor@DV?$stream_output_adapter@D@__crt_stdio_output@@V?$positional_parameter_base@DV?$stream_output_adapter@D@__crt_stdio_output@@@2@@__crt_stdio_output@@AAE_NXZ 10032d2b f i libucrt:output.obj
 0001:00031d37       ?type_case_x@?$output_processor@DV?$stream_output_adapter@D@__crt_stdio_output@@V?$standard_base@DV?$stream_output_adapter@D@__crt_stdio_output@@@2@@__crt_stdio_output@@AAE_NXZ 10032d37 f i libucrt:output.obj
 0001:00031d43       ?type_case_x@?$output_processor@DV?$string_output_adapter@D@__crt_stdio_output@@V?$format_validation_base@DV?$string_output_adapter@D@__crt_stdio_output@@@2@@__crt_stdio_output@@AAE_NXZ 10032d43 f i libucrt:output.obj
 0001:00031d4f       ?type_case_x@?$output_processor@DV?$string_output_adapter@D@__crt_stdio_output@@V?$positional_parameter_base@DV?$string_output_adapter@D@__crt_stdio_output@@@2@@__crt_stdio_output@@AAE_NXZ 10032d4f f i libucrt:output.obj
 0001:00031d5b       ?type_case_x@?$output_processor@DV?$string_output_adapter@D@__crt_stdio_output@@V?$standard_base@DV?$string_output_adapter@D@__crt_stdio_output@@@2@@__crt_stdio_output@@AAE_NXZ 10032d5b f i libucrt:output.obj
 0001:00031d67       ?type_case_x@?$output_processor@_WV?$stream_output_adapter@_W@__crt_stdio_output@@V?$format_validation_base@_WV?$stream_output_adapter@_W@__crt_stdio_output@@@2@@__crt_stdio_output@@AAE_NXZ 10032d67 f i libucrt:output.obj
 0001:00031d73       ?type_case_x@?$output_processor@_WV?$stream_output_adapter@_W@__crt_stdio_output@@V?$positional_parameter_base@_WV?$stream_output_adapter@_W@__crt_stdio_output@@@2@@__crt_stdio_output@@AAE_NXZ 10032d73 f i libucrt:output.obj
 0001:00031d7f       ?type_case_x@?$output_processor@_WV?$stream_output_adapter@_W@__crt_stdio_output@@V?$standard_base@_WV?$stream_output_adapter@_W@__crt_stdio_output@@@2@@__crt_stdio_output@@AAE_NXZ 10032d7f f i libucrt:output.obj
 0001:00031d8b       ?type_case_x@?$output_processor@_WV?$string_output_adapter@_W@__crt_stdio_output@@V?$format_validation_base@_WV?$string_output_adapter@_W@__crt_stdio_output@@@2@@__crt_stdio_output@@AAE_NXZ 10032d8b f i libucrt:output.obj
 0001:00031d97       ?type_case_x@?$output_processor@_WV?$string_output_adapter@_W@__crt_stdio_output@@V?$positional_parameter_base@_WV?$string_output_adapter@_W@__crt_stdio_output@@@2@@__crt_stdio_output@@AAE_NXZ 10032d97 f i libucrt:output.obj
 0001:00031da3       ?type_case_x@?$output_processor@_WV?$string_output_adapter@_W@__crt_stdio_output@@V?$standard_base@_WV?$string_output_adapter@_W@__crt_stdio_output@@@2@@__crt_stdio_output@@AAE_NXZ 10032da3 f i libucrt:output.obj
 0001:00031daf       ?unset_flag@?$output_processor@DV?$stream_output_adapter@D@__crt_stdio_output@@V?$format_validation_base@DV?$stream_output_adapter@D@__crt_stdio_output@@@2@@__crt_stdio_output@@AAEXI@Z 10032daf f i libucrt:output.obj
 0001:00031dc4       ?unset_flag@?$output_processor@DV?$stream_output_adapter@D@__crt_stdio_output@@V?$positional_parameter_base@DV?$stream_output_adapter@D@__crt_stdio_output@@@2@@__crt_stdio_output@@AAEXI@Z 10032dc4 f i libucrt:output.obj
 0001:00031dd9       ?unset_flag@?$output_processor@DV?$stream_output_adapter@D@__crt_stdio_output@@V?$standard_base@DV?$stream_output_adapter@D@__crt_stdio_output@@@2@@__crt_stdio_output@@AAEXI@Z 10032dd9 f i libucrt:output.obj
 0001:00031dee       ?unset_flag@?$output_processor@DV?$string_output_adapter@D@__crt_stdio_output@@V?$format_validation_base@DV?$string_output_adapter@D@__crt_stdio_output@@@2@@__crt_stdio_output@@AAEXI@Z 10032dee f i libucrt:output.obj
 0001:00031e03       ?unset_flag@?$output_processor@DV?$string_output_adapter@D@__crt_stdio_output@@V?$positional_parameter_base@DV?$string_output_adapter@D@__crt_stdio_output@@@2@@__crt_stdio_output@@AAEXI@Z 10032e03 f i libucrt:output.obj
 0001:00031e18       ?unset_flag@?$output_processor@DV?$string_output_adapter@D@__crt_stdio_output@@V?$standard_base@DV?$string_output_adapter@D@__crt_stdio_output@@@2@@__crt_stdio_output@@AAEXI@Z 10032e18 f i libucrt:output.obj
 0001:00031e2d       ?unset_flag@?$output_processor@_WV?$stream_output_adapter@_W@__crt_stdio_output@@V?$format_validation_base@_WV?$stream_output_adapter@_W@__crt_stdio_output@@@2@@__crt_stdio_output@@AAEXI@Z 10032e2d f i libucrt:output.obj
 0001:00031e42       ?unset_flag@?$output_processor@_WV?$stream_output_adapter@_W@__crt_stdio_output@@V?$positional_parameter_base@_WV?$stream_output_adapter@_W@__crt_stdio_output@@@2@@__crt_stdio_output@@AAEXI@Z 10032e42 f i libucrt:output.obj
 0001:00031e57       ?unset_flag@?$output_processor@_WV?$stream_output_adapter@_W@__crt_stdio_output@@V?$standard_base@_WV?$stream_output_adapter@_W@__crt_stdio_output@@@2@@__crt_stdio_output@@AAEXI@Z 10032e57 f i libucrt:output.obj
 0001:00031e6c       ?unset_flag@?$output_processor@_WV?$string_output_adapter@_W@__crt_stdio_output@@V?$format_validation_base@_WV?$string_output_adapter@_W@__crt_stdio_output@@@2@@__crt_stdio_output@@AAEXI@Z 10032e6c f i libucrt:output.obj
 0001:00031e81       ?unset_flag@?$output_processor@_WV?$string_output_adapter@_W@__crt_stdio_output@@V?$positional_parameter_base@_WV?$string_output_adapter@_W@__crt_stdio_output@@@2@@__crt_stdio_output@@AAEXI@Z 10032e81 f i libucrt:output.obj
 0001:00031e96       ?unset_flag@?$output_processor@_WV?$string_output_adapter@_W@__crt_stdio_output@@V?$standard_base@_WV?$string_output_adapter@_W@__crt_stdio_output@@@2@@__crt_stdio_output@@AAEXI@Z 10032e96 f i libucrt:output.obj
 0001:00031eab       ?update_field_width@?$positional_parameter_base@DV?$stream_output_adapter@D@__crt_stdio_output@@@__crt_stdio_output@@IAE_NXZ 10032eab f i libucrt:output.obj
 0001:00031f8e       ?update_field_width@?$positional_parameter_base@DV?$string_output_adapter@D@__crt_stdio_output@@@__crt_stdio_output@@IAE_NXZ 10032f8e f i libucrt:output.obj
 0001:00032071       ?update_field_width@?$positional_parameter_base@_WV?$stream_output_adapter@_W@__crt_stdio_output@@@__crt_stdio_output@@IAE_NXZ 10033071 f i libucrt:output.obj
 0001:00032155       ?update_field_width@?$positional_parameter_base@_WV?$string_output_adapter@_W@__crt_stdio_output@@@__crt_stdio_output@@IAE_NXZ 10033155 f i libucrt:output.obj
 0001:00032239       ?update_field_width@?$standard_base@DV?$stream_output_adapter@D@__crt_stdio_output@@@__crt_stdio_output@@IAE_NXZ 10033239 f i libucrt:output.obj
 0001:0003224d       ?update_field_width@?$standard_base@DV?$string_output_adapter@D@__crt_stdio_output@@@__crt_stdio_output@@IAE_NXZ 1003324d f i libucrt:output.obj
 0001:00032261       ?update_field_width@?$standard_base@_WV?$stream_output_adapter@_W@__crt_stdio_output@@@__crt_stdio_output@@IAE_NXZ 10033261 f i libucrt:output.obj
 0001:00032275       ?update_field_width@?$standard_base@_WV?$string_output_adapter@_W@__crt_stdio_output@@@__crt_stdio_output@@IAE_NXZ 10033275 f i libucrt:output.obj
 0001:00032289       ?update_precision@?$positional_parameter_base@DV?$stream_output_adapter@D@__crt_stdio_output@@@__crt_stdio_output@@IAE_NXZ 10033289 f i libucrt:output.obj
 0001:0003236c       ?update_precision@?$positional_parameter_base@DV?$string_output_adapter@D@__crt_stdio_output@@@__crt_stdio_output@@IAE_NXZ 1003336c f i libucrt:output.obj
 0001:0003244f       ?update_precision@?$positional_parameter_base@_WV?$stream_output_adapter@_W@__crt_stdio_output@@@__crt_stdio_output@@IAE_NXZ 1003344f f i libucrt:output.obj
 0001:00032533       ?update_precision@?$positional_parameter_base@_WV?$string_output_adapter@_W@__crt_stdio_output@@@__crt_stdio_output@@IAE_NXZ 10033533 f i libucrt:output.obj
 0001:00032617       ?update_precision@?$standard_base@DV?$stream_output_adapter@D@__crt_stdio_output@@@__crt_stdio_output@@IAE_NXZ 10033617 f i libucrt:output.obj
 0001:0003262b       ?update_precision@?$standard_base@DV?$string_output_adapter@D@__crt_stdio_output@@@__crt_stdio_output@@IAE_NXZ 1003362b f i libucrt:output.obj
 0001:0003263f       ?update_precision@?$standard_base@_WV?$stream_output_adapter@_W@__crt_stdio_output@@@__crt_stdio_output@@IAE_NXZ 1003363f f i libucrt:output.obj
 0001:00032653       ?update_precision@?$standard_base@_WV?$string_output_adapter@_W@__crt_stdio_output@@@__crt_stdio_output@@IAE_NXZ 10033653 f i libucrt:output.obj
 0001:00032667       ?valid@__crt_stdio_stream@@QBE_NXZ 10033667 f i libucrt:output.obj
 0001:00032671       ?validate@?$stream_output_adapter@D@__crt_stdio_output@@QBE_NXZ 10033671 f i libucrt:output.obj
 0001:0003269a       ?validate@?$stream_output_adapter@_W@__crt_stdio_output@@QBE_NXZ 1003369a f i libucrt:output.obj
 0001:000326bb       ?validate@?$string_output_adapter@D@__crt_stdio_output@@QBE_NXZ 100336bb f i libucrt:output.obj
 0001:000326dc       ?validate@?$string_output_adapter@_W@__crt_stdio_output@@QBE_NXZ 100336dc f i libucrt:output.obj
 0001:000326fd       ?validate_and_store_parameter_data@?$positional_parameter_base@DV?$stream_output_adapter@D@__crt_stdio_output@@@__crt_stdio_output@@AAE_NAAUparameter_data@12@W4parameter_type@12@DW4length_modifier@2@@Z 100336fd f i libucrt:output.obj
 0001:0003275a       ?validate_and_store_parameter_data@?$positional_parameter_base@DV?$string_output_adapter@D@__crt_stdio_output@@@__crt_stdio_output@@AAE_NAAUparameter_data@12@W4parameter_type@12@DW4length_modifier@2@@Z 1003375a f i libucrt:output.obj
 0001:000327b7       ?validate_and_store_parameter_data@?$positional_parameter_base@_WV?$stream_output_adapter@_W@__crt_stdio_output@@@__crt_stdio_output@@AAE_NAAUparameter_data@12@W4parameter_type@12@_WW4length_modifier@2@@Z 100337b7 f i libucrt:output.obj
 0001:00032817       ?validate_and_store_parameter_data@?$positional_parameter_base@_WV?$string_output_adapter@_W@__crt_stdio_output@@@__crt_stdio_output@@AAE_NAAUparameter_data@12@W4parameter_type@12@_WW4length_modifier@2@@Z 10033817 f i libucrt:output.obj
 0001:00032877       ?validate_and_update_state_at_beginning_of_format_character@?$positional_parameter_base@DV?$stream_output_adapter@D@__crt_stdio_output@@@__crt_stdio_output@@IAE_NXZ 10033877 f i libucrt:output.obj
 0001:000329ad       ?validate_and_update_state_at_beginning_of_format_character@?$positional_parameter_base@DV?$string_output_adapter@D@__crt_stdio_output@@@__crt_stdio_output@@IAE_NXZ 100339ad f i libucrt:output.obj
 0001:00032ae3       ?validate_and_update_state_at_beginning_of_format_character@?$positional_parameter_base@_WV?$stream_output_adapter@_W@__crt_stdio_output@@@__crt_stdio_output@@IAE_NXZ 10033ae3 f i libucrt:output.obj
 0001:00032c25       ?validate_and_update_state_at_beginning_of_format_character@?$positional_parameter_base@_WV?$string_output_adapter@_W@__crt_stdio_output@@@__crt_stdio_output@@IAE_NXZ 10033c25 f i libucrt:output.obj
 0001:00032d67       ?validate_and_update_state_at_beginning_of_format_character@?$standard_base@DV?$stream_output_adapter@D@__crt_stdio_output@@@__crt_stdio_output@@IAE_NXZ 10033d67 f i libucrt:output.obj
 0001:00032d6a       ?validate_and_update_state_at_beginning_of_format_character@?$standard_base@DV?$string_output_adapter@D@__crt_stdio_output@@@__crt_stdio_output@@IAE_NXZ 10033d6a f i libucrt:output.obj
 0001:00032d6d       ?validate_and_update_state_at_beginning_of_format_character@?$standard_base@_WV?$stream_output_adapter@_W@__crt_stdio_output@@@__crt_stdio_output@@IAE_NXZ 10033d6d f i libucrt:output.obj
 0001:00032d70       ?validate_and_update_state_at_beginning_of_format_character@?$standard_base@_WV?$string_output_adapter@_W@__crt_stdio_output@@@__crt_stdio_output@@IAE_NXZ 10033d70 f i libucrt:output.obj
 0001:00032d73       ?validate_and_update_state_at_end_of_format_string@?$format_validation_base@DV?$stream_output_adapter@D@__crt_stdio_output@@@__crt_stdio_output@@IBE_NXZ 10033d73 f i libucrt:output.obj
 0001:00032d9d       ?validate_and_update_state_at_end_of_format_string@?$format_validation_base@DV?$string_output_adapter@D@__crt_stdio_output@@@__crt_stdio_output@@IBE_NXZ 10033d9d f i libucrt:output.obj
 0001:00032dc7       ?validate_and_update_state_at_end_of_format_string@?$format_validation_base@_WV?$stream_output_adapter@_W@__crt_stdio_output@@@__crt_stdio_output@@IBE_NXZ 10033dc7 f i libucrt:output.obj
 0001:00032df1       ?validate_and_update_state_at_end_of_format_string@?$format_validation_base@_WV?$string_output_adapter@_W@__crt_stdio_output@@@__crt_stdio_output@@IBE_NXZ 10033df1 f i libucrt:output.obj
 0001:00032e1b       ?validate_and_update_state_at_end_of_format_string@?$positional_parameter_base@DV?$stream_output_adapter@D@__crt_stdio_output@@@__crt_stdio_output@@IAE_NXZ 10033e1b f i libucrt:output.obj
 0001:00032ebb       ?validate_and_update_state_at_end_of_format_string@?$positional_parameter_base@DV?$string_output_adapter@D@__crt_stdio_output@@@__crt_stdio_output@@IAE_NXZ 10033ebb f i libucrt:output.obj
 0001:00032f5b       ?validate_and_update_state_at_end_of_format_string@?$positional_parameter_base@_WV?$stream_output_adapter@_W@__crt_stdio_output@@@__crt_stdio_output@@IAE_NXZ 10033f5b f i libucrt:output.obj
 0001:00032ffb       ?validate_and_update_state_at_end_of_format_string@?$positional_parameter_base@_WV?$string_output_adapter@_W@__crt_stdio_output@@@__crt_stdio_output@@IAE_NXZ 10033ffb f i libucrt:output.obj
 0001:0003309b       ?validate_and_update_state_at_end_of_format_string@?$standard_base@DV?$stream_output_adapter@D@__crt_stdio_output@@@__crt_stdio_output@@IBE_NXZ 1003409b f i libucrt:output.obj
 0001:0003309e       ?validate_and_update_state_at_end_of_format_string@?$standard_base@DV?$string_output_adapter@D@__crt_stdio_output@@@__crt_stdio_output@@IBE_NXZ 1003409e f i libucrt:output.obj
 0001:000330a1       ?validate_and_update_state_at_end_of_format_string@?$standard_base@_WV?$stream_output_adapter@_W@__crt_stdio_output@@@__crt_stdio_output@@IBE_NXZ 100340a1 f i libucrt:output.obj
 0001:000330a4       ?validate_and_update_state_at_end_of_format_string@?$standard_base@_WV?$string_output_adapter@_W@__crt_stdio_output@@@__crt_stdio_output@@IBE_NXZ 100340a4 f i libucrt:output.obj
 0001:000330a7       ?validate_state_for_type_case_a@?$positional_parameter_base@DV?$stream_output_adapter@D@__crt_stdio_output@@@__crt_stdio_output@@IAE_NXZ 100340a7 f i libucrt:output.obj
 0001:0003310e       ?validate_state_for_type_case_a@?$positional_parameter_base@DV?$string_output_adapter@D@__crt_stdio_output@@@__crt_stdio_output@@IAE_NXZ 1003410e f i libucrt:output.obj
 0001:00033175       ?validate_state_for_type_case_a@?$positional_parameter_base@_WV?$stream_output_adapter@_W@__crt_stdio_output@@@__crt_stdio_output@@IAE_NXZ 10034175 f i libucrt:output.obj
 0001:000331dc       ?validate_state_for_type_case_a@?$positional_parameter_base@_WV?$string_output_adapter@_W@__crt_stdio_output@@@__crt_stdio_output@@IAE_NXZ 100341dc f i libucrt:output.obj
 0001:00033243       ?validate_state_for_type_case_a@?$standard_base@DV?$stream_output_adapter@D@__crt_stdio_output@@@__crt_stdio_output@@IBE_NXZ 10034243 f i libucrt:output.obj
 0001:00033246       ?validate_state_for_type_case_a@?$standard_base@DV?$string_output_adapter@D@__crt_stdio_output@@@__crt_stdio_output@@IBE_NXZ 10034246 f i libucrt:output.obj
 0001:00033249       ?validate_state_for_type_case_a@?$standard_base@_WV?$stream_output_adapter@_W@__crt_stdio_output@@@__crt_stdio_output@@IBE_NXZ 10034249 f i libucrt:output.obj
 0001:0003324c       ?validate_state_for_type_case_a@?$standard_base@_WV?$string_output_adapter@_W@__crt_stdio_output@@@__crt_stdio_output@@IBE_NXZ 1003424c f i libucrt:output.obj
 0001:0003324f       ?validate_stream_is_ansi_if_required@?$__acrt_stdio_char_traits@D@@SA_NQAU_iobuf@@@Z 1003424f f i libucrt:output.obj
 0001:000332f1       ?validate_stream_is_ansi_if_required@?$__acrt_stdio_char_traits@_W@@SA_NQAU_iobuf@@@Z 100342f1 f i libucrt:output.obj
 0001:000332f4       ?wide_null_string@?$output_processor@DV?$stream_output_adapter@D@__crt_stdio_output@@V?$format_validation_base@DV?$stream_output_adapter@D@__crt_stdio_output@@@2@@__crt_stdio_output@@CAPA_WXZ 100342f4 f i libucrt:output.obj
 0001:000332fa       ?wide_null_string@?$output_processor@DV?$stream_output_adapter@D@__crt_stdio_output@@V?$positional_parameter_base@DV?$stream_output_adapter@D@__crt_stdio_output@@@2@@__crt_stdio_output@@CAPA_WXZ 100342fa f i libucrt:output.obj
 0001:00033300       ?wide_null_string@?$output_processor@DV?$stream_output_adapter@D@__crt_stdio_output@@V?$standard_base@DV?$stream_output_adapter@D@__crt_stdio_output@@@2@@__crt_stdio_output@@CAPA_WXZ 10034300 f i libucrt:output.obj
 0001:00033306       ?wide_null_string@?$output_processor@DV?$string_output_adapter@D@__crt_stdio_output@@V?$format_validation_base@DV?$string_output_adapter@D@__crt_stdio_output@@@2@@__crt_stdio_output@@CAPA_WXZ 10034306 f i libucrt:output.obj
 0001:0003330c       ?wide_null_string@?$output_processor@DV?$string_output_adapter@D@__crt_stdio_output@@V?$positional_parameter_base@DV?$string_output_adapter@D@__crt_stdio_output@@@2@@__crt_stdio_output@@CAPA_WXZ 1003430c f i libucrt:output.obj
 0001:00033312       ?wide_null_string@?$output_processor@DV?$string_output_adapter@D@__crt_stdio_output@@V?$standard_base@DV?$string_output_adapter@D@__crt_stdio_output@@@2@@__crt_stdio_output@@CAPA_WXZ 10034312 f i libucrt:output.obj
 0001:00033318       ?wide_null_string@?$output_processor@_WV?$stream_output_adapter@_W@__crt_stdio_output@@V?$format_validation_base@_WV?$stream_output_adapter@_W@__crt_stdio_output@@@2@@__crt_stdio_output@@CAPA_WXZ 10034318 f i libucrt:output.obj
 0001:0003331e       ?wide_null_string@?$output_processor@_WV?$stream_output_adapter@_W@__crt_stdio_output@@V?$positional_parameter_base@_WV?$stream_output_adapter@_W@__crt_stdio_output@@@2@@__crt_stdio_output@@CAPA_WXZ 1003431e f i libucrt:output.obj
 0001:00033324       ?wide_null_string@?$output_processor@_WV?$stream_output_adapter@_W@__crt_stdio_output@@V?$standard_base@_WV?$stream_output_adapter@_W@__crt_stdio_output@@@2@@__crt_stdio_output@@CAPA_WXZ 10034324 f i libucrt:output.obj
 0001:0003332a       ?wide_null_string@?$output_processor@_WV?$string_output_adapter@_W@__crt_stdio_output@@V?$format_validation_base@_WV?$string_output_adapter@_W@__crt_stdio_output@@@2@@__crt_stdio_output@@CAPA_WXZ 1003432a f i libucrt:output.obj
 0001:00033330       ?wide_null_string@?$output_processor@_WV?$string_output_adapter@_W@__crt_stdio_output@@V?$positional_parameter_base@_WV?$string_output_adapter@_W@__crt_stdio_output@@@2@@__crt_stdio_output@@CAPA_WXZ 10034330 f i libucrt:output.obj
 0001:00033336       ?wide_null_string@?$output_processor@_WV?$string_output_adapter@_W@__crt_stdio_output@@V?$standard_base@_WV?$string_output_adapter@_W@__crt_stdio_output@@@2@@__crt_stdio_output@@CAPA_WXZ 10034336 f i libucrt:output.obj
 0001:0003333c       ?write_character@?$stream_output_adapter@D@__crt_stdio_output@@QBEXDQAH@Z 1003433c f i libucrt:output.obj
 0001:00033388       ?write_character@?$stream_output_adapter@_W@__crt_stdio_output@@QBEX_WQAH@Z 10034388 f i libucrt:output.obj
 0001:000333d8       ?write_character@?$string_output_adapter@D@__crt_stdio_output@@QBE_NDQAH@Z 100343d8 f i libucrt:output.obj
 0001:0003342a       ?write_character@?$string_output_adapter@_W@__crt_stdio_output@@QBE_N_WQAH@Z 1003442a f i libucrt:output.obj
 0001:00033480       ?write_stored_string_tchar@?$output_processor@DV?$stream_output_adapter@D@__crt_stdio_output@@V?$format_validation_base@DV?$stream_output_adapter@D@__crt_stdio_output@@@2@@__crt_stdio_output@@AAE_ND@Z 10034480 f i libucrt:output.obj
 0001:00033553       ?write_stored_string_tchar@?$output_processor@DV?$stream_output_adapter@D@__crt_stdio_output@@V?$positional_parameter_base@DV?$stream_output_adapter@D@__crt_stdio_output@@@2@@__crt_stdio_output@@AAE_ND@Z 10034553 f i libucrt:output.obj
 0001:00033626       ?write_stored_string_tchar@?$output_processor@DV?$stream_output_adapter@D@__crt_stdio_output@@V?$standard_base@DV?$stream_output_adapter@D@__crt_stdio_output@@@2@@__crt_stdio_output@@AAE_ND@Z 10034626 f i libucrt:output.obj
 0001:000336f9       ?write_stored_string_tchar@?$output_processor@DV?$string_output_adapter@D@__crt_stdio_output@@V?$format_validation_base@DV?$string_output_adapter@D@__crt_stdio_output@@@2@@__crt_stdio_output@@AAE_ND@Z 100346f9 f i libucrt:output.obj
 0001:000337cc       ?write_stored_string_tchar@?$output_processor@DV?$string_output_adapter@D@__crt_stdio_output@@V?$positional_parameter_base@DV?$string_output_adapter@D@__crt_stdio_output@@@2@@__crt_stdio_output@@AAE_ND@Z 100347cc f i libucrt:output.obj
 0001:0003389f       ?write_stored_string_tchar@?$output_processor@DV?$string_output_adapter@D@__crt_stdio_output@@V?$standard_base@DV?$string_output_adapter@D@__crt_stdio_output@@@2@@__crt_stdio_output@@AAE_ND@Z 1003489f f i libucrt:output.obj
 0001:00033972       ?write_stored_string_tchar@?$output_processor@_WV?$stream_output_adapter@_W@__crt_stdio_output@@V?$format_validation_base@_WV?$stream_output_adapter@_W@__crt_stdio_output@@@2@@__crt_stdio_output@@AAE_N_W@Z 10034972 f i libucrt:output.obj
 0001:00033a21       ?write_stored_string_tchar@?$output_processor@_WV?$stream_output_adapter@_W@__crt_stdio_output@@V?$positional_parameter_base@_WV?$stream_output_adapter@_W@__crt_stdio_output@@@2@@__crt_stdio_output@@AAE_N_W@Z 10034a21 f i libucrt:output.obj
 0001:00033ad0       ?write_stored_string_tchar@?$output_processor@_WV?$stream_output_adapter@_W@__crt_stdio_output@@V?$standard_base@_WV?$stream_output_adapter@_W@__crt_stdio_output@@@2@@__crt_stdio_output@@AAE_N_W@Z 10034ad0 f i libucrt:output.obj
 0001:00033b7f       ?write_stored_string_tchar@?$output_processor@_WV?$string_output_adapter@_W@__crt_stdio_output@@V?$format_validation_base@_WV?$string_output_adapter@_W@__crt_stdio_output@@@2@@__crt_stdio_output@@AAE_N_W@Z 10034b7f f i libucrt:output.obj
 0001:00033c2e       ?write_stored_string_tchar@?$output_processor@_WV?$string_output_adapter@_W@__crt_stdio_output@@V?$positional_parameter_base@_WV?$string_output_adapter@_W@__crt_stdio_output@@@2@@__crt_stdio_output@@AAE_N_W@Z 10034c2e f i libucrt:output.obj
 0001:00033cdd       ?write_stored_string_tchar@?$output_processor@_WV?$string_output_adapter@_W@__crt_stdio_output@@V?$standard_base@_WV?$string_output_adapter@_W@__crt_stdio_output@@@2@@__crt_stdio_output@@AAE_N_W@Z 10034cdd f i libucrt:output.obj
 0001:00033d8c       ?write_string@?$stream_output_adapter@D@__crt_stdio_output@@QBEXQBDHQAHAAV__crt_deferred_errno_cache@@@Z 10034d8c f i libucrt:output.obj
 0001:00033e6f       ?write_string@?$stream_output_adapter@_W@__crt_stdio_output@@QBEXQB_WHQAHAAV__crt_deferred_errno_cache@@@Z 10034e6f f i libucrt:output.obj
 0001:00033f56       ?write_string@?$string_output_adapter@D@__crt_stdio_output@@QBEXQBDHQAHAAV__crt_deferred_errno_cache@@@Z 10034f56 f i libucrt:output.obj
 0001:00033fd6       ?write_string@?$string_output_adapter@_W@__crt_stdio_output@@QBEXQB_WHQAHAAV__crt_deferred_errno_cache@@@Z 10034fd6 f i libucrt:output.obj
 0001:00034065       ___acrt_isleadbyte_l_noupdate 10035065 f i libucrt:output.obj
 0001:00034086       ___acrt_locale_changed     10035086 f i libucrt:output.obj
 0001:00034095       ___stdio_common_vfprintf   10035095 f   libucrt:output.obj
 0001:00034129       ___stdio_common_vfprintf_p 10035129 f   libucrt:output.obj
 0001:000341bd       ___stdio_common_vfprintf_s 100351bd f   libucrt:output.obj
 0001:00034251       ___stdio_common_vfwprintf  10035251 f   libucrt:output.obj
 0001:000342e5       ___stdio_common_vfwprintf_p 100352e5 f   libucrt:output.obj
 0001:00034379       ___stdio_common_vfwprintf_s 10035379 f   libucrt:output.obj
 0001:0003440d       ___stdio_common_vsnprintf_s 1003540d f   libucrt:output.obj
 0001:0003443d       ___stdio_common_vsnwprintf_s 1003543d f   libucrt:output.obj
 0001:0003446d       ___stdio_common_vsprintf   1003546d f   libucrt:output.obj
 0001:0003449a       ___stdio_common_vsprintf_p 1003549a f   libucrt:output.obj
 0001:000344c7       ___stdio_common_vsprintf_s 100354c7 f   libucrt:output.obj
 0001:000344f4       ___stdio_common_vswprintf  100354f4 f   libucrt:output.obj
 0001:00034521       ___stdio_common_vswprintf_p 10035521 f   libucrt:output.obj
 0001:0003454e       ___stdio_common_vswprintf_s 1003554e f   libucrt:output.obj
 0001:00034580       _fmod                      10035580 f   libucrt:87fmod.obj
 0001:0003458a       __CIfmod                   1003558a f   libucrt:87fmod.obj
 0001:000345aa       _calloc                    100355aa f   libucrt:calloc.obj
 0001:000345b7       _free                      100355b7 f   libucrt:free.obj
 0001:000345db       ??$__vcrt_va_start_verify_argument_type@QB_W@@YAXXZ 100355db f i libucrt:assert.obj
 0001:00035582       ??$ftprintf@PAU_iobuf@@PBDABQBDABQBDABI@?$__crt_char_traits@D@@SAH$$QAPAU_iobuf@@$$QAPBDABQBD2ABI@Z 10036582 f i libucrt:assert.obj
 0001:000355b4       ??$ftprintf@PAU_iobuf@@PB_WABQB_WABQB_WABI@?$__crt_char_traits@_W@@SAH$$QAPAU_iobuf@@$$QAPB_WABQB_W2ABI@Z 100365b4 f i libucrt:assert.obj
 0001:000355e6       ??$get_module_file_name@AAPAUHINSTANCE__@@AAY0BAF@DK@?$__crt_char_traits@D@@SAKAAPAUHINSTANCE__@@AAY0BAF@D$$QAK@Z 100365e6 f i libucrt:assert.obj
 0001:00035606       ??$get_module_file_name@AAPAUHINSTANCE__@@AAY0BAF@_WK@?$__crt_char_traits@_W@@SAKAAPAUHINSTANCE__@@AAY0BAF@_W$$QAK@Z 10036606 f i libucrt:assert.obj
 0001:00035626       ??$itot_s@ABIPADIH@?$__crt_char_traits@D@@SAHABI$$QAPAD$$QAI$$QAH@Z 10036626 f i libucrt:assert.obj
 0001:00035651       ??$itot_s@ABIPA_WIH@?$__crt_char_traits@_W@@SAHABI$$QAPA_W$$QAI$$QAH@Z 10036651 f i libucrt:assert.obj
 0001:0003567c       ??$show_message_box@AAY0CEA@DPBDJ@?$__crt_char_traits@D@@SAHAAY0CEA@D$$QAPBD$$QAJ@Z 1003667c f i libucrt:assert.obj
 0001:0003569f       ??$show_message_box@AAY0CEA@_WPB_WJ@?$__crt_char_traits@_W@@SAHAAY0CEA@_W$$QAPB_W$$QAJ@Z 1003669f f i libucrt:assert.obj
 0001:000356c2       ??$tcscat_s@ABQADABIAAPAD@?$__crt_char_traits@D@@SAHABQADABIAAPAD@Z 100366c2 f i libucrt:assert.obj
 0001:000356e7       ??$tcscat_s@ABQADABIABQBD@?$__crt_char_traits@D@@SAHABQADABIABQBD@Z 100366e7 f i libucrt:assert.obj
 0001:0003570c       ??$tcscat_s@ABQADABIPBD@?$__crt_char_traits@D@@SAHABQADABI$$QAPBD@Z 1003670c f i libucrt:assert.obj
 0001:00035731       ??$tcscat_s@ABQA_WABIAAPA_W@?$__crt_char_traits@_W@@SAHABQA_WABIAAPA_W@Z 10036731 f i libucrt:assert.obj
 0001:00035756       ??$tcscat_s@ABQA_WABIABQB_W@?$__crt_char_traits@_W@@SAHABQA_WABIABQB_W@Z 10036756 f i libucrt:assert.obj
 0001:0003577b       ??$tcscat_s@ABQA_WABIPB_W@?$__crt_char_traits@_W@@SAHABQA_WABI$$QAPB_W@Z 1003677b f i libucrt:assert.obj
 0001:000357a0       ??$tcscpy_s@AAY0BAF@DIPBD@?$__crt_char_traits@D@@SAHAAY0BAF@D$$QAI$$QAPBD@Z 100367a0 f i libucrt:assert.obj
 0001:000357c3       ??$tcscpy_s@AAY0BAF@_WIPB_W@?$__crt_char_traits@_W@@SAHAAY0BAF@_W$$QAI$$QAPB_W@Z 100367c3 f i libucrt:assert.obj
 0001:000357e6       ??$tcscpy_s@ABQADABIPBD@?$__crt_char_traits@D@@SAHABQADABI$$QAPBD@Z 100367e6 f i libucrt:assert.obj
 0001:0003580b       ??$tcscpy_s@ABQA_WABIPB_W@?$__crt_char_traits@_W@@SAHABQA_WABI$$QAPB_W@Z 1003680b f i libucrt:assert.obj
 0001:00035830       ??$tcslen@AAY0BAF@D@?$__crt_char_traits@D@@SAIAAY0BAF@D@Z 10036830 f i libucrt:assert.obj
 0001:0003584b       ??$tcslen@AAY0BAF@_W@?$__crt_char_traits@_W@@SAIAAY0BAF@_W@Z 1003684b f i libucrt:assert.obj
 0001:0003586e       ??$tcslen@ABQAD@?$__crt_char_traits@D@@SAIABQAD@Z 1003686e f i libucrt:assert.obj
 0001:0003588c       ??$tcslen@ABQA_W@?$__crt_char_traits@_W@@SAIABQA_W@Z 1003688c f i libucrt:assert.obj
 0001:000358b1       ??$tcslen@ABQBD@?$__crt_char_traits@D@@SAIABQBD@Z 100368b1 f i libucrt:assert.obj
 0001:000358cf       ??$tcslen@ABQB_W@?$__crt_char_traits@_W@@SAIABQB_W@Z 100368cf f i libucrt:assert.obj
 0001:000358f4       ??$tcsncat_s@ABQADABIAAPBDI@?$__crt_char_traits@D@@SAHABQADABIAAPBD$$QAI@Z 100368f4 f i libucrt:assert.obj
 0001:0003591f       ??$tcsncat_s@ABQADABIABQBDABI@?$__crt_char_traits@D@@SAHABQADABIABQBD1@Z 1003691f f i libucrt:assert.obj
 0001:0003594a       ??$tcsncat_s@ABQADABIPBDI@?$__crt_char_traits@D@@SAHABQADABI$$QAPBD$$QAI@Z 1003694a f i libucrt:assert.obj
 0001:00035975       ??$tcsncat_s@ABQA_WABIAAPB_WI@?$__crt_char_traits@_W@@SAHABQA_WABIAAPB_W$$QAI@Z 10036975 f i libucrt:assert.obj
 0001:000359a0       ??$tcsncat_s@ABQA_WABIABQB_WABI@?$__crt_char_traits@_W@@SAHABQA_WABIABQB_W1@Z 100369a0 f i libucrt:assert.obj
 0001:000359cb       ??$tcsncat_s@ABQA_WABIPB_WI@?$__crt_char_traits@_W@@SAHABQA_WABI$$QAPB_W$$QAI@Z 100369cb f i libucrt:assert.obj
 0001:00035b70       ?has_any_buffer@__crt_stdio_stream@@QBE_NXZ 10036b70 f i libucrt:assert.obj
 0001:00035b85       ?has_any_of@__crt_stdio_stream@@QBE_NJ@Z 10036b85 f i libucrt:assert.obj
 0001:00035ba1       __assert                   10036ba1 f   libucrt:assert.obj
 0001:00035bfb       __invoke_watson_if_error   10036bfb f i libucrt:assert.obj
 0001:00035c25       __vfwprintf_l              10036c25 f i libucrt:assert.obj
 0001:00035c53       __vswprintf_c_l            10036c53 f i libucrt:assert.obj
 0001:00035c8d       __wassert                  10036c8d f   libucrt:assert.obj
 0001:00035ce7       _fwprintf                  10036ce7 f i libucrt:assert.obj
 0001:00035da9       _swprintf                  10036da9 f i libucrt:assert.obj
 0001:00035dce       _realloc                   10036dce f   libucrt:realloc.obj
 0001:00035ddb       ??$?B$$A6GXPAXK0@Z@__crt_fast_encoded_nullptr_t@@QBEP6GXPAXK0@ZXZ 10036ddb f i libucrt:exit.obj
 0001:00035df9       ??$?RV<lambda_03b1d95aef87969028cfba75ccab2455>@@AAV<lambda_6e4b09c48022b2350581041d5f6b0c4c>@@V<lambda_22bdf7517842c4b3e53723af5aa32b9e>@@@?$__crt_seh_guarded_call@X@@QAEX$$QAV<lambda_03b1d95aef87969028cfba75ccab2455>@@AAV<lambda_6e4b09c48022b2350581041d5f6b0c4c>@@$$QAV<lambda_22bdf7517842c4b3e53723af5aa32b9e>@@@Z 10036df9 f i libucrt:exit.obj
 0001:00035e4c       ??$__acrt_lock_and_call@V<lambda_6e4b09c48022b2350581041d5f6b0c4c>@@@@YAXW4__acrt_lock_id@@$$QAV<lambda_6e4b09c48022b2350581041d5f6b0c4c>@@@Z 10036e4c f i libucrt:exit.obj
 0001:00035e7e       ??$__crt_fast_decode_pointer@P6GXPAXK0@Z@@YAP6GXPAXK0@ZQ6GX0K0@Z@Z 10036e7e f i libucrt:exit.obj
 0001:00035e99       ??$__crt_fast_encode_pointer@P6GXPAXK0@Z@@YAP6GXPAXK0@ZQ6GX0K0@Z@Z 10036e99 f i libucrt:exit.obj
 0001:00035ebf       ??$__crt_get_proc_address@P6GXI@Z@@YAP6GXI@ZQAUHINSTANCE__@@QBD@Z 10036ebf f i libucrt:exit.obj
 0001:00035f25       ??0?$__crt_unique_handle_t@U__crt_hmodule_traits@@@@QAE@QAUHINSTANCE__@@@Z 10036f25 f i libucrt:exit.obj
 0001:00035f39       ??1?$__crt_unique_handle_t@U__crt_hmodule_traits@@@@QAE@XZ 10036f39 f i libucrt:exit.obj
 0001:0003607e       ?__acrt_select_exit_lock@@YA?AW4__acrt_lock_id@@XZ 1003707e f i libucrt:exit.obj
 0001:00036099       ?close@?$__crt_unique_handle_t@U__crt_hmodule_traits@@@@QAEXXZ 10037099 f i libucrt:exit.obj
 0001:000360b5       ?close@__crt_hmodule_traits@@SA_NPAUHINSTANCE__@@@Z 100370b5 f i libucrt:exit.obj
 0001:0003618d       ?get@?$__crt_unique_handle_t@U__crt_hmodule_traits@@@@QBEPAUHINSTANCE__@@XZ 1003718d f i libucrt:exit.obj
 0001:00036190       ?get_address_of@?$__crt_unique_handle_t@U__crt_hmodule_traits@@@@QAEPAPAUHINSTANCE__@@XZ 10037190 f i libucrt:exit.obj
 0001:00036193       ?get_invalid_value@__crt_hmodule_traits@@SAPAUHINSTANCE__@@XZ 10037193 f i libucrt:exit.obj
 0001:00036294       __Exit                     10037294 f   libucrt:exit.obj
 0001:000362af       ___acrt_initialize_thread_local_exit_callback 100372af f   libucrt:exit.obj
 0001:000362c1       __c_exit                   100372c1 f   libucrt:exit.obj
 0001:000362d3       __cexit                    100372d3 f   libucrt:exit.obj
 0001:000362e5       __exit                     100372e5 f   libucrt:exit.obj
 0001:00036300       __is_c_termination_complete 10037300 f   libucrt:exit.obj
 0001:00036306       __register_thread_local_exe_atexit_callback 10037306 f   libucrt:exit.obj
 0001:0003634c       _exit                      1003734c f   libucrt:exit.obj
 0001:00036367       _quick_exit                10037367 f   libucrt:exit.obj
 0001:00036390       _strncat                   10037390 f   libucrt:strncat.obj
 0001:00036520       _strncpy                   10037520 f   libucrt:strncpy.obj
 0001:0003668d       ?is_in_use@__crt_stdio_stream@@QBE_NXZ 1003768d f i libucrt:fclose.obj
 0001:0003669c       __fclose_nolock            1003769c f   libucrt:fclose.obj
 0001:0003672f       _fclose                    1003772f f   libucrt:fclose.obj
 0001:00036a61       ??$open_file@ABQBDABQBDABHPAU_iobuf@@@?$__crt_char_traits@D@@SAPAU_iobuf@@ABQBD0ABH$$QAPAU1@@Z 10037a61 f i libucrt:fopen.obj
 0001:00036a8c       ??$open_file@ABQB_WABQB_WABHPAU_iobuf@@@?$__crt_char_traits@_W@@SAPAU_iobuf@@ABQB_W0ABH$$QAPAU1@@Z 10037a8c f i libucrt:fopen.obj
 0001:00036ab7       ?unlock@__crt_stdio_stream@@QBEXXZ 10037ab7 f i libucrt:fopen.obj
 0001:00036ac2       __fsopen                   10037ac2 f   libucrt:fopen.obj
 0001:00036acf       __wfopen                   10037acf f   libucrt:fopen.obj
 0001:00036aeb       __wfopen_s                 10037aeb f   libucrt:fopen.obj
 0001:00036b43       __wfsopen                  10037b43 f   libucrt:fopen.obj
 0001:00036b50       _fopen                     10037b50 f   libucrt:fopen.obj
 0001:00036b6c       _fopen_s                   10037b6c f   libucrt:fopen.obj
 0001:00036bc4       ?__acrt_stdio_reset_buffer@@YAXV__crt_stdio_stream@@@Z 10037bc4 f i libucrt:fread.obj
 0001:00036bdf       ?set_flags@__crt_stdio_stream@@QBE_NJ@Z 10037bdf f i libucrt:fread.obj
 0001:00036c0f       __fread_nolock             10037c0f f   libucrt:fread.obj
 0001:00036c33       __fread_nolock_s           10037c33 f   libucrt:fread.obj
 0001:00036e83       _fread                     10037e83 f   libucrt:fread.obj
 0001:00036ea7       _fread_s                   10037ea7 f   libucrt:fread.obj
 0001:00036fff       ??$?RV<lambda_cd3bfd923e8d1349099e544c97b1bd8e>@@AAV<lambda_54dcfcba6f8e0c549fa430f4d53fb7dd>@@V<lambda_5e1d0fa2aa2b73b187bf8b7e1d30c7f8>@@@?$__crt_seh_guarded_call@I@@QAEI$$QAV<lambda_cd3bfd923e8d1349099e544c97b1bd8e>@@AAV<lambda_54dcfcba6f8e0c549fa430f4d53fb7dd>@@$$QAV<lambda_5e1d0fa2aa2b73b187bf8b7e1d30c7f8>@@@Z 10037fff f i libucrt:fwrite.obj
 0001:00037064       ??$__acrt_lock_stream_and_call@V<lambda_54dcfcba6f8e0c549fa430f4d53fb7dd>@@@@YAIQAU_iobuf@@$$QAV<lambda_54dcfcba6f8e0c549fa430f4d53fb7dd>@@@Z 10038064 f i libucrt:fwrite.obj
 0001:00037159       ?has_big_buffer@__crt_stdio_stream@@QBE_NXZ 10038159 f i libucrt:fwrite.obj
 0001:0003716a       __fwrite_nolock            1003816a f   libucrt:fwrite.obj
 0001:00037341       _fwrite                    10038341 f   libucrt:fwrite.obj
 0001:000373af       ??$?R_W@__crt_internal_free_policy@@QBEXQB_W@Z 100383af f i libucrt:unlink.obj
 0001:000373c5       ??0?$__crt_unique_heap_ptr@_WU__crt_internal_free_policy@@@@QAE@QA_W@Z 100383c5 f i libucrt:unlink.obj
 0001:000373d9       ??1?$__crt_unique_heap_ptr@_WU__crt_internal_free_policy@@@@QAE@XZ 100383d9 f i libucrt:unlink.obj
 0001:000373ef       ?get@?$__crt_unique_heap_ptr@_WU__crt_internal_free_policy@@@@QBEPA_WXZ 100383ef f i libucrt:unlink.obj
 0001:000373f2       ?get_address_of@?$__crt_unique_heap_ptr@_WU__crt_internal_free_policy@@@@QAEPAPA_WXZ 100383f2 f i libucrt:unlink.obj
 0001:000373f5       ?release@?$__crt_unique_heap_ptr@_WU__crt_internal_free_policy@@@@QAEXXZ 100383f5 f i libucrt:unlink.obj
 0001:0003740b       __unlink                   1003840b f   libucrt:unlink.obj
 0001:00037418       _remove                    10038418 f   libucrt:unlink.obj
 0001:00037478       ?has_all_of@__crt_stdio_stream@@QBE_NJ@Z 10038478 f i libucrt:rewind.obj
 0001:00037497       ?unset_flags@__crt_stdio_stream@@QBE_NJ@Z 10038497 f i libucrt:rewind.obj
 0001:000374cb       _rewind                    100384cb f   libucrt:rewind.obj
 0001:000375cc       _ldexp                     100385cc f   libucrt:ldexp.obj
 0001:0003782c       __errcode                  1003882c f   libucrt:fpexcept.obj
 0001:0003786d       __except1                  1003886d f   libucrt:fpexcept.obj
 0001:0003796e       __except2                  1003896e f   libucrt:fpexcept.obj
 0001:00037ab7       __handle_exc               10038ab7 f   libucrt:fpexcept.obj
 0001:00037d0f       __handle_qnan2             10038d0f f   libucrt:fpexcept.obj
 0001:00037d1f       __raise_exc                10038d1f f   libucrt:fpexcept.obj
 0001:00037d4a       __raise_exc_ex             10038d4a f   libucrt:fpexcept.obj
 0001:000380f7       __raise_excf               100390f7 f   libucrt:fpexcept.obj
 0001:00038122       __set_errno_from_matherr   10039122 f   libucrt:fpexcept.obj
 0001:0003815c       __umatherr                 1003915c f   libucrt:fpexcept.obj
 0001:00038226       __initterm                 10039226 f   libucrt:initterm.obj
 0001:00038299       __initterm_e               10039299 f   libucrt:initterm.obj
 0001:0003831c       __seh_filter_dll           1003931c f   libucrt:exception_filter.obj
 0001:00038344       __seh_filter_exe           10039344 f   libucrt:exception_filter.obj
 0001:00038513       ??$?RE@__crt_internal_free_policy@@QBEXQBE@Z 10039513 f i libucrt:argv_parsing.obj
 0001:00038529       ??$?RPAD@__crt_internal_free_policy@@QBEXQBQAD@Z 10039529 f i libucrt:argv_parsing.obj
 0001:0003853f       ??$?RPA_W@__crt_internal_free_policy@@QBEXQBQA_W@Z 1003953f f i libucrt:argv_parsing.obj
 0001:00038855       ??$get_module_file_name@$$TAAY0BAF@DH@?$__crt_char_traits@D@@SAK$$QA$$TAAY0BAF@D$$QAH@Z 10039855 f i libucrt:argv_parsing.obj
 0001:00038875       ??$get_module_file_name@$$TAAY0BAF@_WH@?$__crt_char_traits@_W@@SAK$$QA$$TAAY0BAF@_W$$QAH@Z 10039875 f i libucrt:argv_parsing.obj
 0001:00038c4e       ??$set_program_name@PAD@?$__crt_char_traits@D@@SAX$$QAPAD@Z 10039c4e f i libucrt:argv_parsing.obj
 0001:00038c63       ??$set_program_name@PA_W@?$__crt_char_traits@_W@@SAX$$QAPA_W@Z 10039c63 f i libucrt:argv_parsing.obj
 0001:00038ca0       ??0?$__crt_unique_heap_ptr@EU__crt_internal_free_policy@@@@QAE@QAE@Z 10039ca0 f i libucrt:argv_parsing.obj
 0001:00038cb4       ??0?$__crt_unique_heap_ptr@PADU__crt_internal_free_policy@@@@QAE@QAPAD@Z 10039cb4 f i libucrt:argv_parsing.obj
 0001:00038cc8       ??0?$__crt_unique_heap_ptr@PA_WU__crt_internal_free_policy@@@@QAE@QAPA_W@Z 10039cc8 f i libucrt:argv_parsing.obj
 0001:00038cdc       ??1?$__crt_unique_heap_ptr@EU__crt_internal_free_policy@@@@QAE@XZ 10039cdc f i libucrt:argv_parsing.obj
 0001:00038cf2       ??1?$__crt_unique_heap_ptr@PADU__crt_internal_free_policy@@@@QAE@XZ 10039cf2 f i libucrt:argv_parsing.obj
 0001:00038d08       ??1?$__crt_unique_heap_ptr@PA_WU__crt_internal_free_policy@@@@QAE@XZ 10039d08 f i libucrt:argv_parsing.obj
 0001:00038d1e       ??B?$__crt_unique_heap_ptr@EU__crt_internal_free_policy@@@@QBE_NXZ 10039d1e f i libucrt:argv_parsing.obj
 0001:00038d5e       ?detach@?$__crt_unique_heap_ptr@EU__crt_internal_free_policy@@@@QAEPAEXZ 10039d5e f i libucrt:argv_parsing.obj
 0001:00038d64       ?detach@?$__crt_unique_heap_ptr@PADU__crt_internal_free_policy@@@@QAEPAPADXZ 10039d64 f i libucrt:argv_parsing.obj
 0001:00038d6a       ?detach@?$__crt_unique_heap_ptr@PA_WU__crt_internal_free_policy@@@@QAEPAPA_WXZ 10039d6a f i libucrt:argv_parsing.obj
 0001:00038d90       ?get@?$__crt_unique_heap_ptr@EU__crt_internal_free_policy@@@@QBEPAEXZ 10039d90 f i libucrt:argv_parsing.obj
 0001:00038d93       ?get@?$__crt_unique_heap_ptr@PADU__crt_internal_free_policy@@@@QBEPAPADXZ 10039d93 f i libucrt:argv_parsing.obj
 0001:00038d96       ?get@?$__crt_unique_heap_ptr@PA_WU__crt_internal_free_policy@@@@QBEPAPA_WXZ 10039d96 f i libucrt:argv_parsing.obj
 0001:00038d99       ?get_address_of@?$__crt_unique_heap_ptr@PADU__crt_internal_free_policy@@@@QAEPAPAPADXZ 10039d99 f i libucrt:argv_parsing.obj
 0001:00038d9c       ?get_address_of@?$__crt_unique_heap_ptr@PA_WU__crt_internal_free_policy@@@@QAEPAPAPA_WXZ 10039d9c f i libucrt:argv_parsing.obj
 0001:00038db7       ?is_valid@?$__crt_unique_heap_ptr@EU__crt_internal_free_policy@@@@QBE_NXZ 10039db7 f i libucrt:argv_parsing.obj
 0001:00038dc1       ?release@?$__crt_unique_heap_ptr@EU__crt_internal_free_policy@@@@QAEXXZ 10039dc1 f i libucrt:argv_parsing.obj
 0001:00038dd7       ?release@?$__crt_unique_heap_ptr@PADU__crt_internal_free_policy@@@@QAEXXZ 10039dd7 f i libucrt:argv_parsing.obj
 0001:00038ded       ?release@?$__crt_unique_heap_ptr@PA_WU__crt_internal_free_policy@@@@QAEXXZ 10039ded f i libucrt:argv_parsing.obj
 0001:00038e24       ___acrt_allocate_buffer_for_argv 10039e24 f   libucrt:argv_parsing.obj
 0001:00038e8e       __configure_narrow_argv    10039e8e f   libucrt:argv_parsing.obj
 0001:00038e9b       __configure_wide_argv      10039e9b f   libucrt:argv_parsing.obj
 0001:00038ea8       __set_pgmptr               10039ea8 f i libucrt:argv_parsing.obj
 0001:00038eba       __set_wpgmptr              10039eba f i libucrt:argv_parsing.obj
 0001:0003938e       ??$get_environment_from_os@$$V@?$__crt_char_traits@D@@SAPADXZ 1003a38e f i libucrt:environment_initialization.obj
 0001:00039393       ??$get_environment_from_os@$$V@?$__crt_char_traits@_W@@SAPA_WXZ 1003a393 f i libucrt:environment_initialization.obj
 0001:000394cd       ??$set_variable_in_environment_nolock@PADH@?$__crt_char_traits@D@@SAH$$QAPAD$$QAH@Z 1003a4cd f i libucrt:environment_initialization.obj
 0001:000394eb       ??$set_variable_in_environment_nolock@PA_WH@?$__crt_char_traits@_W@@SAH$$QAPA_W$$QAH@Z 1003a4eb f i libucrt:environment_initialization.obj
 0001:00039509       ??$tcscpy_s@PADABIAAPAD@?$__crt_char_traits@D@@SAH$$QAPADABIAAPAD@Z 1003a509 f i libucrt:environment_initialization.obj
 0001:0003952e       ??$tcscpy_s@PA_WABIAAPA_W@?$__crt_char_traits@_W@@SAH$$QAPA_WABIAAPA_W@Z 1003a52e f i libucrt:environment_initialization.obj
 0001:00039553       ??$tcslen@AAPAD@?$__crt_char_traits@D@@SAIAAPAD@Z 1003a553 f i libucrt:environment_initialization.obj
 0001:00039571       ??$tcslen@AAPA_W@?$__crt_char_traits@_W@@SAIAAPA_W@Z 1003a571 f i libucrt:environment_initialization.obj
 0001:00039596       ??$uninitialize@A6AXAAPAPAD@Z@?$dual_state_global@PAPAD@__crt_state_management@@QAEXA6AXAAPAPAD@Z@Z 1003a596 f i libucrt:environment_initialization.obj
 0001:000395e6       ??$uninitialize@A6AXAAPAPA_W@Z@?$dual_state_global@PAPA_W@__crt_state_management@@QAEXA6AXAAPAPA_W@Z@Z 1003a5e6 f i libucrt:environment_initialization.obj
 0001:00039678       ??B?$__crt_unique_heap_ptr@PADU__crt_internal_free_policy@@@@QBE_NXZ 1003a678 f i libucrt:environment_initialization.obj
 0001:00039682       ??B?$__crt_unique_heap_ptr@PA_WU__crt_internal_free_policy@@@@QBE_NXZ 1003a682 f i libucrt:environment_initialization.obj
 0001:0003968c       ??B?$__crt_unique_heap_ptr@_WU__crt_internal_free_policy@@@@QBE_NXZ 1003a68c f i libucrt:environment_initialization.obj
 0001:00039696       ?__crt_compute_required_transform_buffer_count@@YAIIQBD@Z 1003a696 f i libucrt:environment_initialization.obj
 0001:000396b6       ?__crt_compute_required_transform_buffer_count@@YAIIQB_W@Z 1003a6b6 f i libucrt:environment_initialization.obj
 0001:000396d9       ?__crt_transform_string@@YAIIQBDQA_WI@Z 1003a6d9 f i libucrt:environment_initialization.obj
 0001:000396fd       ?__crt_transform_string@@YAIIQB_WQADI@Z 1003a6fd f i libucrt:environment_initialization.obj
 0001:00039725       ?detach@?$__crt_unique_heap_ptr@DU__crt_internal_free_policy@@@@QAEPADXZ 1003a725 f i libucrt:environment_initialization.obj
 0001:0003972b       ?detach@?$__crt_unique_heap_ptr@_WU__crt_internal_free_policy@@@@QAEPA_WXZ 1003a72b f i libucrt:environment_initialization.obj
 0001:00039731       ?get_current_state_index@__crt_state_management@@YAIXZ 1003a731 f i libucrt:environment_initialization.obj
 0001:00039758       ?initialize@?$dual_state_global@PAPAD@__crt_state_management@@QAEXQAPAD@Z 1003a758 f i libucrt:environment_initialization.obj
 0001:00039795       ?initialize@?$dual_state_global@PAPA_W@__crt_state_management@@QAEXQAPA_W@Z 1003a795 f i libucrt:environment_initialization.obj
 0001:000397d2       ?is_valid@?$__crt_unique_heap_ptr@PADU__crt_internal_free_policy@@@@QBE_NXZ 1003a7d2 f i libucrt:environment_initialization.obj
 0001:000397dc       ?is_valid@?$__crt_unique_heap_ptr@PA_WU__crt_internal_free_policy@@@@QBE_NXZ 1003a7dc f i libucrt:environment_initialization.obj
 0001:000397e6       ?is_valid@?$__crt_unique_heap_ptr@_WU__crt_internal_free_policy@@@@QBE_NXZ 1003a7e6 f i libucrt:environment_initialization.obj
 0001:000397f6       ?value@?$dual_state_global@PAPAD@__crt_state_management@@QAEAAPAPADXZ 1003a7f6 f i libucrt:environment_initialization.obj
 0001:000397f9       ?value@?$dual_state_global@PAPA_W@__crt_state_management@@QAEAAPAPA_WXZ 1003a7f9 f i libucrt:environment_initialization.obj
 0001:000397fc       ___dcrt_get_or_create_narrow_environment_nolock 1003a7fc f   libucrt:environment_initialization.obj
 0001:00039801       ___dcrt_get_or_create_wide_environment_nolock 1003a801 f   libucrt:environment_initialization.obj
 0001:00039806       ___dcrt_uninitialize_environments_nolock 1003a806 f   libucrt:environment_initialization.obj
 0001:0003984a       ___p__environ              1003a84a f   libucrt:environment_initialization.obj
 0001:00039850       ___p__wenviron             1003a850 f   libucrt:environment_initialization.obj
 0001:00039856       __get_initial_narrow_environment 1003a856 f   libucrt:environment_initialization.obj
 0001:0003986f       __get_initial_wide_environment 1003a86f f   libucrt:environment_initialization.obj
 0001:00039888       __initialize_narrow_environment 1003a888 f   libucrt:environment_initialization.obj
 0001:0003988d       __initialize_wide_environment 1003a88d f   libucrt:environment_initialization.obj
 0001:00039892       ??$?BP6AXXZ@__crt_fast_encoded_nullptr_t@@QBEPAP6AXXZXZ 1003a892 f i libucrt:onexit.obj
 0001:000398b0       ??$?RP6AXXZ@__crt_internal_free_policy@@QBEXQBQ6AXXZ@Z 1003a8b0 f i libucrt:onexit.obj
 0001:000398c6       ??$?RV<lambda_69a2805e680e0e292e8ba93315fe43a8>@@AAV<lambda_f03950bc5685219e0bcd2087efbe011e>@@V<lambda_03fcd07e894ec930e3f35da366ca99d6>@@@?$__crt_seh_guarded_call@H@@QAEH$$QAV<lambda_69a2805e680e0e292e8ba93315fe43a8>@@AAV<lambda_f03950bc5685219e0bcd2087efbe011e>@@$$QAV<lambda_03fcd07e894ec930e3f35da366ca99d6>@@@Z 1003a8c6 f i libucrt:onexit.obj
 0001:0003992b       ??$?RV<lambda_8e746cf0007f6ed984d6f78af1fec997>@@AAV<lambda_22ebabd17bc4fa466a2aca6d8deb888d>@@V<lambda_18ed0c0b38a6dc0daf1e7ac6d6adf05e>@@@?$__crt_seh_guarded_call@H@@QAEH$$QAV<lambda_8e746cf0007f6ed984d6f78af1fec997>@@AAV<lambda_22ebabd17bc4fa466a2aca6d8deb888d>@@$$QAV<lambda_18ed0c0b38a6dc0daf1e7ac6d6adf05e>@@@Z 1003a92b f i libucrt:onexit.obj
 0001:00039990       ??$__acrt_lock_and_call@V<lambda_22ebabd17bc4fa466a2aca6d8deb888d>@@@@YAHW4__acrt_lock_id@@$$QAV<lambda_22ebabd17bc4fa466a2aca6d8deb888d>@@@Z 1003a990 f i libucrt:onexit.obj
 0001:000399c2       ??$__acrt_lock_and_call@V<lambda_f03950bc5685219e0bcd2087efbe011e>@@@@YAHW4__acrt_lock_id@@$$QAV<lambda_f03950bc5685219e0bcd2087efbe011e>@@@Z 1003a9c2 f i libucrt:onexit.obj
 0001:000399f4       ??$__crt_fast_encode_pointer@P6AHXZ@@YAP6AHXZQ6AHXZ@Z 1003a9f4 f i libucrt:onexit.obj
 0001:00039aa1       ??0?$__crt_unique_heap_ptr@P6AXXZU__crt_internal_free_policy@@@@QAE@QAP6AXXZ@Z 1003aaa1 f i libucrt:onexit.obj
 0001:00039ab5       ??1?$__crt_unique_heap_ptr@P6AXXZU__crt_internal_free_policy@@@@QAE@XZ 1003aab5 f i libucrt:onexit.obj
 0001:00039acb       ??1scoped_global_state_reset@__crt_state_management@@QAE@XZ 1003aacb f i libucrt:onexit.obj
 0001:00039dee       ?detach@?$__crt_unique_heap_ptr@P6AXXZU__crt_internal_free_policy@@@@QAEPAP6AXXZXZ 1003adee f i libucrt:onexit.obj
 0001:00039df4       ?release@?$__crt_unique_heap_ptr@P6AXXZU__crt_internal_free_policy@@@@QAEXXZ 1003adf4 f i libucrt:onexit.obj
 0001:00039e0a       __crt_at_quick_exit        1003ae0a f   libucrt:onexit.obj
 0001:00039e25       __crt_atexit               1003ae25 f   libucrt:onexit.obj
 0001:00039e40       __execute_onexit_table     1003ae40 f   libucrt:onexit.obj
 0001:00039e64       __initialize_onexit_table  1003ae64 f   libucrt:onexit.obj
 0001:00039eb0       __register_onexit_function 1003aeb0 f   libucrt:onexit.obj
 0001:0003a000       ??$uninitialize@V<lambda_af42a3ee9806e9a7305d451646e05244>@@@?$dual_state_global@PAU__crt_multibyte_data@@@__crt_state_management@@QAEX$$QAV<lambda_af42a3ee9806e9a7305d451646e05244>@@@Z 1003b000 f i libucrt:initialization.obj
 0001:0003a066       ?initialize@?$dual_state_global@PAU__crt_locale_data@@@__crt_state_management@@QAEXQAU__crt_locale_data@@@Z 1003b066 f i libucrt:initialization.obj
 0001:0003a0a3       ___acrt_initialize         1003b0a3 f   libucrt:initialization.obj
 0001:0003a0b9       ___acrt_thread_attach      1003b0b9 f   libucrt:initialization.obj
 0001:0003a0c6       ___acrt_thread_detach      1003b0c6 f   libucrt:initialization.obj
 0001:0003a0d0       ___acrt_uninitialize       1003b0d0 f   libucrt:initialization.obj
 0001:0003a0e6       ___acrt_uninitialize_critical 1003b0e6 f   libucrt:initialization.obj
 0001:0003a117       __get_terminate            1003b117 f   libucrt:terminate.obj
 0001:0003a12d       _set_terminate             1003b12d f   libucrt:terminate.obj
 0001:0003a155       _terminate                 1003b155 f   libucrt:terminate.obj
 0001:0003a1a0       ??$__crt_interlocked_exchange_pointer@X$$T@@YAPAXPDSAX$$T@Z 1003b1a0 f i libucrt:free_base.obj
 0001:0003a1b8       ___acrt_get_msvcrt_heap_handle 1003b1b8 f   libucrt:free_base.obj
 0001:0003a249       __free_base                1003b249 f   libucrt:free_base.obj
 0001:0003a291       __malloc_base              1003b291 f   libucrt:malloc_base.obj
 0001:0003a362       _strcpy_s                  1003b362 f   libucrt:strcpy_s.obj
 0001:0003a3d2       __set_abort_behavior       1003b3d2 f   libucrt:abort.obj
 0001:0003a3fb       _abort                     1003b3fb f   libucrt:abort.obj
 0001:0003a44e       __calloc_base              1003b44e f   libucrt:calloc_base.obj
 0001:0003a4c2       ??$is_overflow_condition@K@__crt_strtox@@YA_NIK@Z 1003b4c2 f i libucrt:atox.obj
 0001:0003a501       ??$is_overflow_condition@_K@__crt_strtox@@YA_NI_K@Z 1003b501 f i libucrt:atox.obj
 0001:0003a554       ??$make_c_string_character_source@D$$T@__crt_strtox@@YA?AV?$c_string_character_source@D@0@QBD$$T@Z 1003b554 f i libucrt:atox.obj
 0001:0003a575       ??$make_c_string_character_source@_W$$T@__crt_strtox@@YA?AV?$c_string_character_source@_W@0@QB_W$$T@Z 1003b575 f i libucrt:atox.obj
 0001:0003a596       ??$parse_integer@KV?$c_string_character_source@D@__crt_strtox@@@__crt_strtox@@YAKQAU__crt_locale_pointers@@V?$c_string_character_source@D@0@H_N@Z 1003b596 f i libucrt:atox.obj
 0001:0003a848       ??$parse_integer@KV?$c_string_character_source@_W@__crt_strtox@@@__crt_strtox@@YAKQAU__crt_locale_pointers@@V?$c_string_character_source@_W@0@H_N@Z 1003b848 f i libucrt:atox.obj
 0001:0003b0e6       ??$parse_integer@_KV?$c_string_character_source@D@__crt_strtox@@@__crt_strtox@@YA_KQAU__crt_locale_pointers@@V?$c_string_character_source@D@0@H_N@Z 1003c0e6 f i libucrt:atox.obj
 0001:0003b438       ??$parse_integer@_KV?$c_string_character_source@_W@__crt_strtox@@@__crt_strtox@@YA_KQAU__crt_locale_pointers@@V?$c_string_character_source@_W@0@H_N@Z 1003c438 f i libucrt:atox.obj
 0001:0003bbac       ??$parse_integer_from_string@JD$$T@__crt_strtox@@YAJQBD$$THQAU__crt_locale_pointers@@@Z 1003cbac f i libucrt:atox.obj
 0001:0003bbe4       ??$parse_integer_from_string@J_W$$T@__crt_strtox@@YAJQB_W$$THQAU__crt_locale_pointers@@@Z 1003cbe4 f i libucrt:atox.obj
 0001:0003bc1c       ??$parse_integer_from_string@_JD$$T@__crt_strtox@@YA_JQBD$$THQAU__crt_locale_pointers@@@Z 1003cc1c f i libucrt:atox.obj
 0001:0003bc54       ??$parse_integer_from_string@_J_W$$T@__crt_strtox@@YA_JQB_W$$THQAU__crt_locale_pointers@@@Z 1003cc54 f i libucrt:atox.obj
 0001:0003bc8c       ??0?$c_string_character_source@D@__crt_strtox@@QAE@QBDQAPBD@Z 1003cc8c f i libucrt:atox.obj
 0001:0003bcaf       ??0?$c_string_character_source@_W@__crt_strtox@@QAE@QB_WQAPB_W@Z 1003ccaf f i libucrt:atox.obj
 0001:0003bcd2       ??1?$c_string_character_source@D@__crt_strtox@@QAE@XZ 1003ccd2 f i libucrt:atox.obj
 0001:0003bce1       ??1?$c_string_character_source@_W@__crt_strtox@@QAE@XZ 1003cce1 f i libucrt:atox.obj
 0001:0003bcf0       ?get@?$c_string_character_source@D@__crt_strtox@@QAEDXZ 1003ccf0 f i libucrt:atox.obj
 0001:0003bcfa       ?get@?$c_string_character_source@_W@__crt_strtox@@QAE_WXZ 1003ccfa f i libucrt:atox.obj
 0001:0003bd07       ?is_space@__crt_strtox@@YA_NDQAU__crt_locale_pointers@@@Z 1003cd07 f i libucrt:atox.obj
 0001:0003bd2d       ?is_space@__crt_strtox@@YA_N_WPAU__crt_locale_pointers@@@Z 1003cd2d f i libucrt:atox.obj
 0001:0003bd4c       ?maximum_signed_value@__crt_strtox@@YAJK@Z 1003cd4c f i libucrt:atox.obj
 0001:0003bd52       ?maximum_signed_value@__crt_strtox@@YA_J_K@Z 1003cd52 f i libucrt:atox.obj
 0001:0003bd5d       ?minimum_signed_value@__crt_strtox@@YAJK@Z 1003cd5d f i libucrt:atox.obj
 0001:0003bd63       ?minimum_signed_value@__crt_strtox@@YA_J_K@Z 1003cd63 f i libucrt:atox.obj
 0001:0003bd6d       ?parse_digit@__crt_strtox@@YAID@Z 1003cd6d f i libucrt:atox.obj
 0001:0003bdb5       ?parse_digit@__crt_strtox@@YAI_W@Z 1003cdb5 f i libucrt:atox.obj
 0001:0003c012       ?restore_state@?$c_string_character_source@D@__crt_strtox@@QAE_NQBD@Z 1003d012 f i libucrt:atox.obj
 0001:0003c026       ?restore_state@?$c_string_character_source@_W@__crt_strtox@@QAE_NQB_W@Z 1003d026 f i libucrt:atox.obj
 0001:0003c03a       ?save_state@?$c_string_character_source@D@__crt_strtox@@QBEPBDXZ 1003d03a f i libucrt:atox.obj
 0001:0003c03d       ?save_state@?$c_string_character_source@_W@__crt_strtox@@QBEPB_WXZ 1003d03d f i libucrt:atox.obj
 0001:0003c040       ?unget@?$c_string_character_source@D@__crt_strtox@@QAEXD@Z 1003d040 f i libucrt:atox.obj
 0001:0003c072       ?unget@?$c_string_character_source@_W@__crt_strtox@@QAEX_W@Z 1003d072 f i libucrt:atox.obj
 0001:0003c0a9       ?validate@?$c_string_character_source@D@__crt_strtox@@QBE_NXZ 1003d0a9 f i libucrt:atox.obj
 0001:0003c0ca       ?validate@?$c_string_character_source@_W@__crt_strtox@@QBE_NXZ 1003d0ca f i libucrt:atox.obj
 0001:0003c0eb       ?wide_character_to_digit@__crt_strtox@@YAH_W@Z 1003d0eb f i libucrt:atox.obj
 0001:0003c2f4       ___acrt_get_locale_data_prefix 1003d2f4 f i libucrt:atox.obj
 0001:0003c303       __atoi64                   1003d303 f   libucrt:atox.obj
 0001:0003c337       __atoi64_l                 1003d337 f   libucrt:atox.obj
 0001:0003c36c       __atoi_l                   1003d36c f   libucrt:atox.obj
 0001:0003c3a1       __atol_l                   1003d3a1 f   libucrt:atox.obj
 0001:0003c3d6       __atoll_l                  1003d3d6 f   libucrt:atox.obj
 0001:0003c40b       __chvalidchk_l             1003d40b f i libucrt:atox.obj
 0001:0003c43f       __ischartype_l             1003d43f f i libucrt:atox.obj
 0001:0003c47e       __wtoi                     1003d47e f   libucrt:atox.obj
 0001:0003c4b2       __wtoi64                   1003d4b2 f   libucrt:atox.obj
 0001:0003c4e6       __wtoi64_l                 1003d4e6 f   libucrt:atox.obj
 0001:0003c51b       __wtoi_l                   1003d51b f   libucrt:atox.obj
 0001:0003c550       __wtol                     1003d550 f   libucrt:atox.obj
 0001:0003c584       __wtol_l                   1003d584 f   libucrt:atox.obj
 0001:0003c5b9       __wtoll                    1003d5b9 f   libucrt:atox.obj
 0001:0003c5ed       __wtoll_l                  1003d5ed f   libucrt:atox.obj
 0001:0003c622       _atoi                      1003d622 f   libucrt:atox.obj
 0001:0003c656       _atol                      1003d656 f   libucrt:atox.obj
 0001:0003c68a       _atoll                     1003d68a f   libucrt:atox.obj
 0001:0003c6be       ??$__crt_fast_decode_pointer@P6AXPB_W00II@Z@@YAP6AXPB_W00II@ZQ6AX000II@Z@Z 1003d6be f i libucrt:invalid_parameter.obj
 0001:0003c6d9       ??$__crt_fast_encode_pointer@P6AXPB_W00II@Z@@YAP6AXPB_W00II@ZQ6AX000II@Z@Z 1003d6d9 f i libucrt:invalid_parameter.obj
 0001:0003c6ff       ??$initialize_from_array@$$BY00Q6AXPB_W00II@Z@?$dual_state_global@P6AXPB_W00II@Z@__crt_state_management@@QAAXAAY00Q6AXPB_W00II@Z@Z 1003d6ff f i libucrt:invalid_parameter.obj
 0001:0003c714       ?dangerous_get_state_array@?$dual_state_global@P6AXPB_W00II@Z@__crt_state_management@@QAEPAP6AXPB_W00II@ZXZ 1003d714 f i libucrt:invalid_parameter.obj
 0001:0003c717       ?value@?$dual_state_global@P6AXPB_W00II@Z@__crt_state_management@@QAEAAP6AXPB_W00II@ZXZ 1003d717 f i libucrt:invalid_parameter.obj
 0001:0003c71a       ___acrt_call_reportfault   1003d71a f   libucrt:invalid_parameter.obj
 0001:0003c8a3       ___acrt_initialize_invalid_parameter_handler 1003d8a3 f   libucrt:invalid_parameter.obj
 0001:0003c8b5       __get_invalid_parameter_handler 1003d8b5 f   libucrt:invalid_parameter.obj
 0001:0003c8cc       __get_thread_local_invalid_parameter_handler 1003d8cc f   libucrt:invalid_parameter.obj
 0001:0003c8e1       __invalid_parameter        1003d8e1 f   libucrt:invalid_parameter.obj
 0001:0003c97a       __invalid_parameter_noinfo 1003d97a f   libucrt:invalid_parameter.obj
 0001:0003c98e       __invalid_parameter_noinfo_noreturn 1003d98e f   libucrt:invalid_parameter.obj
 0001:0003c9b2       __invoke_watson            1003d9b2 f   libucrt:invalid_parameter.obj
 0001:0003c9f1       __set_invalid_parameter_handler 1003d9f1 f   libucrt:invalid_parameter.obj
 0001:0003ca2d       __set_thread_local_invalid_parameter_handler 1003da2d f   libucrt:invalid_parameter.obj
 0001:0003ca51       ___acrt_errno_from_os_error 1003da51 f   libucrt:errno.obj
 0001:0003caa4       ___acrt_errno_map_os_error 1003daa4 f   libucrt:errno.obj
 0001:0003cacf       ___doserrno                1003dacf f   libucrt:errno.obj
 0001:0003cae6       __errno                    1003dae6 f   libucrt:errno.obj
 0001:0003cafd       __get_doserrno             1003dafd f   libucrt:errno.obj
 0001:0003cb2b       __get_errno                1003db2b f   libucrt:errno.obj
 0001:0003cb59       __set_doserrno             1003db59 f   libucrt:errno.obj
 0001:0003cb82       __set_errno                1003db82 f   libucrt:errno.obj
 0001:0003cbbb       ??$?B$$A6GHPA_WKJ@Z@__crt_fast_encoded_nullptr_t@@QBEP6GHPA_WKJ@ZXZ 1003dbbb f i libucrt:winapi_thunks.obj
 0001:0003cbd9       ??$?RV<lambda_93797fb4802c957ba6a7f08e1250235b>@@AAV<lambda_1f3ce6bd48e0aa2e72a71c02eee379d3>@@V<lambda_56cae30c9364c9b6c15aeaac05d0418e>@@@?$__crt_seh_guarded_call@H@@QAEH$$QAV<lambda_93797fb4802c957ba6a7f08e1250235b>@@AAV<lambda_1f3ce6bd48e0aa2e72a71c02eee379d3>@@$$QAV<lambda_56cae30c9364c9b6c15aeaac05d0418e>@@@Z 1003dbd9 f i libucrt:winapi_thunks.obj
 0001:0003cc7e       ??$__acrt_lock_and_call@V<lambda_1f3ce6bd48e0aa2e72a71c02eee379d3>@@@@YAHW4__acrt_lock_id@@$$QAV<lambda_1f3ce6bd48e0aa2e72a71c02eee379d3>@@@Z 1003dc7e f i libucrt:winapi_thunks.obj
 0001:0003ccb0       ??$__crt_fast_decode_pointer@P6GHPA_WKJ@Z@@YAP6GHPA_WKJ@ZQ6GH0KJ@Z@Z 1003dcb0 f i libucrt:winapi_thunks.obj
 0001:0003cccb       ??$__crt_fast_encode_pointer@P6GHPA_WKJ@Z@@YAP6GHPA_WKJ@ZQ6GH0KJ@Z@Z 1003dccb f i libucrt:winapi_thunks.obj
 0001:0003d52a       _GetCurrentThreadEffectiveToken 1003e52a f i libucrt:winapi_thunks.obj
 0001:0003d52e       ___acrt_AppPolicyGetProcessTerminationMethodInternal@4 1003e52e f   libucrt:winapi_thunks.obj
 0001:0003d59a       ___acrt_AppPolicyGetShowDeveloperDiagnosticInternal@4 1003e59a f   libucrt:winapi_thunks.obj
 0001:0003d606       ___acrt_AppPolicyGetThreadInitializationTypeInternal@4 1003e606 f   libucrt:winapi_thunks.obj
 0001:0003d672       ___acrt_AppPolicyGetWindowingModelInternal@4 1003e672 f   libucrt:winapi_thunks.obj
 0001:0003d6de       ___acrt_AreFileApisANSI@0  1003e6de f   libucrt:winapi_thunks.obj
 0001:0003d726       ___acrt_CompareStringEx@36 1003e726 f   libucrt:winapi_thunks.obj
 0001:0003d7b7       ___acrt_EnumSystemLocalesEx@16 1003e7b7 f   libucrt:winapi_thunks.obj
 0001:0003d826       ___acrt_FlsAlloc@4         1003e826 f   libucrt:winapi_thunks.obj
 0001:0003d891       ___acrt_FlsFree@4          1003e891 f   libucrt:winapi_thunks.obj
 0001:0003d8fc       ___acrt_FlsGetValue@4      1003e8fc f   libucrt:winapi_thunks.obj
 0001:0003d967       ___acrt_FlsSetValue@8      1003e967 f   libucrt:winapi_thunks.obj
 0001:0003d9d6       ___acrt_GetDateFormatEx@28 1003e9d6 f   libucrt:winapi_thunks.obj
 0001:0003da5f       ___acrt_GetEnabledXStateFeatures@0 1003ea5f f   libucrt:winapi_thunks.obj
 0001:0003dac1       ___acrt_GetLocaleInfoEx@16 1003eac1 f   libucrt:winapi_thunks.obj
 0001:0003db2c       ___acrt_GetSystemTimePreciseAsFileTime@4 1003eb2c f   libucrt:winapi_thunks.obj
 0001:0003db97       ___acrt_GetTimeFormatEx@24 1003eb97 f   libucrt:winapi_thunks.obj
 0001:0003dc0a       ___acrt_GetUserDefaultLocaleName@8 1003ec0a f   libucrt:winapi_thunks.obj
 0001:0003dc71       ___acrt_GetXStateFeaturesMask@8 1003ec71 f   libucrt:winapi_thunks.obj
 0001:0003dcdd       ___acrt_InitializeCriticalSectionEx@12 1003ecdd f   libucrt:winapi_thunks.obj
 0001:0003dd57       ___acrt_IsValidLocaleName@4 1003ed57 f   libucrt:winapi_thunks.obj
 0001:0003ddb9       ___acrt_LCIDToLocaleName@16 1003edb9 f   libucrt:winapi_thunks.obj
 0001:0003de24       ___acrt_LCMapStringEx@36   1003ee24 f   libucrt:winapi_thunks.obj
 0001:0003deb5       ___acrt_LocaleNameToLCID@8 1003eeb5 f   libucrt:winapi_thunks.obj
 0001:0003df0f       ___acrt_LocateXStateFeature@12 1003ef0f f   libucrt:winapi_thunks.obj
 0001:0003df66       ___acrt_MessageBoxA@16     1003ef66 f   libucrt:winapi_thunks.obj
 0001:0003dfc1       ___acrt_MessageBoxW@16     1003efc1 f   libucrt:winapi_thunks.obj
 0001:0003e01c       ___acrt_RoInitialize@4     1003f01c f   libucrt:winapi_thunks.obj
 0001:0003e082       ___acrt_RoUninitialize@0   1003f082 f   libucrt:winapi_thunks.obj
 0001:0003e0dd       ___acrt_RtlGenRandom@8     1003f0dd f   libucrt:winapi_thunks.obj
 0001:0003e149       ___acrt_SetThreadStackGuarantee@4 1003f149 f   libucrt:winapi_thunks.obj
 0001:0003e1af       ___acrt_can_show_message_box 1003f1af f   libucrt:winapi_thunks.obj
 0001:0003e1df       ___acrt_can_use_vista_locale_apis 1003f1df f   libucrt:winapi_thunks.obj
 0001:0003e1ee       ___acrt_can_use_xstate_apis 1003f1ee f   libucrt:winapi_thunks.obj
 0001:0003e1fd       ___acrt_eagerly_load_locale_apis 1003f1fd f   libucrt:winapi_thunks.obj
 0001:0003e241       ___acrt_get_parent_window  1003f241 f   libucrt:winapi_thunks.obj
 0001:0003e2df       ___acrt_initialize_winapi_thunks 1003f2df f   libucrt:winapi_thunks.obj
 0001:0003e30e       ___acrt_is_interactive     1003f30e f   libucrt:winapi_thunks.obj
 0001:0003e3dd       ___acrt_uninitialize_winapi_thunks 1003f3dd f   libucrt:winapi_thunks.obj
 0001:0003e420       ??0__crt_stdio_stream@@QAE@QAU__crt_stdio_stream_data@@@Z 1003f420 f i libucrt:closeall.obj
 0001:0003e434       __fcloseall                1003f434 f   libucrt:closeall.obj
 0001:0003e4fc       ??$?RV<lambda_2866be3712abc81a800a822484c830d8>@@AAV<lambda_39ca0ed439415581b5b15c265174cece>@@V<lambda_2b24c74d71094a6cd0cb82e44167d71b>@@@?$__crt_seh_guarded_call@X@@QAEX$$QAV<lambda_2866be3712abc81a800a822484c830d8>@@AAV<lambda_39ca0ed439415581b5b15c265174cece>@@$$QAV<lambda_2b24c74d71094a6cd0cb82e44167d71b>@@@Z 1003f4fc f i libucrt:fflush.obj
 0001:0003e59d       ??$?RV<lambda_2cc53f568c5a2bb6f192f930a45d44ea>@@AAV<lambda_ab61a845afdef5b7c387490eaf3616ee>@@V<lambda_c2ffc0b7726aa6be21d5f0026187e748>@@@?$__crt_seh_guarded_call@X@@QAEX$$QAV<lambda_2cc53f568c5a2bb6f192f930a45d44ea>@@AAV<lambda_ab61a845afdef5b7c387490eaf3616ee>@@$$QAV<lambda_c2ffc0b7726aa6be21d5f0026187e748>@@@Z 1003f59d f i libucrt:fflush.obj
 0001:0003e654       ??$?RV<lambda_6d20deecaf4856105ebacbad442d1079>@@AAV<lambda_9a32fed5bf61b6b509b2d3f6003082a1>@@V<lambda_63ea2239ed67c638ddbae41947fdf875>@@@?$__crt_seh_guarded_call@H@@QAEH$$QAV<lambda_6d20deecaf4856105ebacbad442d1079>@@AAV<lambda_9a32fed5bf61b6b509b2d3f6003082a1>@@$$QAV<lambda_63ea2239ed67c638ddbae41947fdf875>@@@Z 1003f654 f i libucrt:fflush.obj
 0001:0003e6bf       ??$__acrt_lock_and_call@V<lambda_ab61a845afdef5b7c387490eaf3616ee>@@@@YAXW4__acrt_lock_id@@$$QAV<lambda_ab61a845afdef5b7c387490eaf3616ee>@@@Z 1003f6bf f i libucrt:fflush.obj
 0001:0003e6f1       ??$__acrt_lock_stream_and_call@V<lambda_39ca0ed439415581b5b15c265174cece>@@@@YAXQAU_iobuf@@$$QAV<lambda_39ca0ed439415581b5b15c265174cece>@@@Z 1003f6f1 f i libucrt:fflush.obj
 0001:0003e723       ??$__acrt_lock_stream_and_call@V<lambda_9a32fed5bf61b6b509b2d3f6003082a1>@@@@YAHQAU_iobuf@@$$QAV<lambda_9a32fed5bf61b6b509b2d3f6003082a1>@@@Z 1003f723 f i libucrt:fflush.obj
 0001:0003ea6c       ___acrt_stdio_flush_nolock 1003fa6c f   libucrt:fflush.obj
 0001:0003eae7       __fflush_nolock            1003fae7 f   libucrt:fflush.obj
 0001:0003eb3f       __flushall                 1003fb3f f   libucrt:fflush.obj
 0001:0003eb4a       _fflush                    1003fb4a f   libucrt:fflush.obj
 0001:0003eb9d       ?has_crt_buffer@__crt_stdio_stream@@QBE_NXZ 1003fb9d f i libucrt:_freebuf.obj
 0001:0003ebac       ___acrt_stdio_free_buffer_nolock 1003fbac f   libucrt:_freebuf.obj
 0001:0003ede7       ___acrt_initialize_lowio   1003fde7 f   libucrt:ioinit.obj
 0001:0003ee52       ___acrt_uninitialize_lowio 1003fe52 f   libucrt:ioinit.obj
 0001:0003eea4       ___isascii                 1003fea4 f i libucrt:_ctype.obj
 0001:0003eeba       ___iscsym                  1003feba f i libucrt:_ctype.obj
 0001:0003eee4       ___iscsymf                 1003fee4 f i libucrt:_ctype.obj
 0001:0003ef0a       ___toascii                 1003ff0a f i libucrt:_ctype.obj
 0001:0003ef1a       __isalnum_l                1003ff1a f i libucrt:_ctype.obj
 0001:0003ef63       __isalpha_l                1003ff63 f i libucrt:_ctype.obj
 0001:0003efac       __isblank_l                1003ffac f i libucrt:_ctype.obj
 0001:0003efff       __iscntrl_l                1003ffff f i libucrt:_ctype.obj
 0001:0003f045       __iscsym_l                 10040045 f i libucrt:_ctype.obj
 0001:0003f070       __iscsymf_l                10040070 f i libucrt:_ctype.obj
 0001:0003f09b       __isdigit_l                1004009b f i libucrt:_ctype.obj
 0001:0003f0e1       __isgraph_l                100400e1 f i libucrt:_ctype.obj
 0001:0003f12a       __islower_l                1004012a f i libucrt:_ctype.obj
 0001:0003f170       __isprint_l                10040170 f i libucrt:_ctype.obj
 0001:0003f1b9       __ispunct_l                100401b9 f i libucrt:_ctype.obj
 0001:0003f1ff       __isspace_l                100401ff f i libucrt:_ctype.obj
 0001:0003f245       __isupper_l                10040245 f i libucrt:_ctype.obj
 0001:0003f28b       __isxdigit_l               1004028b f i libucrt:_ctype.obj
 0001:0003f2d4       _isalnum                   100402d4 f i libucrt:_ctype.obj
 0001:0003f30e       _isalpha                   1004030e f i libucrt:_ctype.obj
 0001:0003f348       _isblank                   10040348 f i libucrt:_ctype.obj
 0001:0003f38c       _iscntrl                   1004038c f i libucrt:_ctype.obj
 0001:0003f3c4       _isdigit                   100403c4 f i libucrt:_ctype.obj
 0001:0003f3fc       _isgraph                   100403fc f i libucrt:_ctype.obj
 0001:0003f436       _islower                   10040436 f i libucrt:_ctype.obj
 0001:0003f46e       _isprint                   1004046e f i libucrt:_ctype.obj
 0001:0003f4a8       _ispunct                   100404a8 f i libucrt:_ctype.obj
 0001:0003f4e0       _isspace                   100404e0 f i libucrt:_ctype.obj
 0001:0003f518       _isupper                   10040518 f i libucrt:_ctype.obj
 0001:0003f550       _isxdigit                  10040550 f i libucrt:_ctype.obj
 0001:0003f948       __tolower                  10040948 f   libucrt:tolower_toupper.obj
 0001:0003f958       __tolower_l                10040958 f   libucrt:tolower_toupper.obj
 0001:0003f978       __toupper                  10040978 f   libucrt:tolower_toupper.obj
 0001:0003f988       __toupper_l                10040988 f   libucrt:tolower_toupper.obj
 0001:0003f9a8       _tolower                   100409a8 f   libucrt:tolower_toupper.obj
 0001:0003f9e4       _toupper                   100409e4 f   libucrt:tolower_toupper.obj
 0001:0003fa20       ??$make_c_string_character_source@DPAPAD@__crt_strtox@@YA?AV?$c_string_character_source@D@0@QBDQAPAD@Z 10040a20 f i libucrt:strtox.obj
 0001:0003fa41       ??$make_c_string_character_source@_WPAPA_W@__crt_strtox@@YA?AV?$c_string_character_source@_W@0@QB_WQAPA_W@Z 10040a41 f i libucrt:strtox.obj
 0001:0003fa62       ??$parse_integer_from_string@JDPAPAD@__crt_strtox@@YAJQBDQAPADHQAU__crt_locale_pointers@@@Z 10040a62 f i libucrt:strtox.obj
 0001:0003fa9a       ??$parse_integer_from_string@J_WPAPA_W@__crt_strtox@@YAJQB_WQAPA_WHQAU__crt_locale_pointers@@@Z 10040a9a f i libucrt:strtox.obj
 0001:0003fad2       ??$parse_integer_from_string@KDPAPAD@__crt_strtox@@YAKQBDQAPADHQAU__crt_locale_pointers@@@Z 10040ad2 f i libucrt:strtox.obj
 0001:0003fb0a       ??$parse_integer_from_string@K_WPAPA_W@__crt_strtox@@YAKQB_WQAPA_WHQAU__crt_locale_pointers@@@Z 10040b0a f i libucrt:strtox.obj
 0001:0003fb42       ??$parse_integer_from_string@_JDPAPAD@__crt_strtox@@YA_JQBDQAPADHQAU__crt_locale_pointers@@@Z 10040b42 f i libucrt:strtox.obj
 0001:0003fb7a       ??$parse_integer_from_string@_J_WPAPA_W@__crt_strtox@@YA_JQB_WQAPA_WHQAU__crt_locale_pointers@@@Z 10040b7a f i libucrt:strtox.obj
 0001:0003fbb2       ??$parse_integer_from_string@_KDPAPAD@__crt_strtox@@YA_KQBDQAPADHQAU__crt_locale_pointers@@@Z 10040bb2 f i libucrt:strtox.obj
 0001:0003fbea       ??$parse_integer_from_string@_K_WPAPA_W@__crt_strtox@@YA_KQB_WQAPA_WHQAU__crt_locale_pointers@@@Z 10040bea f i libucrt:strtox.obj
 0001:0003fc22       __strtoi64                 10040c22 f   libucrt:strtox.obj
 0001:0003fc59       __strtoi64_l               10040c59 f   libucrt:strtox.obj
 0001:0003fc91       __strtoimax_l              10040c91 f   libucrt:strtox.obj
 0001:0003fcc9       __strtol_l                 10040cc9 f   libucrt:strtox.obj
 0001:0003fd01       __strtoll_l                10040d01 f   libucrt:strtox.obj
 0001:0003fd39       __strtoui64                10040d39 f   libucrt:strtox.obj
 0001:0003fd70       __strtoui64_l              10040d70 f   libucrt:strtox.obj
 0001:0003fda8       __strtoul_l                10040da8 f   libucrt:strtox.obj
 0001:0003fde0       __strtoull_l               10040de0 f   libucrt:strtox.obj
 0001:0003fe18       __strtoumax_l              10040e18 f   libucrt:strtox.obj
 0001:0003fe50       __wcstoi64                 10040e50 f   libucrt:strtox.obj
 0001:0003fe87       __wcstoi64_l               10040e87 f   libucrt:strtox.obj
 0001:0003febf       __wcstoimax_l              10040ebf f   libucrt:strtox.obj
 0001:0003fef7       __wcstol_l                 10040ef7 f   libucrt:strtox.obj
 0001:0003ff2f       __wcstoll_l                10040f2f f   libucrt:strtox.obj
 0001:0003ff67       __wcstoui64                10040f67 f   libucrt:strtox.obj
 0001:0003ff9e       __wcstoui64_l              10040f9e f   libucrt:strtox.obj
 0001:0003ffd6       __wcstoul_l                10040fd6 f   libucrt:strtox.obj
 0001:0004000e       __wcstoull_l               1004100e f   libucrt:strtox.obj
 0001:00040046       __wcstoumax_l              10041046 f   libucrt:strtox.obj
 0001:0004007e       _strtoimax                 1004107e f   libucrt:strtox.obj
 0001:000400b5       _strtol                    100410b5 f   libucrt:strtox.obj
 0001:000400ec       _strtoll                   100410ec f   libucrt:strtox.obj
 0001:00040123       _strtoul                   10041123 f   libucrt:strtox.obj
 0001:0004015a       _strtoull                  1004115a f   libucrt:strtox.obj
 0001:00040191       _strtoumax                 10041191 f   libucrt:strtox.obj
 0001:000401c8       _wcstoimax                 100411c8 f   libucrt:strtox.obj
 0001:000401ff       _wcstol                    100411ff f   libucrt:strtox.obj
 0001:00040236       _wcstoll                   10041236 f   libucrt:strtox.obj
 0001:0004026d       _wcstoul                   1004126d f   libucrt:strtox.obj
 0001:000402a4       _wcstoull                  100412a4 f   libucrt:strtox.obj
 0001:000402db       _wcstoumax                 100412db f   libucrt:strtox.obj
 0001:00040312       __mbtowc_l                 10041312 f   libucrt:mbtowc.obj
 0001:0004044a       _mbtowc                    1004144a f   libucrt:mbtowc.obj
 0001:0004046a       __wctomb_l                 1004146a f   libucrt:wctomb.obj
 0001:000404d1       __wctomb_s_l               100414d1 f   libucrt:wctomb.obj
 0001:0004063a       _wctomb                    1004163a f   libucrt:wctomb.obj
 0001:0004067b       _wctomb_s                  1004167b f   libucrt:wctomb.obj
 0001:000410ae       ??1?$__crt_simd_cleanup_guard@$00@@QAE@XZ 100420ae f i libucrt:strnlen.obj
 0001:000410b2       ??1?$__crt_simd_cleanup_guard@$0A@@@QAE@XZ 100420b2 f i libucrt:strnlen.obj
 0001:000410b3       ?compare_equals@?$__crt_simd_traits@$00E@@SA?AT__m256i@@T2@0@Z 100420b3 f i libucrt:strnlen.obj
 0001:000410b8       ?compare_equals@?$__crt_simd_traits@$00G@@SA?AT__m256i@@T2@0@Z 100420b8 f i libucrt:strnlen.obj
 0001:000410bd       ?compare_equals@?$__crt_simd_traits@$0A@E@@SA?AT__m128i@@T2@0@Z 100420bd f i libucrt:strnlen.obj
 0001:000410c2       ?compare_equals@?$__crt_simd_traits@$0A@G@@SA?AT__m128i@@T2@0@Z 100420c2 f i libucrt:strnlen.obj
 0001:000410c7       ?compute_byte_mask@?$__crt_simd_pack_traits@$00@@SAHT__m256i@@@Z 100420c7 f i libucrt:strnlen.obj
 0001:000410cc       ?compute_byte_mask@?$__crt_simd_pack_traits@$0A@@@SAHT__m128i@@@Z 100420cc f i libucrt:strnlen.obj
 0001:000410d1       ?get_zero_pack@?$__crt_simd_pack_traits@$00@@SA?AT__m256i@@XZ 100420d1 f i libucrt:strnlen.obj
 0001:000410d6       ?get_zero_pack@?$__crt_simd_pack_traits@$0A@@@SA?AT__m128i@@XZ 100420d6 f i libucrt:strnlen.obj
 0001:000410db       _strnlen                   100420db f   libucrt:strnlen.obj
 0001:0004124b       _wcslen                    1004224b f   libucrt:strnlen.obj
 0001:000413cf       _wcsnlen                   100423cf f   libucrt:strnlen.obj
 0001:000415f3       ??$?RU__acrt_ptd@@@__crt_internal_free_policy@@QBEXQBU__acrt_ptd@@@Z 100425f3 f i libucrt:per_thread_data.obj
 0001:00041609       ??$?RV<lambda_15ade71b0218206bbe3333a0c9b79046>@@AAV<lambda_da44e0f8b0f19ba52fefafb335991732>@@V<lambda_207f2d024fc103971653565357d6cd41>@@@?$__crt_seh_guarded_call@X@@QAEX$$QAV<lambda_15ade71b0218206bbe3333a0c9b79046>@@AAV<lambda_da44e0f8b0f19ba52fefafb335991732>@@$$QAV<lambda_207f2d024fc103971653565357d6cd41>@@@Z 10042609 f i libucrt:per_thread_data.obj
 0001:00041663       ??$?RV<lambda_38edbb1296d33220d7e4dd0ed76b244a>@@AAV<lambda_5ce1d447e08cb34b2473517608e21441>@@V<lambda_fb385d3da700c9147fc39e65dd577a8c>@@@?$__crt_seh_guarded_call@X@@QAEX$$QAV<lambda_38edbb1296d33220d7e4dd0ed76b244a>@@AAV<lambda_5ce1d447e08cb34b2473517608e21441>@@$$QAV<lambda_fb385d3da700c9147fc39e65dd577a8c>@@@Z 10042663 f i libucrt:per_thread_data.obj
 0001:000416dc       ??$?RV<lambda_6affb1475c98b40b75cdec977db92e3c>@@AAV<lambda_b8d4b9c228a6ecc3f80208dbb4b4a104>@@V<lambda_608742c3c92a14382c1684fc64f96c88>@@@?$__crt_seh_guarded_call@X@@QAEX$$QAV<lambda_6affb1475c98b40b75cdec977db92e3c>@@AAV<lambda_b8d4b9c228a6ecc3f80208dbb4b4a104>@@$$QAV<lambda_608742c3c92a14382c1684fc64f96c88>@@@Z 100426dc f i libucrt:per_thread_data.obj
 0001:00041739       ??$?RV<lambda_a7e850c220f1c8d1e6efeecdedd162c6>@@AAV<lambda_46720907175c18b6c9d2717bc0d2d362>@@V<lambda_9048902d66e8d99359bc9897bbb930a8>@@@?$__crt_seh_guarded_call@X@@QAEX$$QAV<lambda_a7e850c220f1c8d1e6efeecdedd162c6>@@AAV<lambda_46720907175c18b6c9d2717bc0d2d362>@@$$QAV<lambda_9048902d66e8d99359bc9897bbb930a8>@@@Z 10042739 f i libucrt:per_thread_data.obj
 0001:0004179d       ??$__acrt_lock_and_call@V<lambda_46720907175c18b6c9d2717bc0d2d362>@@@@YAXW4__acrt_lock_id@@$$QAV<lambda_46720907175c18b6c9d2717bc0d2d362>@@@Z 1004279d f i libucrt:per_thread_data.obj
 0001:000417cf       ??$__acrt_lock_and_call@V<lambda_5ce1d447e08cb34b2473517608e21441>@@@@YAXW4__acrt_lock_id@@$$QAV<lambda_5ce1d447e08cb34b2473517608e21441>@@@Z 100427cf f i libucrt:per_thread_data.obj
 0001:00041801       ??$__acrt_lock_and_call@V<lambda_b8d4b9c228a6ecc3f80208dbb4b4a104>@@@@YAXW4__acrt_lock_id@@$$QAV<lambda_b8d4b9c228a6ecc3f80208dbb4b4a104>@@@Z 10042801 f i libucrt:per_thread_data.obj
 0001:00041833       ??$__acrt_lock_and_call@V<lambda_da44e0f8b0f19ba52fefafb335991732>@@@@YAXW4__acrt_lock_id@@$$QAV<lambda_da44e0f8b0f19ba52fefafb335991732>@@@Z 10042833 f i libucrt:per_thread_data.obj
 0001:0004196c       ??0?$__crt_unique_heap_ptr@U__acrt_ptd@@U__crt_internal_free_policy@@@@QAE@QAU__acrt_ptd@@@Z 1004296c f i libucrt:per_thread_data.obj
 0001:00041980       ??0__crt_scoped_get_last_error_reset@@QAE@XZ 10042980 f i libucrt:per_thread_data.obj
 0001:00041995       ??1?$__crt_unique_heap_ptr@U__acrt_ptd@@U__crt_internal_free_policy@@@@QAE@XZ 10042995 f i libucrt:per_thread_data.obj
 0001:000419ab       ??1__crt_scoped_get_last_error_reset@@QAE@XZ 100429ab f i libucrt:per_thread_data.obj
 0001:000419b6       ??B?$__crt_unique_heap_ptr@U__acrt_ptd@@U__crt_internal_free_policy@@@@QBE_NXZ 100429b6 f i libucrt:per_thread_data.obj
 0001:00041b2c       ?dangerous_get_state_array@?$dual_state_global@PAU__crt_locale_data@@@__crt_state_management@@QAEPAPAU__crt_locale_data@@XZ 10042b2c f i libucrt:per_thread_data.obj
 0001:00041c30       ?detach@?$__crt_unique_heap_ptr@U__acrt_ptd@@U__crt_internal_free_policy@@@@QAEPAU__acrt_ptd@@XZ 10042c30 f i libucrt:per_thread_data.obj
 0001:00041c36       ?get@?$__crt_unique_heap_ptr@U__acrt_ptd@@U__crt_internal_free_policy@@@@QBEPAU__acrt_ptd@@XZ 10042c36 f i libucrt:per_thread_data.obj
 0001:00041db6       ?is_valid@?$__crt_unique_heap_ptr@U__acrt_ptd@@U__crt_internal_free_policy@@@@QBE_NXZ 10042db6 f i libucrt:per_thread_data.obj
 0001:00041dc0       ?release@?$__crt_unique_heap_ptr@U__acrt_ptd@@U__crt_internal_free_policy@@@@QAEXXZ 10042dc0 f i libucrt:per_thread_data.obj
 0001:00041e4c       ?value@?$dual_state_global@PAU__crt_locale_data@@@__crt_state_management@@QAEAAPAU__crt_locale_data@@XZ 10042e4c f i libucrt:per_thread_data.obj
 0001:00041e4f       ___acrt_freeptd            10042e4f f   libucrt:per_thread_data.obj
 0001:00041e86       ___acrt_getptd             10042e86 f   libucrt:per_thread_data.obj
 0001:00041f67       ___acrt_getptd_head        10042f67 f   libucrt:per_thread_data.obj
 0001:00042027       ___acrt_getptd_noexit      10043027 f   libucrt:per_thread_data.obj
 0001:00042106       ___acrt_initialize_ptd     10043106 f   libucrt:per_thread_data.obj
 0001:0004213d       ___acrt_uninitialize_ptd   1004313d f   libucrt:per_thread_data.obj
 0001:0004215d       ___threadhandle            1004315d f   libucrt:per_thread_data.obj
 0001:00042163       ___threadid                10043163 f   libucrt:per_thread_data.obj
 0001:00042169       ?value@?$dual_state_global@PAU__crt_multibyte_data@@@__crt_state_management@@QAEAAPAU__crt_multibyte_data@@XZ 10043169 f i libucrt:locale_update.obj
 0001:0004216c       ___acrt_update_locale_info 1004316c f   libucrt:locale_update.obj
 0001:000421a4       ___acrt_update_multibyte_info 100431a4 f   libucrt:locale_update.obj
 0001:000421dc       ?__acrt_fp_classify@@YA?AW4__acrt_fp_class@@ABN@Z 100431dc f i libucrt:cvt.obj
 0001:0004225e       ?__acrt_fp_is_negative@@YA_NABN@Z 1004325e f i libucrt:cvt.obj
 0001:00042ce7       ?strrchr@@YAPADQADH@Z      10043ce7 f i libucrt:cvt.obj
 0001:00042cf4       ___acrt_fp_format          10043cf4 f   libucrt:cvt.obj
 0001:00042ece       __fputwc_nolock            10043ece f   libucrt:fputwc.obj
 0001:00043042       __fputwchar                10044042 f   libucrt:fputwc.obj
 0001:00043062       __putwc_nolock             10044062 f   libucrt:fputwc.obj
 0001:0004306f       _fputwc                    1004406f f   libucrt:fputwc.obj
 0001:00043108       _putwc                     10044108 f   libucrt:fputwc.obj
 0001:00043115       _putwchar                  10044115 f   libucrt:fputwc.obj
 0001:00043122       ?lowio_handle@__crt_stdio_stream@@QBEHXZ 10044122 f i libucrt:fileno.obj
 0001:00043128       __fileno                   10044128 f   libucrt:fileno.obj
 0001:00043157       __fputc_nolock             10044157 f   libucrt:fputc.obj
 0001:0004318a       __fputchar                 1004418a f   libucrt:fputc.obj
 0001:000431aa       __putc_nolock              100441aa f   libucrt:fputc.obj
 0001:000431b7       _fputc                     100441b7 f   libucrt:fputc.obj
 0001:000432fc       _putc                      100442fc f   libucrt:fputc.obj
 0001:00043309       _putchar                   10044309 f   libucrt:fputc.obj
 0001:00043316       __get_printf_count_output  10044316 f   libucrt:printf_count_output.obj
 0001:00043330       __set_printf_count_output  10044330 f   libucrt:printf_count_output.obj
 0001:00043364       ?has_temporary_buffer@__crt_stdio_stream@@QBE_NXZ 10044364 f i libucrt:_sftbuf.obj
 0001:00043373       ___acrt_stdio_begin_temporary_buffering_nolock 10044373 f   libucrt:_sftbuf.obj
 0001:00043455       ___acrt_stdio_end_temporary_buffering_nolock 10044455 f   libucrt:_sftbuf.obj
 0001:0004349f       ??$?RU__crt_locale_data@@@__crt_internal_free_policy@@QBEXQBU__crt_locale_data@@@Z 1004449f f i libucrt:wsetlocale.obj
 0001:000434b5       ??$?RU__crt_locale_pointers@@@__crt_internal_free_policy@@QBEXQBU__crt_locale_pointers@@@Z 100444b5 f i libucrt:wsetlocale.obj
 0001:000434cb       ??$?RU__crt_multibyte_data@@@__crt_internal_free_policy@@QBEXQBU__crt_multibyte_data@@@Z 100444cb f i libucrt:wsetlocale.obj
 0001:000434e1       ??$?RV<lambda_303d0ad9bde654cb3f803a73716ce7a4>@@AAV<lambda_92fe181106aff629c9a2e25713a64969>@@V<lambda_184325e10b6cff6f771390cbceab281b>@@@?$__crt_seh_guarded_call@X@@QAEX$$QAV<lambda_303d0ad9bde654cb3f803a73716ce7a4>@@AAV<lambda_92fe181106aff629c9a2e25713a64969>@@$$QAV<lambda_184325e10b6cff6f771390cbceab281b>@@@Z 100444e1 f i libucrt:wsetlocale.obj
 0001:00043534       ??$?RV<lambda_38c1253c7a74f5d2d430989951395d98>@@AAV<lambda_b163b37eafe0a13f2c371fafeb0365c9>@@AAV<lambda_8dff2cf36a5417162780cd64fa2883ef>@@@?$__crt_seh_guarded_call@X@@QAEX$$QAV<lambda_38c1253c7a74f5d2d430989951395d98>@@AAV<lambda_b163b37eafe0a13f2c371fafeb0365c9>@@AAV<lambda_8dff2cf36a5417162780cd64fa2883ef>@@@Z 10044534 f i libucrt:wsetlocale.obj
 0001:0004357d       ??$?RV<lambda_6673f7c4c09a5d469d0c27ae364621ce>@@AAV<lambda_ebab98244f73a74f49db879bf13fa982>@@V<lambda_be20789b7a146653eab82509ec35b419>@@@?$__crt_seh_guarded_call@X@@QAEX$$QAV<lambda_6673f7c4c09a5d469d0c27ae364621ce>@@AAV<lambda_ebab98244f73a74f49db879bf13fa982>@@$$QAV<lambda_be20789b7a146653eab82509ec35b419>@@@Z 1004457d f i libucrt:wsetlocale.obj
 0001:000435d7       ??$?RV<lambda_82aef432098b982f9ede325b418aa67a>@@AAV<lambda_862e9a3f04921db6ca1ce3faa2bf3edf>@@V<lambda_ffabc152e504b53d7492b9889b10c020>@@@?$__crt_seh_guarded_call@X@@QAEX$$QAV<lambda_82aef432098b982f9ede325b418aa67a>@@AAV<lambda_862e9a3f04921db6ca1ce3faa2bf3edf>@@$$QAV<lambda_ffabc152e504b53d7492b9889b10c020>@@@Z 100445d7 f i libucrt:wsetlocale.obj
 0001:00043633       ??$?RV<lambda_e5124f882df8998aaf41531e079ba474>@@AAV<lambda_3e16ef9562a7dcce91392c22ab16ea36>@@V<lambda_e25ca0880e6ef98be67edffd8c599615>@@@?$__crt_seh_guarded_call@X@@QAEX$$QAV<lambda_e5124f882df8998aaf41531e079ba474>@@AAV<lambda_3e16ef9562a7dcce91392c22ab16ea36>@@$$QAV<lambda_e25ca0880e6ef98be67edffd8c599615>@@@Z 10044633 f i libucrt:wsetlocale.obj
 0001:0004368e       ??$__acrt_lock_and_call@V<lambda_3e16ef9562a7dcce91392c22ab16ea36>@@@@YAXW4__acrt_lock_id@@$$QAV<lambda_3e16ef9562a7dcce91392c22ab16ea36>@@@Z 1004468e f i libucrt:wsetlocale.obj
 0001:000436c0       ??$__acrt_lock_and_call@V<lambda_862e9a3f04921db6ca1ce3faa2bf3edf>@@@@YAXW4__acrt_lock_id@@$$QAV<lambda_862e9a3f04921db6ca1ce3faa2bf3edf>@@@Z 100446c0 f i libucrt:wsetlocale.obj
 0001:000436f2       ??$__acrt_lock_and_call@V<lambda_92fe181106aff629c9a2e25713a64969>@@@@YAXW4__acrt_lock_id@@$$QAV<lambda_92fe181106aff629c9a2e25713a64969>@@@Z 100446f2 f i libucrt:wsetlocale.obj
 0001:00043724       ??$__acrt_lock_and_call@V<lambda_ebab98244f73a74f49db879bf13fa982>@@@@YAXW4__acrt_lock_id@@$$QAV<lambda_ebab98244f73a74f49db879bf13fa982>@@@Z 10044724 f i libucrt:wsetlocale.obj
 0001:00043756       ??$__crt_call_and_cleanup@V<lambda_b163b37eafe0a13f2c371fafeb0365c9>@@V<lambda_8dff2cf36a5417162780cd64fa2883ef>@@@@YAX$$QAV<lambda_b163b37eafe0a13f2c371fafeb0365c9>@@$$QAV<lambda_8dff2cf36a5417162780cd64fa2883ef>@@@Z 10044756 f i libucrt:wsetlocale.obj
 0001:00043779       ??$__vcrt_va_start_verify_argument_type@H@@YAXXZ 10044779 f i libucrt:wsetlocale.obj
 0001:0004377a       ??$uninitialize@V<lambda_88ce03f932007f29bf8b8056cbaba4f3>@@@?$dual_state_global@PAU__crt_locale_data@@@__crt_state_management@@QAEX$$QAV<lambda_88ce03f932007f29bf8b8056cbaba4f3>@@@Z 1004477a f i libucrt:wsetlocale.obj
 0001:00043904       ??0?$__crt_unique_heap_ptr@U__crt_locale_data@@U__crt_internal_free_policy@@@@QAE@QAU__crt_locale_data@@@Z 10044904 f i libucrt:wsetlocale.obj
 0001:00043918       ??0?$__crt_unique_heap_ptr@U__crt_locale_pointers@@U__crt_internal_free_policy@@@@QAE@QAU__crt_locale_pointers@@@Z 10044918 f i libucrt:wsetlocale.obj
 0001:0004392c       ??0?$__crt_unique_heap_ptr@U__crt_multibyte_data@@U__crt_internal_free_policy@@@@QAE@QAU__crt_multibyte_data@@@Z 1004492c f i libucrt:wsetlocale.obj
 0001:00043940       ??1?$__crt_unique_heap_ptr@U__crt_locale_data@@U__crt_internal_free_policy@@@@QAE@XZ 10044940 f i libucrt:wsetlocale.obj
 0001:00043956       ??1?$__crt_unique_heap_ptr@U__crt_locale_pointers@@U__crt_internal_free_policy@@@@QAE@XZ 10044956 f i libucrt:wsetlocale.obj
 0001:0004396c       ??1?$__crt_unique_heap_ptr@U__crt_multibyte_data@@U__crt_internal_free_policy@@@@QAE@XZ 1004496c f i libucrt:wsetlocale.obj
 0001:00043982       ??B?$__crt_unique_heap_ptr@U__crt_locale_data@@U__crt_internal_free_policy@@@@QBE_NXZ 10044982 f i libucrt:wsetlocale.obj
 0001:0004398c       ??B?$__crt_unique_heap_ptr@U__crt_locale_pointers@@U__crt_internal_free_policy@@@@QBE_NXZ 1004498c f i libucrt:wsetlocale.obj
 0001:00043996       ??B?$__crt_unique_heap_ptr@U__crt_multibyte_data@@U__crt_internal_free_policy@@@@QBE_NXZ 10044996 f i libucrt:wsetlocale.obj
 0001:00043c1d       ?detach@?$__crt_unique_heap_ptr@U__crt_locale_data@@U__crt_internal_free_policy@@@@QAEPAU__crt_locale_data@@XZ 10044c1d f i libucrt:wsetlocale.obj
 0001:00043c23       ?detach@?$__crt_unique_heap_ptr@U__crt_locale_pointers@@U__crt_internal_free_policy@@@@QAEPAU__crt_locale_pointers@@XZ 10044c23 f i libucrt:wsetlocale.obj
 0001:00043c29       ?detach@?$__crt_unique_heap_ptr@U__crt_multibyte_data@@U__crt_internal_free_policy@@@@QAEPAU__crt_multibyte_data@@XZ 10044c29 f i libucrt:wsetlocale.obj
 0001:00043c2f       ?get@?$__crt_unique_heap_ptr@U__crt_locale_data@@U__crt_internal_free_policy@@@@QBEPAU__crt_locale_data@@XZ 10044c2f f i libucrt:wsetlocale.obj
 0001:00043c32       ?get@?$__crt_unique_heap_ptr@U__crt_locale_pointers@@U__crt_internal_free_policy@@@@QBEPAU__crt_locale_pointers@@XZ 10044c32 f i libucrt:wsetlocale.obj
 0001:00043c35       ?get@?$__crt_unique_heap_ptr@U__crt_multibyte_data@@U__crt_internal_free_policy@@@@QBEPAU__crt_multibyte_data@@XZ 10044c35 f i libucrt:wsetlocale.obj
 0001:00043c38       ?is_valid@?$__crt_unique_heap_ptr@U__crt_locale_data@@U__crt_internal_free_policy@@@@QBE_NXZ 10044c38 f i libucrt:wsetlocale.obj
 0001:00043c42       ?is_valid@?$__crt_unique_heap_ptr@U__crt_locale_pointers@@U__crt_internal_free_policy@@@@QBE_NXZ 10044c42 f i libucrt:wsetlocale.obj
 0001:00043c4c       ?is_valid@?$__crt_unique_heap_ptr@U__crt_multibyte_data@@U__crt_internal_free_policy@@@@QBE_NXZ 10044c4c f i libucrt:wsetlocale.obj
 0001:00043c56       ?release@?$__crt_unique_heap_ptr@U__crt_locale_data@@U__crt_internal_free_policy@@@@QAEXXZ 10044c56 f i libucrt:wsetlocale.obj
 0001:00043c6c       ?release@?$__crt_unique_heap_ptr@U__crt_locale_pointers@@U__crt_internal_free_policy@@@@QAEXXZ 10044c6c f i libucrt:wsetlocale.obj
 0001:00043c82       ?release@?$__crt_unique_heap_ptr@U__crt_multibyte_data@@U__crt_internal_free_policy@@@@QAEXXZ 10044c82 f i libucrt:wsetlocale.obj
 0001:00043c98       ___acrt_copy_locale_name   10044c98 f   libucrt:wsetlocale.obj
 0001:00043d17       ___acrt_set_locale_changed 10044d17 f   libucrt:wsetlocale.obj
 0001:00043d24       ___acrt_uninitialize_locale 10044d24 f   libucrt:wsetlocale.obj
 0001:00043d40       ___lc_lctowcs              10044d40 f   libucrt:wsetlocale.obj
 0001:00043dcc       ___lc_wcstolc              10044dcc f   libucrt:wsetlocale.obj
 0001:00043f46       __configthreadlocale       10044f46 f   libucrt:wsetlocale.obj
 0001:00043ffa       __create_locale            10044ffa f   libucrt:wsetlocale.obj
 0001:00044077       __expandlocale             10045077 f   libucrt:wsetlocale.obj
 0001:000444cb       __free_locale              100454cb f   libucrt:wsetlocale.obj
 0001:000445b1       __get_current_locale       100455b1 f   libucrt:wsetlocale.obj
 0001:0004464a       __wcreate_locale           1004564a f   libucrt:wsetlocale.obj
 0001:00044795       __wcscats                  10045795 f   libucrt:wsetlocale.obj
 0001:000447e6       __wsetlocale               100457e6 f   libucrt:wsetlocale.obj
 0001:00045312       ___p___mb_cur_max          10046312 f   libucrt:nlsdata.obj
 0001:00045350       __cintrindisp2             10046350 f   libucrt:87cdisp.obj
 0001:00045394       __cintrindisp1             10046394 f   libucrt:87cdisp.obj
 0001:000453d7       __ctrandisp2               100463d7 f   libucrt:87cdisp.obj
 0001:00045566       __ctrandisp1               10046566 f   libucrt:87cdisp.obj
 0001:00045599       __fload                    10046599 f   libucrt:87cdisp.obj
 0001:00045680       __trandisp1                10046680 f   libucrt:87disp.obj
 0001:000456e7       __trandisp2                100466e7 f   libucrt:87disp.obj
 0001:00045773       __rttospopde               10046773     libucrt:87disp.obj
 0001:00045778       __rttospop                 10046778     libucrt:87disp.obj
 0001:0004577a       __rtnospop                 1004677a     libucrt:87disp.obj
 0001:0004577c       __rttosnpop                1004677c     libucrt:87disp.obj
 0001:0004577d       __rtnospopde               1004677d     libucrt:87disp.obj
 0001:00045784       __rtzeropop                10046784     libucrt:87disp.obj
 0001:00045786       __rtzeronpop               10046786     libucrt:87disp.obj
 0001:0004578b       __rtzerospop               1004678b     libucrt:87disp.obj
 0001:00045798       __rtonepop                 10046798     libucrt:87disp.obj
 0001:0004579a       __rtonenpop                1004679a     libucrt:87disp.obj
 0001:0004579f       __tosnan1                  1004679f     libucrt:87disp.obj
 0001:000457ca       __nosnan2                  100467ca     libucrt:87disp.obj
 0001:000457cc       __tosnan2                  100467cc     libucrt:87disp.obj
 0001:000457f4       __nan2                     100467f4     libucrt:87disp.obj
 0001:00045833       __rtindfpop                10046833     libucrt:87disp.obj
 0001:00045835       __rtindfnpop               10046835     libucrt:87disp.obj
 0001:00045846       __rttosnpopde              10046846     libucrt:87disp.obj
 0001:00045850       __rtatan2inf               10046850     libucrt:87disp.obj
 0001:0004586d       __rtchsifneg               1004686d     libucrt:87disp.obj
 0001:000459b8       ___acrt_report_runtime_error 100469b8 f   libucrt:report_runtime_error.obj
 0001:00045b1e       __query_app_type           10046b1e f   libucrt:report_runtime_error.obj
 0001:00045b24       __set_app_type             10046b24 f   libucrt:report_runtime_error.obj
 0001:0004600e       __i64toa                   1004700e f   libucrt:xtoa.obj
 0001:00046061       __i64toa_s                 10047061 f   libucrt:xtoa.obj
 0001:000460b2       __i64tow                   100470b2 f   libucrt:xtoa.obj
 0001:00046105       __i64tow_s                 10047105 f   libucrt:xtoa.obj
 0001:00046156       __itoa                     10047156 f   libucrt:xtoa.obj
 0001:0004619a       __itoa_s                   1004719a f   libucrt:xtoa.obj
 0001:000461dc       __itow                     100471dc f   libucrt:xtoa.obj
 0001:00046220       __itow_s                   10047220 f   libucrt:xtoa.obj
 0001:00046262       __ltoa                     10047262 f   libucrt:xtoa.obj
 0001:000462a6       __ltoa_s                   100472a6 f   libucrt:xtoa.obj
 0001:000462e8       __ltow                     100472e8 f   libucrt:xtoa.obj
 0001:0004632c       __ltow_s                   1004732c f   libucrt:xtoa.obj
 0001:0004636e       __ui64toa                  1004736e f   libucrt:xtoa.obj
 0001:00046398       __ui64toa_s                10047398 f   libucrt:xtoa.obj
 0001:000463c0       __ui64tow                  100473c0 f   libucrt:xtoa.obj
 0001:000463ea       __ui64tow_s                100473ea f   libucrt:xtoa.obj
 0001:00046412       __ultoa                    10047412 f   libucrt:xtoa.obj
 0001:00046438       __ultoa_s                  10047438 f   libucrt:xtoa.obj
 0001:0004645c       __ultow                    1004745c f   libucrt:xtoa.obj
 0001:00046482       __ultow_s                  10047482 f   libucrt:xtoa.obj
 0001:000464a6       __set_error_mode           100474a6 f   libucrt:set_error_mode.obj
 0001:00046582       _wcscat_s                  10047582 f   libucrt:wcscat_s.obj
 0001:0004668c       _wcscpy_s                  1004768c f   libucrt:wcscpy_s.obj
 0001:0004682c       _wcsncat_s                 1004782c f   libucrt:wcsncat_s.obj
 0001:000468bc       _strcat_s                  100478bc f   libucrt:strcat_s.obj
 0001:00046a43       _strncat_s                 10047a43 f   libucrt:strncat_s.obj
 0001:00046b9a       ??$message_box@$$TABQBDABQBDK@?$__crt_char_traits@D@@SAH$$QA$$TABQBD1$$QAK@Z 10047b9a f i libucrt:crtmbox.obj
 0001:00046bc2       ??$message_box@$$TABQB_WABQB_WK@?$__crt_char_traits@_W@@SAH$$QA$$TABQB_W1$$QAK@Z 10047bc2 f i libucrt:crtmbox.obj
 0001:00046bea       ??$message_box@PAUHWND__@@ABQBDABQBDABI@?$__crt_char_traits@D@@SAH$$QAPAUHWND__@@ABQBD1ABI@Z 10047bea f i libucrt:crtmbox.obj
 0001:00046c12       ??$message_box@PAUHWND__@@ABQB_WABQB_WABI@?$__crt_char_traits@_W@@SAH$$QAPAUHWND__@@ABQB_W1ABI@Z 10047c12 f i libucrt:crtmbox.obj
 0001:00046c3a       ??$output_debug_string@ABQBD@?$__crt_char_traits@D@@SAXABQBD@Z 10047c3a f i libucrt:crtmbox.obj
 0001:00046c50       ??$output_debug_string@ABQB_W@?$__crt_char_traits@_W@@SAXABQB_W@Z 10047c50 f i libucrt:crtmbox.obj
 0001:00046c66       ___acrt_show_narrow_message_box 10047c66 f   libucrt:crtmbox.obj
 0001:00046c73       ___acrt_show_wide_message_box 10047c73 f   libucrt:crtmbox.obj
 0001:00046c80       ??$?RV<lambda_70c0770dcc4f6ec6272bb01dc82d3c91>@@AAV<lambda_ca71763b3c0644891230e4f79ea54fa6>@@V<lambda_ca266f0f09348b8765c113e3a39a2bc1>@@@?$__crt_seh_guarded_call@H@@QAEH$$QAV<lambda_70c0770dcc4f6ec6272bb01dc82d3c91>@@AAV<lambda_ca71763b3c0644891230e4f79ea54fa6>@@$$QAV<lambda_ca266f0f09348b8765c113e3a39a2bc1>@@@Z 10047c80 f i libucrt:setvbuf.obj
 0001:00046ce5       ??$__acrt_lock_stream_and_call@V<lambda_ca71763b3c0644891230e4f79ea54fa6>@@@@YAHQAU_iobuf@@$$QAV<lambda_ca71763b3c0644891230e4f79ea54fa6>@@@Z 10047ce5 f i libucrt:setvbuf.obj
 0001:00046e82       _setvbuf                   10047e82 f   libucrt:setvbuf.obj
 0001:00046f15       ??$?B$$A6AXH@Z@__crt_fast_encoded_nullptr_t@@QBEP6AXH@ZXZ 10047f15 f i libucrt:signal.obj
 0001:00046f33       ??$?RV<lambda_cbab9ec6f41b0180b23cc171c22676b0>@@AAV<lambda_44731a7d0e6d81c3e6aa82d741081786>@@V<lambda_4b292cb8dd18144e164572427af410ab>@@@?$__crt_seh_guarded_call@P6AXH@Z@@QAEP6AXH@Z$$QAV<lambda_cbab9ec6f41b0180b23cc171c22676b0>@@AAV<lambda_44731a7d0e6d81c3e6aa82d741081786>@@$$QAV<lambda_4b292cb8dd18144e164572427af410ab>@@@Z 10047f33 f i libucrt:signal.obj
 0001:00046fa3       ??$__acrt_lock_and_call@V<lambda_44731a7d0e6d81c3e6aa82d741081786>@@@@YAP6AXH@ZW4__acrt_lock_id@@$$QAV<lambda_44731a7d0e6d81c3e6aa82d741081786>@@@Z 10047fa3 f i libucrt:signal.obj
 0001:00046fd5       ??$__crt_fast_decode_pointer@P6AXH@Z@@YAP6AXH@ZQ6AXH@Z@Z 10047fd5 f i libucrt:signal.obj
 0001:00046ff0       ??$__crt_fast_encode_pointer@P6AXH@Z@@YAP6AXH@ZQ6AXH@Z@Z 10047ff0 f i libucrt:signal.obj
 0001:0004719a       ?initialize@?$dual_state_global@P6AXH@Z@__crt_state_management@@QAEXQ6AXH@Z@Z 1004819a f i libucrt:signal.obj
 0001:00047246       ?value@?$dual_state_global@P6AXH@Z@__crt_state_management@@QAEAAP6AXH@ZXZ 10048246 f i libucrt:signal.obj
 0001:00047249       ___acrt_get_sigabrt_handler 10048249 f   libucrt:signal.obj
 0001:00047265       ___acrt_initialize_signal_handlers 10048265 f   libucrt:signal.obj
 0001:000472ae       ___fpecode                 100482ae f   libucrt:signal.obj
 0001:000472b9       ___pxcptinfoptrs           100482b9 f   libucrt:signal.obj
 0001:000472c4       _raise                     100482c4 f   libucrt:signal.obj
 0001:0004754e       _signal                    1004854e f   libucrt:signal.obj
 0001:0004776c       __realloc_base             1004876c f   libucrt:realloc_base.obj
 0001:000477ef       ___acrt_initialize_locks   100487ef f   libucrt:locks.obj
 0001:00047840       ___acrt_lock               10048840 f   libucrt:locks.obj
 0001:0004785c       ___acrt_uninitialize_locks 1004885c f   libucrt:locks.obj
 0001:00047899       ___acrt_unlock             10048899 f   libucrt:locks.obj
 0001:000478b5       __lock_locales             100488b5 f   libucrt:locks.obj
 0001:000478c0       __unlock_locales           100488c0 f   libucrt:locks.obj
 0001:00047a92       ___acrt_get_begin_thread_init_policy 10048a92 f   libucrt:win_policies.obj
 0001:00047ad0       ___acrt_get_developer_information_policy 10048ad0 f   libucrt:win_policies.obj
 0001:00047b0e       ___acrt_get_process_end_policy 10048b0e f   libucrt:win_policies.obj
 0001:00047b36       ___acrt_get_windowing_model_policy 10048b36 f   libucrt:win_policies.obj
 0001:00047b97       ??$?RV<lambda_218ce3db14220d0be481dae8ef3383b6>@@AAV<lambda_628dfdc04ba53c8bfc02c9951375f3f5>@@V<lambda_57dc472bd5c9d5f3b2cbca59b8a843ae>@@@?$__crt_seh_guarded_call@H@@QAEH$$QAV<lambda_218ce3db14220d0be481dae8ef3383b6>@@AAV<lambda_628dfdc04ba53c8bfc02c9951375f3f5>@@$$QAV<lambda_57dc472bd5c9d5f3b2cbca59b8a843ae>@@@Z 10048b97 f i libucrt:close.obj
 0001:00047c39       ??$__acrt_lowio_lock_fh_and_call@V<lambda_628dfdc04ba53c8bfc02c9951375f3f5>@@@@YAHH$$QAV<lambda_628dfdc04ba53c8bfc02c9951375f3f5>@@@Z 10048c39 f i libucrt:close.obj
 0001:00047d8c       __close                    10048d8c f   libucrt:close.obj
 0001:00047e2a       __close_nolock             10048e2a f   libucrt:close.obj
 0001:00047eed       ??$?RU__crt_stdio_stream_data@@@__crt_internal_free_policy@@QBEXQBU__crt_stdio_stream_data@@@Z 10048eed f i libucrt:stream.obj
 0001:00047f03       ??0?$__crt_unique_heap_ptr@U__crt_stdio_stream_data@@U__crt_internal_free_policy@@@@QAE@QAU__crt_stdio_stream_data@@@Z 10048f03 f i libucrt:stream.obj
 0001:00047f17       ??0__crt_stdio_stream@@QAE@XZ 10048f17 f i libucrt:stream.obj
 0001:00047f1d       ??1?$__crt_unique_heap_ptr@U__crt_stdio_stream_data@@U__crt_internal_free_policy@@@@QAE@XZ 10048f1d f i libucrt:stream.obj
 0001:00047f33       ?__acrt_stdio_allocate_stream@@YA?AV__crt_stdio_stream@@XZ 10048f33 f   libucrt:stream.obj
 0001:00047fa9       ?__acrt_stdio_free_stream@@YAXV__crt_stdio_stream@@@Z 10048fa9 f   libucrt:stream.obj
 0001:00047ff2       ?deallocate@__crt_stdio_stream@@QAEXXZ 10048ff2 f i libucrt:stream.obj
 0001:00047ffe       ?detach@?$__crt_unique_heap_ptr@U__crt_stdio_stream_data@@U__crt_internal_free_policy@@@@QAEPAU__crt_stdio_stream_data@@XZ 10048ffe f i libucrt:stream.obj
 0001:000480f7       ?lock@__crt_stdio_stream@@QBEXXZ 100490f7 f i libucrt:stream.obj
 0001:00048102       ?release@?$__crt_unique_heap_ptr@U__crt_stdio_stream_data@@U__crt_internal_free_policy@@@@QAEXXZ 10049102 f i libucrt:stream.obj
 0001:00048118       ?try_allocate@__crt_stdio_stream@@QAE_NXZ 10049118 f i libucrt:stream.obj
 0001:00048141       ??$__acrt_stdio_parse_mode@D@@YA?AU__acrt_stdio_stream_mode@@QBD@Z 10049141 f i libucrt:openfile.obj
 0001:000483ff       ??$__acrt_stdio_parse_mode@_W@@YA?AU__acrt_stdio_stream_mode@@QB_W@Z 100493ff f i libucrt:openfile.obj
 0001:00048820       ??$tcsncmp@AAPBDAAY02$$CBDI@?$__crt_char_traits@D@@SAHAAPBDAAY02$$CBD$$QAI@Z 10049820 f i libucrt:openfile.obj
 0001:00048843       ??$tcsncmp@AAPB_WAAY02$$CB_WI@?$__crt_char_traits@_W@@SAHAAPB_WAAY02$$CB_W$$QAI@Z 10049843 f i libucrt:openfile.obj
 0001:00048866       ??$tcsnicmp@AAPBDAAY04$$CBDI@?$__crt_char_traits@D@@SAHAAPBDAAY04$$CBD$$QAI@Z 10049866 f i libucrt:openfile.obj
 0001:00048889       ??$tcsnicmp@AAPBDAAY06$$CBDI@?$__crt_char_traits@D@@SAHAAPBDAAY06$$CBD$$QAI@Z 10049889 f i libucrt:openfile.obj
 0001:000488ac       ??$tcsnicmp@AAPBDAAY07$$CBDI@?$__crt_char_traits@D@@SAHAAPBDAAY07$$CBD$$QAI@Z 100498ac f i libucrt:openfile.obj
 0001:000488cf       ??$tcsnicmp@AAPB_WAAY04$$CB_WI@?$__crt_char_traits@_W@@SAHAAPB_WAAY04$$CB_W$$QAI@Z 100498cf f i libucrt:openfile.obj
 0001:000488f2       ??$tcsnicmp@AAPB_WAAY06$$CB_WI@?$__crt_char_traits@_W@@SAHAAPB_WAAY06$$CB_W$$QAI@Z 100498f2 f i libucrt:openfile.obj
 0001:00048915       ??$tcsnicmp@AAPB_WAAY07$$CB_WI@?$__crt_char_traits@_W@@SAHAAPB_WAAY07$$CB_W$$QAI@Z 10049915 f i libucrt:openfile.obj
 0001:00048938       ??$tsopen_s@PAHABQBDABHABHH@?$__crt_char_traits@D@@SAH$$QAPAHABQBDABH2$$QAH@Z 10049938 f i libucrt:openfile.obj
 0001:0004896a       ??$tsopen_s@PAHABQB_WABHABHH@?$__crt_char_traits@_W@@SAH$$QAPAHABQB_WABH2$$QAH@Z 1004996a f i libucrt:openfile.obj
 0001:0004899c       ?__acrt_stdio_parse_mode_D@@YA_NAAU__acrt_stdio_stream_mode@@@Z 1004999c f i libucrt:openfile.obj
 0001:000489bd       ?__acrt_stdio_parse_mode_N@@YA_NAAU__acrt_stdio_stream_mode@@@Z 100499bd f i libucrt:openfile.obj
 0001:000489d3       ?__acrt_stdio_parse_mode_R@@YA_NAAU__acrt_stdio_stream_mode@@AA_N@Z 100499d3 f i libucrt:openfile.obj
 0001:000489f8       ?__acrt_stdio_parse_mode_S@@YA_NAAU__acrt_stdio_stream_mode@@AA_N@Z 100499f8 f i libucrt:openfile.obj
 0001:00048a1d       ?__acrt_stdio_parse_mode_T@@YA_NAAU__acrt_stdio_stream_mode@@@Z 10049a1d f i libucrt:openfile.obj
 0001:00048a43       ?__acrt_stdio_parse_mode_b@@YA_NAAU__acrt_stdio_stream_mode@@@Z 10049a43 f i libucrt:openfile.obj
 0001:00048a6b       ?__acrt_stdio_parse_mode_c@@YA_NAAU__acrt_stdio_stream_mode@@AA_N@Z 10049a6b f i libucrt:openfile.obj
 0001:00048a95       ?__acrt_stdio_parse_mode_n@@YA_NAAU__acrt_stdio_stream_mode@@AA_N@Z 10049a95 f i libucrt:openfile.obj
 0001:00048abf       ?__acrt_stdio_parse_mode_plus@@YA_NAAU__acrt_stdio_stream_mode@@AA_N@Z 10049abf f i libucrt:openfile.obj
 0001:00048b01       ?__acrt_stdio_parse_mode_t@@YA_NAAU__acrt_stdio_stream_mode@@@Z 10049b01 f i libucrt:openfile.obj
 0001:00048b29       __openfile                 10049b29 f   libucrt:openfile.obj
 0001:00048b36       __wopenfile                10049b36 f   libucrt:openfile.obj
 0001:000491cf       __read                     1004a1cf f   libucrt:read.obj
 0001:00049326       __read_nolock              1004a326 f   libucrt:read.obj
 0001:00049cc2       ___acrt_stdio_refill_and_read_narrow_nolock 1004acc2 f   libucrt:_filbuf.obj
 0001:00049ccf       ___acrt_stdio_refill_and_read_wide_nolock 1004accf f   libucrt:_filbuf.obj
 0001:0004a445       __write                    1004b445 f   libucrt:write.obj
 0001:0004a56a       __write_nolock             1004b56a f   libucrt:write.obj
 0001:0004acc0       ___acrt_stdio_flush_and_write_narrow_nolock 1004bcc0 f   libucrt:_flsbuf.obj
 0001:0004accd       ___acrt_stdio_flush_and_write_wide_nolock 1004bccd f   libucrt:_flsbuf.obj
 0001:0004acda       ___acrt_copy_path_to_wide_string 1004bcda f   libucrt:string_utilities.obj
 0001:0004add2       ___acrt_copy_to_char       1004bdd2 f   libucrt:string_utilities.obj
 0001:0004aebd       __wremove                  1004bebd f   libucrt:wunlink.obj
 0001:0004aeef       __wunlink                  1004beef f   libucrt:wunlink.obj
 0001:0004b363       __lseek                    1004c363 f   libucrt:lseek.obj
 0001:0004b370       __lseek_nolock             1004c370 f   libucrt:lseek.obj
 0001:0004b37d       __lseeki64                 1004c37d f   libucrt:lseek.obj
 0001:0004b39e       __lseeki64_nolock          1004c39e f   libucrt:lseek.obj
 0001:0004b3bf       __chgsign                  1004c3bf f   libucrt:ieeemisc.obj
 0001:0004b3f9       __chgsignf                 1004c3f9 f   libucrt:ieeemisc.obj
 0001:0004b424       __copysign                 1004c424 f   libucrt:ieeemisc.obj
 0001:0004b458       __copysignf                1004c458 f   libucrt:ieeemisc.obj
 0001:0004b47d       __finite                   1004c47d f   libucrt:ieeemisc.obj
 0001:0004b49d       __fpclass                  1004c49d f   libucrt:ieeemisc.obj
 0001:0004b56a       __isnan                    1004c56a f   libucrt:ieeemisc.obj
 0001:0004b5ad       __logb                     1004c5ad f   libucrt:ieeemisc.obj
 0001:0004b6b2       __nextafter                1004c6b2 f   libucrt:ieeemisc.obj
 0001:0004b6d8       __scalb                    1004c6d8 f   libucrt:ieeemisc.obj
 0001:0004b6f8       __add_exp                  1004c6f8 f   libucrt:util.obj
 0001:0004b732       __decomp                   1004c732 f   libucrt:util.obj
 0001:0004b83b       __get_exp                  1004c83b f   libucrt:util.obj
 0001:0004b85a       __set_bexp                 1004c85a f   libucrt:util.obj
 0001:0004b88d       __set_exp                  1004c88d f   libucrt:util.obj
 0001:0004b8c7       __sptype                   1004c8c7 f   libucrt:util.obj
 0001:0004b93c       ___clrfp_sse2              1004c93c f   libucrt:fpctrl.obj
 0001:0004b965       ___ctrlfp_sse2             1004c965 f   libucrt:fpctrl.obj
 0001:0004b9ae       ___fclrf_sse2              1004c9ae f   libucrt:fpctrl.obj
 0001:0004b9d4       ___get_fpsr_sse2           1004c9d4 f   libucrt:fpctrl.obj
 0001:0004b9f9       ___set_fpsr_sse2           1004c9f9 f   libucrt:fpctrl.obj
 0001:0004ba8c       ___set_statfp_sse2         1004ca8c f   libucrt:fpctrl.obj
 0001:0004baad       ___statfp_sse2             1004caad f   libucrt:fpctrl.obj
 0001:0004bac7       __clrfp                    1004cac7 f   libucrt:fpctrl.obj
 0001:0004bade       __ctrlfp                   1004cade f   libucrt:fpctrl.obj
 0001:0004bb15       __set_statfp               1004cb15 f   libucrt:fpctrl.obj
 0001:0004bb86       __statfp                   1004cb86 f   libucrt:fpctrl.obj
 0001:0004bb9c       ??$__crt_fast_decode_pointer@P6AHPAU_exception@@@Z@@YAP6AHPAU_exception@@@ZQ6AH0@Z@Z 1004cb9c f i libucrt:matherr.obj
 0001:0004bbb7       ??$__crt_fast_encode_pointer@P6AHPAU_exception@@@Z@@YAP6AHPAU_exception@@@ZQ6AH0@Z@Z 1004cbb7 f i libucrt:matherr.obj
 0001:0004bbdd       ?initialize@?$dual_state_global@P6AHPAU_exception@@@Z@__crt_state_management@@QAEXQ6AHPAU_exception@@@Z@Z 1004cbdd f i libucrt:matherr.obj
 0001:0004bc1a       ?value@?$dual_state_global@P6AHPAU_exception@@@Z@__crt_state_management@@QAEAAP6AHPAU_exception@@@ZXZ 1004cc1a f i libucrt:matherr.obj
 0001:0004bc1d       ___acrt_has_user_matherr   1004cc1d f   libucrt:matherr.obj
 0001:0004bc3c       ___acrt_initialize_user_matherr 1004cc3c f   libucrt:matherr.obj
 0001:0004bc55       ___acrt_invoke_user_matherr 1004cc55 f   libucrt:matherr.obj
 0001:0004bcb0       ___setusermatherr          1004ccb0 f   libucrt:matherr.obj
 0001:0004c799       ??$find_first_file_ex@ABQADW4_FINDEX_INFO_LEVELS@@PAU_WIN32_FIND_DATAA@@W4_FINDEX_SEARCH_OPS@@$$TH@?$__crt_char_traits@D@@SAPAXABQAD$$QAW4_FINDEX_INFO_LEVELS@@$$QAPAU_WIN32_FIND_DATAA@@$$QAW4_FINDEX_SEARCH_OPS@@$$QA$$T$$QAH@Z 1004d799 f i libucrt:argv_wildcards.obj
 0001:0004c7ce       ??$find_first_file_ex@ABQA_WW4_FINDEX_INFO_LEVELS@@PAU_WIN32_FIND_DATAW@@W4_FINDEX_SEARCH_OPS@@$$TH@?$__crt_char_traits@_W@@SAPAXABQA_W$$QAW4_FINDEX_INFO_LEVELS@@$$QAPAU_WIN32_FIND_DATAW@@$$QAW4_FINDEX_SEARCH_OPS@@$$QA$$T$$QAH@Z 1004d7ce f i libucrt:argv_wildcards.obj
 0001:0004c803       ??$find_next_file@PAXPAU_WIN32_FIND_DATAA@@@?$__crt_char_traits@D@@SAH$$QAPAX$$QAPAU_WIN32_FIND_DATAA@@@Z 1004d803 f i libucrt:argv_wildcards.obj
 0001:0004c81f       ??$find_next_file@PAXPAU_WIN32_FIND_DATAW@@@?$__crt_char_traits@_W@@SAH$$QAPAX$$QAPAU_WIN32_FIND_DATAW@@@Z 1004d81f f i libucrt:argv_wildcards.obj
 0001:0004c83b       ??$tcsncpy_s@AAPADIAAPADABI@?$__crt_char_traits@D@@SAHAAPAD$$QAI0ABI@Z 1004d83b f i libucrt:argv_wildcards.obj
 0001:0004c866       ??$tcsncpy_s@AAPA_WIAAPA_WABI@?$__crt_char_traits@_W@@SAHAAPA_W$$QAI0ABI@Z 1004d866 f i libucrt:argv_wildcards.obj
 0001:0004c891       ??$tcsncpy_s@PADABIABQBDABI@?$__crt_char_traits@D@@SAH$$QAPADABIABQBD1@Z 1004d891 f i libucrt:argv_wildcards.obj
 0001:0004c8bc       ??$tcsncpy_s@PADIABQBDABI@?$__crt_char_traits@D@@SAH$$QAPAD$$QAIABQBDABI@Z 1004d8bc f i libucrt:argv_wildcards.obj
 0001:0004c8e7       ??$tcsncpy_s@PA_WABIABQB_WABI@?$__crt_char_traits@_W@@SAH$$QAPA_WABIABQB_W1@Z 1004d8e7 f i libucrt:argv_wildcards.obj
 0001:0004c912       ??$tcsncpy_s@PA_WIABQB_WABI@?$__crt_char_traits@_W@@SAH$$QAPA_W$$QAIABQB_WABI@Z 1004d912 f i libucrt:argv_wildcards.obj
 0001:0004c93d       ??$tcspbrk@AAPADAAY02$$CBD@?$__crt_char_traits@D@@SAPADAAPADAAY02$$CBD@Z 1004d93d f i libucrt:argv_wildcards.obj
 0001:0004c958       ??$tcspbrk@AAPA_WAAY02$$CB_W@?$__crt_char_traits@_W@@SAPA_WAAPA_WAAY02$$CB_W@Z 1004d958 f i libucrt:argv_wildcards.obj
 0001:0004c973       ??0?$__crt_unique_handle_t@U__crt_findfile_traits@@@@QAE@QAX@Z 1004d973 f i libucrt:argv_wildcards.obj
 0001:0004c9a7       ??1?$__crt_unique_handle_t@U__crt_findfile_traits@@@@QAE@XZ 1004d9a7 f i libucrt:argv_wildcards.obj
 0001:0004cb49       ?close@?$__crt_unique_handle_t@U__crt_findfile_traits@@@@QAEXXZ 1004db49 f i libucrt:argv_wildcards.obj
 0001:0004cb65       ?close@__crt_findfile_traits@@SA_NPAX@Z 1004db65 f i libucrt:argv_wildcards.obj
 0001:0004ccd8       ?get@?$__crt_unique_handle_t@U__crt_findfile_traits@@@@QBEPAXXZ 1004dcd8 f i libucrt:argv_wildcards.obj
 0001:0004ccdb       ?get_invalid_value@__crt_findfile_traits@@SAPAXXZ 1004dcdb f i libucrt:argv_wildcards.obj
 0001:0004cd12       ?strpbrk@@YAPADQADQBD@Z    1004dd12 f i libucrt:argv_wildcards.obj
 0001:0004cd1f       ?wcspbrk@@YAPA_WPA_WPB_W@Z 1004dd1f f i libucrt:argv_wildcards.obj
 0001:0004cd2c       ___acrt_expand_narrow_argv_wildcards 1004dd2c f   libucrt:argv_wildcards.obj
 0001:0004cd39       ___acrt_expand_wide_argv_wildcards 1004dd39 f   libucrt:argv_wildcards.obj
 0001:0004cd46       ??$?RV<lambda_ceb1ee4838e85a9d631eb091e2fbe199>@@AAV<lambda_ae742caa10f662c28703da3d2ea5e57e>@@V<lambda_cd08b5d6af4937fe54fc07d0c9bf6b37>@@@?$__crt_seh_guarded_call@X@@QAEX$$QAV<lambda_ceb1ee4838e85a9d631eb091e2fbe199>@@AAV<lambda_ae742caa10f662c28703da3d2ea5e57e>@@$$QAV<lambda_cd08b5d6af4937fe54fc07d0c9bf6b37>@@@Z 1004dd46 f i libucrt:mbctype.obj
 0001:0004cd99       ??$__acrt_lock_and_call@V<lambda_ae742caa10f662c28703da3d2ea5e57e>@@@@YAXW4__acrt_lock_id@@$$QAV<lambda_ae742caa10f662c28703da3d2ea5e57e>@@@Z 1004dd99 f i libucrt:mbctype.obj
 0001:0004cdcb       ??$initialize_from_array@$$BY10BAA@E@?$dual_state_global@PAE@__crt_state_management@@QAAXAAY10BAA@E@Z 1004ddcb f i libucrt:mbctype.obj
 0001:0004cddd       ??$initialize_from_array@$$BY10BAB@E@?$dual_state_global@PAE@__crt_state_management@@QAAXAAY10BAB@E@Z 1004dddd f i libucrt:mbctype.obj
 0001:0004cf3c       ?dangerous_get_state_array@?$dual_state_global@PAE@__crt_state_management@@QAEPAPAEXZ 1004df3c f i libucrt:mbctype.obj
 0001:0004cf3f       ?dangerous_get_state_array@?$dual_state_global@PAU__crt_multibyte_data@@@__crt_state_management@@QAEPAPAU__crt_multibyte_data@@XZ 1004df3f f i libucrt:mbctype.obj
 0001:0004cfd1       ?initialize@?$dual_state_global@PAU__crt_multibyte_data@@@__crt_state_management@@QAEXQAU__crt_multibyte_data@@@Z 1004dfd1 f i libucrt:mbctype.obj
 0001:0004d48c       ?value@?$dual_state_global@PAE@__crt_state_management@@QAEAAPAEXZ 1004e48c f i libucrt:mbctype.obj
 0001:0004d48f       ___acrt_initialize_multibyte 1004e48f f   libucrt:mbctype.obj
 0001:0004d4ef       ___acrt_update_thread_multibyte_data 1004e4ef f   libucrt:mbctype.obj
 0001:0004d508       ___p__mbcasemap            1004e508 f   libucrt:mbctype.obj
 0001:0004d50e       ___p__mbctype              1004e50e f   libucrt:mbctype.obj
 0001:0004d514       __getmbcp                  1004e514 f   libucrt:mbctype.obj
 0001:0004d557       __setmbcp                  1004e557 f   libucrt:mbctype.obj
 0001:0004d57d       __setmbcp_nolock           1004e57d f   libucrt:mbctype.obj
 0001:0004d8fa       __ismbbalnum               1004e8fa f   libucrt:ismbbyte.obj
 0001:0004d91b       __ismbbalnum_l             1004e91b f   libucrt:ismbbyte.obj
 0001:0004d93e       __ismbbalpha               1004e93e f   libucrt:ismbbyte.obj
 0001:0004d95f       __ismbbalpha_l             1004e95f f   libucrt:ismbbyte.obj
 0001:0004d982       __ismbbblank               1004e982 f   libucrt:ismbbyte.obj
 0001:0004d9ad       __ismbbblank_l             1004e9ad f   libucrt:ismbbyte.obj
 0001:0004d9da       __ismbbgraph               1004e9da f   libucrt:ismbbyte.obj
 0001:0004d9fb       __ismbbgraph_l             1004e9fb f   libucrt:ismbbyte.obj
 0001:0004da1e       __ismbbkalnum              1004ea1e f   libucrt:ismbbyte.obj
 0001:0004da3c       __ismbbkalnum_l            1004ea3c f   libucrt:ismbbyte.obj
 0001:0004da5b       __ismbbkana                1004ea5b f   libucrt:ismbbyte.obj
 0001:0004da72       __ismbbkana_l              1004ea72 f   libucrt:ismbbyte.obj
 0001:0004dad7       __ismbbkprint              1004ead7 f   libucrt:ismbbyte.obj
 0001:0004daf5       __ismbbkprint_l            1004eaf5 f   libucrt:ismbbyte.obj
 0001:0004db14       __ismbbkpunct              1004eb14 f   libucrt:ismbbyte.obj
 0001:0004db32       __ismbbkpunct_l            1004eb32 f   libucrt:ismbbyte.obj
 0001:0004db51       __ismbblead                1004eb51 f   libucrt:ismbbyte.obj
 0001:0004db6f       __ismbblead_l              1004eb6f f   libucrt:ismbbyte.obj
 0001:0004db8e       __ismbbprint               1004eb8e f   libucrt:ismbbyte.obj
 0001:0004dbaf       __ismbbprint_l             1004ebaf f   libucrt:ismbbyte.obj
 0001:0004dbd2       __ismbbpunct               1004ebd2 f   libucrt:ismbbyte.obj
 0001:0004dbf0       __ismbbpunct_l             1004ebf0 f   libucrt:ismbbyte.obj
 0001:0004dc0f       __ismbbtrail               1004ec0f f   libucrt:ismbbyte.obj
 0001:0004dc2d       __ismbbtrail_l             1004ec2d f   libucrt:ismbbyte.obj
 0001:0004dc4c       ___acrt_initialize_command_line 1004ec4c f   libucrt:argv_data.obj
 0001:0004dc6b       ___acrt_uninitialize_command_line 1004ec6b f   libucrt:argv_data.obj
 0001:0004dc6e       ___p___argc                1004ec6e f   libucrt:argv_data.obj
 0001:0004dc74       ___p___argv                1004ec74 f   libucrt:argv_data.obj
 0001:0004dc7a       ___p___wargv               1004ec7a f   libucrt:argv_data.obj
 0001:0004dc80       ___p__acmdln               1004ec80 f   libucrt:argv_data.obj
 0001:0004dc86       ___p__pgmptr               1004ec86 f   libucrt:argv_data.obj
 0001:0004dc8c       ___p__wcmdln               1004ec8c f   libucrt:argv_data.obj
 0001:0004dc92       ___p__wpgmptr              1004ec92 f   libucrt:argv_data.obj
 0001:0004dc98       __get_pgmptr               1004ec98 f   libucrt:argv_data.obj
 0001:0004dcd5       __get_wpgmptr              1004ecd5 f   libucrt:argv_data.obj
 0001:0004dd12       ??0?$__crt_unique_handle_t@Uenvironment_strings_traits@?A0x1bf47908@@@@QAE@QA_W@Z 1004ed12 f i libucrt:get_environment_from_os.obj
 0001:0004dd26       ??1?$__crt_unique_handle_t@Uenvironment_strings_traits@?A0x1bf47908@@@@QAE@XZ 1004ed26 f i libucrt:get_environment_from_os.obj
 0001:0004dd42       ??B?$__crt_unique_handle_t@Uenvironment_strings_traits@?A0x1bf47908@@@@QBE_NXZ 1004ed42 f i libucrt:get_environment_from_os.obj
 0001:0004dd4c       ?close@?$__crt_unique_handle_t@Uenvironment_strings_traits@?A0x1bf47908@@@@QAEXXZ 1004ed4c f i libucrt:get_environment_from_os.obj
 0001:0004ddc2       ?get@?$__crt_unique_handle_t@Uenvironment_strings_traits@?A0x1bf47908@@@@QBEPA_WXZ 1004edc2 f i libucrt:get_environment_from_os.obj
 0001:0004ddc8       ?is_valid@?$__crt_unique_handle_t@Uenvironment_strings_traits@?A0x1bf47908@@@@QBE_NXZ 1004edc8 f i libucrt:get_environment_from_os.obj
 0001:0004ddd2       ___dcrt_get_narrow_environment_from_os 1004edd2 f   libucrt:get_environment_from_os.obj
 0001:0004de75       ___dcrt_get_wide_environment_from_os 1004ee75 f   libucrt:get_environment_from_os.obj
 0001:0004e76a       ??$get_or_create_environment_nolock@$$V@?$__crt_char_traits@D@@SAPAPADXZ 1004f76a f i libucrt:setenv.obj
 0001:0004e76f       ??$get_or_create_environment_nolock@$$V@?$__crt_char_traits@_W@@SAPAPA_WXZ 1004f76f f i libucrt:setenv.obj
 0001:0004e774       ??$set_environment_variable@ABQADQAD@?$__crt_char_traits@D@@SAHABQAD$$QBQAD@Z 1004f774 f i libucrt:setenv.obj
 0001:0004e790       ??$set_environment_variable@ABQA_WQA_W@?$__crt_char_traits@_W@@SAHABQA_W$$QBQA_W@Z 1004f790 f i libucrt:setenv.obj
 0001:0004e7ac       ??$tcschr@ABQADD@?$__crt_char_traits@D@@SAPADABQAD$$QAD@Z 1004f7ac f i libucrt:setenv.obj
 0001:0004e7cc       ??$tcschr@ABQA_WD@?$__crt_char_traits@_W@@SAPA_WABQA_W$$QAD@Z 1004f7cc f i libucrt:setenv.obj
 0001:0004e7f1       ??$tcscpy_s@AAPADABIAAPAD@?$__crt_char_traits@D@@SAHAAPADABI0@Z 1004f7f1 f i libucrt:setenv.obj
 0001:0004e816       ??$tcscpy_s@AAPA_WABIAAPA_W@?$__crt_char_traits@_W@@SAHAAPA_WABI0@Z 1004f816 f i libucrt:setenv.obj
 0001:0004e83b       ??$tcscpy_s@ABQADABIABQAD@?$__crt_char_traits@D@@SAHABQADABI0@Z 1004f83b f i libucrt:setenv.obj
 0001:0004e860       ??$tcscpy_s@ABQA_WABIABQA_W@?$__crt_char_traits@_W@@SAHABQA_WABI0@Z 1004f860 f i libucrt:setenv.obj
 0001:0004e885       ??$tcsnicoll@ABQBDAAPADABI@?$__crt_char_traits@D@@SAHABQBDAAPADABI@Z 1004f885 f i libucrt:setenv.obj
 0001:0004e8aa       ??$tcsnicoll@ABQB_WAAPA_WABI@?$__crt_char_traits@_W@@SAHABQB_WAAPA_WABI@Z 1004f8aa f i libucrt:setenv.obj
 0001:0004e8f3       ?strchr@@YAPADQADH@Z       1004f8f3 f i libucrt:setenv.obj
 0001:0004e900       ?wcschr@@YAPA_WPA_W_W@Z    1004f900 f i libucrt:setenv.obj
 0001:0004e90d       ___dcrt_set_variable_in_narrow_environment_nolock 1004f90d f   libucrt:setenv.obj
 0001:0004e91a       ___dcrt_set_variable_in_wide_environment_nolock 1004f91a f   libucrt:setenv.obj
 0001:0004e927       __recalloc                 1004f927 f   libucrt:recalloc.obj
 0001:0004e934       __recalloc_base            1004f934 f   libucrt:recalloc.obj
 0001:0004e9bc       ___acrt_getheap            1004f9bc f   libucrt:heap_handle.obj
 0001:0004e9c2       ___acrt_initialize_heap    1004f9c2 f   libucrt:heap_handle.obj
 0001:0004e9d7       ___acrt_uninitialize_heap  1004f9d7 f   libucrt:heap_handle.obj
 0001:0004e9e3       __get_heap_handle          1004f9e3 f   libucrt:heap_handle.obj
 0001:0004e9e9       ___acrt_execute_initializers 1004f9e9 f   libucrt:shared_initialization.obj
 0001:0004ea8c       ___acrt_execute_uninitializers 1004fa8c f   libucrt:shared_initialization.obj
 0001:0004eaec       ??$?B$$A6AHI@Z@__crt_fast_encoded_nullptr_t@@QBEP6AHI@ZXZ 1004faec f i libucrt:new_handler.obj
 0001:0004eb0a       ??$__crt_fast_decode_pointer@P6AHI@Z@@YAP6AHI@ZQ6AHI@Z@Z 1004fb0a f i libucrt:new_handler.obj
 0001:0004eb25       ??$__crt_fast_encode_pointer@P6AHI@Z@@YAP6AHI@ZQ6AHI@Z@Z 1004fb25 f i libucrt:new_handler.obj
 0001:0004eb4b       ?_set_new_handler@@YAP6AHI@ZH@Z 1004fb4b f   libucrt:new_handler.obj
 0001:0004eb71       ?initialize@?$dual_state_global@P6AHI@Z@__crt_state_management@@QAEXQ6AHI@Z@Z 1004fb71 f i libucrt:new_handler.obj
 0001:0004ebae       ?value@?$dual_state_global@P6AHI@Z@__crt_state_management@@QAEAAP6AHI@ZXZ 1004fbae f i libucrt:new_handler.obj
 0001:0004ebb1       ___acrt_initialize_new_handler 1004fbb1 f   libucrt:new_handler.obj
 0001:0004ebca       __callnewh                 1004fbca f   libucrt:new_handler.obj
 0001:0004ec1f       __query_new_handler        1004fc1f f   libucrt:new_handler.obj
 0001:0004ec85       __set_new_handler          1004fc85 f   libucrt:new_handler.obj
 0001:0004ecfd       ?value@?$dual_state_global@J@__crt_state_management@@QAEAAJXZ 1004fcfd f i libucrt:new_mode.obj
 0001:0004ed00       __query_new_mode           1004fd00 f   libucrt:new_mode.obj
 0001:0004ed06       __set_new_mode             1004fd06 f   libucrt:new_mode.obj
 0001:0004ed40       ___pctype_func             1004fd40 f   libucrt:ctype.obj
 0001:0004ed6f       ___pwctype_func            1004fd6f f   libucrt:ctype.obj
 0001:0004ed75       __iswctype_l               1004fd75 f   libucrt:iswctype.obj
 0001:0004ed8e       _iswctype                  1004fd8e f   libucrt:iswctype.obj
 0001:0004ee04       __isctype                  1004fe04 f   libucrt:isctype.obj
 0001:0004ee41       __isctype_l                1004fe41 f   libucrt:isctype.obj
 0001:0004ef47       _wcsncmp                   1004ff47 f   libucrt:wcsncmp.obj
 0001:0004f150       ___acrt_DownlevelLCIDToLocaleName 10050150 f   libucrt:lcidtoname_downlevel.obj
 0001:0004f224       ___acrt_DownlevelLocaleNameToLCID 10050224 f   libucrt:lcidtoname_downlevel.obj
 0001:0004f25b       ??$?RV<lambda_9e9de3de5fa147e2223d7db92bc10aa6>@@AAV<lambda_38ce7e780aa69e748d6df282ebc68efe>@@V<lambda_8ca6da459f0f6780f1cff60fdc3d00e5>@@@?$__crt_seh_guarded_call@H@@QAEH$$QAV<lambda_9e9de3de5fa147e2223d7db92bc10aa6>@@AAV<lambda_38ce7e780aa69e748d6df282ebc68efe>@@$$QAV<lambda_8ca6da459f0f6780f1cff60fdc3d00e5>@@@Z 1005025b f i libucrt:commit.obj
 0001:0004f319       ??$__acrt_lowio_lock_fh_and_call@V<lambda_38ce7e780aa69e748d6df282ebc68efe>@@@@YAHH$$QAV<lambda_38ce7e780aa69e748d6df282ebc68efe>@@@Z 10050319 f i libucrt:commit.obj
 0001:0004f40b       __commit                   1005040b f   libucrt:commit.obj
 0001:0004f495       ??$?RU__crt_lowio_handle_data@@@__crt_internal_free_policy@@QBEXQBU__crt_lowio_handle_data@@@Z 10050495 f i libucrt:osfinfo.obj
 0001:0004f4ab       ??0?$__crt_unique_heap_ptr@U__crt_lowio_handle_data@@U__crt_internal_free_policy@@@@QAE@QAU__crt_lowio_handle_data@@@Z 100504ab f i libucrt:osfinfo.obj
 0001:0004f4bf       ??1?$__crt_unique_heap_ptr@U__crt_lowio_handle_data@@U__crt_internal_free_policy@@@@QAE@XZ 100504bf f i libucrt:osfinfo.obj
 0001:0004f4d5       ??B?$__crt_unique_heap_ptr@U__crt_lowio_handle_data@@U__crt_internal_free_policy@@@@QBE_NXZ 100504d5 f i libucrt:osfinfo.obj
 0001:0004f4df       ?detach@?$__crt_unique_heap_ptr@U__crt_lowio_handle_data@@U__crt_internal_free_policy@@@@QAEPAU__crt_lowio_handle_data@@XZ 100504df f i libucrt:osfinfo.obj
 0001:0004f4e5       ?get@?$__crt_unique_heap_ptr@U__crt_lowio_handle_data@@U__crt_internal_free_policy@@@@QBEPAU__crt_lowio_handle_data@@XZ 100504e5 f i libucrt:osfinfo.obj
 0001:0004f4e8       ?is_valid@?$__crt_unique_heap_ptr@U__crt_lowio_handle_data@@U__crt_internal_free_policy@@@@QBE_NXZ 100504e8 f i libucrt:osfinfo.obj
 0001:0004f4f2       ?release@?$__crt_unique_heap_ptr@U__crt_lowio_handle_data@@U__crt_internal_free_policy@@@@QAEXXZ 100504f2 f i libucrt:osfinfo.obj
 0001:0004f508       ___acrt_lowio_create_handle_array 10050508 f   libucrt:osfinfo.obj
 0001:0004f5a0       ___acrt_lowio_destroy_handle_array 100505a0 f   libucrt:osfinfo.obj
 0001:0004f5e2       ___acrt_lowio_ensure_fh_exists 100505e2 f   libucrt:osfinfo.obj
 0001:0004f6a0       ___acrt_lowio_lock_fh      100506a0 f   libucrt:osfinfo.obj
 0001:0004f6cb       ___acrt_lowio_set_os_handle 100506cb f   libucrt:osfinfo.obj
 0001:0004f784       ___acrt_lowio_unlock_fh    10050784 f   libucrt:osfinfo.obj
 0001:0004f7af       __alloc_osfhnd             100507af f   libucrt:osfinfo.obj
 0001:0004f905       __free_osfhnd              10050905 f   libucrt:osfinfo.obj
 0001:0004f9ba       __get_osfhandle            100509ba f   libucrt:osfinfo.obj
 0001:0004fa3e       __open_osfhandle           10050a3e f   libucrt:osfinfo.obj
 0001:0004fb8f       ___iswcsym                 10050b8f f i libucrt:_wctype.obj
 0001:0004fbbe       ___iswcsymf                10050bbe f i libucrt:_wctype.obj
 0001:0004fbed       __isleadbyte_l             10050bed f i libucrt:_wctype.obj
 0001:0004fc34       __iswalnum_l               10050c34 f i libucrt:_wctype.obj
 0001:0004fc4f       __iswalpha_l               10050c4f f i libucrt:_wctype.obj
 0001:0004fc6a       __iswblank_l               10050c6a f i libucrt:_wctype.obj
 0001:0004fc8e       __iswcntrl_l               10050c8e f i libucrt:_wctype.obj
 0001:0004fca5       __iswcsym_l                10050ca5 f i libucrt:_wctype.obj
 0001:0004fcd4       __iswcsymf_l               10050cd4 f i libucrt:_wctype.obj
 0001:0004fd03       __iswdigit_l               10050d03 f i libucrt:_wctype.obj
 0001:0004fd1a       __iswgraph_l               10050d1a f i libucrt:_wctype.obj
 0001:0004fd35       __iswlower_l               10050d35 f i libucrt:_wctype.obj
 0001:0004fd4c       __iswprint_l               10050d4c f i libucrt:_wctype.obj
 0001:0004fd67       __iswpunct_l               10050d67 f i libucrt:_wctype.obj
 0001:0004fd7e       __iswspace_l               10050d7e f i libucrt:_wctype.obj
 0001:0004fd95       __iswupper_l               10050d95 f i libucrt:_wctype.obj
 0001:0004fdac       __iswxdigit_l              10050dac f i libucrt:_wctype.obj
 0001:0004fdc7       _isleadbyte                10050dc7 f i libucrt:_wctype.obj
 0001:0004fdde       _iswalnum                  10050dde f i libucrt:_wctype.obj
 0001:0004fdf9       _iswalpha                  10050df9 f i libucrt:_wctype.obj
 0001:0004fe14       _iswascii                  10050e14 f i libucrt:_wctype.obj
 0001:0004fe2d       _iswblank                  10050e2d f i libucrt:_wctype.obj
 0001:0004fe51       _iswcntrl                  10050e51 f i libucrt:_wctype.obj
 0001:0004fe68       _iswdigit                  10050e68 f i libucrt:_wctype.obj
 0001:0004fe7f       _iswgraph                  10050e7f f i libucrt:_wctype.obj
 0001:0004fe9a       _iswlower                  10050e9a f i libucrt:_wctype.obj
 0001:0004feb1       _iswprint                  10050eb1 f i libucrt:_wctype.obj
 0001:0004fecc       _iswpunct                  10050ecc f i libucrt:_wctype.obj
 0001:0004fee3       _iswspace                  10050ee3 f i libucrt:_wctype.obj
 0001:0004fefa       _iswupper                  10050efa f i libucrt:_wctype.obj
 0001:0004ff11       _iswxdigit                 10050f11 f i libucrt:_wctype.obj
 0001:0004ff2c       ??0?$__crt_scoped_stack_ptr@_W@@QAE@U?$__crt_scoped_stack_ptr_tag@_W@@@Z 10050f2c f i libucrt:lcmapstringa.obj
 0001:0004ff40       ??0?$__crt_scoped_stack_ptr_tag@_W@@QAE@QA_W@Z 10050f40 f i libucrt:lcmapstringa.obj
 0001:0004ff54       ??1?$__crt_scoped_stack_ptr@_W@@QAE@XZ 10050f54 f i libucrt:lcmapstringa.obj
 0001:0004ff5f       ??B?$__crt_scoped_stack_ptr@_W@@QBE_NXZ 10050f5f f i libucrt:lcmapstringa.obj
 0001:0005020d       ?get@?$__crt_scoped_stack_ptr@_W@@QBEPA_WXZ 1005120d f i libucrt:lcmapstringa.obj
 0001:00050210       __MallocaComputeSize       10051210 f i libucrt:lcmapstringa.obj
 0001:00050227       __MarkAllocaS              10051227 f i libucrt:lcmapstringa.obj
 0001:00050242       ___acrt_LCMapStringA       10051242 f   libucrt:lcmapstringa.obj
 0001:0005029f       __freea_crt                1005129f f i libucrt:lcmapstringa.obj
 0001:000502c7       ??$?RG@__crt_internal_free_policy@@QBEXQBG@Z 100512c7 f i libucrt:initctype.obj
 0001:000502dd       ??$?RJ@__crt_internal_free_policy@@QBEXQBJ@Z 100512dd f i libucrt:initctype.obj
 0001:000502f3       ??0?$__crt_unique_heap_ptr@GU__crt_internal_free_policy@@@@QAE@QAG@Z 100512f3 f i libucrt:initctype.obj
 0001:00050307       ??0?$__crt_unique_heap_ptr@JU__crt_internal_free_policy@@@@QAE@QAJ@Z 10051307 f i libucrt:initctype.obj
 0001:0005031b       ??1?$__crt_unique_heap_ptr@GU__crt_internal_free_policy@@@@QAE@XZ 1005131b f i libucrt:initctype.obj
 0001:00050331       ??1?$__crt_unique_heap_ptr@JU__crt_internal_free_policy@@@@QAE@XZ 10051331 f i libucrt:initctype.obj
 0001:00050347       ?detach@?$__crt_unique_heap_ptr@GU__crt_internal_free_policy@@@@QAEPAGXZ 10051347 f i libucrt:initctype.obj
 0001:0005034d       ?detach@?$__crt_unique_heap_ptr@JU__crt_internal_free_policy@@@@QAEPAJXZ 1005134d f i libucrt:initctype.obj
 0001:00050353       ?release@?$__crt_unique_heap_ptr@GU__crt_internal_free_policy@@@@QAEXXZ 10051353 f i libucrt:initctype.obj
 0001:00050369       ?release@?$__crt_unique_heap_ptr@JU__crt_internal_free_policy@@@@QAEXXZ 10051369 f i libucrt:initctype.obj
 0001:0005037f       ____lc_codepage_func       1005137f f   libucrt:initctype.obj
 0001:000503af       ____lc_collate_cp_func     100513af f   libucrt:initctype.obj
 0001:000503df       ____lc_locale_name_func    100513df f   libucrt:initctype.obj
 0001:00050412       ____mb_cur_max_func        10051412 f   libucrt:initctype.obj
 0001:00050442       ____mb_cur_max_l_func      10051442 f   libucrt:initctype.obj
 0001:00050461       ___acrt_locale_initialize_ctype 10051461 f   libucrt:initctype.obj
 0001:000508e6       ___acrt_add_locale_ref     100518e6 f   libucrt:locale_refcounting.obj
 0001:00050982       ___acrt_free_locale        10051982 f   libucrt:locale_refcounting.obj
 0001:00050b1e       ___acrt_locale_add_lc_time_reference 10051b1e f   libucrt:locale_refcounting.obj
 0001:00050b51       ___acrt_locale_free_lc_time_if_unreferenced 10051b51 f   libucrt:locale_refcounting.obj
 0001:00050b8d       ___acrt_locale_release_lc_time_reference 10051b8d f   libucrt:locale_refcounting.obj
 0001:00050bc0       ___acrt_release_locale_ref 10051bc0 f   libucrt:locale_refcounting.obj
 0001:00050c61       ___acrt_update_thread_locale_data 10051c61 f   libucrt:locale_refcounting.obj
 0001:00050cf5       __updatetlocinfoEx_nolock  10051cf5 f   libucrt:locale_refcounting.obj
 0001:00050d59       ___acrt_fp_strflt_to_string 10051d59 f   libucrt:_fptostr.obj
 0001:00052590       ??0big_integer@__crt_strtox@@QAE@ABU01@@Z 10053590 f i libucrt:cfout.obj
 0001:000525d0       ??0big_integer@__crt_strtox@@QAE@XZ 100535d0 f i libucrt:cfout.obj
 0001:00052620       ??4big_integer@__crt_strtox@@QAEAAU01@ABU01@@Z 10053620 f i libucrt:cfout.obj
 0001:00052660       ??8__crt_strtox@@YA_NABUbig_integer@0@0@Z 10053660 f i libucrt:cfout.obj
 0001:000526b0       ??9__crt_strtox@@YA_NABUbig_integer@0@0@Z 100536b0 f i libucrt:cfout.obj
 0001:00052710       ?add_carry@__crt_strtox@@YAIAAIII@Z 10053710 f i libucrt:cfout.obj
 0001:00052740       ?add_multiply_carry@__crt_strtox@@YAIAAIIII@Z 10053740 f i libucrt:cfout.obj
 0001:00052770       ?bit_scan_reverse@__crt_strtox@@YAII@Z 10053770 f i libucrt:cfout.obj
 0001:000527a0       ?count_sequential_high_zeroes@__crt_strtox@@YAII@Z 100537a0 f i libucrt:cfout.obj
 0001:000527d0       ?divide@__crt_strtox@@YA_KAAUbig_integer@1@ABU21@@Z 100537d0 f i libucrt:cfout.obj
 0001:00052db0       ?is_zero@__crt_strtox@@YA_NABUbig_integer@1@@Z 10053db0 f i libucrt:cfout.obj
 0001:00052dd0       ?make_big_integer@__crt_strtox@@YA?AUbig_integer@1@_K@Z 10053dd0 f i libucrt:cfout.obj
 0001:00052e00       ?make_big_integer_power_of_two@__crt_strtox@@YA?AUbig_integer@1@I@Z 10053e00 f i libucrt:cfout.obj
 0001:00052e60       ?multiply@__crt_strtox@@YA_NAAUbig_integer@1@ABU21@@Z 10053e60 f i libucrt:cfout.obj
 0001:00053310       ?multiply@__crt_strtox@@YA_NAAUbig_integer@1@I@Z 10054310 f i libucrt:cfout.obj
 0001:00053410       ?multiply_64_32@__crt_strtox@@YA_K_KI@Z 10054410 f i libucrt:cfout.obj
 0001:00053430       ?multiply_by_power_of_ten@__crt_strtox@@YA_NAAUbig_integer@1@I@Z 10054430 f i libucrt:cfout.obj
 0001:00053b30       ?multiply_core@__crt_strtox@@YAIQAIII@Z 10054b30 f i libucrt:cfout.obj
 0001:00053b80       ?shift_left@__crt_strtox@@YA_NAAUbig_integer@1@I@Z 10054b80 f i libucrt:cfout.obj
 0001:00053d31       ___acrt_fltout             10054d31 f   libucrt:cfout.obj
 0001:000556c3       __isatty                   100566c3 f   libucrt:isatty.obj
 0001:0005572e       ??$?RUlconv@@@__crt_internal_free_policy@@QBEXQBUlconv@@@Z 1005672e f i libucrt:initmon.obj
 0001:00055744       ??0?$__crt_unique_heap_ptr@Ulconv@@U__crt_internal_free_policy@@@@QAE@QAUlconv@@@Z 10056744 f i libucrt:initmon.obj
 0001:00055758       ??1?$__crt_unique_heap_ptr@Ulconv@@U__crt_internal_free_policy@@@@QAE@XZ 10056758 f i libucrt:initmon.obj
 0001:0005576e       ?detach@?$__crt_unique_heap_ptr@Ulconv@@U__crt_internal_free_policy@@@@QAEPAUlconv@@XZ 1005676e f i libucrt:initmon.obj
 0001:00055774       ?release@?$__crt_unique_heap_ptr@Ulconv@@U__crt_internal_free_policy@@@@QAEXXZ 10056774 f i libucrt:initmon.obj
 0001:0005578a       ___acrt_locale_free_monetary 1005678a f   libucrt:initmon.obj
 0001:000558c7       ___acrt_locale_initialize_monetary 100568c7 f   libucrt:initmon.obj
 0001:00055dba       ___acrt_locale_free_numeric 10056dba f   libucrt:initnum.obj
 0001:00055e3d       ___acrt_locale_initialize_numeric 10056e3d f   libucrt:initnum.obj
 0001:00056128       ??$?RU__crt_lc_time_data@@@__crt_internal_free_policy@@QBEXQBU__crt_lc_time_data@@@Z 10057128 f i libucrt:inittime.obj
 0001:000561c8       ??0?$__crt_unique_heap_ptr@U__crt_lc_time_data@@U__crt_internal_free_policy@@@@QAE@QAU__crt_lc_time_data@@@Z 100571c8 f i libucrt:inittime.obj
 0001:000561dc       ??1?$__crt_unique_heap_ptr@U__crt_lc_time_data@@U__crt_internal_free_policy@@@@QAE@XZ 100571dc f i libucrt:inittime.obj
 0001:000561f2       ??B?$__crt_unique_heap_ptr@U__crt_lc_time_data@@U__crt_internal_free_policy@@@@QBE_NXZ 100571f2 f i libucrt:inittime.obj
 0001:000561fc       ?detach@?$__crt_unique_heap_ptr@U__crt_lc_time_data@@U__crt_internal_free_policy@@@@QAEPAU__crt_lc_time_data@@XZ 100571fc f i libucrt:inittime.obj
 0001:0005624d       ?get@?$__crt_unique_heap_ptr@U__crt_lc_time_data@@U__crt_internal_free_policy@@@@QBEPAU__crt_lc_time_data@@XZ 1005724d f i libucrt:inittime.obj
 0001:000565e5       ?is_valid@?$__crt_unique_heap_ptr@U__crt_lc_time_data@@U__crt_internal_free_policy@@@@QBE_NXZ 100575e5 f i libucrt:inittime.obj
 0001:000565ef       ?release@?$__crt_unique_heap_ptr@U__crt_lc_time_data@@U__crt_internal_free_policy@@@@QAEXXZ 100575ef f i libucrt:inittime.obj
 0001:00056605       ___acrt_locale_free_time   10057605 f   libucrt:inittime.obj
 0001:00056722       ___acrt_locale_initialize_time 10057722 f   libucrt:inittime.obj
 0001:000568c0       _wcsncpy_s                 100578c0 f   libucrt:wcsncpy_s.obj
 0001:000568cd       _wcscspn                   100578cd f   libucrt:wcscspn.obj
 0001:00056931       _wcspbrk                   10057931 f   libucrt:wcspbrk.obj
 0001:00056987       ___acrt_GetStringTypeA     10057987 f   libucrt:getstringtypea.obj
 0001:000573fb       ___acrt_get_qualified_locale 100583fb f   libucrt:get_qualified_locale.obj
 0001:00057fa2       ___acrt_get_qualified_locale_downlevel 10058fa2 f   libucrt:getqloc_downlevel.obj
 0001:0005822a       _localeconv                1005922a f   libucrt:localeconv.obj
 0001:0005825e       ___setfflag                1005925e f   libucrt:fp_flags.obj
 0001:00058278       __87except                 10059278 f   libucrt:87except.obj
 0001:000583c5       __wcsnicmp                 100593c5 f   libucrt:wcsnicmp.obj
 0001:000584ad       __wcsnicmp_l               100594ad f   libucrt:wcsnicmp.obj
 0001:000585f0       _strncmp                   100595f0 f   libucrt:strncmp.obj
 0001:00058686       __strnicmp                 10059686 f   libucrt:strnicmp.obj
 0001:0005870e       __strnicmp_l               1005970e f   libucrt:strnicmp.obj
 0001:000587f2       ??$__vcrt_va_start_verify_argument_type@$$CBH@@YAXXZ 100597f2 f i libucrt:open.obj
 0001:00058ba9       ??$tsopen_nolock@PAHABQAHABQBDABHABHABHABH@?$__crt_char_traits@D@@SAH$$QAPAHABQAHABQBDABH333@Z 10059ba9 f i libucrt:open.obj
 0001:00058be7       ??$tsopen_nolock@PAHABQAHABQB_WABHABHABHABH@?$__crt_char_traits@_W@@SAH$$QAPAHABQAHABQB_WABH333@Z 10059be7 f i libucrt:open.obj
 0001:00058c25       ??$tsopen_nolock@PAHPAHABQBDABHHABHH@?$__crt_char_traits@D@@SAH$$QAPAH0ABQBDABH$$QAH23@Z 10059c25 f i libucrt:open.obj
 0001:00058c63       ??$tsopen_nolock@PAHPAHABQB_WABHHABHH@?$__crt_char_traits@_W@@SAH$$QAPAH0ABQB_WABH$$QAH23@Z 10059c63 f i libucrt:open.obj
 0001:0005942d       __open                     1005a42d f   libucrt:open.obj
 0001:0005944b       __sopen                    1005a44b f   libucrt:open.obj
 0001:0005948d       __sopen_dispatch           1005a48d f   libucrt:open.obj
 0001:0005949a       __sopen_nolock             1005a49a f   libucrt:open.obj
 0001:000594ff       __sopen_s                  1005a4ff f   libucrt:open.obj
 0001:00059527       __wopen                    1005a527 f   libucrt:open.obj
 0001:00059545       __wsopen                   1005a545 f   libucrt:open.obj
 0001:00059587       __wsopen_dispatch          1005a587 f   libucrt:open.obj
 0001:00059594       __wsopen_nolock            1005a594 f   libucrt:open.obj
 0001:00059987       __wsopen_s                 1005a987 f   libucrt:open.obj
 0001:000599af       ___p__commode              1005a9af f   libucrt:ncommode.obj
 0001:000599b5       ___acrt_stdio_allocate_buffer_nolock 1005a9b5 f   libucrt:_getbuf.obj
 0001:00059a29       ??$?RV<lambda_f828341fbe69b7c0d4c527b01f22877f>@@AAV<lambda_9e0b6ab72a5b3ae37ad997d08b519f50>@@V<lambda_f01deac0a8d65d6e0411edf7e0af5775>@@@?$__crt_seh_guarded_call@G@@QAEG$$QAV<lambda_f828341fbe69b7c0d4c527b01f22877f>@@AAV<lambda_9e0b6ab72a5b3ae37ad997d08b519f50>@@$$QAV<lambda_f01deac0a8d65d6e0411edf7e0af5775>@@@Z 1005aa29 f i libucrt:putwch.obj
 0001:00059a9e       ??$__acrt_lock_and_call@V<lambda_9e0b6ab72a5b3ae37ad997d08b519f50>@@@@YAGW4__acrt_lock_id@@$$QAV<lambda_9e0b6ab72a5b3ae37ad997d08b519f50>@@@Z 1005aa9e f i libucrt:putwch.obj
 0001:00059b36       __putwch                   1005ab36 f   libucrt:putwch.obj
 0001:00059b5a       __putwch_nolock            1005ab5a f   libucrt:putwch.obj
 0001:00059bb0       _nextafter                 1005abb0 f   libucrt:nextafter.obj
 0001:00059cf0       _qsort                     1005acf0 f   libucrt:qsort.obj
 0001:0005a24d       _strncpy_s                 1005b24d f   libucrt:strncpy_s.obj
 0001:0005a260       _strpbrk                   1005b260 f   libucrt:strpbrk.obj
 0001:0005a2b0       __mbsdec                   1005b2b0 f   libucrt:mbsdec.obj
 0001:0005a2cc       __mbsdec_l                 1005b2cc f   libucrt:mbsdec.obj
 0001:0005a38e       __wcsnicoll                1005b38e f   libucrt:wcsnicol.obj
 0001:0005a492       __wcsnicoll_l              1005b492 f   libucrt:wcsnicol.obj
 0001:0005a60a       __strnicoll                1005b60a f   libucrt:strnicol.obj
 0001:0005a63d       __strnicoll_l              1005b63d f   libucrt:strnicol.obj
 0001:0005a739       __msize                    1005b739 f   libucrt:msize.obj
 0001:0005a746       __msize_base               1005b746 f   libucrt:msize.obj
 0001:0005a785       ___strncnt                 1005b785 f   libucrt:strncnt.obj
 0001:0005a8e1       ___acrt_GetLocaleInfoA     1005b8e1 f   libucrt:getlocaleinfoa.obj
 0001:0005aaff       _fegetenv                  1005baff f   libucrt:fegetenv.obj
 0001:0005ab23       _fesetenv                  1005bb23 f   libucrt:fesetenv.obj
 0001:0005ab7e       _feholdexcept              1005bb7e f   libucrt:feholdexcept.obj
 0001:0005abe0       _log10                     1005bbe0 f   libucrt:log10.obj
 0001:0005ac20       __CIlog10                  1005bc20 f   libucrt:log10.obj
 0001:0005ac5b       __CIlog10_default          1005bc5b f   libucrt:log10.obj
 0001:0005ac6f       __log10_default            1005bc6f     libucrt:log10.obj
 0001:0005ad90       _ceil                      1005bd90 f   libucrt:ceil_pentium4.obj
 0001:0005add0       __ceil_pentium4            1005bdd0 f   libucrt:ceil_pentium4.obj
 0001:0005aef4       __wcsicmp                  1005bef4 f   libucrt:wcsicmp.obj
 0001:0005afae       __wcsicmp_l                1005bfae f   libucrt:wcsicmp.obj
 0001:0005b0c6       __towlower_l               1005c0c6 f   libucrt:towlower.obj
 0001:0005b1c1       _towlower                  1005c1c1 f   libucrt:towlower.obj
 0001:0005b1e0       ___ascii_strnicmp          1005c1e0 f   libucrt:_strnicm.obj
 0001:0005b259       ??$__crt_interlocked_read@H@@YAHPDH@Z 1005c259 f i libucrt:setmode.obj
 0001:0005b268       ?value@?$dual_state_global@H@__crt_state_management@@QAEAAHXZ 1005c268 f i libucrt:setmode.obj
 0001:0005b26b       __get_fmode                1005c26b f   libucrt:setmode.obj
 0001:0005b2a2       __set_fmode                1005c2a2 f   libucrt:setmode.obj
 0001:0005b2ee       __setmode                  1005c2ee f   libucrt:setmode.obj
 0001:0005b43f       __setmode_nolock           1005c43f f   libucrt:setmode.obj
 0001:0005b544       ??$?RV<lambda_3b12a17125e8c5b5e6e6f6c6050db0c1>@@AAV<lambda_522ac1b1e1a1180d6f374a882b81d1c8>@@V<lambda_e92b96cac182f562f30acc9fb7872857>@@@?$__crt_seh_guarded_call@H@@QAEH$$QAV<lambda_3b12a17125e8c5b5e6e6f6c6050db0c1>@@AAV<lambda_522ac1b1e1a1180d6f374a882b81d1c8>@@$$QAV<lambda_e92b96cac182f562f30acc9fb7872857>@@@Z 1005c544 f i libucrt:chsize.obj
 0001:0005b5ee       ??$__acrt_lowio_lock_fh_and_call@V<lambda_522ac1b1e1a1180d6f374a882b81d1c8>@@@@YAHH$$QAV<lambda_522ac1b1e1a1180d6f374a882b81d1c8>@@@Z 1005c5ee f i libucrt:chsize.obj
 0001:0005b6d0       __chsize                   1005c6d0 f   libucrt:chsize.obj
 0001:0005b6f3       __chsize_nolock            1005c6f3 f   libucrt:chsize.obj
 0001:0005b8e8       __chsize_s                 1005c8e8 f   libucrt:chsize.obj
 0001:0005b9a9       __umask                    1005c9a9 f   libucrt:umask.obj
 0001:0005b9d7       __umask_s                  1005c9d7 f   libucrt:umask.obj
 0001:0005ba20       ___dcrt_lowio_initialize_console_output 1005ca20 f   libucrt:initcon.obj
 0001:0005ba46       ___dcrt_terminate_console_output 1005ca46 f   libucrt:initcon.obj
 0001:0005ba62       _nexttoward                1005ca62 f   libucrt:nexttoward.obj
 0001:0005bc13       ___acrt_CompareStringW     1005cc13 f   libucrt:comparestringw.obj
 0001:0005bfe7       ___acrt_CompareStringA     1005cfe7 f   libucrt:comparestringa.obj
 0001:0005c041       ___acrt_fenv_get_fp_status_word_from_exception_mask 1005d041 f   libucrt:_fenvutils.obj
 0001:0005c484       __getfpcontrolword         1005d484 f   libucrt:_fenvutils.obj
 0001:0005c4d7       __getfpstatusword          1005d4d7 f   libucrt:_fenvutils.obj
 0001:0005c5a9       __setfpcontrolword         1005d5a9 f   libucrt:_fenvutils.obj
 0001:0005c649       __setfpstatusword          1005d649 f   libucrt:_fenvutils.obj
 0001:0005c87f       ___control87_2             1005d87f f   libucrt:ieee87.obj
 0001:0005ce53       ___fpreset_sse2            1005de53 f   libucrt:ieee87.obj
 0001:0005d0a6       __clearfp                  1005e0a6 f   libucrt:ieee87.obj
 0001:0005d1bb       __control87                1005e1bb f   libucrt:ieee87.obj
 0001:0005d57d       __controlfp                1005e57d f   libucrt:ieee87.obj
 0001:0005d59d       __fpreset                  1005e59d f   libucrt:ieee87.obj
 0001:0005d69a       __set_controlfp            1005e69a f   libucrt:ieee87.obj
 0001:0005d730       __statusfp                 1005e730 f   libucrt:ieee87.obj
 0001:0005d7f3       __statusfp2                1005e7f3 f   libucrt:ieee87.obj
 0001:0005d870       ___acrt_initialize_sse2    1005e870 f   libucrt:mathfcns.obj
 0001:0005d882       __set_SSE2_enable          1005e882 f   libucrt:mathfcns.obj
 0001:0005d8b0       __CIlog10_pentium4         1005e8b0 f   libucrt:log10_pentium4.obj
 0001:0005d8c8       __log10_pentium4           1005e8c8     libucrt:log10_pentium4.obj
 0001:0005dc01       __fFEXP                    1005ec01     libucrt:87tran.obj
 0001:0005dc58       __rtinfpopse               1005ec58     libucrt:87tran.obj
 0001:0005dc5a       __rtinfnpopse              1005ec5a     libucrt:87tran.obj
 0001:0005dc6a       __fFLN                     1005ec6a     libucrt:87tran.obj
 0001:0005dd1f       __rtinfpop                 1005ed1f     libucrt:87tran.obj
 0001:0005dd21       __rtinfnpop                1005ed21     libucrt:87tran.obj
 0001:0005dd3e       __ffexpm1                  1005ed3e     libucrt:87tran.obj
 0001:0005de70       __twoToTOS                 1005ee70 f   libucrt:common.obj
 0001:0005de85       __load_CW                  1005ee85 f   libucrt:common.obj
 0001:0005de9c       __convertTOStoQNaN         1005ee9c f   libucrt:common.obj
 0001:0005deb5       __fload_withFB             1005eeb5 f   libucrt:common.obj
 0001:0005def8       __checkTOS_withFB          1005eef8 f   libucrt:common.obj
 0001:0005df0e       __fast_exit                1005ef0e f   libucrt:common.obj
 0001:0005df1b       __math_exit                1005ef1b f   libucrt:common.obj
 0001:0005df45       __check_overflow_exit      1005ef45 f   libucrt:common.obj
 0001:0005df59       __check_range_exit         1005ef59 f   libucrt:common.obj
 0001:0005e060       __startTwoArgErrorHandling 1005f060 f   libucrt:genexcep.obj
 0001:0005e077       __startOneArgErrorHandling 1005f077 f   libucrt:genexcep.obj
 0001:0005e0c7       ___libm_error_support      1005f0c7 f   libucrt:libm_error.obj
 0001:0005e365       ___libm_setusermatherr     1005f365 f   libucrt:libm_error.obj
 0001:0005e39e       __ceil_default             1005f39e f   libucrt:ceil.obj
 0001:0005e485       ___acrt_LCMapStringW       1005f485 f   libucrt:lcmapstringw.obj
 0001:0005e4d2       ___p__fmode                1005f4d2 f   libucrt:txtmode.obj
 0001:0005e4d8       __d_int                    1005f4d8 f   libucrt:_test.obj
 0001:0005e620       __dtest                    1005f620 f   libucrt:_test.obj
 0001:0005e69d       __fd_int                   1005f69d f   libucrt:_test.obj
 0001:0005e7a1       __fdtest                   1005f7a1 f   libucrt:_test.obj
 0001:0005e802       __fperrraise               1005f802 f   libucrt:_test.obj
 0001:0005e82d       __ld_int                   1005f82d f   libucrt:_test.obj
 0001:0005e83a       __ldtest                   1005f83a f   libucrt:_test.obj
 0001:0005e8df       __controlfp_s              1005f8df f   libucrt:contrlfp.obj
 0001:0005e955       __d_inttype                1005f955 f   libucrt:powhlp.obj
 0001:0005e9d9       __powhlp                   1005f9d9 f   libucrt:powhlp.obj
 0001:0005eb4e       __frnd                     1005fb4e f   libucrt:frnd.obj
 0001:0005eb69       _fegetexceptflag           1005fb69 f   libucrt:fegetexceptflag.obj
 0001:0005eba6       _fesetexceptflag           1005fba6 f   libucrt:fesetexceptflag.obj
 0001:0005ec07       _fetestexcept              1005fc07 f   libucrt:fetestexcept.obj
 0001:0005ec40       __FindPESection            1005fc40 f   LIBCMT:pesect.obj
 0001:0005eca0       __IsNonwritableInCurrentImage 1005fca0 f   LIBCMT:pesect.obj
 0001:0005ed90       __ValidateImageBase        1005fd90 f   LIBCMT:pesect.obj
 0001:0005edd0       __aulldvrm                 1005fdd0 f   LIBCMT:ulldvrm.obj
 0001:0005ee8a       ??1type_info@@UAE@XZ       1005fe8a f   LIBCMT:std_type_info_static.obj
 0001:0005ee91       ??_Gtype_info@@UAEPAXI@Z   1005fe91 f i LIBCMT:std_type_info_static.obj
 0001:0005ee91       ??_Etype_info@@UAEPAXI@Z   1005fe91 f i LIBCMT:std_type_info_static.obj
 0001:0005eec0       __SEH_prolog4_GS           1005fec0 f   LIBCMT:_sehprolg4gs_.obj
 0001:0005ef09       __SEH_epilog4_GS           1005ff09 f   LIBCMT:_sehprolg4gs_.obj
 0001:0005ef30       __allmul                   1005ff30 f   LIBCMT:llmul.obj
 0001:0005ef80       __alldvrm                  1005ff80 f   LIBCMT:lldvrm.obj
 0001:0005f0a0       __aullshr                  100600a0 f   LIBCMT:ullshr.obj
 0001:0005f0d0       __alloca_probe             100600d0 f   LIBCMT:chkstk.obj
 0001:0005f0d0       __chkstk                   100600d0 f   LIBCMT:chkstk.obj
 0001:0005f110       __alloca_probe_16          10060110 f   LIBCMT:alloca16.obj
 0001:0005f126       __alloca_probe_8           10060126     LIBCMT:alloca16.obj
 0001:0005f150       __allshl                   10060150 f   LIBCMT:llshl.obj
 0001:0005f180       __ftol2_sse                10060180 f   LIBCMT:_ftol2_.obj
 0001:0005f189       __ftol2_pentium4           10060189 f   LIBCMT:_ftol2_.obj
 0001:0005f19c       __ftol2_sse_excpt          1006019c f   LIBCMT:_ftol2_.obj
 0001:0005f1c0       __ftol2                    100601c0 f   LIBCMT:_ftol2_.obj
 0001:0005f262       __initialize_default_precision 10060262 f   LIBCMT:default_precision.obj
 0001:0005f28b       ??3@YAXPAXI@Z              1006028b f   LIBCMT:delete_scalar_size.obj
 0001:0005f29c       ??3@YAXPAX@Z               1006029c f   LIBCMT:delete_scalar.obj
 0001:0005f2a2       _InterlockedPushEntrySList@8 100602a2 f   kernel32:KERNEL32.dll
 0001:0005f2a8       _InterlockedFlushSList@4   100602a8 f   kernel32:KERNEL32.dll
 0001:0005f2ae       _RtlUnwind@16              100602ae f   kernel32:KERNEL32.dll
 0001:0005f2b4       _GetLastError@0            100602b4 f   kernel32:KERNEL32.dll
 0001:0005f2ba       _SetLastError@4            100602ba f   kernel32:KERNEL32.dll
 0001:0005f2c0       _EnterCriticalSection@4    100602c0 f   kernel32:KERNEL32.dll
 0001:0005f2c6       _LeaveCriticalSection@4    100602c6 f   kernel32:KERNEL32.dll
 0001:0005f2cc       _DeleteCriticalSection@4   100602cc f   kernel32:KERNEL32.dll
 0001:0005f2d2       _InitializeCriticalSectionAndSpinCount@8 100602d2 f   kernel32:KERNEL32.dll
 0001:0005f2d8       _TlsAlloc@0                100602d8 f   kernel32:KERNEL32.dll
 0001:0005f2de       _TlsGetValue@4             100602de f   kernel32:KERNEL32.dll
 0001:0005f2e4       _TlsSetValue@8             100602e4 f   kernel32:KERNEL32.dll
 0001:0005f2ea       _TlsFree@4                 100602ea f   kernel32:KERNEL32.dll
 0001:0005f2f0       _FreeLibrary@4             100602f0 f   kernel32:KERNEL32.dll
 0001:0005f2f6       _LoadLibraryExW@12         100602f6 f   kernel32:KERNEL32.dll
 0001:0005f2fc       _GetStdHandle@4            100602fc f   kernel32:KERNEL32.dll
 0001:0005f302       _GetFileType@4             10060302 f   kernel32:KERNEL32.dll
 0001:0005f308       _GetModuleFileNameA@12     10060308 f   kernel32:KERNEL32.dll
 0001:0005f30e       _GetModuleFileNameW@12     1006030e f   kernel32:KERNEL32.dll
 0001:0005f314       _GetModuleHandleExW@12     10060314 f   kernel32:KERNEL32.dll
 0001:0005f31a       _WriteConsoleW@20          1006031a f   kernel32:KERNEL32.dll
 0001:0005f320       _ExitProcess@4             10060320 f   kernel32:KERNEL32.dll
 0001:0005f326       _RaiseException@16         10060326 f   kernel32:KERNEL32.dll
 0001:0005f32c       _MultiByteToWideChar@24    1006032c f   kernel32:KERNEL32.dll
 0001:0005f332       _WideCharToMultiByte@32    10060332 f   kernel32:KERNEL32.dll
 0001:0005f338       _HeapFree@12               10060338 f   kernel32:KERNEL32.dll
 0001:0005f33e       _HeapAlloc@12              1006033e f   kernel32:KERNEL32.dll
 0001:0005f344       _GetDateFormatW@24         10060344 f   kernel32:KERNEL32.dll
 0001:0005f34a       _GetTimeFormatW@24         1006034a f   kernel32:KERNEL32.dll
 0001:0005f350       _CompareStringW@24         10060350 f   kernel32:KERNEL32.dll
 0001:0005f356       _LCMapStringW@24           10060356 f   kernel32:KERNEL32.dll
 0001:0005f35c       _GetLocaleInfoW@16         1006035c f   kernel32:KERNEL32.dll
 0001:0005f362       _IsValidLocale@8           10060362 f   kernel32:KERNEL32.dll
 0001:0005f368       _GetUserDefaultLCID@0      10060368 f   kernel32:KERNEL32.dll
 0001:0005f36e       _EnumSystemLocalesW@8      1006036e f   kernel32:KERNEL32.dll
 0001:0005f374       _GetCurrentThread@0        10060374 f   kernel32:KERNEL32.dll
 0001:0005f37a       _GetACP@0                  1006037a f   kernel32:KERNEL32.dll
 0001:0005f380       _WriteFile@20              10060380 f   kernel32:KERNEL32.dll
 0001:0005f386       _OutputDebugStringA@4      10060386 f   kernel32:KERNEL32.dll
 0001:0005f38c       _OutputDebugStringW@4      1006038c f   kernel32:KERNEL32.dll
 0001:0005f392       _SetConsoleCtrlHandler@8   10060392 f   kernel32:KERNEL32.dll
 0001:0005f398       _HeapReAlloc@16            10060398 f   kernel32:KERNEL32.dll
 0001:0005f39e       _CloseHandle@4             1006039e f   kernel32:KERNEL32.dll
 0001:0005f3a4       _ReadFile@20               100603a4 f   kernel32:KERNEL32.dll
 0001:0005f3aa       _GetConsoleMode@8          100603aa f   kernel32:KERNEL32.dll
 0001:0005f3b0       _ReadConsoleW@20           100603b0 f   kernel32:KERNEL32.dll
 0001:0005f3b6       _GetConsoleCP@0            100603b6 f   kernel32:KERNEL32.dll
 0001:0005f3bc       _DeleteFileW@4             100603bc f   kernel32:KERNEL32.dll
 0001:0005f3c2       _SetFilePointerEx@20       100603c2 f   kernel32:KERNEL32.dll
 0001:0005f3c8       _FindClose@4               100603c8 f   kernel32:KERNEL32.dll
 0001:0005f3ce       _FindFirstFileExA@24       100603ce f   kernel32:KERNEL32.dll
 0001:0005f3d4       _FindFirstFileExW@24       100603d4 f   kernel32:KERNEL32.dll
 0001:0005f3da       _FindNextFileA@8           100603da f   kernel32:KERNEL32.dll
 0001:0005f3e0       _FindNextFileW@8           100603e0 f   kernel32:KERNEL32.dll
 0001:0005f3e6       _IsValidCodePage@4         100603e6 f   kernel32:KERNEL32.dll
 0001:0005f3ec       _GetOEMCP@0                100603ec f   kernel32:KERNEL32.dll
 0001:0005f3f2       _GetCPInfo@8               100603f2 f   kernel32:KERNEL32.dll
 0001:0005f3f8       _GetCommandLineA@0         100603f8 f   kernel32:KERNEL32.dll
 0001:0005f3fe       _GetCommandLineW@0         100603fe f   kernel32:KERNEL32.dll
 0001:0005f404       _GetEnvironmentStringsW@0  10060404 f   kernel32:KERNEL32.dll
 0001:0005f40a       _FreeEnvironmentStringsW@4 1006040a f   kernel32:KERNEL32.dll
 0001:0005f410       _SetEnvironmentVariableA@8 10060410 f   kernel32:KERNEL32.dll
 0001:0005f416       _SetEnvironmentVariableW@8 10060416 f   kernel32:KERNEL32.dll
 0001:0005f41c       _GetProcessHeap@0          1006041c f   kernel32:KERNEL32.dll
 0001:0005f422       _GetStringTypeW@16         10060422 f   kernel32:KERNEL32.dll
 0001:0005f428       _FlushFileBuffers@4        10060428 f   kernel32:KERNEL32.dll
 0001:0005f42e       _SetStdHandle@8            1006042e f   kernel32:KERNEL32.dll
 0001:0005f434       _CreateFileW@28            10060434 f   kernel32:KERNEL32.dll
 0001:0005f43a       _HeapSize@12               1006043a f   kernel32:KERNEL32.dll
 0001:0005f440       _SetEndOfFile@4            10060440 f   kernel32:KERNEL32.dll
 0001:0005f446       _EncodePointer@4           10060446 f   kernel32:KERNEL32.dll
 0001:0005f44c       _DecodePointer@4           1006044c f   kernel32:KERNEL32.dll
 0001:0005f460       _strrchr                   10060460 f   libvcruntime:strrchr.obj
 0001:0005f747       _memcmp                    10060747 f   libvcruntime:_memcmp_.obj
 0001:0006322f       _wcschr                    1006422f f   libvcruntime:wcschr.obj
 0002:00000000       ___xc_a                    10065000     LIBCMT:initializers.obj
 0002:00000104       ___xc_z                    10065104     LIBCMT:initializers.obj
 0002:00000208       ___xi_a                    10065208     LIBCMT:initializers.obj
 0002:0000030c       ___acrt_stdio_initializer  1006530c     libucrt:stdio_initializer.obj
 0002:00000310       ___acrt_multibyte_initializer 10065310     libucrt:multibyte_initializer.obj
 0002:00000314       ___acrt_tran_sse2_initializer 10065314     libucrt:sse2_initializer.obj
 0002:0000041c       ___xi_z                    1006541c     LIBCMT:initializers.obj
 0002:00000520       ___xp_a                    10065520     LIBCMT:initializers.obj
 0002:00000624       ___acrt_locale_terminator  10065624     libucrt:locale_initializer.obj
 0002:00000628       ___dcrt_console_output_terminator 10065628     libucrt:console_output_initializer.obj
 0002:00000730       ___acrt_stdio_terminator   10065730     libucrt:stdio_initializer.obj
 0002:00000834       ___xp_z                    10065834     LIBCMT:initializers.obj
 0002:00000938       ___xt_a                    10065938     LIBCMT:initializers.obj
 0002:00000a3c       ___xt_z                    10065a3c     LIBCMT:initializers.obj
 0002:00000b40       _move_from_strain_M        10065b40     move_from_strain.obj
 0002:00000b44       ??_C@_0BI@PHJEPFFP@Error?5creating?5scope?51?6?$AA@ 10065b44     move_from_strain.obj
 0002:00000b60       ??_C@_0CG@INCPPJDL@Programmable?5Pulse?5Generator?1Pro@ 10065b60     move_from_strain.obj
 0002:00000b90       ??_C@_0BI@PFNCELAG@Error?5creating?5scope?52?6?$AA@ 10065b90     move_from_strain.obj
 0002:00000bac       ??_C@_05JIDBFJIA@Q4?5AD?$AA@ 10065bac     move_from_strain.obj
 0002:00000bb4       ??_C@_0BC@OJJPBDHH@FixedStepDiscrete?$AA@ 10065bb4     move_from_strain.obj
 0002:00000bcc       ??_C@_04EPKDLPPB@tout?$AA@ 10065bcc     move_from_strain.obj
 0002:00000bd2       ??_C@_00CNPNBAHC@?$AA@     10065bd2     move_from_strain.obj
 0002:00000bd4       ??_C@_03HBFGMJOD@rt_?$AA@  10065bd4     move_from_strain.obj
 0002:00000bd8       ??_C@_0BH@LHMBMOB@move_from_strain?1Q4?5AD?$AA@ 10065bd8     move_from_strain.obj
 0002:00000bf4       ??_C@_06EDCPIJAI@Q4?5DO?5?$AA@ 10065bf4     move_from_strain.obj
 0002:00000bfc       ??_C@_0BI@HJAJJFID@move_from_strain?1Q4?5DO?5?$AA@ 10065bfc     move_from_strain.obj
 0002:00000c18       __real@0000000000000000    10065c18     move_from_strain.obj
 0002:00000c28       __real@3cb0000000000000    10065c28     move_from_strain.obj
 0002:00000c38       __real@3f2a36e2eb1c432d    10065c38     move_from_strain.obj
 0002:00000c48       __real@3fe0000000000000    10065c48     move_from_strain.obj
 0002:00000c58       __real@3ff0000000000000    10065c58     move_from_strain.obj
 0002:00000c68       __real@4000000000000000    10065c68     move_from_strain.obj
 0002:00000c78       __real@4014000000000000    10065c78     move_from_strain.obj
 0002:00000c88       __real@4018000000000000    10065c88     move_from_strain.obj
 0002:00000c98       __real@406f400000000000    10065c98     move_from_strain.obj
 0002:00000ca8       __real@41f0000000000000    10065ca8     move_from_strain.obj
 0002:00000cb8       __real@4330000000000000    10065cb8     move_from_strain.obj
 0002:00000cc8       __real@8000000000000000    10065cc8     move_from_strain.obj
 0002:00000cd8       __real@bff0000000000000    10065cd8     move_from_strain.obj
 0002:00000cf0       __xmm@000000320000000a0000001300000002 10065cf0     move_from_strain.obj
 0002:00000d10       __xmm@3f2a36e2eb1c432d0000000000000000 10065d10     move_from_strain.obj
 0002:00000d30       __xmm@41f00000000000000000000000000000 10065d30     move_from_strain.obj
 0002:00000d50       __xmm@7fffffffffffffff7fffffffffffffff 10065d50     move_from_strain.obj
 0002:00001194       ??_C@_0BA@NKAHAPKM@MATLAB?5Function?$AA@ 10066194     move_from_strain_capi.obj
 0002:000011a8       ??_C@_0CD@GJLEFLMP@Programmable?5Pulse?5Generator?1Clo@ 100661a8     move_from_strain_capi.obj
 0002:000011d4       ??_C@_0DC@CCFMPLGK@Programmable?5Pulse?5Generator?1Dat@ 100661d4     move_from_strain_capi.obj
 0002:00001210       ??_C@_0CB@FBNODEKP@Programmable?5Pulse?5Generator?1mod@ 10066210     move_from_strain_capi.obj
 0002:00001238       ??_C@_0CF@HGCKMOCF@Programmable?5Pulse?5Generator?1Pro@ 10066238     move_from_strain_capi.obj
 0002:00001264       ??_C@_0DB@LLBPADMK@Programmable?5Pulse?5Generator?1Rel@ 10066264     move_from_strain_capi.obj
 0002:000012a0       ??_C@_0CC@IFCMLOKP@Programmable?5Pulse?5Generator?1Sum@ 100662a0     move_from_strain_capi.obj
 0002:000012c8       ??_C@_0DA@BGPOJFAO@Programmable?5Pulse?5Generator?1Pha@ 100662c8     move_from_strain_capi.obj
 0002:00001304       ??_C@_09IHLJOMI@Amplitude?$AA@ 10066304     move_from_strain_capi.obj
 0002:00001310       ??_C@_05LPIJGKJ@Value?$AA@ 10066310     move_from_strain_capi.obj
 0002:00001318       ??_C@_02PIBHICFM@PD?$AA@   10066318     move_from_strain_capi.obj
 0002:0000131c       ??_C@_06JOFJHOEH@Period?$AA@ 1006631c     move_from_strain_capi.obj
 0002:00001324       ??_C@_02KKFPAPOP@P1?$AA@   10066324     move_from_strain_capi.obj
 0002:00001328       ??_C@_02IBHCFMCM@P2?$AA@   10066328     move_from_strain_capi.obj
 0002:0000132c       ??_C@_02JIGJGNGN@P3?$AA@   1006632c     move_from_strain_capi.obj
 0002:00001330       ??_C@_02MODDMKOL@P5?$AA@   10066330     move_from_strain_capi.obj
 0002:00001334       ??_C@_02OFBOJJCI@P6?$AA@   10066334     move_from_strain_capi.obj
 0002:00001338       ??_C@_02PMAFKIGJ@P7?$AA@   10066338     move_from_strain_capi.obj
 0002:0000133c       ??_C@_02NHCIPLKK@P4?$AA@   1006633c     move_from_strain_capi.obj
 0002:00001340       ??_C@_02HLJNLEKG@P8?$AA@   10066340     move_from_strain_capi.obj
 0002:00001344       ??_C@_0CG@EMKOOGDP@Programmable?5Pulse?5Generator?1Con@ 10066344     move_from_strain_capi.obj
 0002:00001374       ??_C@_0CH@HAHHIEGJ@Programmable?5Pulse?5Generator?1Con@ 10066374     move_from_strain_capi.obj
 0002:000013a4       ??_C@_09HLCHFPPJ@Threshold?$AA@ 100663a4     move_from_strain_capi.obj
 0002:000013b0       ??_C@_06BNJCAIGJ@double?$AA@ 100663b0     move_from_strain_capi.obj
 0002:000013b8       ??_C@_06CNMIJIPB@real_T?$AA@ 100663b8     move_from_strain_capi.obj
 0002:000013c0       ??_C@_0O@PPAIJIHF@unsigned?5char?$AA@ 100663c0     move_from_strain_capi.obj
 0002:000013d0       ??_C@_09JBMFCIMO@boolean_T?$AA@ 100663d0     move_from_strain_capi.obj
 0002:000013dc       ??_C@_05KNFBNCOH@float?$AA@ 100663dc     move_from_strain_capi.obj
 0002:000013e4       _serialfifoground          100663e4     xpc_datatype_ground.obj
 0002:000013f0       _bcmsg1553ground           100663f0     xpc_datatype_ground.obj
 0002:00001400       _bcstatground              10066400     xpc_datatype_ground.obj
 0002:00001418       _bmmsg1553ground           10066418     xpc_datatype_ground.obj
 0002:00001454       ??_C@_0BI@INNPNFJN@Memory?5Allocation?5Error?$AA@ 10066454     rtw_modelmap_utils.obj
 0002:00001470       ??_C@_1FC@GIONDGJJ@?$AAD?$AA?3?$AA?2?$AAM?$AAA?$AAT?$AAL?$AAA?$AAB?$AA?2?$AAr?$AAt?$AAw?$AA?2?$AAc?$AA?2?$AAs?$AAr?$AAc?$AA?2?$AAr?$AAt?$AAw?$AA_?$AAm?$AAo?$AAd?$AAe?$AAl?$AAm?$AAa?$AAp@ 10066470     rtw_modelmap_utils.obj
 0002:000014d4       ??_C@_1CI@OEAJCJND@?$AAj?$AA?5?$AA?$DN?$AA?$DN?$AA?5?$AAe?$AAn?$AAc?$AAo?$AAd?$AAe?$AAd?$AAP?$AAa?$AAt?$AAh?$AAL?$AAe?$AAn?$AA?$AA@ 100664d4     rtw_modelmap_utils.obj
 0002:00001504       ??_C@_1DC@NFAOIFKB@?$AAe?$AAn?$AAc?$AAo?$AAd?$AAe?$AAd?$AAP?$AAa?$AAt?$AAh?$AA?$FL?$AAj?$AA?9?$AA1?$AA?$FN?$AA?5?$AA?$DN?$AA?$DN?$AA?5?$AA?8?$AA?2?$AA0?$AA?8?$AA?$AA@ 10066504     rtw_modelmap_utils.obj
 0002:00001540       ??_C@_1DI@FLNJGPEE@?$AAs?$AAi?$AAg?$AAC?$AAo?$AAm?$AAp?$AAl?$AAe?$AAx?$AAi?$AAt?$AAy?$AA?$FL?$AA?$CK?$AAs?$AAi?$AAg?$AAI?$AAd?$AAx?$AA?$FN?$AA?5?$AA?$CB?$AA?$DN?$AA?5?$AA1?$AA?$AA@ 10066540     rtw_modelmap_utils.obj
 0002:00001588       ??_C@_1KI@OFELMGBG@?$AA?$CI?$AA?$CI?$AA?$CI?$AAd?$AAa?$AAt?$AAa?$AAT?$AAy?$AAp?$AAe?$AAM?$AAa?$AAp?$AA?$CJ?$AA?$FL?$AA?$CI?$AA?$CI?$AA?$CI?$AAs?$AAt?$AAa?$AAt?$AAe?$AAs?$AA?$CJ?$AA?$FL?$AA?$CI?$AAi?$AA?$CJ?$AA?$FN?$AA?4@ 10066588     rtw_modelmap_utils.obj
 0002:00001654       ??_C@_1DA@ILCMPHNE@?$AAf?$AAu?$AAl?$AAl?$AAP?$AAa?$AAt?$AAh?$AA?5?$AA?$CB?$AA?$DN?$AA?5?$AA?$CI?$AA?$CI?$AAv?$AAo?$AAi?$AAd?$AA?5?$AA?$CK?$AA?$CJ?$AA0?$AA?$CJ?$AA?$AA@ 10066654     rtw_modelmap_utils.obj
 0002:00001690       ??_C@_1CI@OEPPFCCA@?$AAp?$AAa?$AAt?$AAh?$AA?5?$AA?$CB?$AA?$DN?$AA?5?$AA?$CI?$AA?$CI?$AAv?$AAo?$AAi?$AAd?$AA?5?$AA?$CK?$AA?$CJ?$AA0?$AA?$CJ?$AA?$AA@ 10066690     rtw_modelmap_utils.obj
 0002:000016c0       ??_C@_1FK@GLJIMFHB@?$AA?$CI?$AA?$CI?$AAm?$AAm?$AAi?$AA?$CJ?$AA?9?$AA?$DO?$AAI?$AAn?$AAs?$AAt?$AAa?$AAn?$AAc?$AAe?$AAM?$AAa?$AAp?$AA?4?$AAf?$AAu?$AAl?$AAl?$AAP?$AAa?$AAt?$AAh?$AA?$CJ?$AA?5?$AA?$DN?$AA?$DN@ 100666c0     rtw_modelmap_utils.obj
 0002:0000172c       ??_C@_1DG@HPCJGNCE@?$AAm?$AAm?$AAi?$AAP?$AAa?$AAt?$AAh?$AA?$FL?$AAp?$AAa?$AAt?$AAh?$AAL?$AAe?$AAn?$AA?9?$AA1?$AA?$FN?$AA?5?$AA?$DN?$AA?$DN?$AA?5?$AA?8?$AA?2?$AA0?$AA?8?$AA?$AA@ 1006672c     rtw_modelmap_utils.obj
 0002:0000176c       ??_C@_1DM@DBAOGGOO@?$AAm?$AAm?$AAi?$AAP?$AAa?$AAt?$AAh?$AA?$FL?$AAm?$AAm?$AAi?$AAP?$AAa?$AAt?$AAh?$AAL?$AAe?$AAn?$AA?9?$AA1?$AA?$FN?$AA?5?$AA?$DN?$AA?$DN?$AA?5?$AA?8?$AA?2?$AA0?$AA?8?$AA?$AA@ 1006676c     rtw_modelmap_utils.obj
 0002:000017b4       ??_C@_1DC@LHIAKAFE@?$AAb?$AAl?$AAo?$AAc?$AAk?$AAP?$AAa?$AAt?$AAh?$AA?5?$AA?$CB?$AA?$DN?$AA?5?$AA?$CI?$AA?$CI?$AAv?$AAo?$AAi?$AAd?$AA?5?$AA?$CK?$AA?$CJ?$AA0?$AA?$CJ?$AA?$AA@ 100667b4     rtw_modelmap_utils.obj
 0002:000017f0       ??_C@_1GI@KIEJKPGC@?$AAf?$AAu?$AAl?$AAl?$AAS?$AAt?$AAa?$AAt?$AAe?$AAB?$AAl?$AAo?$AAc?$AAk?$AAP?$AAa?$AAt?$AAh?$AA?$FL?$AAf?$AAu?$AAl?$AAl?$AAS?$AAt?$AAa?$AAt?$AAe?$AAB?$AAl?$AAo?$AAc@ 100667f0     rtw_modelmap_utils.obj
 0002:00001870       ??_C@_1EE@DNPIBJHC@?$AA?$CI?$AA?$CI?$AAd?$AAi?$AAm?$AAM?$AAa?$AAp?$AA?$CJ?$AA?$FL?$AA?$CI?$AAm?$AAa?$AAp?$AAI?$AAd?$AAx?$AA?$CJ?$AA?$FN?$AA?4?$AAn?$AAu?$AAm?$AAD?$AAi?$AAm?$AAs?$AA?$CJ?$AA?5?$AA?$DN?$AA?$DN?$AA?5@ 10066870     rtw_modelmap_utils.obj
 0002:000018c4       ??_C@_06JFOKFOED@CSTATE?$AA@ 100668c4     rtw_modelmap_utils.obj
 0002:000018cc       ??_C@_06FAENGAMN@DSTATE?$AA@ 100668cc     rtw_modelmap_utils.obj
 0002:000018d4       ??_C@_1BI@LEBJNOGG@?$AAc?$AAs?$AAv?$AAI?$AAd?$AAx?$AA?5?$AA?$DO?$AA?$DN?$AA?5?$AA0?$AA?$AA@ 100668d4     rtw_modelmap_utils.obj
 0002:000018f0       ??_C@_1BA@KDMGHCHP@?$AAT?$AAI?$AAD?$AA?$DN?$AA?$DN?$AA?9?$AA1?$AA?$AA@ 100668f0     rtw_modelmap_utils.obj
 0002:00001904       ??_C@_1DM@DHGKBPCE@?$AAs?$AAi?$AAg?$AAP?$AAa?$AAt?$AAh?$AA?$FL?$AAs?$AAi?$AAg?$AAP?$AAa?$AAt?$AAh?$AAL?$AAe?$AAn?$AA?9?$AA1?$AA?$FN?$AA?5?$AA?$DN?$AA?$DN?$AA?5?$AA?8?$AA?2?$AA0?$AA?8?$AA?$AA@ 10066904     rtw_modelmap_utils.obj
 0002:000021b0       ??_C@_0DJ@FHKINPLE@Unexpected?5itemKind?5?$DN?5DATA_ITEM?5@ 100671b0     rt_logging.obj
 0002:000021f4       ??_C@_0DA@IEHFPFCJ@Unexpected?5itemKind?$DN?$CFd?5in?5rt_Pro@ 100671f4     rt_logging.obj
 0002:00002230       ??_C@_0DA@IFLHJPBO@Unexpected?5itemKind?$DN?$CFd?5in?5rt_Pro@ 10067230     rt_logging.obj
 0002:0000226c       ??_C@_0DA@IAPIIJJL@Unexpected?5itemKind?$DN?$CFd?5in?5rt_Pro@ 1006726c     rt_logging.obj
 0002:000022a8       ??_C@_0BE@LCIGPJIG@MATLAB?55?40?5MAT?9file?$AA@ 100672a8     rt_logging.obj
 0002:000022c0       ??_C@_0FB@PCJEAJIB@?$CK?$CK?$CK?5Log?5variable?5?$CFs?5has?5wrapped?5@ 100672c0     rt_logging.obj
 0002:00002328       ??_C@_0MG@NKMLMOGF@?$CK?$CK?$CK?5To?5avoid?5wrapping?0?5explicitl@ 10067328     rt_logging.obj
 0002:00002418       ??_C@_0N@IPAEOLLP@_rtw_tmw?4tmw?$AA@ 10067418     rt_logging.obj
 0002:00002428       ??_C@_04HDOCAJNK@?$CFs?$CFs?$AA@ 10067428     rt_logging.obj
 0002:00002430       ??_C@_03ELIABIOC@w?$CLb?$AA@ 10067430     rt_logging.obj
 0002:00002434       ??_C@_0BF@JPILDDFA@?$CK?$CK?$CK?5Error?5opening?5?$CFs?$AA@ 10067434     rt_logging.obj
 0002:00002450       ??_C@_0BK@EEMDELA@unable?5to?5open?5data?5file?6?$AA@ 10067450     rt_logging.obj
 0002:00002470       ??_C@_04CGFJFPFD@none?$AA@ 10067470     rt_logging.obj
 0002:00002478       ??_C@_0EE@LCGFPNON@?$CK?$CK?$CK?5Error?5creating?5signals?5struc@ 10067478     rt_logging.obj
 0002:000024cc       ??_C@_0CE@NHECEDMK@?$CK?$CK?$CK?5Error?5creating?5log?5variable?5@ 100674cc     rt_logging.obj
 0002:000024f8       ??_C@_0DB@IOCGKAGH@?$CK?$CK?$CK?5Errors?5occurred?5when?5startin@ 100674f8     rt_logging.obj
 0002:00002534       ??_C@_0BO@BBLOGEBK@?$CK?$CK?$CK?5Memory?5allocation?5error?4?6?$AA@ 10067534     rt_logging.obj
 0002:00002558       ??_C@_0N@LGFBAGEL@?5?$CIreal?5part?$CJ?$AA@ 10067558     rt_logging.obj
 0002:00002568       ??_C@_0KH@CGNMHNFE@?5?5?5?5varName?5?5?5?5?5?5?5?5?5?5?$DN?5?$CFs?$CFs?6?5?5?5?5@ 10067568     rt_logging.obj
 0002:00002630       ??_C@_0LE@OALKKEFM@?5?5?5?5varName?5?5?5?5?5?5?5?5?5?5?$DN?5?$CFs?5?$CIcompl@ 10067630     rt_logging.obj
 0002:00002708       ??_C@_0KF@JDDLEOKO@?5?5?5?5varName?5?5?5?5?5?5?5?5?5?5?$DN?5?$CFs?6?5?5?5?5nR@ 10067708     rt_logging.obj
 0002:000027d0       ??_C@_0DP@HPDMIOFM@?$CK?$CK?$CK?5Using?5a?5default?5buffer?5of?5si@ 100677d0     rt_logging.obj
 0002:00002820       ??_C@_0KE@JEFOLKNF@?6?$CK?$CK?$CK?5Memory?5required?5to?5log?5vari@ 10067820     rt_logging.obj
 0002:000028e8       ??_C@_0JP@DKLMHCBI@?$CK?$CK?$CK?5Details?3?6?5?5?5?5?5?5?5varName?5?5?5?5?5@ 100678e8     rt_logging.obj
 0002:000029a8       ??_C@_0CM@CAMILBED@?$CK?$CK?$CK?5Error?5allocating?5memory?5for?5@ 100679a8     rt_logging.obj
 0002:000029dc       ??_C@_0DF@BBCNMOPM@?$CK?$CK?$CK?5Error?5allocating?5memory?5for?5@ 100679dc     rt_logging.obj
 0002:00002a20       ??_C@_0JP@DBCLPCCI@?$CK?$CK?$CK?5Details?3?6?5?5?5?5?5?5?5varName?5?5?5?5?5@ 10067a20     rt_logging.obj
 0002:00002ae0       ??_C@_0FK@DPGAOBGA@?$CK?$CK?$CK?5Error?5allocating?5memory?5for?5@ 10067ae0     rt_logging.obj
 0002:00002b4c       ??_C@_0BI@GGDNPHLJ@?$CK?$CK?$CK?5Error?5writing?5to?5?$CFs?$AA@ 10067b4c     rt_logging.obj
 0002:00002b68       ??_C@_0CB@IBGJGELG@?$CK?$CK?$CK?5Error?5writing?5?$CFs?5due?5to?3?5?$CFs?6@ 10067b68     rt_logging.obj
 0002:00002b90       ??_C@_0CN@FLMCHCPB@?$CK?$CK?$CK?5Error?5writing?5log?5variable?5?$CF@ 10067b90     rt_logging.obj
 0002:00002bc8       ??_C@_0DH@GAJCNOJP@?$CK?$CK?$CK?5Error?5writing?5structure?5log?5@ 10067bc8     rt_logging.obj
 0002:00002c0c       ??_C@_0BD@POEALECL@?$CK?$CK?5created?5?$CFs?5?$CK?$CK?6?6?$AA@ 10067c0c     rt_logging.obj
 0002:00002c28       __real@4020000000000000    10067c28     rt_logging.obj
 0002:00002c38       __real@41dfffffffc00000    10067c38     rt_logging.obj
 0002:00002c48       __real@41efffffffe00000    10067c48     rt_logging.obj
 0002:00002c58       __real@bfbf9add3afd2773    10067c58     rt_logging.obj
 0002:00002c68       __real@c000000000000000    10067c68     rt_logging.obj
 0002:00002c80       __xmm@20202020202020202020202020202020 10067c80     rt_logging.obj
 0002:00002c94       ??_C@_0BB@HDOGPHCN@move_from_strain?$AA@ 10067c94     xpctarget.obj
 0002:00002ca8       _ptsetfilename             10067ca8     xpctarget.obj
 0002:00002cac       _xmlfile                   10067cac     xpctarget.obj
 0002:00002cb4       ??_C@_0L@CHBJKKFC@xpceSetVar?$AA@ 10067cb4     xpctarget.obj
 0002:00002cc4       ??_C@_03LADEHNAB@6?46?$AA@ 10067cc4     xpctarget.obj
 0002:00002cc8       __real@3fb999999999999a    10067cc8     xpctarget.obj
 0002:00002cd8       __real@40b3880000000000    10067cd8     xpctarget.obj
 0002:00002ce8       _move_from_strain_BIOMAP   10067ce8     appmappingData.obj
 0002:00002d6c       _move_from_strain_SBIO     10067d6c     appmappingData.obj
 0002:00002d98       _move_from_strain_LBLMAP   10067d98     appmappingData.obj
 0002:00002e1c       _move_from_strain_SLBL     10067e1c     appmappingData.obj
 0002:00002e48       _move_from_strain_SIDMAP   10067e48     appmappingData.obj
 0002:00002ed0       _move_from_strain_PTIDSMAP 10067ed0     appmappingData.obj
 0002:00002f78       _move_from_strain_PTNAMESMAP 10067f78     appmappingData.obj
 0002:00003020       _move_from_strain_SPTMAP   10068020     appmappingData.obj
 0002:00003074       _move_from_strain_dtmap    10068074     appmappingData.obj
 0002:00003090       _appInfo                   10068090     appmappingData.obj
 0002:000031a8       ??_C@_0CC@FIFFDAB@?$CFd?5input?5args?5expected?0?5?$CFd?5passe@ 100681a8     adquanserq8.obj
 0002:000031d0       ??_C@_0L@GPCJJFPH@Quanser?5Q8?$AA@ 100681d0     adquanserq8.obj
 0002:000031e0       ??_C@_0L@MDJMNKPL@Quanser?5Q4?$AA@ 100681e0     adquanserq8.obj
 0002:000031f0       ??_C@_0BI@IHCNPKCM@No?5?$CFs?5at?5bus?5?$CFd?5slot?5?$CFd?$AA@ 100681f0     adquanserq8.obj
 0002:0000320c       ??_C@_0BN@HPKICLI@?$CFs?5A?1D?5driver?5internal?5error?$AA@ 1006820c     adquanserq8.obj
 0002:00003230       __real@3f54000000000000    10068230     adquanserq8.obj
 0002:0000323c       ??_C@_0CC@DMFKNLL@VendorId?5?$DN?50x?$CFx?0?5DeviceId?5?$DN?50x?$CFx@ 1006823c     xpcruntime:xpcimports.obj
 0002:00003264       ??_C@_0DH@OHCBLNMG@Subsystem?5Device?5ID?5?$DN?50x?$CFx?6Subsy@ 10068264     xpcruntime:xpcimports.obj
 0002:000032a8       ??_C@_0BD@MMMMEFCM@Class?5Code?5?$DN?50x?$CFx?6?$AA@ 100682a8     xpcruntime:xpcimports.obj
 0002:000032c0       ??_C@_0BE@OLDDDNHM@InterruptLine?5?$DN?5?$CFd?6?$AA@ 100682c0     xpcruntime:xpcimports.obj
 0002:000032d8       ??_C@_0BF@OLKLEKBD@bus?5?$DN?5?$CFd?0?5slot?5?$DN?5?$CFd?6?$AA@ 100682d8     xpcruntime:xpcimports.obj
 0002:000032f4       ??_C@_0CE@DGLLGDFH@?5?5?5?5Phys?5?5?5Virtual?5?5?5Length?5IO?1M@ 100682f4     xpcruntime:xpcimports.obj
 0002:00003320       ??_C@_0BI@FEOPLEMG@?$CF08x?5?$CF08x?5?$CF08x?5?5?5?5?5?5?$CFc?6?$AA@ 10068320     xpcruntime:xpcimports.obj
 0002:0000333c       ??_C@_0BB@BNNCEDPC@rl32eScopeExists?$AA@ 1006833c     xpcruntime:xpcimports.obj
 0002:00003350       ??_C@_0BM@FJBFEGFG@rl32eScopeExists?5not?5found?6?$AA@ 10068350     xpcruntime:xpcimports.obj
 0002:00003374       ??_C@_0O@BNNGKJEA@rl32eDefScope?$AA@ 10068374     xpcruntime:xpcimports.obj
 0002:00003384       ??_C@_0BJ@CDNOENKA@rl32eDefScope?5not?5found?6?$AA@ 10068384     xpcruntime:xpcimports.obj
 0002:000033a4       ??_C@_0P@CKNKILDP@rl32eAddSignal?$AA@ 100683a4     xpcruntime:xpcimports.obj
 0002:000033b8       ??_C@_0BK@GMJAJBAI@rl32eAddSignal?5not?5found?6?$AA@ 100683b8     xpcruntime:xpcimports.obj
 0002:000033d8       ??_C@_0BB@LDMIHGCE@rl32eGetSignalNo?$AA@ 100683d8     xpcruntime:xpcimports.obj
 0002:000033ec       ??_C@_0BM@LGAMBAID@rl32eGetSignalNo?5not?5found?6?$AA@ 100683ec     xpcruntime:xpcimports.obj
 0002:00003410       ??_C@_0O@CFDGALBP@rl32eSetScope?$AA@ 10068410     xpcruntime:xpcimports.obj
 0002:00003420       ??_C@_0BJ@JCLHHIN@rl32eSetScope?5not?5found?6?$AA@ 10068420     xpcruntime:xpcimports.obj
 0002:00003440       ??_C@_0P@IKMCBMHH@xpceFSScopeSet?$AA@ 10068440     xpcruntime:xpcimports.obj
 0002:00003454       ??_C@_0BK@JODJPNNH@xpceFSScopeSet?5not?5found?6?$AA@ 10068454     xpcruntime:xpcimports.obj
 0002:00003474       ??_C@_0BE@DLACEEJM@rl32eSetTargetScope?$AA@ 10068474     xpcruntime:xpcimports.obj
 0002:0000348c       ??_C@_0BP@JCHFMKPJ@rl32eSetTargetScope?5not?5found?6?$AA@ 1006848c     xpcruntime:xpcimports.obj
 0002:000034b4       ??_C@_0BJ@LIDLNDHC@rl32eSetTargetScopeSigFt?$AA@ 100684b4     xpcruntime:xpcimports.obj
 0002:000034d4       ??_C@_0CE@JLGHCFHI@rl32eSetTargetScopeSigFt?5not?5fou@ 100684d4     xpcruntime:xpcimports.obj
 0002:00003500       ??_C@_0BI@JAPOIDNG@rl32eRestartAcquisition?$AA@ 10068500     xpcruntime:xpcimports.obj
 0002:0000351c       ??_C@_0CD@LLBEFFBO@rl32eRestartAcquisition?5not?5foun@ 1006851c     xpcruntime:xpcimports.obj
 0002:00003548       ??_C@_0P@IEIIADJB@xpceScopeAcqOK?$AA@ 10068548     xpcruntime:xpcimports.obj
 0002:0000355c       ??_C@_0BK@NJCKNFPN@xpceScopeAcqOK?5not?5found?6?$AA@ 1006855c     xpcruntime:xpcimports.obj
 0002:0000357c       ??_C@_0BA@IJINKAHF@xpceRegisterISR?$AA@ 1006857c     xpcruntime:xpcimports.obj
 0002:00003590       ??_C@_0BL@NNDLOEJE@xpceRegisterISR?5not?5found?6?$AA@ 10068590     xpcruntime:xpcimports.obj
 0002:000035b0       ??_C@_0BC@NLBADGKF@xpceDeRegisterISR?$AA@ 100685b0     xpcruntime:xpcimports.obj
 0002:000035c8       ??_C@_0BN@DCAIKFFD@xpceDeRegisterISR?5not?5found?6?$AA@ 100685c8     xpcruntime:xpcimports.obj
 0002:000035ec       ??_C@_07JPMEPILD@xpcInpB?$AA@ 100685ec     xpcruntime:xpcimports.obj
 0002:000035f8       ??_C@_0BD@PGABEJOL@xpcInpB?5not?5found?6?$AA@ 100685f8     xpcruntime:xpcimports.obj
 0002:00003610       ??_C@_07KIHBBOKH@xpcInpW?$AA@ 10068610     xpcruntime:xpcimports.obj
 0002:0000361c       ??_C@_0BD@FPCJFMCC@xpcInpW?5not?5found?6?$AA@ 1006861c     xpcruntime:xpcimports.obj
 0002:00003634       ??_C@_08KDIAJBOP@xpcInpDW?$AA@ 10068634     xpcruntime:xpcimports.obj
 0002:00003640       ??_C@_0BE@PIELDNIL@xpcInpDW?5not?5found?6?$AA@ 10068640     xpcruntime:xpcimports.obj
 0002:00003658       ??_C@_08PJFMOIGO@xpcOutpB?$AA@ 10068658     xpcruntime:xpcimports.obj
 0002:00003664       ??_C@_0BE@HCKNCEKF@xpcOutpB?5not?5found?6?$AA@ 10068664     xpcruntime:xpcimports.obj
 0002:0000367c       ??_C@_08MOOJAOHK@xpcOutpW?$AA@ 1006867c     xpcruntime:xpcimports.obj
 0002:00003688       ??_C@_0BE@NLIFDBGM@xpcOutpW?5not?5found?6?$AA@ 10068688     xpcruntime:xpcimports.obj
 0002:000036a0       ??_C@_09FLIEKHJG@xpcOutpDW?$AA@ 100686a0     xpcruntime:xpcimports.obj
 0002:000036ac       ??_C@_0BF@GJKLPNHB@xpcOutpDW?5not?5found?6?$AA@ 100686ac     xpcruntime:xpcimports.obj
 0002:000036c8       ??_C@_0BH@EHOLELHH@xpcReserveMemoryRegion?$AA@ 100686c8     xpcruntime:xpcimports.obj
 0002:000036e4       ??_C@_0CC@KAAAGPI@xpcReserveMemoryRegion?5not?5found@ 100686e4     xpcruntime:xpcimports.obj
 0002:0000370c       ??_C@_0BA@JGPMHGAF@rl32eShowPCIDev?$AA@ 1006870c     xpcruntime:xpcimports.obj
 0002:00003720       ??_C@_0BL@DDFFLNHI@rl32eShowPCIDev?5not?5found?6?$AA@ 10068720     xpcruntime:xpcimports.obj
 0002:00003740       ??_C@_0BB@KBCOJPFB@rl32eShowPCIInfo?$AA@ 10068740     xpcruntime:xpcimports.obj
 0002:00003754       ??_C@_0BM@IFDMAGLO@rl32eShowPCIInfo?5not?5found?6?$AA@ 10068754     xpcruntime:xpcimports.obj
 0002:00003778       ??_C@_0BA@BGPAADB@rl32eGetPCIInfo?$AA@ 10068778     xpcruntime:xpcimports.obj
 0002:0000378c       ??_C@_0BL@IGOMLDCK@rl32eGetPCIInfo?5not?5found?6?$AA@ 1006878c     xpcruntime:xpcimports.obj
 0002:000037ac       ??_C@_0BG@NJPFKFDP@rl32eGetPCIInfoAtSlot?$AA@ 100687ac     xpcruntime:xpcimports.obj
 0002:000037c8       ??_C@_0CB@BBKIPMLA@rl32eGetPCIInfoAtSlot?5not?5found?6@ 100687c8     xpcruntime:xpcimports.obj
 0002:000037f0       ??_C@_0BH@OKBOPNFG@xpceAssignPCIInterrupt?$AA@ 100687f0     xpcruntime:xpcimports.obj
 0002:0000380c       ??_C@_0CC@CDNDNJBJ@xpceAssignPCIInterrupt?5not?5found@ 1006880c     xpcruntime:xpcimports.obj
 0002:00003834       ??_C@_0BD@PCKOKHO@xpceGetSignalValue?$AA@ 10068834     xpcruntime:xpcimports.obj
 0002:0000384c       ??_C@_0BO@GCBDJHMB@xpceGetSignalValue?5not?5found?6?$AA@ 1006884c     xpcruntime:xpcimports.obj
 0002:00003870       ??_C@_0BB@BJONJAGA@xpceSetParameter?$AA@ 10068870     xpcruntime:xpcimports.obj
 0002:00003884       ??_C@_0BM@BJIKDLHA@xpceSetParameter?5not?5found?6?$AA@ 10068884     xpcruntime:xpcimports.obj
 0002:000038a8       ??_C@_0BB@GNFDFMCM@xpceGetParameter?$AA@ 100688a8     xpcruntime:xpcimports.obj
 0002:000038bc       ??_C@_0BM@POHNKBC@xpceGetParameter?5not?5found?6?$AA@ 100688bc     xpcruntime:xpcimports.obj
 0002:000038e0       ??_C@_0BB@CEIJLFCD@xpceGetParamDims?$AA@ 100688e0     xpcruntime:xpcimports.obj
 0002:000038f4       ??_C@_0BM@OABDBKAO@xpceGetParamDims?5not?5found?6?$AA@ 100688f4     xpcruntime:xpcimports.obj
 0002:00003918       ??_C@_0L@OCBLLHBM@xpceGetTET?$AA@ 10068918     xpcruntime:xpcimports.obj
 0002:00003928       ??_C@_0BG@HNOFBOB@xpceGetTET?5not?5found?6?$AA@ 10068928     xpcruntime:xpcimports.obj
 0002:00003944       ??_C@_0P@OKGNGAGH@xpcIsModelInit?$AA@ 10068944     xpcruntime:xpcimports.obj
 0002:00003958       ??_C@_0BK@DHEMLBIM@xpcIsModelInit?5not?5found?6?$AA@ 10068958     xpcruntime:xpcimports.obj
 0002:00003978       ??_C@_0BH@KJJLCAOJ@xpcAllocPhysicalMemory?$AA@ 10068978     xpcruntime:xpcimports.obj
 0002:00003994       ??_C@_0CC@MOJPNHKL@xpcAllocPhysicalMemory?5not?5found@ 10068994     xpcruntime:xpcimports.obj
 0002:000039bc       ??_C@_0BG@CBNPGAEL@xpcFreePhysicalMemory?$AA@ 100689bc     xpcruntime:xpcimports.obj
 0002:000039d8       ??_C@_0CB@PKJEBPOG@xpcFreePhysicalMemory?5not?5found?6@ 100689d8     xpcruntime:xpcimports.obj
 0002:00003a00       ??_C@_0BC@JGKNLICL@xpcGetElapsedTime?$AA@ 10068a00     xpcruntime:xpcimports.obj
 0002:00003a18       ??_C@_0BN@OEOAHCIO@xpcGetElapsedTime?5not?5found?6?$AA@ 10068a18     xpcruntime:xpcimports.obj
 0002:00003a3c       ??_C@_0M@ICBLMODA@xpcBusyWait?$AA@ 10068a3c     xpcruntime:xpcimports.obj
 0002:00003a4c       ??_C@_0BH@FBOPECBI@xpcBusyWait?5not?5found?6?$AA@ 10068a4c     xpcruntime:xpcimports.obj
 0002:00003a68       ??_C@_0N@LKKJEKKA@TBCreateSpin?$AA@ 10068a68     xpcruntime:xpcimports.obj
 0002:00003a78       ??_C@_0BI@FHKMLKOE@TBCreateSpin?5not?5found?6?$AA@ 10068a78     xpcruntime:xpcimports.obj
 0002:00003a94       ??_C@_0N@HOAJHNBD@TBDeleteSpin?$AA@ 10068a94     xpcruntime:xpcimports.obj
 0002:00003aa4       ??_C@_0BI@BKCPAAG@TBDeleteSpin?5not?5found?6?$AA@ 10068aa4     xpcruntime:xpcimports.obj
 0002:00003ac0       ??_C@_0P@DAHDDBJG@TBTakeSpinFast?$AA@ 10068ac0     xpcruntime:xpcimports.obj
 0002:00003ad4       ??_C@_0BK@NKAIBHGB@TBTakeSpinFast?5not?5found?6?$AA@ 10068ad4     xpcruntime:xpcimports.obj
 0002:00003af4       ??_C@_0P@FKNAAELA@TBGiveSpinFast?$AA@ 10068af4     xpcruntime:xpcimports.obj
 0002:00003b08       ??_C@_0BK@KGPJBJND@TBGiveSpinFast?5not?5found?6?$AA@ 10068b08     xpcruntime:xpcimports.obj
 0002:00003b28       ??_C@_0BE@IIGBFDHK@xpceCreateSemaphore?$AA@ 10068b28     xpcruntime:xpcimports.obj
 0002:00003b40       ??_C@_0BP@KFBAFFKJ@xpceCreateSemaphore?5not?5found?6?$AA@ 10068b40     xpcruntime:xpcimports.obj
 0002:00003b68       ??_C@_0BC@IFNIONKJ@xpceWaitSemaphore?$AA@ 10068b68     xpcruntime:xpcimports.obj
 0002:00003b80       ??_C@_0BN@NMFAADIO@xpceWaitSemaphore?5not?5found?6?$AA@ 10068b80     xpcruntime:xpcimports.obj
 0002:00003ba4       ??_C@_0BE@NNDIOBKE@xpceSignalSemaphore?$AA@ 10068ba4     xpcruntime:xpcimports.obj
 0002:00003bbc       ??_C@_0BP@LBANMHJP@xpceSignalSemaphore?5not?5found?6?$AA@ 10068bbc     xpcruntime:xpcimports.obj
 0002:00003be4       ??_C@_0BE@MEBEKOIM@xpceDeleteSemaphore?$AA@ 10068be4     xpcruntime:xpcimports.obj
 0002:00003bfc       ??_C@_0BP@OFNCKOJH@xpceDeleteSemaphore?5not?5found?6?$AA@ 10068bfc     xpcruntime:xpcimports.obj
 0002:00003c24       ??_C@_0BD@MFNDMBOF@FindUsbVideoDevice?$AA@ 10068c24     xpcruntime:xpcimports.obj
 0002:00003c3c       ??_C@_0BO@POKLDHMI@FindUsbVideoDevice?5not?5found?6?$AA@ 10068c3c     xpcruntime:xpcimports.obj
 0002:00003c60       ??_C@_0BA@PLPAPNAB@GetVideoConfigs?$AA@ 10068c60     xpcruntime:xpcimports.obj
 0002:00003c74       ??_C@_0BL@DALDHKHC@GetVideoConfigs?5not?5found?6?$AA@ 10068c74     xpcruntime:xpcimports.obj
 0002:00003c94       ??_C@_0L@GBAEMHMH@StartVideo?$AA@ 10068c94     xpcruntime:xpcimports.obj
 0002:00003ca4       ??_C@_0BG@HDCELEBP@StartVideo?5not?5found?6?$AA@ 10068ca4     xpcruntime:xpcimports.obj
 0002:00003cc0       ??_C@_0BA@FDNPOCLN@ReadFrameBuffer?$AA@ 10068cc0     xpcruntime:xpcimports.obj
 0002:00003cd4       ??_C@_0BL@JHGHPNBI@ReadFrameBuffer?5not?5found?6?$AA@ 10068cd4     xpcruntime:xpcimports.obj
 0002:00003cf4       ??_C@_09FAHCLKAG@StopVideo?$AA@ 10068cf4     xpcruntime:xpcimports.obj
 0002:00003d00       ??_C@_0BF@NKGKKADL@StopVideo?5not?5found?6?$AA@ 10068d00     xpcruntime:xpcimports.obj
 0002:00003d1c       ??_C@_0O@MCPKDLLL@ConvertUImage?$AA@ 10068d1c     xpcruntime:xpcimports.obj
 0002:00003d2c       ??_C@_0BJ@PHJKOAFL@ConvertUImage?5not?5found?6?$AA@ 10068d2c     xpcruntime:xpcimports.obj
 0002:00003d4c       ??_C@_0BD@NKCBPBJJ@CreateVideoDisplay?$AA@ 10068d4c     xpcruntime:xpcimports.obj
 0002:00003d64       ??_C@_0BO@HPPLLNFP@CreateVideoDisplay?5not?5found?6?$AA@ 10068d64     xpcruntime:xpcimports.obj
 0002:00003d88       ??_C@_0BE@KJCKGPHA@DestroyVideoDisplay?$AA@ 10068d88     xpcruntime:xpcimports.obj
 0002:00003da0       ??_C@_0BP@FMGLJAIJ@DestroyVideoDisplay?5not?5found?6?$AA@ 10068da0     xpcruntime:xpcimports.obj
 0002:00003dc8       ??_C@_0BC@HCMIMIDN@StartVideoDisplay?$AA@ 10068dc8     xpcruntime:xpcimports.obj
 0002:00003de0       ??_C@_0BN@EFIEBGOO@StartVideoDisplay?5not?5found?6?$AA@ 10068de0     xpcruntime:xpcimports.obj
 0002:00003e04       ??_C@_0BB@JBBLMILG@StopVideoDisplay?$AA@ 10068e04     xpcruntime:xpcimports.obj
 0002:00003e18       ??_C@_0BM@DBJBPLEL@StopVideoDisplay?5not?5found?6?$AA@ 10068e18     xpcruntime:xpcimports.obj
 0002:00003e3c       ??_C@_0M@MFJEGMHC@StreamVideo?$AA@ 10068e3c     xpcruntime:xpcimports.obj
 0002:00003e4c       ??_C@_0BH@OINCDMLA@StreamVideo?5not?5found?6?$AA@ 10068e4c     xpcruntime:xpcimports.obj
 0002:00003e68       ??_C@_0N@IGGLCIGE@xpceaddEvent?$AA@ 10068e68     xpcruntime:xpcimports.obj
 0002:00003e78       ??_C@_0BI@NHJNFMKH@xpceaddEvent?5not?5found?6?$AA@ 10068e78     xpcruntime:xpcimports.obj
 0002:00003e94       ??_C@_0BB@HDPOIJAB@xpceDAQPostEvent?$AA@ 10068e94     xpcruntime:xpcimports.obj
 0002:00003ea8       ??_C@_0BM@IHANBKGN@xpceDAQPostEvent?5not?5found?6?$AA@ 10068ea8     xpcruntime:xpcimports.obj
 0002:00003ecc       ??_C@_0BH@MBACMOD@xpceDAQUpdateTimeStamp?$AA@ 10068ecc     xpcruntime:xpcimports.obj
 0002:00003ee8       ??_C@_0CC@DAKBBINL@xpceDAQUpdateTimeStamp?5not?5found@ 10068ee8     xpcruntime:xpcimports.obj
 0002:00003f10       ??_C@_0BN@HJOHIFOM@xpceGetIntTimerGranularityNS?$AA@ 10068f10     xpcruntime:xpcimports.obj
 0002:00003f34       ??_C@_0CI@OADDPMKB@xpceGetIntTimerGranularityNS?5not@ 10068f34     xpcruntime:xpcimports.obj
 0002:00003f64       ??_C@_0BG@CCHICKPN@slrteSetStepSizeDelta?$AA@ 10068f64     xpcruntime:xpcimports.obj
 0002:00003f80       ??_C@_0CB@MKHINEIJ@slrteSetStepSizeDelta?5not?5found?6@ 10068f80     xpcruntime:xpcimports.obj
 0002:00003fa8       ??_C@_0BI@CLNBLDKJ@slrteGetCurrentStepSize?$AA@ 10068fa8     xpcruntime:xpcimports.obj
 0002:00003fc4       ??_C@_0CD@GIOJPGJA@slrteGetCurrentStepSize?5not?5foun@ 10068fc4     xpcruntime:xpcimports.obj
 0002:00003ff0       ??_C@_0BE@FCLCBOC@registerPTPTimeRead?$AA@ 10068ff0     xpcruntime:xpcimports.obj
 0002:00004008       ??_C@_0BP@LHPKAJIP@registerPTPTimeRead?5not?5found?6?$AA@ 10069008     xpcruntime:xpcimports.obj
 0002:00004030       ??_C@_0BG@KIGCDDJI@unRegisterPTPTimeRead?$AA@ 10069030     xpcruntime:xpcimports.obj
 0002:0000404c       ??_C@_0CB@MLFFBFCM@unRegisterPTPTimeRead?5not?5found?6@ 1006904c     xpcruntime:xpcimports.obj
 0002:00004074       ??_C@_0BB@IPMDDBHK@slTestInitialize?$AA@ 10069074     xpcruntime:xpcimports.obj
 0002:00004088       ??_C@_0BM@LAJFCCJH@slTestInitialize?5not?5found?6?$AA@ 10069088     xpcruntime:xpcimports.obj
 0002:000040ac       ??_C@_0BF@OOMPMEBC@slTestLogAssessments?$AA@ 100690ac     xpcruntime:xpcimports.obj
 0002:000040c8       ??_C@_0CA@FGJCEBAG@slTestLogAssessments?5not?5found?6?$AA@ 100690c8     xpcruntime:xpcimports.obj
 0002:000040f0       ??_C@_0BB@HJHKONHO@slTestEvalOnFail?$AA@ 100690f0     xpcruntime:xpcimports.obj
 0002:00004104       ??_C@_0BM@JIKCFFNJ@slTestEvalOnFail?5not?5found?6?$AA@ 10069104     xpcruntime:xpcimports.obj
 0002:00004128       ??_C@_0BA@LBHLABFP@slTestTerminate?$AA@ 10069128     xpcruntime:xpcimports.obj
 0002:0000413c       ??_C@_0BL@EMFGKAPA@slTestTerminate?5not?5found?6?$AA@ 1006913c     xpcruntime:xpcimports.obj
 0002:0000415c       ??_C@_0BE@JPNPBBEO@slTestRegAssessment?$AA@ 1006915c     xpcruntime:xpcimports.obj
 0002:00004174       ??_C@_0BP@FBDEJJJH@slTestRegAssessment?5not?5found?6?$AA@ 10069174     xpcruntime:xpcimports.obj
 0002:0000419c       ??_C@_0O@NCLGDNIB@slrteSetupMSI?$AA@ 1006919c     xpcruntime:xpcimports.obj
 0002:000041ac       ??_C@_0BJ@HEFMECLM@slrteSetupMSI?5not?5found?6?$AA@ 100691ac     xpcruntime:xpcimports.obj
 0002:000041cc       ??_C@_0BH@BPOLALHD@slrtGetCRBScratchSpace?$AA@ 100691cc     xpcruntime:xpcimports.obj
 0002:000041e8       ??_C@_0CC@KCKAJKKJ@slrtGetCRBScratchSpace?5not?5found@ 100691e8     xpcruntime:xpcimports.obj
 0002:00004210       ??_C@_0BC@MKFDAKOL@slrtGetSgCRBSpace?$AA@ 10069210     xpcruntime:xpcimports.obj
 0002:00004228       ??_C@_0BN@JDPHPLHL@slrtGetSgCRBSpace?5not?5found?6?$AA@ 10069228     xpcruntime:xpcimports.obj
 0002:0000424c       ??_C@_0P@EPAPKLIF@slrtfsOpenFile?$AA@ 1006924c     xpcruntime:xpcimports.obj
 0002:00004260       ??_C@_0BK@FIHCBOHG@slrtfsOpenFile?5not?5found?6?$AA@ 10069260     xpcruntime:xpcimports.obj
 0002:00004280       ??_C@_0BA@LILAFDDL@slrtfsCloseFile?$AA@ 10069280     xpcruntime:xpcimports.obj
 0002:00004294       ??_C@_0BL@DEGHJFIB@slrtfsCloseFile?5not?5found?6?$AA@ 10069294     xpcruntime:xpcimports.obj
 0002:000042b4       ??_C@_0BC@OKMJDIEH@slrtfsWriteToFile?$AA@ 100692b4     xpcruntime:xpcimports.obj
 0002:000042cc       ??_C@_0BN@KCFLCLAH@slrtfsWriteToFile?5not?5found?6?$AA@ 100692cc     xpcruntime:xpcimports.obj
 0002:000042f0       ??_C@_0BK@GIPNFFFF@slrtfsGetFileErrorMessage?$AA@ 100692f0     xpcruntime:xpcimports.obj
 0002:00004310       ??_C@_0CF@BCBLMKLE@slrtfsGetFileErrorMessage?5not?5fo@ 10069310     xpcruntime:xpcimports.obj
 0002:0000433c       ??_C@_0BD@ICBOKMK@slrtfsGetFileError?$AA@ 1006933c     xpcruntime:xpcimports.obj
 0002:00004354       ??_C@_0BO@FNBANAE@slrtfsGetFileError?5not?5found?6?$AA@ 10069354     xpcruntime:xpcimports.obj
 0002:00004378       ??_C@_0BE@PPAJMHJP@slrtfsOpenFileAsync?$AA@ 10069378     xpcruntime:xpcimports.obj
 0002:00004390       ??_C@_0BP@HKBMMJOK@slrtfsOpenFileAsync?5not?5found?6?$AA@ 10069390     xpcruntime:xpcimports.obj
 0002:000043b8       ??_C@_0BF@IGNDIBPF@slrtfsCloseFileAsync?$AA@ 100693b8     xpcruntime:xpcimports.obj
 0002:000043d4       ??_C@_0CA@GJPFDBKN@slrtfsCloseFileAsync?5not?5found?6?$AA@ 100693d4     xpcruntime:xpcimports.obj
 0002:000043fc       ??_C@_0BE@IOLEBNB@slrtfsGetFileStatus?$AA@ 100693fc     xpcruntime:xpcimports.obj
 0002:00004414       ??_C@_0BP@PEFHDGHL@slrtfsGetFileStatus?5not?5found?6?$AA@ 10069414     xpcruntime:xpcimports.obj
 0002:0000443c       ??_C@_0M@HKIJIMG@slrtfsFread?$AA@ 1006943c     xpcruntime:xpcimports.obj
 0002:0000444c       ??_C@_0BH@OOKBGONO@slrtfsFread?5not?5found?6?$AA@ 1006944c     xpcruntime:xpcimports.obj
 0002:00004468       ??_C@_0BE@OGCMPLAP@slrtGetDefaultDrive?$AA@ 10069468     xpcruntime:xpcimports.obj
 0002:00004480       ??_C@_0BP@HKFGLHOE@slrtGetDefaultDrive?5not?5found?6?$AA@ 10069480     xpcruntime:xpcimports.obj
 0002:000044a8       ??_C@_0N@NAJIKFFI@slrtLogEvent?$AA@ 100694a8     xpcruntime:xpcimports.obj
 0002:000044b8       ??_C@_0BI@NKCEACND@slrtLogEvent?5not?5found?6?$AA@ 100694b8     xpcruntime:xpcimports.obj
 0002:000044d4       ??_C@_0N@IDKFJOHI@getlasterror?$AA@ 100694d4     xpcruntime:xpcimports.obj
 0002:000044e4       ??_C@_0BI@MIHMCHGL@getlasterror?5not?5found?6?$AA@ 100694e4     xpcruntime:xpcimports.obj
 0002:00004500       ??_C@_0P@OKHGKJKN@geterrorstring?$AA@ 10069500     xpcruntime:xpcimports.obj
 0002:00004514       ??_C@_0BK@NOHFDMLP@geterrorstring?5not?5found?6?$AA@ 10069514     xpcruntime:xpcimports.obj
 0002:00004534       ??_C@_0BD@HNFFKMGJ@slrtGetCPUTCelsius?$AA@ 10069534     xpcruntime:xpcimports.obj
 0002:0000454c       ??_C@_0BO@LHBFKLIH@slrtGetCPUTCelsius?5not?5found?6?$AA@ 1006954c     xpcruntime:xpcimports.obj
 0002:00004570       ??_C@_0M@OONCNCLM@slrtWarning?$AA@ 10069570     xpcruntime:xpcimports.obj
 0002:00004580       ??_C@_0BH@ICKGIEMB@slrtWarning?5not?5found?6?$AA@ 10069580     xpcruntime:xpcimports.obj
 0002:0000459c       ??_C@_0N@EAAOMIIE@isUsedByRTIP?$AA@ 1006959c     xpcruntime:xpcimports.obj
 0002:000045ac       ??_C@_0BI@GNHHHICK@isUsedByRTIP?5not?5found?6?$AA@ 100695ac     xpcruntime:xpcimports.obj
 0002:000045c8       ??_C@_0BC@HLDKJAG@SetIPTASKPriority?$AA@ 100695c8     xpcruntime:xpcimports.obj
 0002:000045e0       ??_C@_0BN@OGKMHHAE@SetIPTASKPriority?5not?5found?6?$AA@ 100695e0     xpcruntime:xpcimports.obj
 0002:00004604       ??_C@_0O@LHENMBDD@OpenInterface?$AA@ 10069604     xpcruntime:xpcimports.obj
 0002:00004614       ??_C@_0BJ@PFGDBKHB@OpenInterface?5not?5found?6?$AA@ 10069614     xpcruntime:xpcimports.obj
 0002:00004634       ??_C@_0P@IINFELKD@CloseInterface?$AA@ 10069634     xpcruntime:xpcimports.obj
 0002:00004648       ??_C@_0BK@PAPDNDBK@CloseInterface?5not?5found?6?$AA@ 10069648     xpcruntime:xpcimports.obj
 0002:00004668       ??_C@_05LEFIAAOI@SetIP?$AA@ 10069668     xpcruntime:xpcimports.obj
 0002:00004670       ??_C@_0BB@CGLIBAMM@SetIP?5not?5found?6?$AA@ 10069670     xpcruntime:xpcimports.obj
 0002:00004684       ??_C@_0BA@HIJJHHMD@AddGatewayRoute?$AA@ 10069684     xpcruntime:xpcimports.obj
 0002:00004698       ??_C@_0BL@BFCFMDMN@AddGatewayRoute?5not?5found?6?$AA@ 10069698     xpcruntime:xpcimports.obj
 0002:000046b8       ??_C@_0M@PHMABFPI@DeleteRoute?$AA@ 100696b8     xpcruntime:xpcimports.obj
 0002:000046c8       ??_C@_0BH@JPJGLLID@DeleteRoute?5not?5found?6?$AA@ 100696c8     xpcruntime:xpcimports.obj
 0002:000046e4       ??_C@_0BA@FCDIMKIJ@GetHostTarIPAdd?$AA@ 100696e4     xpcruntime:xpcimports.obj
 0002:000046f8       ??_C@_0BL@MBKDGKBO@GetHostTarIPAdd?5not?5found?6?$AA@ 100696f8     xpcruntime:xpcimports.obj
 0002:00004718       ??_C@_0M@HPMIPIBI@GetDCUUsage?$AA@ 10069718     xpcruntime:xpcimports.obj
 0002:00004728       ??_C@_0BH@EBLJKCJC@GetDCUUsage?5not?5found?6?$AA@ 10069728     xpcruntime:xpcimports.obj
 0002:00004744       ??_C@_06MPKMECK@accept?$AA@ 10069744     xpcruntime:xpcimports.obj
 0002:0000474c       ??_C@_0BC@GBGIEMNO@accept?5not?5found?6?$AA@ 1006974c     xpcruntime:xpcimports.obj
 0002:00004764       ??_C@_04NPNJNMMP@bind?$AA@ 10069764     xpcruntime:xpcimports.obj
 0002:0000476c       ??_C@_0BA@DAJNENLO@bind?5not?5found?6?$AA@ 1006976c     xpcruntime:xpcimports.obj
 0002:00004780       ??_C@_0L@CKHNIFCM@setsockopt?$AA@ 10069780     xpcruntime:xpcimports.obj
 0002:00004790       ??_C@_0BG@MFIIOMFE@setsockopt?5not?5found?6?$AA@ 10069790     xpcruntime:xpcimports.obj
 0002:000047ac       ??_C@_0M@ODDJDCDK@closesocket?$AA@ 100697ac     xpcruntime:xpcimports.obj
 0002:000047bc       ??_C@_0BH@JHGHMIL@closesocket?5not?5found?6?$AA@ 100697bc     xpcruntime:xpcimports.obj
 0002:000047d8       ??_C@_07KAIBNCHO@connect?$AA@ 100697d8     xpcruntime:xpcimports.obj
 0002:000047e4       ??_C@_0BD@MKLLMBM@connect?5not?5found?6?$AA@ 100697e4     xpcruntime:xpcimports.obj
 0002:000047fc       ??_C@_0M@PBPOCKDG@ioctlsocket?$AA@ 100697fc     xpcruntime:xpcimports.obj
 0002:0000480c       ??_C@_0BH@NFCNHHIH@ioctlsocket?5not?5found?6?$AA@ 1006980c     xpcruntime:xpcimports.obj
 0002:00004828       ??_C@_06OODDLKLE@listen?$AA@ 10069828     xpcruntime:xpcimports.obj
 0002:00004830       ??_C@_0BC@NHBILEKI@listen?5not?5found?6?$AA@ 10069830     xpcruntime:xpcimports.obj
 0002:00004848       ??_C@_08HMBBGFHE@recvfrom?$AA@ 10069848     xpcruntime:xpcimports.obj
 0002:00004854       ??_C@_0BE@BJAJFFLF@recvfrom?5not?5found?6?$AA@ 10069854     xpcruntime:xpcimports.obj
 0002:0000486c       ??_C@_06MEPBGKEC@sendto?$AA@ 1006986c     xpcruntime:xpcimports.obj
 0002:00004874       ??_C@_0BC@BHPIMDJO@sendto?5not?5found?6?$AA@ 10069874     xpcruntime:xpcimports.obj
 0002:0000488c       ??_C@_09JKBDEEOB@inet_addr?$AA@ 1006988c     xpcruntime:xpcimports.obj
 0002:00004898       ??_C@_0BF@HKJPGECN@inet_addr?5not?5found?6?$AA@ 10069898     xpcruntime:xpcimports.obj
 0002:000048b4       ??_C@_06HBELJPBO@socket?$AA@ 100698b4     xpcruntime:xpcimports.obj
 0002:000048bc       ??_C@_0BC@NAGFFJGA@socket?5not?5found?6?$AA@ 100698bc     xpcruntime:xpcimports.obj
 0002:000048d4       ??_C@_09ICJIFGNC@GetSocket?$AA@ 100698d4     xpcruntime:xpcimports.obj
 0002:000048e0       ??_C@_0BF@KDBCKMOJ@GetSocket?5not?5found?6?$AA@ 100698e0     xpcruntime:xpcimports.obj
 0002:000048fc       ??_C@_0P@KJEGJMJI@GetSocketState?$AA@ 100698fc     xpcruntime:xpcimports.obj
 0002:00004910       ??_C@_0BK@IALBJHEB@GetSocketState?5not?5found?6?$AA@ 10069910     xpcruntime:xpcimports.obj
 0002:00004930       ??_C@_0L@MEAJHNHB@SocketSend?$AA@ 10069930     xpcruntime:xpcimports.obj
 0002:00004940       ??_C@_0BG@EOCMBFJA@SocketSend?5not?5found?6?$AA@ 10069940     xpcruntime:xpcimports.obj
 0002:0000495c       ??_C@_0O@PFPCLEMF@SocketReceive?$AA@ 1006995c     xpcruntime:xpcimports.obj
 0002:0000496c       ??_C@_0BJ@HIBADDFO@SocketReceive?5not?5found?6?$AA@ 1006996c     xpcruntime:xpcimports.obj
 0002:0000498c       ??_C@_0BD@OOGFNAIK@CreateServerSocket?$AA@ 1006998c     xpcruntime:xpcimports.obj
 0002:000049a4       ??_C@_0BO@GKIJHIPH@CreateServerSocket?5not?5found?6?$AA@ 100699a4     xpcruntime:xpcimports.obj
 0002:000049c8       ??_C@_0BB@KGHJGFFO@OpenServerListen?$AA@ 100699c8     xpcruntime:xpcimports.obj
 0002:000049dc       ??_C@_0BM@NFMMLIO@OpenServerListen?5not?5found?6?$AA@ 100699dc     xpcruntime:xpcimports.obj
 0002:00004a00       ??_C@_0BE@BAJLDJAH@ConnectServerSocket?$AA@ 10069a00     xpcruntime:xpcimports.obj
 0002:00004a18       ??_C@_0BP@KJNODIKE@ConnectServerSocket?5not?5found?6?$AA@ 10069a18     xpcruntime:xpcimports.obj
 0002:00004a40       ??_C@_0BC@PLKKJDIM@CloseServerSocket?$AA@ 10069a40     xpcruntime:xpcimports.obj
 0002:00004a58       ??_C@_0BN@KEJEPNMB@CloseServerSocket?5not?5found?6?$AA@ 10069a58     xpcruntime:xpcimports.obj
 0002:00004a7c       ??_C@_0BD@MCLPKCPP@CreateClientSocket?$AA@ 10069a7c     xpcruntime:xpcimports.obj
 0002:00004a94       ??_C@_0BO@DILAGPFN@CreateClientSocket?5not?5found?6?$AA@ 10069a94     xpcruntime:xpcimports.obj
 0002:00004ab8       ??_C@_0BB@DAPKNNLG@BindClientSocket?$AA@ 10069ab8     xpcruntime:xpcimports.obj
 0002:00004acc       ??_C@_0BM@LLLMMDFN@BindClientSocket?5not?5found?6?$AA@ 10069acc     xpcruntime:xpcimports.obj
 0002:00004af0       ??_C@_0BE@DMEBELHC@ConnectClientSocket?$AA@ 10069af0     xpcruntime:xpcimports.obj
 0002:00004b08       ??_C@_0BP@PLOHCPAO@ConnectClientSocket?5not?5found?6?$AA@ 10069b08     xpcruntime:xpcimports.obj
 0002:00004b30       ??_C@_0BC@NHHAOBPJ@CloseClientSocket?$AA@ 10069b30     xpcruntime:xpcimports.obj
 0002:00004b48       ??_C@_0BN@PGKNOKGL@CloseClientSocket?5not?5found?6?$AA@ 10069b48     xpcruntime:xpcimports.obj
 0002:00004c18       __pDefaultRawDllMain       10069c18     LIBCMT:dll_dllmain.obj
 0002:00004c18       __pRawDllMain              10069c18     LIBCMT:dll_dllmain.obj
 0002:00004c30       ??_C@_1BC@DNHGCMLG@?$AAa?$AAd?$AAv?$AAa?$AAp?$AAi?$AA3?$AA2?$AA?$AA@ 10069c30     libvcruntime:winapi_downlevel.obj
 0002:00004c48       ??_C@_1DM@KHCHBNEB@?$AAa?$AAp?$AAi?$AA?9?$AAm?$AAs?$AA?9?$AAw?$AAi?$AAn?$AA?9?$AAc?$AAo?$AAr?$AAe?$AA?9?$AAf?$AAi?$AAb?$AAe?$AAr?$AAs?$AA?9?$AAl?$AA1?$AA?9?$AA1?$AA?9?$AA1?$AA?$AA@ 10069c48     libvcruntime:winapi_downlevel.obj
 0002:00004c90       ??_C@_1DK@LPPGFMPP@?$AAa?$AAp?$AAi?$AA?9?$AAm?$AAs?$AA?9?$AAw?$AAi?$AAn?$AA?9?$AAc?$AAo?$AAr?$AAe?$AA?9?$AAs?$AAy?$AAn?$AAc?$AAh?$AA?9?$AAl?$AA1?$AA?9?$AA2?$AA?9?$AA0?$AA?$AA@ 10069c90     libvcruntime:winapi_downlevel.obj
 0002:00004cd8       ??_C@_1BC@GDMECMAK@?$AAk?$AAe?$AAr?$AAn?$AAe?$AAl?$AA3?$AA2?$AA?$AA@ 10069cd8     libvcruntime:winapi_downlevel.obj
 0002:00004cf4       ??_C@_0O@BAMBGLIE@EventRegister?$AA@ 10069cf4     libvcruntime:winapi_downlevel.obj
 0002:00004d08       ??_C@_0BE@BJEEGHGK@EventSetInformation?$AA@ 10069d08     libvcruntime:winapi_downlevel.obj
 0002:00004d24       ??_C@_0BA@FAKLIPIC@EventUnregister?$AA@ 10069d24     libvcruntime:winapi_downlevel.obj
 0002:00004d3c       ??_C@_0BD@PKLHJPHD@EventWriteTransfer?$AA@ 10069d3c     libvcruntime:winapi_downlevel.obj
 0002:00004d60       ??_C@_08KNHFBNJ@FlsAlloc?$AA@ 10069d60     libvcruntime:winapi_downlevel.obj
 0002:00004d78       ??_C@_07PEJMOBNF@FlsFree?$AA@ 10069d78     libvcruntime:winapi_downlevel.obj
 0002:00004d90       ??_C@_0M@GDNOONDI@FlsGetValue?$AA@ 10069d90     libvcruntime:winapi_downlevel.obj
 0002:00004dac       ??_C@_0M@JCPCPOEF@FlsSetValue?$AA@ 10069dac     libvcruntime:winapi_downlevel.obj
 0002:00004dc8       ??_C@_0BM@HCFOFFN@InitializeCriticalSectionEx?$AA@ 10069dc8     libvcruntime:winapi_downlevel.obj
 0002:00004fd0       ??_C@_08EHJDFFNH@__based?$CI?$AA@ 10069fd0     libvcruntime:undname.obj
 0002:00004fdc       ??_C@_07KOLFKCDI@__cdecl?$AA@ 10069fdc     libvcruntime:undname.obj
 0002:00004fe8       ??_C@_08GHMPAG@__pascal?$AA@ 10069fe8     libvcruntime:undname.obj
 0002:00004ff4       ??_C@_09IFJBGAPI@__stdcall?$AA@ 10069ff4     libvcruntime:undname.obj
 0002:00005000       ??_C@_0L@NPHFGOKO@__thiscall?$AA@ 1006a000     libvcruntime:undname.obj
 0002:00005010       ??_C@_0L@JMKHOMEK@__fastcall?$AA@ 1006a010     libvcruntime:undname.obj
 0002:00005020       ??_C@_0N@BCKKPABJ@__vectorcall?$AA@ 1006a020     libvcruntime:undname.obj
 0002:00005030       ??_C@_09HIJEGCPM@__clrcall?$AA@ 1006a030     libvcruntime:undname.obj
 0002:0000503c       ??_C@_06GHPCKEAG@__eabi?$AA@ 1006a03c     libvcruntime:undname.obj
 0002:00005044       ??_C@_07JOMMBBKO@__ptr64?$AA@ 1006a044     libvcruntime:undname.obj
 0002:00005050       ??_C@_0L@PILCLIHE@__restrict?$AA@ 1006a050     libvcruntime:undname.obj
 0002:00005060       ??_C@_0M@GFIIJFMG@__unaligned?$AA@ 1006a060     libvcruntime:undname.obj
 0002:00005070       ??_C@_09DHDLOLLB@restrict?$CI?$AA@ 1006a070     libvcruntime:undname.obj
 0002:0000507c       ??_C@_04NIHEBCM@?5new?$AA@ 1006a07c     libvcruntime:undname.obj
 0002:00005084       ??_C@_07FPCDHGMM@?5delete?$AA@ 1006a084     libvcruntime:undname.obj
 0002:00005090       ??_C@_01NEMOKFLO@?$DN?$AA@ 1006a090     libvcruntime:undname.obj
 0002:00005094       ??_C@_02GPIOPFAK@?$DO?$DO?$AA@ 1006a094     libvcruntime:undname.obj
 0002:00005098       ??_C@_02FODMEDOG@?$DM?$DM?$AA@ 1006a098     libvcruntime:undname.obj
 0002:0000509c       ??_C@_01DCLJPIOD@?$CB?$AA@ 1006a09c     libvcruntime:undname.obj
 0002:000050a0       ??_C@_02EGOFBIJA@?$DN?$DN?$AA@ 1006a0a0     libvcruntime:undname.obj
 0002:000050a4       ??_C@_02FDNJECIE@?$CB?$DN?$AA@ 1006a0a4     libvcruntime:undname.obj
 0002:000050a8       ??_C@_02GPECMEKF@?$FL?$FN?$AA@ 1006a0a8     libvcruntime:undname.obj
 0002:000050ac       ??_C@_08LHJFAFGD@operator?$AA@ 1006a0ac     libvcruntime:undname.obj
 0002:000050b8       ??_C@_02HBOOOICD@?9?$DO?$AA@ 1006a0b8     libvcruntime:undname.obj
 0002:000050bc       ??_C@_01NBENCBCI@?$CK?$AA@ 1006a0bc     libvcruntime:undname.obj
 0002:000050c0       ??_C@_02ECNGHCIF@?$CL?$CL?$AA@ 1006a0c0     libvcruntime:undname.obj
 0002:000050c4       ??_C@_02BAABKJLB@?9?9?$AA@ 1006a0c4     libvcruntime:undname.obj
 0002:000050c8       ??_C@_01JOAMLHOP@?9?$AA@   1006a0c8     libvcruntime:undname.obj
 0002:000050cc       ??_C@_01MIFGBAGJ@?$CL?$AA@ 1006a0cc     libvcruntime:undname.obj
 0002:000050d0       ??_C@_01HNPIGOCE@?$CG?$AA@ 1006a0d0     libvcruntime:undname.obj
 0002:000050d4       ??_C@_03MNHNFDLC@?9?$DO?$CK?$AA@ 1006a0d4     libvcruntime:undname.obj
 0002:000050d8       ??_C@_01KMDKNFGN@?1?$AA@   1006a0d8     libvcruntime:undname.obj
 0002:000050dc       ??_C@_01FGNFDNOH@?$CF?$AA@ 1006a0dc     libvcruntime:undname.obj
 0002:000050e0       ??_C@_01MNNFJEPP@?$DM?$AA@ 1006a0e0     libvcruntime:undname.obj
 0002:000050e4       ??_C@_02EHCHHCKH@?$DM?$DN?$AA@ 1006a0e4     libvcruntime:undname.obj
 0002:000050e8       ??_C@_01PPODPGHN@?$DO?$AA@ 1006a0e8     libvcruntime:undname.obj
 0002:000050ec       ??_C@_02EEKDKGMJ@?$DO?$DN?$AA@ 1006a0ec     libvcruntime:undname.obj
 0002:000050f0       ??_C@_01IHBHIGKO@?0?$AA@   1006a0f0     libvcruntime:undname.obj
 0002:000050f4       ??_C@_02HCKGKOFO@?$CI?$CJ?$AA@ 1006a0f4     libvcruntime:undname.obj
 0002:000050f8       ??_C@_01PJKLJHI@?$HO?$AA@  1006a0f8     libvcruntime:undname.obj
 0002:000050fc       ??_C@_01JKBOJNNK@?$FO?$AA@ 1006a0fc     libvcruntime:undname.obj
 0002:00005100       ??_C@_01DNKMNLPK@?$HM?$AA@ 1006a100     libvcruntime:undname.obj
 0002:00005104       ??_C@_02PPKAJPJL@?$CG?$CG?$AA@ 1006a104     libvcruntime:undname.obj
 0002:00005108       ??_C@_02NONPIBCD@?$HM?$HM?$AA@ 1006a108     libvcruntime:undname.obj
 0002:0000510c       ??_C@_02FPIMKNGF@?$CK?$DN?$AA@ 1006a10c     libvcruntime:undname.obj
 0002:00005110       ??_C@_02FOEOMHFC@?$CL?$DN?$AA@ 1006a110     libvcruntime:undname.obj
 0002:00005114       ??_C@_02FKMDLLOA@?9?$DN?$AA@ 1006a114     libvcruntime:undname.obj
 0002:00005118       ??_C@_02FJEHGPIO@?1?$DN?$AA@ 1006a118     libvcruntime:undname.obj
 0002:0000511c       ??_C@_02FENAOKFI@?$CF?$DN?$AA@ 1006a11c     libvcruntime:undname.obj
 0002:00005120       ??_C@_03IKFCCPFF@?$DO?$DO?$DN?$AA@ 1006a120     libvcruntime:undname.obj
 0002:00005124       ??_C@_03CDNPDDLA@?$DM?$DM?$DN?$AA@ 1006a124     libvcruntime:undname.obj
 0002:00005128       ??_C@_02FGJGFEAB@?$CG?$DN?$AA@ 1006a128     libvcruntime:undname.obj
 0002:0000512c       ??_C@_02DHLNPPGH@?$HM?$DN?$AA@ 1006a12c     libvcruntime:undname.obj
 0002:00005130       ??_C@_02MHEGNOJ@?$FO?$DN?$AA@ 1006a130     libvcruntime:undname.obj
 0002:00005134       ??_C@_09IFPLHPGF@?$GAvftable?8?$AA@ 1006a134     libvcruntime:undname.obj
 0002:00005140       ??_C@_09BLBHBJP@?$GAvbtable?8?$AA@ 1006a140     libvcruntime:undname.obj
 0002:0000514c       ??_C@_07FEEIOKP@?$GAvcall?8?$AA@ 1006a14c     libvcruntime:undname.obj
 0002:00005158       ??_C@_08LLFFHHDJ@?$GAtypeof?8?$AA@ 1006a158     libvcruntime:undname.obj
 0002:00005164       ??_C@_0BF@KDPPACIK@?$GAlocal?5static?5guard?8?$AA@ 1006a164     libvcruntime:undname.obj
 0002:00005180       ??_C@_08OBABFOLI@?$GAstring?8?$AA@ 1006a180     libvcruntime:undname.obj
 0002:0000518c       ??_C@_0BD@JDLKDPAB@?$GAvbase?5destructor?8?$AA@ 1006a18c     libvcruntime:undname.obj
 0002:000051a4       ??_C@_0BN@DEGPLNFK@?$GAvector?5deleting?5destructor?8?$AA@ 1006a1a4     libvcruntime:undname.obj
 0002:000051c8       ??_C@_0BO@OBMKPJIG@?$GAdefault?5constructor?5closure?8?$AA@ 1006a1c8     libvcruntime:undname.obj
 0002:000051ec       ??_C@_0BN@IMDCHIKM@?$GAscalar?5deleting?5destructor?8?$AA@ 1006a1ec     libvcruntime:undname.obj
 0002:00005210       ??_C@_0BO@PFGOCPJJ@?$GAvector?5constructor?5iterator?8?$AA@ 1006a210     libvcruntime:undname.obj
 0002:00005234       ??_C@_0BN@LFPFMEDL@?$GAvector?5destructor?5iterator?8?$AA@ 1006a234     libvcruntime:undname.obj
 0002:00005258       ??_C@_0CE@IKBNEHA@?$GAvector?5vbase?5constructor?5iterat@ 1006a258     libvcruntime:undname.obj
 0002:00005284       ??_C@_0BL@NILFHHPC@?$GAvirtual?5displacement?5map?8?$AA@ 1006a284     libvcruntime:undname.obj
 0002:000052a4       ??_C@_0CB@JONCMFFK@?$GAeh?5vector?5constructor?5iterator?8@ 1006a2a4     libvcruntime:undname.obj
 0002:000052cc       ??_C@_0CA@GCEOPDGL@?$GAeh?5vector?5destructor?5iterator?8?$AA@ 1006a2cc     libvcruntime:undname.obj
 0002:000052f4       ??_C@_0CH@OOJPLCPH@?$GAeh?5vector?5vbase?5constructor?5ite@ 1006a2f4     libvcruntime:undname.obj
 0002:00005324       ??_C@_0BL@LLKPOHJI@?$GAcopy?5constructor?5closure?8?$AA@ 1006a324     libvcruntime:undname.obj
 0002:00005344       ??_C@_0BA@KBCDOMBN@?$GAudt?5returning?8?$AA@ 1006a344     libvcruntime:undname.obj
 0002:00005358       ??_C@_03KLGMFNMG@?$GAEH?$AA@ 1006a358     libvcruntime:undname.obj
 0002:0000535c       ??_C@_05KHLCHHI@?$GARTTI?$AA@ 1006a35c     libvcruntime:undname.obj
 0002:00005364       ??_C@_0BA@KKLDJDLB@?$GAlocal?5vftable?8?$AA@ 1006a364     libvcruntime:undname.obj
 0002:00005378       ??_C@_0CE@IIHCMGGL@?$GAlocal?5vftable?5constructor?5closu@ 1006a378     libvcruntime:undname.obj
 0002:000053a4       ??_C@_06FHBGPFGH@?5new?$FL?$FN?$AA@ 1006a3a4     libvcruntime:undname.obj
 0002:000053ac       ??_C@_09LBNFPBCA@?5delete?$FL?$FN?$AA@ 1006a3ac     libvcruntime:undname.obj
 0002:000053b8       ??_C@_0P@HJKNJFNN@?$GAomni?5callsig?8?$AA@ 1006a3b8     libvcruntime:undname.obj
 0002:000053cc       ??_C@_0BL@CNOONJFP@?$GAplacement?5delete?5closure?8?$AA@ 1006a3cc     libvcruntime:undname.obj
 0002:000053ec       ??_C@_0BN@CKNJLHMB@?$GAplacement?5delete?$FL?$FN?5closure?8?$AA@ 1006a3ec     libvcruntime:undname.obj
 0002:00005410       ??_C@_0CG@CFDHKGGD@?$GAmanaged?5vector?5constructor?5iter@ 1006a410     libvcruntime:undname.obj
 0002:00005440       ??_C@_0CF@IMGKMJNO@?$GAmanaged?5vector?5destructor?5itera@ 1006a440     libvcruntime:undname.obj
 0002:0000546c       ??_C@_0CG@HLDDJMAG@?$GAeh?5vector?5copy?5constructor?5iter@ 1006a46c     libvcruntime:undname.obj
 0002:0000549c       ??_C@_0CM@FCBBDIGB@?$GAeh?5vector?5vbase?5copy?5constructo@ 1006a49c     libvcruntime:undname.obj
 0002:000054d0       ??_C@_0BL@CLIPGLGB@?$GAdynamic?5initializer?5for?5?8?$AA@ 1006a4d0     libvcruntime:undname.obj
 0002:000054f0       ??_C@_0CB@PDBIFEP@?$GAdynamic?5atexit?5destructor?5for?5?8@ 1006a4f0     libvcruntime:undname.obj
 0002:00005518       ??_C@_0CD@CGAJBKEJ@?$GAvector?5copy?5constructor?5iterato@ 1006a518     libvcruntime:undname.obj
 0002:00005544       ??_C@_0CJ@GJELGAMM@?$GAvector?5vbase?5copy?5constructor?5i@ 1006a544     libvcruntime:undname.obj
 0002:00005578       ??_C@_0CL@FGIJHLCE@?$GAmanaged?5vector?5copy?5constructor@ 1006a578     libvcruntime:undname.obj
 0002:000055ac       ??_C@_0BM@PMGGMLDN@?$GAlocal?5static?5thread?5guard?8?$AA@ 1006a5ac     libvcruntime:undname.obj
 0002:000055d0       ??_C@_0N@BDNMDMOL@operator?5?$CC?$CC?5?$AA@ 1006a5d0     libvcruntime:undname.obj
 0002:000055e0       ??_C@_0BC@DAFEJGAK@?5Type?5Descriptor?8?$AA@ 1006a5e0     libvcruntime:undname.obj
 0002:000055f8       ??_C@_0BM@LDKODKLH@?5Base?5Class?5Descriptor?5at?5?$CI?$AA@ 1006a5f8     libvcruntime:undname.obj
 0002:0000561c       ??_C@_0BD@LGICGFMM@?5Base?5Class?5Array?8?$AA@ 1006a61c     libvcruntime:undname.obj
 0002:00005634       ??_C@_0BN@MECKDCOJ@?5Class?5Hierarchy?5Descriptor?8?$AA@ 1006a634     libvcruntime:undname.obj
 0002:00005658       ??_C@_0BK@CFCOFLF@?5Complete?5Object?5Locator?8?$AA@ 1006a658     libvcruntime:undname.obj
 0002:00005678       ??_C@_04HEJADOOB@CV?3?5?$AA@ 1006a678     libvcruntime:undname.obj
 0002:00005680       ??_C@_02MOLJINC@?3?3?$AA@  1006a680     libvcruntime:undname.obj
 0002:00005684       ??_C@_0BE@JAEOCHPE@template?9parameter?9?$AA@ 1006a684     libvcruntime:undname.obj
 0002:0000569c       ??_C@_0O@KHGCOMHP@generic?9type?9?$AA@ 1006a69c     libvcruntime:undname.obj
 0002:000056ac       ??_C@_01NLNLIGKH@?$GA?$AA@ 1006a6ac     libvcruntime:undname.obj
 0002:000056b0       ??_C@_01GEODFPGF@?8?$AA@   1006a6b0     libvcruntime:undname.obj
 0002:000056b4       ??_C@_0BG@JNJLAMPM@?$GAanonymous?5namespace?8?$AA@ 1006a6b4     libvcruntime:undname.obj
 0002:000056d0       ??_C@_02OHHJMEON@?8?8?$AA@ 1006a6d0     libvcruntime:undname.obj
 0002:000056d4       ??_C@_0BN@IBLMMFAP@?$GAnon?9type?9template?9parameter?$AA@ 1006a6d4     libvcruntime:undname.obj
 0002:000056f8       ??_C@_04GKJNKENE@void?$AA@ 1006a6f8     libvcruntime:undname.obj
 0002:00005700       ??_C@_0BE@EODMJLIF@?$GAtemplate?9parameter?$AA@ 1006a700     libvcruntime:undname.obj
 0002:00005718       ??_C@_03KHICJKCI@?4?4?4?$AA@ 1006a718     libvcruntime:undname.obj
 0002:0000571c       ??_C@_04HIBGFPH@NULL?$AA@  1006a71c     libvcruntime:undname.obj
 0002:00005724       ??_C@_02DPKJAMEF@?$CFd?$AA@ 1006a724     libvcruntime:undname.obj
 0002:00005728       ??_C@_0BK@IHCCFNEL@?$GAtemplate?9type?9parameter?9?$AA@ 1006a728     libvcruntime:undname.obj
 0002:00005748       ??_C@_0BK@OFCNNNKO@?$GAgeneric?9class?9parameter?9?$AA@ 1006a748     libvcruntime:undname.obj
 0002:00005768       ??_C@_0BL@NGJBLFIL@?$GAgeneric?9method?9parameter?9?$AA@ 1006a768     libvcruntime:undname.obj
 0002:00005788       ??_C@_03OPGICMGF@?$HN?8?5?$AA@ 1006a788     libvcruntime:undname.obj
 0002:0000578c       ??_C@_02IGFCGPIL@?$HN?8?$AA@ 1006a78c     libvcruntime:undname.obj
 0002:00005790       ??_C@_01CLKCMJKC@?5?$AA@   1006a790     libvcruntime:undname.obj
 0002:00005794       ??_C@_0N@CBHHHENL@?$GAvtordispex?$HL?$AA@ 1006a794     libvcruntime:undname.obj
 0002:000057a4       ??_C@_0L@GHPFDFH@?$GAvtordisp?$HL?$AA@ 1006a7a4     libvcruntime:undname.obj
 0002:000057b4       ??_C@_0L@HNGCOGAE@?$GAadjustor?$HL?$AA@ 1006a7b4     libvcruntime:undname.obj
 0002:000057c4       ??_C@_0CB@KJDOOODE@?$GAlocal?5static?5destructor?5helper?8@ 1006a7c4     libvcruntime:undname.obj
 0002:000057ec       ??_C@_0DB@ILEFOCIJ@?$GAtemplate?5static?5data?5member?5con@ 1006a7ec     libvcruntime:undname.obj
 0002:00005828       ??_C@_0DA@HGFJFBBE@?$GAtemplate?5static?5data?5member?5des@ 1006a828     libvcruntime:undname.obj
 0002:00005864       ??_C@_07PGOEDBHP@static?5?$AA@ 1006a864     libvcruntime:undname.obj
 0002:00005870       ??_C@_08NIEOINHE@virtual?5?$AA@ 1006a870     libvcruntime:undname.obj
 0002:0000587c       ??_C@_09LAPHOOG@private?3?5?$AA@ 1006a87c     libvcruntime:undname.obj
 0002:00005888       ??_C@_0M@GAIFPFIP@protected?3?5?$AA@ 1006a888     libvcruntime:undname.obj
 0002:00005898       ??_C@_08GPDDCMKI@public?3?5?$AA@ 1006a898     libvcruntime:undname.obj
 0002:000058a4       ??_C@_08KJLFOPNE@?$FLthunk?$FN?3?$AA@ 1006a8a4     libvcruntime:undname.obj
 0002:000058b0       ??_C@_0M@DHNBOJMP@extern?5?$CCC?$CC?5?$AA@ 1006a8b0     libvcruntime:undname.obj
 0002:000058c0       ??_C@_02KCKGHPCA@?$CJ?5?$AA@ 1006a8c0     libvcruntime:undname.obj
 0002:000058c4       ??_C@_05CIHEBHNO@char?5?$AA@ 1006a8c4     libvcruntime:undname.obj
 0002:000058cc       ??_C@_06EHJMALKF@short?5?$AA@ 1006a8cc     libvcruntime:undname.obj
 0002:000058d4       ??_C@_04LAHKHJMA@int?5?$AA@ 1006a8d4     libvcruntime:undname.obj
 0002:000058dc       ??_C@_05CJIMAING@long?5?$AA@ 1006a8dc     libvcruntime:undname.obj
 0002:000058e4       ??_C@_09EBBEKKIH@unsigned?5?$AA@ 1006a8e4     libvcruntime:undname.obj
 0002:000058f0       ??_C@_05BEFAKPML@void?5?$AA@ 1006a8f0     libvcruntime:undname.obj
 0002:000058f8       ??_C@_08PABEKFH@volatile?$AA@ 1006a8f8     libvcruntime:undname.obj
 0002:00005904       ??_C@_0BA@LKIJLKPP@std?3?3nullptr_t?5?$AA@ 1006a904     libvcruntime:undname.obj
 0002:00005918       ??_C@_0P@GCOCNKDM@std?3?3nullptr_t?$AA@ 1006a918     libvcruntime:undname.obj
 0002:0000592c       ??_C@_0L@EGPHHEKN@?$DMellipsis?$DO?$AA@ 1006a92c     libvcruntime:undname.obj
 0002:0000593c       ??_C@_04EENFHACM@?0?4?4?4?$AA@ 1006a93c     libvcruntime:undname.obj
 0002:00005944       ??_C@_0M@ELJOJFFH@?0?$DMellipsis?$DO?$AA@ 1006a944     libvcruntime:undname.obj
 0002:00005954       ??_C@_07HDJPLPEK@?5throw?$CI?$AA@ 1006a954     libvcruntime:undname.obj
 0002:00005960       ??_C@_03PBJBJNON@cpu?$AA@  1006a960     libvcruntime:undname.obj
 0002:00005964       ??_C@_03DCBBJBAA@amp?$AA@  1006a964     libvcruntime:undname.obj
 0002:00005968       ??_C@_02KEGNLNML@?0?5?$AA@ 1006a968     libvcruntime:undname.obj
 0002:0000596c       ??_C@_04ENMBGAPA@char?$AA@ 1006a96c     libvcruntime:undname.obj
 0002:00005974       ??_C@_05BFKKPKCG@short?$AA@ 1006a974     libvcruntime:undname.obj
 0002:0000597c       ??_C@_03JBIPMCLC@int?$AA@  1006a97c     libvcruntime:undname.obj
 0002:00005980       ??_C@_04GOKPGOLB@long?$AA@ 1006a980     libvcruntime:undname.obj
 0002:00005988       ??_C@_04DDKJGDCM@bool?$AA@ 1006a988     libvcruntime:undname.obj
 0002:00005990       ??_C@_06EBGKOKIG@__int8?$AA@ 1006a990     libvcruntime:undname.obj
 0002:00005998       ??_C@_07ICFHOGAF@__int16?$AA@ 1006a998     libvcruntime:undname.obj
 0002:000059a4       ??_C@_07OFLPPHGP@__int32?$AA@ 1006a9a4     libvcruntime:undname.obj
 0002:000059b0       ??_C@_07LFCOJCAC@__int64?$AA@ 1006a9b0     libvcruntime:undname.obj
 0002:000059bc       ??_C@_08GAHOLHEO@__int128?$AA@ 1006a9bc     libvcruntime:undname.obj
 0002:000059c8       ??_C@_09EEKGDCPH@?$DMunknown?$DO?$AA@ 1006a9c8     libvcruntime:undname.obj
 0002:000059d4       ??_C@_08HBIPOFJB@char16_t?$AA@ 1006a9d4     libvcruntime:undname.obj
 0002:000059e0       ??_C@_08IECNCBKG@char32_t?$AA@ 1006a9e0     libvcruntime:undname.obj
 0002:000059ec       ??_C@_07CLGGIAMF@wchar_t?$AA@ 1006a9ec     libvcruntime:undname.obj
 0002:000059f8       ??_C@_06GCICPBLB@__w64?5?$AA@ 1006a9f8     libvcruntime:undname.obj
 0002:00005a00       ??_C@_07NFANNNEC@UNKNOWN?$AA@ 1006aa00     libvcruntime:undname.obj
 0002:00005a0c       ??_C@_07EDHNAJHC@signed?5?$AA@ 1006aa0c     libvcruntime:undname.obj
 0002:00005a18       ??_C@_05BNCCCJPP@const?$AA@ 1006aa18     libvcruntime:undname.obj
 0002:00005a20       ??_C@_09EFNPDFFP@?5volatile?$AA@ 1006aa20     libvcruntime:undname.obj
 0002:00005a2c       ??_C@_0P@GCIFDJCJ@?$GAunknown?5ecsu?8?$AA@ 1006aa2c     libvcruntime:undname.obj
 0002:00005a40       ??_C@_06MOJHIBMG@union?5?$AA@ 1006aa40     libvcruntime:undname.obj
 0002:00005a48       ??_C@_07DIBCDNGL@struct?5?$AA@ 1006aa48     libvcruntime:undname.obj
 0002:00005a54       ??_C@_06LJBABKPM@class?5?$AA@ 1006aa54     libvcruntime:undname.obj
 0002:00005a5c       ??_C@_08KOFANOFK@coclass?5?$AA@ 1006aa5c     libvcruntime:undname.obj
 0002:00005a68       ??_C@_0N@DLIEFKNA@cointerface?5?$AA@ 1006aa68     libvcruntime:undname.obj
 0002:00005a78       ??_C@_05LJGMCFOG@enum?5?$AA@ 1006aa78     libvcruntime:undname.obj
 0002:00005a80       ??_C@_09GAIEOBLP@volatile?5?$AA@ 1006aa80     libvcruntime:undname.obj
 0002:00005a8c       ??_C@_06LIJLOJAG@const?5?$AA@ 1006aa8c     libvcruntime:undname.obj
 0002:00005a94       ??_C@_02KJPKDIBN@?$CG?5?$AA@ 1006aa94     libvcruntime:undname.obj
 0002:00005a98       ??_C@_03PCKGMOPB@?$CG?$CG?5?$AA@ 1006aa98     libvcruntime:undname.obj
 0002:00005a9c       ??_C@_0M@EALIELKG@cli?3?3array?$DM?$AA@ 1006aa9c     libvcruntime:undname.obj
 0002:00005aac       ??_C@_0O@GKABPPIF@cli?3?3pin_ptr?$DM?$AA@ 1006aaac     libvcruntime:undname.obj
 0002:00005abc       ??_C@_02GOGNNPBN@?$CJ?$FL?$AA@ 1006aabc     libvcruntime:undname.obj
 0002:00005ac0       ??_C@_06EEGAIFAK@?$HLflat?$HN?$AA@ 1006aac0     libvcruntime:undname.obj
 0002:00005ac8       ??_C@_05JIBOFOHK@?$HLfor?5?$AA@ 1006aac8     libvcruntime:undname.obj
 0002:00005ad0       ??_C@_02MDINNEEG@s?5?$AA@  1006aad0     libvcruntime:undname.obj
 0002:00005ad8       ??_7DNameNode@@6B@         1006aad8     libvcruntime:undname.obj
 0002:00005aec       ??_7charNode@@6B@          1006aaec     libvcruntime:undname.obj
 0002:00005b00       ??_7pcharNode@@6B@         1006ab00     libvcruntime:undname.obj
 0002:00005b14       ??_7pDNameNode@@6B@        1006ab14     libvcruntime:undname.obj
 0002:00005b28       ??_7DNameStatusNode@@6B@   1006ab28     libvcruntime:undname.obj
 0002:00005b3c       ??_7pairNode@@6B@          1006ab3c     libvcruntime:undname.obj
 0002:00005b4c       ??_C@_04OKOHEJBO@?5?$DP?$DP?5?$AA@ 1006ab4c     libvcruntime:undname.obj
 0002:00005b58       _standard_lookup_table     1006ab58     libucrt:output.obj
 0002:00005bc8       _format_validation_lookup_table 1006abc8     libucrt:output.obj
 0002:00005c38       ??_C@_1O@CEDCILHN@?$AA?$CI?$AAn?$AAu?$AAl?$AAl?$AA?$CJ?$AA?$AA@ 1006ac38     libucrt:output.obj
 0002:00005c48       ??_C@_06OJHGLDPL@?$CInull?$CJ?$AA@ 1006ac48     libucrt:output.obj
 0002:00005c50       __OP_FMODjmptab            1006ac50     libucrt:87fmod.obj
 0002:00005cb0       ??_C@_0CF@GOGNBNAK@Microsoft?5Visual?5C?$CL?$CL?5Runtime?5Lib@ 1006acb0     libucrt:assert.obj
 0002:00005ce0       ??_C@_1EK@MBDPDCGA@?$AAM?$AAi?$AAc?$AAr?$AAo?$AAs?$AAo?$AAf?$AAt?$AA?5?$AAV?$AAi?$AAs?$AAu?$AAa?$AAl?$AA?5?$AAC?$AA?$CL?$AA?$CL?$AA?5?$AAR?$AAu?$AAn?$AAt?$AAi?$AAm?$AAe?$AA?5?$AAL?$AAi?$AAb@ 1006ace0     libucrt:assert.obj
 0002:00005d38       ??_C@_0CK@CFPGFGGO@Assertion?5failed?3?5?$CFTs?0?5file?5?$CFTs?0@ 1006ad38     libucrt:assert.obj
 0002:00005d70       ??_C@_1FE@LHBLIKM@?$AAA?$AAs?$AAs?$AAe?$AAr?$AAt?$AAi?$AAo?$AAn?$AA?5?$AAf?$AAa?$AAi?$AAl?$AAe?$AAd?$AA?3?$AA?5?$AA?$CF?$AAT?$AAs?$AA?0?$AA?5?$AAf?$AAi?$AAl?$AAe?$AA?5?$AA?$CF?$AAT?$AAs?$AA?0@ 1006ad70     libucrt:assert.obj
 0002:00005dd4       ??_C@_0BC@LAIDCHCH@Assertion?5failed?$CB?$AA@ 1006add4     libucrt:assert.obj
 0002:00005dec       ??_C@_1CE@OJBNHDMO@?$AAA?$AAs?$AAs?$AAe?$AAr?$AAt?$AAi?$AAo?$AAn?$AA?5?$AAf?$AAa?$AAi?$AAl?$AAe?$AAd?$AA?$CB?$AA?$AA@ 1006adec     libucrt:assert.obj
 0002:00005e18       ??_C@_09KLGCKDOD@Program?3?5?$AA@ 1006ae18     libucrt:assert.obj
 0002:00005e24       ??_C@_1BE@PHKBBGE@?$AAP?$AAr?$AAo?$AAg?$AAr?$AAa?$AAm?$AA?3?$AA?5?$AA?$AA@ 1006ae24     libucrt:assert.obj
 0002:00005e3c       ??_C@_06IGPBOHMJ@File?3?5?$AA@ 1006ae3c     libucrt:assert.obj
 0002:00005e44       ??_C@_1O@HEMHKNDC@?$AAF?$AAi?$AAl?$AAe?$AA?3?$AA?5?$AA?$AA@ 1006ae44     libucrt:assert.obj
 0002:00005e54       ??_C@_06FIEBOLOH@Line?3?5?$AA@ 1006ae54     libucrt:assert.obj
 0002:00005e5c       ??_C@_1O@KCAFKHJE@?$AAL?$AAi?$AAn?$AAe?$AA?3?$AA?5?$AA?$AA@ 1006ae5c     libucrt:assert.obj
 0002:00005e6c       ??_C@_0N@MEECIJGN@Expression?3?5?$AA@ 1006ae6c     libucrt:assert.obj
 0002:00005e7c       ??_C@_1BK@PEDCIPMA@?$AAE?$AAx?$AAp?$AAr?$AAe?$AAs?$AAs?$AAi?$AAo?$AAn?$AA?3?$AA?5?$AA?$AA@ 1006ae7c     libucrt:assert.obj
 0002:00005ea0       ??_C@_0HA@OJHAGA@For?5information?5on?5how?5your?5prog@ 1006aea0     libucrt:assert.obj
 0002:00005f28       ??_C@_1OA@EGMLFBHJ@?$AAF?$AAo?$AAr?$AA?5?$AAi?$AAn?$AAf?$AAo?$AAr?$AAm?$AAa?$AAt?$AAi?$AAo?$AAn?$AA?5?$AAo?$AAn?$AA?5?$AAh?$AAo?$AAw?$AA?5?$AAy?$AAo?$AAu?$AAr?$AA?5?$AAp?$AAr?$AAo?$AAg@ 1006af28     libucrt:assert.obj
 0002:00006034       ??_C@_0DN@EBBNMLME@?$CIPress?5Retry?5to?5debug?5the?5applic@ 1006b034     libucrt:assert.obj
 0002:00006080       ??_C@_1HK@POCJMFGK@?$AA?$CI?$AAP?$AAr?$AAe?$AAs?$AAs?$AA?5?$AAR?$AAe?$AAt?$AAr?$AAy?$AA?5?$AAt?$AAo?$AA?5?$AAd?$AAe?$AAb?$AAu?$AAg?$AA?5?$AAt?$AAh?$AAe?$AA?5?$AAa?$AAp?$AAp?$AAl?$AAi?$AAc@ 1006b080     libucrt:assert.obj
 0002:00006114       ??_C@_17LGKOMLJ@?$AA?4?$AA?4?$AA?4?$AA?$AA@ 1006b114     libucrt:assert.obj
 0002:00006120       ??_C@_01EEMJAFIK@?6?$AA@   1006b120     libucrt:assert.obj
 0002:00006124       ??_C@_13LBAGMAIH@?$AA?6?$AA?$AA@ 1006b124     libucrt:assert.obj
 0002:00006128       ??_C@_02PHMGELLB@?6?6?$AA@ 1006b128     libucrt:assert.obj
 0002:0000612c       ??_C@_15IABLJNFO@?$AA?6?$AA?6?$AA?$AA@ 1006b12c     libucrt:assert.obj
 0002:00006134       ??_C@_0BH@DNAGHKFM@?$DMprogram?5name?5unknown?$DO?$AA@ 1006b134     libucrt:assert.obj
 0002:00006150       ??_C@_1CO@EAEJAADC@?$AA?$DM?$AAp?$AAr?$AAo?$AAg?$AAr?$AAa?$AAm?$AA?5?$AAn?$AAa?$AAm?$AAe?$AA?5?$AAu?$AAn?$AAk?$AAn?$AAo?$AAw?$AAn?$AA?$DO?$AA?$AA@ 1006b150     libucrt:assert.obj
 0002:00006188       _RtlNtPathSeperatorString  1006b188     libucrt:exit.obj
 0002:00006194       ??_C@_13FPGAJAPJ@?$AA?2?$AA?$AA@ 1006b194     libucrt:exit.obj
 0002:00006198       _RtlDosPathSeperatorsString 1006b198     libucrt:exit.obj
 0002:000061a4       ??_C@_15MNCACJLI@?$AA?2?$AA?1?$AA?$AA@ 1006b1a4     libucrt:exit.obj
 0002:000061ac       _RtlAlternateDosPathSeperatorString 1006b1ac     libucrt:exit.obj
 0002:000061b8       ??_C@_13CGOKJPIL@?$AA?1?$AA?$AA@ 1006b1b8     libucrt:exit.obj
 0002:000061bc       ??_C@_1BI@BGOHAHKC@?$AAm?$AAs?$AAc?$AAo?$AAr?$AAe?$AAe?$AA?4?$AAd?$AAl?$AAl?$AA?$AA@ 1006b1bc     libucrt:exit.obj
 0002:000061d8       ??_C@_0P@MIGLKIOC@CorExitProcess?$AA@ 1006b1d8     libucrt:exit.obj
 0002:00006308       ??_C@_03KHJOGHMM@exp?$AA@  1006b308     libucrt:fpexcept.obj
 0002:0000630c       ??_C@_03JGHBODFD@pow?$AA@  1006b30c     libucrt:fpexcept.obj
 0002:00006310       ??_C@_03MGHMBJCF@log?$AA@  1006b310     libucrt:fpexcept.obj
 0002:00006314       ??_C@_05HGHHAHAP@log10?$AA@ 1006b314     libucrt:fpexcept.obj
 0002:0000631c       ??_C@_04COOMCNPB@sinh?$AA@ 1006b31c     libucrt:fpexcept.obj
 0002:00006324       ??_C@_04HPJJNFIM@cosh?$AA@ 1006b324     libucrt:fpexcept.obj
 0002:0000632c       ??_C@_04FJHINJAO@tanh?$AA@ 1006b32c     libucrt:fpexcept.obj
 0002:00006334       ??_C@_04FIHNOPOL@asin?$AA@ 1006b334     libucrt:fpexcept.obj
 0002:0000633c       ??_C@_04PDIFKINK@acos?$AA@ 1006b33c     libucrt:fpexcept.obj
 0002:00006344       ??_C@_04MLLJIGOK@atan?$AA@ 1006b344     libucrt:fpexcept.obj
 0002:0000634c       ??_C@_05KNGEOGJB@atan2?$AA@ 1006b34c     libucrt:fpexcept.obj
 0002:00006354       ??_C@_04EIAKFFMI@sqrt?$AA@ 1006b354     libucrt:fpexcept.obj
 0002:0000635c       ??_C@_03BLEJJJBH@sin?$AA@  1006b35c     libucrt:fpexcept.obj
 0002:00006360       ??_C@_03LALBNOCG@cos?$AA@  1006b360     libucrt:fpexcept.obj
 0002:00006364       ??_C@_03IIINPABG@tan?$AA@  1006b364     libucrt:fpexcept.obj
 0002:00006368       ??_C@_04GFPJNGEK@ceil?$AA@ 1006b368     libucrt:fpexcept.obj
 0002:00006370       ??_C@_05PBJFFIGL@floor?$AA@ 1006b370     libucrt:fpexcept.obj
 0002:00006378       ??_C@_04ODHECPBC@fabs?$AA@ 1006b378     libucrt:fpexcept.obj
 0002:00006380       ??_C@_04EHEDPDJG@modf?$AA@ 1006b380     libucrt:fpexcept.obj
 0002:00006388       ??_C@_05CEJMAHNP@ldexp?$AA@ 1006b388     libucrt:fpexcept.obj
 0002:00006390       ??_C@_05KBKMEMPO@_cabs?$AA@ 1006b390     libucrt:fpexcept.obj
 0002:00006398       ??_C@_06MEIMCGCF@_hypot?$AA@ 1006b398     libucrt:fpexcept.obj
 0002:000063a0       ??_C@_04KEPJIHGP@fmod?$AA@ 1006b3a0     libucrt:fpexcept.obj
 0002:000063a8       ??_C@_05GKKHEGJL@frexp?$AA@ 1006b3a8     libucrt:fpexcept.obj
 0002:000063b0       ??_C@_03MJLDFKDL@_y0?$AA@  1006b3b0     libucrt:fpexcept.obj
 0002:000063b4       ??_C@_03NAKIGLHK@_y1?$AA@  1006b3b4     libucrt:fpexcept.obj
 0002:000063b8       ??_C@_03ONILCKOB@_yn?$AA@  1006b3b8     libucrt:fpexcept.obj
 0002:000063bc       ??_C@_05JGDBENOH@_logb?$AA@ 1006b3bc     libucrt:fpexcept.obj
 0002:000063c4       ??_C@_0L@KDOEJCKC@_nextafter?$AA@ 1006b3c4     libucrt:fpexcept.obj
 0002:000063d8       ___acrt_exception_action_table 1006b3d8     libucrt:exception_filter.obj
 0002:00006484       ___acrt_signal_action_table_count 1006b484     libucrt:exception_filter.obj
 0002:00006488       ___acrt_signal_action_table_size 1006b488     libucrt:exception_filter.obj
 0002:0000648c       ___acrt_signal_action_first_fpe_index 1006b48c     libucrt:exception_filter.obj
 0002:00006490       ___acrt_signal_action_fpe_count 1006b490     libucrt:exception_filter.obj
 0002:00006528       ??_C@_1BG@HHIFPOEK@?$AAm?$AAs?$AAv?$AAc?$AAr?$AAt?$AA?4?$AAd?$AAl?$AAl?$AA?$AA@ 1006b528     libucrt:free_base.obj
 0002:00006544       __Fenv0                    1006b544     libucrt:atox.obj
 0002:00006758       ??_C@_1EA@JGEFHKEI@?$AAa?$AAp?$AAi?$AA?9?$AAm?$AAs?$AA?9?$AAw?$AAi?$AAn?$AA?9?$AAc?$AAo?$AAr?$AAe?$AA?9?$AAd?$AAa?$AAt?$AAe?$AAt?$AAi?$AAm?$AAe?$AA?9?$AAl?$AA1?$AA?9?$AA1?$AA?9?$AA1?$AA?$AA@ 1006b758     libucrt:winapi_thunks.obj
 0002:000067a8       ??_C@_1EI@MPIAOHOC@?$AAa?$AAp?$AAi?$AA?9?$AAm?$AAs?$AA?9?$AAw?$AAi?$AAn?$AA?9?$AAc?$AAo?$AAr?$AAe?$AA?9?$AAl?$AAo?$AAc?$AAa?$AAl?$AAi?$AAz?$AAa?$AAt?$AAi?$AAo?$AAn?$AA?9?$AAl?$AA1?$AA?9@ 1006b7a8     libucrt:winapi_thunks.obj
 0002:00006800       ??_C@_1FK@FPHCKFIE@?$AAa?$AAp?$AAi?$AA?9?$AAm?$AAs?$AA?9?$AAw?$AAi?$AAn?$AA?9?$AAc?$AAo?$AAr?$AAe?$AA?9?$AAl?$AAo?$AAc?$AAa?$AAl?$AAi?$AAz?$AAa?$AAt?$AAi?$AAo?$AAn?$AA?9?$AAo?$AAb?$AAs@ 1006b800     libucrt:winapi_thunks.obj
 0002:00006870       ??_C@_1EM@DILCGIIO@?$AAa?$AAp?$AAi?$AA?9?$AAm?$AAs?$AA?9?$AAw?$AAi?$AAn?$AA?9?$AAc?$AAo?$AAr?$AAe?$AA?9?$AAp?$AAr?$AAo?$AAc?$AAe?$AAs?$AAs?$AAt?$AAh?$AAr?$AAe?$AAa?$AAd?$AAs?$AA?9?$AAl@ 1006b870     libucrt:winapi_thunks.obj
 0002:000068cc       ??_C@_1DM@LNCGDDPN@?$AAa?$AAp?$AAi?$AA?9?$AAm?$AAs?$AA?9?$AAw?$AAi?$AAn?$AA?9?$AAc?$AAo?$AAr?$AAe?$AA?9?$AAs?$AAt?$AAr?$AAi?$AAn?$AAg?$AA?9?$AAl?$AA1?$AA?9?$AA1?$AA?9?$AA0?$AA?$AA@ 1006b8cc     libucrt:winapi_thunks.obj
 0002:00006914       ??_C@_1DO@FPAPJEMD@?$AAa?$AAp?$AAi?$AA?9?$AAm?$AAs?$AA?9?$AAw?$AAi?$AAn?$AA?9?$AAc?$AAo?$AAr?$AAe?$AA?9?$AAs?$AAy?$AAs?$AAi?$AAn?$AAf?$AAo?$AA?9?$AAl?$AA1?$AA?9?$AA2?$AA?9?$AA1?$AA?$AA@ 1006b914     libucrt:winapi_thunks.obj
 0002:00006960       ??_C@_1DK@NDHNAHIO@?$AAa?$AAp?$AAi?$AA?9?$AAm?$AAs?$AA?9?$AAw?$AAi?$AAn?$AA?9?$AAc?$AAo?$AAr?$AAe?$AA?9?$AAw?$AAi?$AAn?$AAr?$AAt?$AA?9?$AAl?$AA1?$AA?9?$AA1?$AA?9?$AA0?$AA?$AA@ 1006b960     libucrt:winapi_thunks.obj
 0002:000069a8       ??_C@_1DM@KGHDGBCM@?$AAa?$AAp?$AAi?$AA?9?$AAm?$AAs?$AA?9?$AAw?$AAi?$AAn?$AA?9?$AAc?$AAo?$AAr?$AAe?$AA?9?$AAx?$AAs?$AAt?$AAa?$AAt?$AAe?$AA?9?$AAl?$AA2?$AA?9?$AA1?$AA?9?$AA0?$AA?$AA@ 1006b9a8     libucrt:winapi_thunks.obj
 0002:000069f0       ??_C@_1EO@IJIOEFOH@?$AAa?$AAp?$AAi?$AA?9?$AAm?$AAs?$AA?9?$AAw?$AAi?$AAn?$AA?9?$AAr?$AAt?$AAc?$AAo?$AAr?$AAe?$AA?9?$AAn?$AAt?$AAu?$AAs?$AAe?$AAr?$AA?9?$AAw?$AAi?$AAn?$AAd?$AAo?$AAw?$AA?9@ 1006b9f0     libucrt:winapi_thunks.obj
 0002:00006a50       ??_C@_1FG@HHGEKANL@?$AAa?$AAp?$AAi?$AA?9?$AAm?$AAs?$AA?9?$AAw?$AAi?$AAn?$AA?9?$AAs?$AAe?$AAc?$AAu?$AAr?$AAi?$AAt?$AAy?$AA?9?$AAs?$AAy?$AAs?$AAt?$AAe?$AAm?$AAf?$AAu?$AAn?$AAc?$AAt?$AAi@ 1006ba50     libucrt:winapi_thunks.obj
 0002:00006ab8       ??_C@_1EG@DBIOJECG@?$AAe?$AAx?$AAt?$AA?9?$AAm?$AAs?$AA?9?$AAw?$AAi?$AAn?$AA?9?$AAn?$AAt?$AAu?$AAs?$AAe?$AAr?$AA?9?$AAd?$AAi?$AAa?$AAl?$AAo?$AAg?$AAb?$AAo?$AAx?$AA?9?$AAl?$AA1?$AA?9?$AA1@ 1006bab8     libucrt:winapi_thunks.obj
 0002:00006b10       ??_C@_1EO@FIHMJCLF@?$AAe?$AAx?$AAt?$AA?9?$AAm?$AAs?$AA?9?$AAw?$AAi?$AAn?$AA?9?$AAn?$AAt?$AAu?$AAs?$AAe?$AAr?$AA?9?$AAw?$AAi?$AAn?$AAd?$AAo?$AAw?$AAs?$AAt?$AAa?$AAt?$AAi?$AAo?$AAn?$AA?9@ 1006bb10     libucrt:winapi_thunks.obj
 0002:00006b70       ??_C@_1M@OAIMIKLP@?$AAn?$AAt?$AAd?$AAl?$AAl?$AA?$AA@ 1006bb70     libucrt:winapi_thunks.obj
 0002:00006b80       ??_C@_1EG@DPGNFKGC@?$AAa?$AAp?$AAi?$AA?9?$AAm?$AAs?$AA?9?$AAw?$AAi?$AAn?$AA?9?$AAa?$AAp?$AAp?$AAm?$AAo?$AAd?$AAe?$AAl?$AA?9?$AAr?$AAu?$AAn?$AAt?$AAi?$AAm?$AAe?$AA?9?$AAl?$AA1?$AA?9?$AA1@ 1006bb80     libucrt:winapi_thunks.obj
 0002:00006bd4       ??_C@_1O@BCCLBEOE@?$AAu?$AAs?$AAe?$AAr?$AA3?$AA2?$AA?$AA@ 1006bbd4     libucrt:winapi_thunks.obj
 0002:00006be4       ??_C@_1BA@PFFKHIOG@?$AAa?$AAp?$AAi?$AA?9?$AAm?$AAs?$AA?9?$AA?$AA@ 1006bbe4     libucrt:winapi_thunks.obj
 0002:00006bf8       ??_C@_1BA@IAIFMGEF@?$AAe?$AAx?$AAt?$AA?9?$AAm?$AAs?$AA?9?$AA?$AA@ 1006bbf8     libucrt:winapi_thunks.obj
 0002:00006c10       ??_C@_0BA@FHFNEAED@AreFileApisANSI?$AA@ 1006bc10     libucrt:winapi_thunks.obj
 0002:00006c30       ??_C@_0BA@IHGNDAEB@CompareStringEx?$AA@ 1006bc30     libucrt:winapi_thunks.obj
 0002:00006c50       ??_C@_0BE@LJANKFHF@EnumSystemLocalesEx?$AA@ 1006bc50     libucrt:winapi_thunks.obj
 0002:00006ca4       ??_C@_0BA@HNOPNCHB@GetActiveWindow?$AA@ 1006bca4     libucrt:winapi_thunks.obj
 0002:00006cc4       ??_C@_0BA@EPCJIIPD@GetDateFormatEx?$AA@ 1006bcc4     libucrt:winapi_thunks.obj
 0002:00006ce4       ??_C@_0BJ@DIBIJBHA@GetEnabledXStateFeatures?$AA@ 1006bce4     libucrt:winapi_thunks.obj
 0002:00006d10       ??_C@_0BD@HHGDFDBJ@GetLastActivePopup?$AA@ 1006bd10     libucrt:winapi_thunks.obj
 0002:00006d34       ??_C@_0BA@ONOKGCMP@GetLocaleInfoEx?$AA@ 1006bd34     libucrt:winapi_thunks.obj
 0002:00006d54       ??_C@_0BI@DFKBFLJE@GetProcessWindowStation?$AA@ 1006bd54     libucrt:winapi_thunks.obj
 0002:00006d74       ??_C@_0BP@FPNJPEJC@GetSystemTimePreciseAsFileTime?$AA@ 1006bd74     libucrt:winapi_thunks.obj
 0002:00006da8       ??_C@_0BA@CIJJKCJJ@GetTimeFormatEx?$AA@ 1006bda8     libucrt:winapi_thunks.obj
 0002:00006dc8       ??_C@_0BJ@PBCCBIPI@GetUserDefaultLocaleName?$AA@ 1006bdc8     libucrt:winapi_thunks.obj
 0002:00006df4       ??_C@_0BK@DEKFELLI@GetUserObjectInformationW?$AA@ 1006bdf4     libucrt:winapi_thunks.obj
 0002:00006e20       ??_C@_0BG@IKLDMBLM@GetXStateFeaturesMask?$AA@ 1006be20     libucrt:winapi_thunks.obj
 0002:00006e54       ??_C@_0BC@CELBKLLA@IsValidLocaleName?$AA@ 1006be54     libucrt:winapi_thunks.obj
 0002:00006e78       ??_C@_0O@KKBNKAPF@LCMapStringEx?$AA@ 1006be78     libucrt:winapi_thunks.obj
 0002:00006e94       ??_C@_0BB@CDHDDLLP@LCIDToLocaleName?$AA@ 1006be94     libucrt:winapi_thunks.obj
 0002:00006eb4       ??_C@_0BB@HBDEELFH@LocaleNameToLCID?$AA@ 1006beb4     libucrt:winapi_thunks.obj
 0002:00006ed4       ??_C@_0BE@KINNKFDA@LocateXStateFeature?$AA@ 1006bed4     libucrt:winapi_thunks.obj
 0002:00006ef8       ??_C@_0M@CHKKJDAI@MessageBoxA?$AA@ 1006bef8     libucrt:winapi_thunks.obj
 0002:00006f14       ??_C@_0M@DLDCCGNP@MessageBoxW?$AA@ 1006bf14     libucrt:winapi_thunks.obj
 0002:00006f28       ??_C@_0N@PPOMPGGK@RoInitialize?$AA@ 1006bf28     libucrt:winapi_thunks.obj
 0002:00006f3c       ??_C@_0P@LLFHBIJD@RoUninitialize?$AA@ 1006bf3c     libucrt:winapi_thunks.obj
 0002:00006f54       ??_C@_0CF@OJOFEIGO@AppPolicyGetProcessTerminationMe@ 1006bf54     libucrt:winapi_thunks.obj
 0002:00006f84       ??_C@_0CF@NNDFDCOC@AppPolicyGetThreadInitialization@ 1006bf84     libucrt:winapi_thunks.obj
 0002:00006fb4       ??_C@_0CE@OICFMIKE@AppPolicyGetShowDeveloperDiagnos@ 1006bfb4     libucrt:winapi_thunks.obj
 0002:00006fe4       ??_C@_0BL@ODDJNEDA@AppPolicyGetWindowingModel?$AA@ 1006bfe4     libucrt:winapi_thunks.obj
 0002:00007010       ??_C@_0BI@BKLFFAPO@SetThreadStackGuarantee?$AA@ 1006c010     libucrt:winapi_thunks.obj
 0002:00007038       ??_C@_0BC@JEAENNKH@SystemFunction036?$AA@ 1006c038     libucrt:winapi_thunks.obj
 0002:00007050       ??_C@_03OEIAHPBN@INF?$AA@  1006c050     libucrt:cvt.obj
 0002:00007054       ??_C@_03OJHLLCGB@inf?$AA@  1006c054     libucrt:cvt.obj
 0002:00007058       ??_C@_03LKNCIKJB@NAN?$AA@  1006c058     libucrt:cvt.obj
 0002:0000705c       ??_C@_03LHCJEHON@nan?$AA@  1006c05c     libucrt:cvt.obj
 0002:00007060       ??_C@_09OFJJIMPC@NAN?$CISNAN?$CJ?$AA@ 1006c060     libucrt:cvt.obj
 0002:0000706c       ??_C@_09IPFBKMDL@nan?$CIsnan?$CJ?$AA@ 1006c06c     libucrt:cvt.obj
 0002:00007078       ??_C@_08IKHNHAJ@NAN?$CIIND?$CJ?$AA@ 1006c078     libucrt:cvt.obj
 0002:00007084       ??_C@_08OFCDMILK@nan?$CIind?$CJ?$AA@ 1006c084     libucrt:cvt.obj
 0002:00007090       ??_C@_05KLBDPFGC@e?$CL000?$AA@ 1006c090     libucrt:cvt.obj
 0002:00007098       ___lc_category             1006c098     libucrt:wsetlocale.obj
 0002:000070f0       ??_C@_1O@GIFLHMA@?$AAL?$AAC?$AA_?$AAA?$AAL?$AAL?$AA?$AA@ 1006c0f0     libucrt:wsetlocale.obj
 0002:00007100       ??_C@_1BG@PPOMIBNJ@?$AAL?$AAC?$AA_?$AAC?$AAO?$AAL?$AAL?$AAA?$AAT?$AAE?$AA?$AA@ 1006c100     libucrt:wsetlocale.obj
 0002:0000711c       ??_C@_1BC@FFJGAPJM@?$AAL?$AAC?$AA_?$AAC?$AAT?$AAY?$AAP?$AAE?$AA?$AA@ 1006c11c     libucrt:wsetlocale.obj
 0002:00007134       ??_C@_1BI@PCKFNJFB@?$AAL?$AAC?$AA_?$AAM?$AAO?$AAN?$AAE?$AAT?$AAA?$AAR?$AAY?$AA?$AA@ 1006c134     libucrt:wsetlocale.obj
 0002:00007150       ??_C@_1BG@ENIEDKID@?$AAL?$AAC?$AA_?$AAN?$AAU?$AAM?$AAE?$AAR?$AAI?$AAC?$AA?$AA@ 1006c150     libucrt:wsetlocale.obj
 0002:0000716c       ??_C@_1BA@HAAOMIIG@?$AAL?$AAC?$AA_?$AAT?$AAI?$AAM?$AAE?$AA?$AA@ 1006c16c     libucrt:wsetlocale.obj
 0002:00007218       ??_C@_15NBPDDFIP@?$AA?$DN?$AA?$DL?$AA?$AA@ 1006c218     libucrt:wsetlocale.obj
 0002:00007220       ??_C@_13PJJBFPED@?$AA?$DL?$AA?$AA@ 1006c220     libucrt:wsetlocale.obj
 0002:00007224       ??_C@_13NMPKAAJP@?$AA?$DN?$AA?$AA@ 1006c224     libucrt:wsetlocale.obj
 0002:00007228       ??_C@_13FHBKNHDA@?$AAC?$AA?$AA@ 1006c228     libucrt:wsetlocale.obj
 0002:0000722c       ??_C@_17MBJJLFDM@?$AA_?$AA?4?$AA?0?$AA?$AA@ 1006c22c     libucrt:wsetlocale.obj
 0002:00007238       ??_C@_13ENNFDPBH@?$AA_?$AA?$AA@ 1006c238     libucrt:wsetlocale.obj
 0002:0000723c       ??_C@_13JOFGPIOO@?$AA?4?$AA?$AA@ 1006c23c     libucrt:wsetlocale.obj
 0002:00007240       ??_C@_03KOEHGMDN@Sun?$AA@  1006c240     libucrt:nlsdata.obj
 0002:00007244       ??_C@_03PDAGKDH@Mon?$AA@   1006c244     libucrt:nlsdata.obj
 0002:00007248       ??_C@_03NAGEINEP@Tue?$AA@  1006c248     libucrt:nlsdata.obj
 0002:0000724c       ??_C@_03MHOMLAJA@Wed?$AA@  1006c24c     libucrt:nlsdata.obj
 0002:00007250       ??_C@_03IOFIKPDN@Thu?$AA@  1006c250     libucrt:nlsdata.obj
 0002:00007254       ??_C@_03IDIOELNC@Fri?$AA@  1006c254     libucrt:nlsdata.obj
 0002:00007258       ??_C@_03FEFJNEK@Sat?$AA@   1006c258     libucrt:nlsdata.obj
 0002:0000725c       ??_C@_06OOPIFAJ@Sunday?$AA@ 1006c25c     libucrt:nlsdata.obj
 0002:00007264       ??_C@_06JLEDEDGH@Monday?$AA@ 1006c264     libucrt:nlsdata.obj
 0002:0000726c       ??_C@_07BAAGCFCM@Tuesday?$AA@ 1006c26c     libucrt:nlsdata.obj
 0002:00007278       ??_C@_09DLIGFAKA@Wednesday?$AA@ 1006c278     libucrt:nlsdata.obj
 0002:00007284       ??_C@_08HACCIKIA@Thursday?$AA@ 1006c284     libucrt:nlsdata.obj
 0002:00007290       ??_C@_06JECMNKMI@Friday?$AA@ 1006c290     libucrt:nlsdata.obj
 0002:00007298       ??_C@_08INBOOONO@Saturday?$AA@ 1006c298     libucrt:nlsdata.obj
 0002:000072a4       ??_C@_03JIHJHPIE@Jan?$AA@  1006c2a4     libucrt:nlsdata.obj
 0002:000072a8       ??_C@_03HJBDCHOM@Feb?$AA@  1006c2a8     libucrt:nlsdata.obj
 0002:000072ac       ??_C@_03ODNJBKGA@Mar?$AA@  1006c2ac     libucrt:nlsdata.obj
 0002:000072b0       ??_C@_03LEOLGMJP@Apr?$AA@  1006c2b0     libucrt:nlsdata.obj
 0002:000072b4       ??_C@_03CNMDKL@May?$AA@    1006c2b4     libucrt:nlsdata.obj
 0002:000072b8       ??_C@_03IDFGHECI@Jun?$AA@  1006c2b8     libucrt:nlsdata.obj
 0002:000072bc       ??_C@_03LBGABGKK@Jul?$AA@  1006c2bc     libucrt:nlsdata.obj
 0002:000072c0       ??_C@_03IFJFEIGA@Aug?$AA@  1006c2c0     libucrt:nlsdata.obj
 0002:000072c4       ??_C@_03GGCAPAJC@Sep?$AA@  1006c2c4     libucrt:nlsdata.obj
 0002:000072c8       ??_C@_03BMAOKBAD@Oct?$AA@  1006c2c8     libucrt:nlsdata.obj
 0002:000072cc       ??_C@_03JPJOFNIA@Nov?$AA@  1006c2cc     libucrt:nlsdata.obj
 0002:000072d0       ??_C@_03MKABNOCG@Dec?$AA@  1006c2d0     libucrt:nlsdata.obj
 0002:000072d4       ??_C@_07CGJPFGJA@January?$AA@ 1006c2d4     libucrt:nlsdata.obj
 0002:000072e0       ??_C@_08GNJGEPFN@February?$AA@ 1006c2e0     libucrt:nlsdata.obj
 0002:000072ec       ??_C@_05HPCKOFNC@March?$AA@ 1006c2ec     libucrt:nlsdata.obj
 0002:000072f4       ??_C@_05DMJDNLEJ@April?$AA@ 1006c2f4     libucrt:nlsdata.obj
 0002:000072fc       ??_C@_04CNLMGBGM@June?$AA@ 1006c2fc     libucrt:nlsdata.obj
 0002:00007304       ??_C@_04MIEPOIFP@July?$AA@ 1006c304     libucrt:nlsdata.obj
 0002:0000730c       ??_C@_06LBBHFDDG@August?$AA@ 1006c30c     libucrt:nlsdata.obj
 0002:00007314       ??_C@_09BHHEALKD@September?$AA@ 1006c314     libucrt:nlsdata.obj
 0002:00007320       ??_C@_07JJNFCEND@October?$AA@ 1006c320     libucrt:nlsdata.obj
 0002:0000732c       ??_C@_08HCHEGEOA@November?$AA@ 1006c32c     libucrt:nlsdata.obj
 0002:00007338       ??_C@_08EDHMEBNP@December?$AA@ 1006c338     libucrt:nlsdata.obj
 0002:00007344       ??_C@_02DEDBPAFC@AM?$AA@   1006c344     libucrt:nlsdata.obj
 0002:00007348       ??_C@_02CJNFDJBF@PM?$AA@   1006c348     libucrt:nlsdata.obj
 0002:0000734c       ??_C@_08BPBNCDIB@MM?1dd?1yy?$AA@ 1006c34c     libucrt:nlsdata.obj
 0002:00007358       ??_C@_0BE@CKGJFCPC@dddd?0?5MMMM?5dd?0?5yyyy?$AA@ 1006c358     libucrt:nlsdata.obj
 0002:00007370       ??_C@_08JCCMCCIL@HH?3mm?3ss?$AA@ 1006c370     libucrt:nlsdata.obj
 0002:0000737c       ??_C@_17MBGCMIPB@?$AAS?$AAu?$AAn?$AA?$AA@ 1006c37c     libucrt:nlsdata.obj
 0002:00007388       ??_C@_17KBOMKBF@?$AAM?$AAo?$AAn?$AA?$AA@ 1006c388     libucrt:nlsdata.obj
 0002:00007394       ??_C@_17BMKGEGOJ@?$AAT?$AAu?$AAe?$AA?$AA@ 1006c394     libucrt:nlsdata.obj
 0002:000073a0       ??_C@_17CJEDCEPE@?$AAW?$AAe?$AAd?$AA?$AA@ 1006c3a0     libucrt:nlsdata.obj
 0002:000073ac       ??_C@_17PDPHAADD@?$AAT?$AAh?$AAu?$AA?$AA@ 1006c3ac     libucrt:nlsdata.obj
 0002:000073b8       ??_C@_17HFOLPPLP@?$AAF?$AAr?$AAi?$AA?$AA@ 1006c3b8     libucrt:nlsdata.obj
 0002:000073c4       ??_C@_17GGIBDPIH@?$AAS?$AAa?$AAt?$AA?$AA@ 1006c3c4     libucrt:nlsdata.obj
 0002:000073d0       ??_C@_1O@IHNHDHPB@?$AAS?$AAu?$AAn?$AAd?$AAa?$AAy?$AA?$AA@ 1006c3d0     libucrt:nlsdata.obj
 0002:000073e0       ??_C@_1O@MMNBFLIA@?$AAM?$AAo?$AAn?$AAd?$AAa?$AAy?$AA?$AA@ 1006c3e0     libucrt:nlsdata.obj
 0002:000073f0       ??_C@_1BA@ENFBFFEK@?$AAT?$AAu?$AAe?$AAs?$AAd?$AAa?$AAy?$AA?$AA@ 1006c3f0     libucrt:nlsdata.obj
 0002:00007404       ??_C@_1BE@EBOGMDOH@?$AAW?$AAe?$AAd?$AAn?$AAe?$AAs?$AAd?$AAa?$AAy?$AA?$AA@ 1006c404     libucrt:nlsdata.obj
 0002:0000741c       ??_C@_1BC@HHMNLIHE@?$AAT?$AAh?$AAu?$AAr?$AAs?$AAd?$AAa?$AAy?$AA?$AA@ 1006c41c     libucrt:nlsdata.obj
 0002:00007434       ??_C@_1O@PDICJHAG@?$AAF?$AAr?$AAi?$AAd?$AAa?$AAy?$AA?$AA@ 1006c434     libucrt:nlsdata.obj
 0002:00007444       ??_C@_1BC@ENMNNPAJ@?$AAS?$AAa?$AAt?$AAu?$AAr?$AAd?$AAa?$AAy?$AA?$AA@ 1006c444     libucrt:nlsdata.obj
 0002:0000745c       ??_C@_17DKNBKCHM@?$AAJ?$AAa?$AAn?$AA?$AA@ 1006c45c     libucrt:nlsdata.obj
 0002:00007468       ??_C@_17LMDJEKJN@?$AAF?$AAe?$AAb?$AA?$AA@ 1006c468     libucrt:nlsdata.obj
 0002:00007474       ??_C@_17CKNLEDEC@?$AAM?$AAa?$AAr?$AA?$AA@ 1006c474     libucrt:nlsdata.obj
 0002:00007480       ??_C@_17LFPOIHDD@?$AAA?$AAp?$AAr?$AA?$AA@ 1006c480     libucrt:nlsdata.obj
 0002:0000748c       ??_C@_17PNNKMEED@?$AAM?$AAa?$AAy?$AA?$AA@ 1006c48c     libucrt:nlsdata.obj
 0002:00007498       ??_C@_17KCJGOCPB@?$AAJ?$AAu?$AAn?$AA?$AA@ 1006c498     libucrt:nlsdata.obj
 0002:000074a4       ??_C@_17IJPCKHK@?$AAJ?$AAu?$AAl?$AA?$AA@ 1006c4a4     libucrt:nlsdata.obj
 0002:000074b0       ??_C@_17ICPELBCN@?$AAA?$AAu?$AAg?$AA?$AA@ 1006c4b0     libucrt:nlsdata.obj
 0002:000074bc       ??_C@_17HCHCOKMG@?$AAS?$AAe?$AAp?$AA?$AA@ 1006c4bc     libucrt:nlsdata.obj
 0002:000074c8       ??_C@_17FNLKOI@?$AAO?$AAc?$AAt?$AA?$AA@ 1006c4c8     libucrt:nlsdata.obj
 0002:000074d4       ??_C@_17BBDMLCIG@?$AAN?$AAo?$AAv?$AA?$AA@ 1006c4d4     libucrt:nlsdata.obj
 0002:000074e0       ??_C@_17EGKACKIF@?$AAD?$AAe?$AAc?$AA?$AA@ 1006c4e0     libucrt:nlsdata.obj
 0002:000074ec       ??_C@_1BA@EFMEIEBA@?$AAJ?$AAa?$AAn?$AAu?$AAa?$AAr?$AAy?$AA?$AA@ 1006c4ec     libucrt:nlsdata.obj
 0002:00007500       ??_C@_1BC@JGDDFFAM@?$AAF?$AAe?$AAb?$AAr?$AAu?$AAa?$AAr?$AAy?$AA?$AA@ 1006c500     libucrt:nlsdata.obj
 0002:00007518       ??_C@_1M@IKEENEDF@?$AAM?$AAa?$AAr?$AAc?$AAh?$AA?$AA@ 1006c518     libucrt:nlsdata.obj
 0002:00007528       ??_C@_1M@GJNLMHFD@?$AAA?$AAp?$AAr?$AAi?$AAl?$AA?$AA@ 1006c528     libucrt:nlsdata.obj
 0002:00007538       ??_C@_19EPFLPGAP@?$AAJ?$AAu?$AAn?$AAe?$AA?$AA@ 1006c538     libucrt:nlsdata.obj
 0002:00007544       ??_C@_19BIFMLPCD@?$AAJ?$AAu?$AAl?$AAy?$AA?$AA@ 1006c544     libucrt:nlsdata.obj
 0002:00007550       ??_C@_1O@PAHLKOAC@?$AAA?$AAu?$AAg?$AAu?$AAs?$AAt?$AA?$AA@ 1006c550     libucrt:nlsdata.obj
 0002:00007560       ??_C@_1BE@DKAAMBJL@?$AAS?$AAe?$AAp?$AAt?$AAe?$AAm?$AAb?$AAe?$AAr?$AA?$AA@ 1006c560     libucrt:nlsdata.obj
 0002:00007578       ??_C@_1BA@EPANDLNG@?$AAO?$AAc?$AAt?$AAo?$AAb?$AAe?$AAr?$AA?$AA@ 1006c578     libucrt:nlsdata.obj
 0002:0000758c       ??_C@_1BC@BGLIFPF@?$AAN?$AAo?$AAv?$AAe?$AAm?$AAb?$AAe?$AAr?$AA?$AA@ 1006c58c     libucrt:nlsdata.obj
 0002:000075a4       ??_C@_1BC@FEMKIFH@?$AAD?$AAe?$AAc?$AAe?$AAm?$AAb?$AAe?$AAr?$AA?$AA@ 1006c5a4     libucrt:nlsdata.obj
 0002:000075bc       ??_C@_15ODEHAHHF@?$AAA?$AAM?$AA?$AA@ 1006c5bc     libucrt:nlsdata.obj
 0002:000075c4       ??_C@_15CLMNNGEL@?$AAP?$AAM?$AA?$AA@ 1006c5c4     libucrt:nlsdata.obj
 0002:000075cc       ??_C@_1BC@IEBCMHCM@?$AAM?$AAM?$AA?1?$AAd?$AAd?$AA?1?$AAy?$AAy?$AA?$AA@ 1006c5cc     libucrt:nlsdata.obj
 0002:000075e4       ??_C@_1CI@KNAKOEBC@?$AAd?$AAd?$AAd?$AAd?$AA?0?$AA?5?$AAM?$AAM?$AAM?$AAM?$AA?5?$AAd?$AAd?$AA?0?$AA?5?$AAy?$AAy?$AAy?$AAy?$AA?$AA@ 1006c5e4     libucrt:nlsdata.obj
 0002:00007614       ??_C@_1BC@GDGBMEMK@?$AAH?$AAH?$AA?3?$AAm?$AAm?$AA?3?$AAs?$AAs?$AA?$AA@ 1006c614     libucrt:nlsdata.obj
 0002:0000762c       ??_C@_1M@BMHNFIME@?$AAe?$AAn?$AA?9?$AAU?$AAS?$AA?$AA@ 1006c62c     libucrt:nlsdata.obj
 0002:00007640       ___lc_time_c               1006c640     libucrt:nlsdata.obj
 0002:00007830       __indefinite               1006c830     libucrt:87disp.obj
 0002:0000783a       __piby2                    1006c83a     libucrt:87disp.obj
 0002:00007844       __piby4                    1006c844     libucrt:87disp.obj
 0002:0000787c       ??_C@_1DE@JNGNBFGO@?$AAR?$AAu?$AAn?$AAt?$AAi?$AAm?$AAe?$AA?5?$AAE?$AAr?$AAr?$AAo?$AAr?$AA?$CB?$AA?6?$AA?6?$AAP?$AAr?$AAo?$AAg?$AAr?$AAa?$AAm?$AA?3?$AA?5?$AA?$AA@ 1006c87c     libucrt:report_runtime_error.obj
 0002:000078bc       ?ccs@?1???$__acrt_stdio_parse_mode@D@@YA?AU__acrt_stdio_stream_mode@@QBD@Z@4QBDB 1006c8bc     libucrt:openfile.obj
 0002:000078c0       ?utf8_encoding@?1???$__acrt_stdio_parse_mode@D@@YA?AU__acrt_stdio_stream_mode@@QBD@Z@4QBDB 1006c8c0     libucrt:openfile.obj
 0002:000078c8       ?utf16_encoding@?1???$__acrt_stdio_parse_mode@D@@YA?AU__acrt_stdio_stream_mode@@QBD@Z@4QBDB 1006c8c8     libucrt:openfile.obj
 0002:000078d4       ?unicode_encoding@?1???$__acrt_stdio_parse_mode@D@@YA?AU__acrt_stdio_stream_mode@@QBD@Z@4QBDB 1006c8d4     libucrt:openfile.obj
 0002:000078dc       ?ccs@?1???$__acrt_stdio_parse_mode@_W@@YA?AU__acrt_stdio_stream_mode@@QB_W@Z@4QB_WB 1006c8dc     libucrt:openfile.obj
 0002:000078e4       ?utf8_encoding@?1???$__acrt_stdio_parse_mode@_W@@YA?AU__acrt_stdio_stream_mode@@QB_W@Z@4QB_WB 1006c8e4     libucrt:openfile.obj
 0002:000078f0       ?utf16_encoding@?1???$__acrt_stdio_parse_mode@_W@@YA?AU__acrt_stdio_stream_mode@@QB_W@Z@4QB_WB 1006c8f0     libucrt:openfile.obj
 0002:00007904       ?unicode_encoding@?1???$__acrt_stdio_parse_mode@_W@@YA?AU__acrt_stdio_stream_mode@@QB_W@Z@4QB_WB 1006c904     libucrt:openfile.obj
 0002:00007918       __d_inf                    1006c918     libucrt:util.obj
 0002:00007928       __d_ind                    1006c928     libucrt:util.obj
 0002:00007938       __d_max                    1006c938     libucrt:util.obj
 0002:00007948       __d_min                    1006c948     libucrt:util.obj
 0002:00007958       __d_mzero                  1006c958     libucrt:util.obj
 0002:00007998       ??_C@_1M@HPNHIDJI@?$AAj?$AAa?$AA?9?$AAJ?$AAP?$AA?$AA@ 1006c998     libucrt:mbctype.obj
 0002:000079a8       ??_C@_1M@BIBDDEMK@?$AAz?$AAh?$AA?9?$AAC?$AAN?$AA?$AA@ 1006c9a8     libucrt:mbctype.obj
 0002:000079b8       ??_C@_1M@JLOOOEGK@?$AAk?$AAo?$AA?9?$AAK?$AAR?$AA?$AA@ 1006c9b8     libucrt:mbctype.obj
 0002:000079c8       ??_C@_1M@CLNBBOPM@?$AAz?$AAh?$AA?9?$AAT?$AAW?$AA?$AA@ 1006c9c8     libucrt:mbctype.obj
 0002:000079d8       __wctype                   1006c9d8     libucrt:ctype.obj
 0002:00007c48       ___newctype                1006cc48     libucrt:ctype.obj
 0002:00007fe8       ___newclmap                1006cfe8     libucrt:ctype.obj
 0002:000081b8       ___newcumap                1006d1b8     libucrt:ctype.obj
 0002:00008c14       ??_C@_15EMKDOKLE@?$AAa?$AAr?$AA?$AA@ 1006dc14     libucrt:lcidtoname_downlevel.obj
 0002:00008c1c       ??_C@_15KNPADPLH@?$AAb?$AAg?$AA?$AA@ 1006dc1c     libucrt:lcidtoname_downlevel.obj
 0002:00008c24       ??_C@_15EDMHLDMO@?$AAc?$AAa?$AA?$AA@ 1006dc24     libucrt:lcidtoname_downlevel.obj
 0002:00008c2c       ??_C@_1O@BPEAJADD@?$AAz?$AAh?$AA?9?$AAC?$AAH?$AAS?$AA?$AA@ 1006dc2c     libucrt:lcidtoname_downlevel.obj
 0002:00008c3c       ??_C@_15LJNHCMNK@?$AAc?$AAs?$AA?$AA@ 1006dc3c     libucrt:lcidtoname_downlevel.obj
 0002:00008c44       ??_C@_15FOMCIDHG@?$AAd?$AAa?$AA?$AA@ 1006dc44     libucrt:lcidtoname_downlevel.obj
 0002:00008c4c       ??_C@_15NBKABECB@?$AAd?$AAe?$AA?$AA@ 1006dc4c     libucrt:lcidtoname_downlevel.obj
 0002:00008c54       ??_C@_15GHPEIIAO@?$AAe?$AAl?$AA?$AA@ 1006dc54     libucrt:lcidtoname_downlevel.obj
 0002:00008c5c       ??_C@_15MNPNEAIF@?$AAe?$AAn?$AA?$AA@ 1006dc5c     libucrt:lcidtoname_downlevel.obj
 0002:00008c64       ??_C@_15GPIOMPMH@?$AAe?$AAs?$AA?$AA@ 1006dc64     libucrt:lcidtoname_downlevel.obj
 0002:00008c6c       ??_C@_15NGLOAKJC@?$AAf?$AAi?$AA?$AA@ 1006dc6c     libucrt:lcidtoname_downlevel.obj
 0002:00008c74       ??_C@_15FBKGNKAM@?$AAf?$AAr?$AA?$AA@ 1006dc74     libucrt:lcidtoname_downlevel.obj
 0002:00008c7c       ??_C@_15KGGCNEFK@?$AAh?$AAe?$AA?$AA@ 1006dc7c     libucrt:lcidtoname_downlevel.obj
 0002:00008c84       ??_C@_15PGHLIDMF@?$AAh?$AAu?$AA?$AA@ 1006dc84     libucrt:lcidtoname_downlevel.obj
 0002:00008c8c       ??_C@_15BIEMAPLM@?$AAi?$AAs?$AA?$AA@ 1006dc8c     libucrt:lcidtoname_downlevel.obj
 0002:00008c94       ??_C@_15IFJLDHAF@?$AAi?$AAt?$AA?$AA@ 1006dc94     libucrt:lcidtoname_downlevel.obj
 0002:00008c9c       ??_C@_15GEMIOCAG@?$AAj?$AAa?$AA?$AA@ 1006dc9c     libucrt:lcidtoname_downlevel.obj
 0002:00008ca4       ??_C@_15EPELEGJA@?$AAk?$AAo?$AA?$AA@ 1006dca4     libucrt:lcidtoname_downlevel.obj
 0002:00008cac       ??_C@_15NDDHIMN@?$AAn?$AAl?$AA?$AA@ 1006dcac     libucrt:lcidtoname_downlevel.obj
 0002:00008cb4       ??_C@_15BPIGNHCD@?$AAn?$AAo?$AA?$AA@ 1006dcb4     libucrt:lcidtoname_downlevel.obj
 0002:00008cbc       ??_C@_15DEOPBLCG@?$AAp?$AAl?$AA?$AA@ 1006dcbc     libucrt:lcidtoname_downlevel.obj
 0002:00008cc4       ??_C@_15KBECGEFG@?$AAp?$AAt?$AA?$AA@ 1006dcc4     libucrt:lcidtoname_downlevel.obj
 0002:00008ccc       ??_C@_15GLJCBFMD@?$AAr?$AAo?$AA?$AA@ 1006dccc     libucrt:lcidtoname_downlevel.obj
 0002:00008cd4       ??_C@_15FEDGKCDI@?$AAr?$AAu?$AA?$AA@ 1006dcd4     libucrt:lcidtoname_downlevel.obj
 0002:00008cdc       ??_C@_15GLKMLLHM@?$AAh?$AAr?$AA?$AA@ 1006dcdc     libucrt:lcidtoname_downlevel.obj
 0002:00008ce4       ??_C@_15CPKMFBDB@?$AAs?$AAk?$AA?$AA@ 1006dce4     libucrt:lcidtoname_downlevel.obj
 0002:00008cec       ??_C@_15BAAIOGMK@?$AAs?$AAq?$AA?$AA@ 1006dcec     libucrt:lcidtoname_downlevel.obj
 0002:00008cf4       ??_C@_15INNPNOHD@?$AAs?$AAv?$AA?$AA@ 1006dcf4     libucrt:lcidtoname_downlevel.obj
 0002:00008cfc       ??_C@_15CABMMOGH@?$AAt?$AAh?$AA?$AA@ 1006dcfc     libucrt:lcidtoname_downlevel.obj
 0002:00008d04       ??_C@_15BPLIHJJM@?$AAt?$AAr?$AA?$AA@ 1006dd04     libucrt:lcidtoname_downlevel.obj
 0002:00008d0c       ??_C@_15NEOEKKDJ@?$AAu?$AAr?$AA?$AA@ 1006dd0c     libucrt:lcidtoname_downlevel.obj
 0002:00008d14       ??_C@_15NFICGAJK@?$AAi?$AAd?$AA?$AA@ 1006dd14     libucrt:lcidtoname_downlevel.obj
 0002:00008d1c       ??_C@_15PJPFLCCM@?$AAu?$AAk?$AA?$AA@ 1006dd1c     libucrt:lcidtoname_downlevel.obj
 0002:00008d24       ??_C@_15HPJPHDM@?$AAb?$AAe?$AA?$AA@ 1006dd24     libucrt:lcidtoname_downlevel.obj
 0002:00008d2c       ??_C@_15LCHLGJII@?$AAs?$AAl?$AA?$AA@ 1006dd2c     libucrt:lcidtoname_downlevel.obj
 0002:00008d34       ??_C@_15PCFJPHHO@?$AAe?$AAt?$AA?$AA@ 1006dd34     libucrt:lcidtoname_downlevel.obj
 0002:00008d3c       ??_C@_15HPFPGODN@?$AAl?$AAv?$AA?$AA@ 1006dd3c     libucrt:lcidtoname_downlevel.obj
 0002:00008d44       ??_C@_15NFFGKGLG@?$AAl?$AAt?$AA?$AA@ 1006dd44     libucrt:lcidtoname_downlevel.obj
 0002:00008d4c       ??_C@_15BDAKCCHN@?$AAf?$AAa?$AA?$AA@ 1006dd4c     libucrt:lcidtoname_downlevel.obj
 0002:00008d54       ??_C@_15NFGIAIAJ@?$AAv?$AAi?$AA?$AA@ 1006dd54     libucrt:lcidtoname_downlevel.obj
 0002:00008d5c       ??_C@_15LMKNDMHN@?$AAh?$AAy?$AA?$AA@ 1006dd5c     libucrt:lcidtoname_downlevel.obj
 0002:00008d64       ??_C@_15IJBHMCFL@?$AAa?$AAz?$AA?$AA@ 1006dd64     libucrt:lcidtoname_downlevel.obj
 0002:00008d6c       ??_C@_15EKOFJABL@?$AAe?$AAu?$AA?$AA@ 1006dd6c     libucrt:lcidtoname_downlevel.obj
 0002:00008d74       ??_C@_15BGHADCNK@?$AAm?$AAk?$AA?$AA@ 1006dd74     libucrt:lcidtoname_downlevel.obj
 0002:00008d7c       ??_C@_15JDNICKHM@?$AAa?$AAf?$AA?$AA@ 1006dd7c     libucrt:lcidtoname_downlevel.obj
 0002:00008d84       ??_C@_15KPJEDBKD@?$AAk?$AAa?$AA?$AA@ 1006dd84     libucrt:lcidtoname_downlevel.obj
 0002:00008d8c       ??_C@_15PDNFFFEO@?$AAf?$AAo?$AA?$AA@ 1006dd8c     libucrt:lcidtoname_downlevel.obj
 0002:00008d94       ??_C@_15OMLEGLOC@?$AAh?$AAi?$AA?$AA@ 1006dd94     libucrt:lcidtoname_downlevel.obj
 0002:00008d9c       ??_C@_15IDNNENKK@?$AAm?$AAs?$AA?$AA@ 1006dd9c     libucrt:lcidtoname_downlevel.obj
 0002:00008da4       ??_C@_15MACJNBMH@?$AAk?$AAk?$AA?$AA@ 1006dda4     libucrt:lcidtoname_downlevel.obj
 0002:00008dac       ??_C@_15DKDJEOND@?$AAk?$AAy?$AA?$AA@ 1006ddac     libucrt:lcidtoname_downlevel.obj
 0002:00008db4       ??_C@_15DFGDLJBG@?$AAs?$AAw?$AA?$AA@ 1006ddb4     libucrt:lcidtoname_downlevel.obj
 0002:00008dbc       ??_C@_15BBFAICNG@?$AAu?$AAz?$AA?$AA@ 1006ddbc     libucrt:lcidtoname_downlevel.obj
 0002:00008dc4       ??_C@_15DKNDCGEA@?$AAt?$AAt?$AA?$AA@ 1006ddc4     libucrt:lcidtoname_downlevel.obj
 0002:00008dcc       ??_C@_15MGIFMDPL@?$AAp?$AAa?$AA?$AA@ 1006ddcc     libucrt:lcidtoname_downlevel.obj
 0002:00008dd4       ??_C@_15HCNDBBA@?$AAg?$AAu?$AA?$AA@ 1006ddd4     libucrt:lcidtoname_downlevel.obj
 0002:00008ddc       ??_C@_15FNBEIBON@?$AAt?$AAa?$AA?$AA@ 1006dddc     libucrt:lcidtoname_downlevel.obj
 0002:00008de4       ??_C@_15NCHGBGLK@?$AAt?$AAe?$AA?$AA@ 1006dde4     libucrt:lcidtoname_downlevel.obj
 0002:00008dec       ??_C@_15PHPHCBPF@?$AAk?$AAn?$AA?$AA@ 1006ddec     libucrt:lcidtoname_downlevel.obj
 0002:00008df4       ??_C@_15DLGBCKMP@?$AAm?$AAr?$AA?$AA@ 1006ddf4     libucrt:lcidtoname_downlevel.obj
 0002:00008dfc       ??_C@_15EABBLBFF@?$AAs?$AAa?$AA?$AA@ 1006ddfc     libucrt:lcidtoname_downlevel.obj
 0002:00008e04       ??_C@_15CBKOMCOI@?$AAm?$AAn?$AA?$AA@ 1006de04     libucrt:lcidtoname_downlevel.obj
 0002:00008e0c       ??_C@_15CKDMCJAF@?$AAg?$AAl?$AA?$AA@ 1006de0c     libucrt:lcidtoname_downlevel.obj
 0002:00008e14       ??_C@_17CNJFBPG@?$AAk?$AAo?$AAk?$AA?$AA@ 1006de14     libucrt:lcidtoname_downlevel.obj
 0002:00008e20       ??_C@_17FFBJICPL@?$AAs?$AAy?$AAr?$AA?$AA@ 1006de20     libucrt:lcidtoname_downlevel.obj
 0002:00008e2c       ??_C@_17KPNDCPAF@?$AAd?$AAi?$AAv?$AA?$AA@ 1006de2c     libucrt:lcidtoname_downlevel.obj
 0002:00008e38       ??_C@_11LOCGONAA@?$AA?$AA@ 1006de38     libucrt:lcidtoname_downlevel.obj
 0002:00008e3c       ??_C@_1M@OKAHONE@?$AAa?$AAr?$AA?9?$AAS?$AAA?$AA?$AA@ 1006de3c     libucrt:lcidtoname_downlevel.obj
 0002:00008e4c       ??_C@_1M@FFFIGIGK@?$AAb?$AAg?$AA?9?$AAB?$AAG?$AA?$AA@ 1006de4c     libucrt:lcidtoname_downlevel.obj
 0002:00008e5c       ??_C@_1M@BJNKEDC@?$AAc?$AAa?$AA?9?$AAE?$AAS?$AA?$AA@ 1006de5c     libucrt:lcidtoname_downlevel.obj
 0002:00008e6c       ??_C@_1M@IJJHFJHA@?$AAc?$AAs?$AA?9?$AAC?$AAZ?$AA?$AA@ 1006de6c     libucrt:lcidtoname_downlevel.obj
 0002:00008e7c       ??_C@_1M@CLPEOBGI@?$AAd?$AAa?$AA?9?$AAD?$AAK?$AA?$AA@ 1006de7c     libucrt:lcidtoname_downlevel.obj
 0002:00008e8c       ??_C@_1M@MCMADGCB@?$AAd?$AAe?$AA?9?$AAD?$AAE?$AA?$AA@ 1006de8c     libucrt:lcidtoname_downlevel.obj
 0002:00008e9c       ??_C@_1M@OOCKEMAM@?$AAe?$AAl?$AA?9?$AAG?$AAR?$AA?$AA@ 1006de9c     libucrt:lcidtoname_downlevel.obj
 0002:00008eac       ??_C@_1M@DDNJFGID@?$AAf?$AAi?$AA?9?$AAF?$AAI?$AA?$AA@ 1006deac     libucrt:lcidtoname_downlevel.obj
 0002:00008ebc       ??_C@_1M@GLIPPMAC@?$AAf?$AAr?$AA?9?$AAF?$AAR?$AA?$AA@ 1006debc     libucrt:lcidtoname_downlevel.obj
 0002:00008ecc       ??_C@_1M@GFMCHPE@?$AAh?$AAe?$AA?9?$AAI?$AAL?$AA?$AA@ 1006decc     libucrt:lcidtoname_downlevel.obj
 0002:00008edc       ??_C@_1M@MHLPGNKM@?$AAh?$AAu?$AA?9?$AAH?$AAU?$AA?$AA@ 1006dedc     libucrt:lcidtoname_downlevel.obj
 0002:00008eec       ??_C@_1M@LPDDNNPN@?$AAi?$AAs?$AA?9?$AAI?$AAS?$AA?$AA@ 1006deec     libucrt:lcidtoname_downlevel.obj
 0002:00008efc       ??_C@_1M@MADIPODN@?$AAi?$AAt?$AA?9?$AAI?$AAT?$AA?$AA@ 1006defc     libucrt:lcidtoname_downlevel.obj
 0002:00008f0c       ??_C@_1M@IHBJJGG@?$AAn?$AAl?$AA?9?$AAN?$AAL?$AA?$AA@ 1006df0c     libucrt:lcidtoname_downlevel.obj
 0002:00008f1c       ??_C@_1M@EANAGDL@?$AAn?$AAb?$AA?9?$AAN?$AAO?$AA?$AA@ 1006df1c     libucrt:lcidtoname_downlevel.obj
 0002:00008f2c       ??_C@_1M@NEIEMEGP@?$AAp?$AAl?$AA?9?$AAP?$AAL?$AA?$AA@ 1006df2c     libucrt:lcidtoname_downlevel.obj
 0002:00008f3c       ??_C@_1M@BOCFIGEP@?$AAp?$AAt?$AA?9?$AAB?$AAR?$AA?$AA@ 1006df3c     libucrt:lcidtoname_downlevel.obj
 0002:00008f4c       ??_C@_1M@IMPFOPBG@?$AAr?$AAo?$AA?9?$AAR?$AAO?$AA?$AA@ 1006df4c     libucrt:lcidtoname_downlevel.obj
 0002:00008f5c       ??_C@_1M@IDNNEJMM@?$AAr?$AAu?$AA?9?$AAR?$AAU?$AA?$AA@ 1006df5c     libucrt:lcidtoname_downlevel.obj
 0002:00008f6c       ??_C@_1M@LILEEOGM@?$AAh?$AAr?$AA?9?$AAH?$AAR?$AA?$AA@ 1006df6c     libucrt:lcidtoname_downlevel.obj
 0002:00008f7c       ??_C@_1M@FKIFEHPB@?$AAs?$AAk?$AA?9?$AAS?$AAK?$AA?$AA@ 1006df7c     libucrt:lcidtoname_downlevel.obj
 0002:00008f8c       ??_C@_1M@LJMAMNPJ@?$AAs?$AAq?$AA?9?$AAA?$AAL?$AA?$AA@ 1006df8c     libucrt:lcidtoname_downlevel.obj
 0002:00008f9c       ??_C@_1M@GIAKDKJK@?$AAs?$AAv?$AA?9?$AAS?$AAE?$AA?$AA@ 1006df9c     libucrt:lcidtoname_downlevel.obj
 0002:00008fac       ??_C@_1M@MKJKIKCL@?$AAt?$AAh?$AA?9?$AAT?$AAH?$AA?$AA@ 1006dfac     libucrt:lcidtoname_downlevel.obj
 0002:00008fbc       ??_C@_1M@MFLCCMPB@?$AAt?$AAr?$AA?9?$AAT?$AAR?$AA?$AA@ 1006dfbc     libucrt:lcidtoname_downlevel.obj
 0002:00008fcc       ??_C@_1M@OIJHDKJN@?$AAu?$AAr?$AA?9?$AAP?$AAK?$AA?$AA@ 1006dfcc     libucrt:lcidtoname_downlevel.obj
 0002:00008fdc       ??_C@_1M@LHIPCIEK@?$AAi?$AAd?$AA?9?$AAI?$AAD?$AA?$AA@ 1006dfdc     libucrt:lcidtoname_downlevel.obj
 0002:00008fec       ??_C@_1M@MFMOBGI@?$AAu?$AAk?$AA?9?$AAU?$AAA?$AA?$AA@ 1006dfec     libucrt:lcidtoname_downlevel.obj
 0002:00008ffc       ??_C@_1M@OBGLJIPL@?$AAb?$AAe?$AA?9?$AAB?$AAY?$AA?$AA@ 1006dffc     libucrt:lcidtoname_downlevel.obj
 0002:0000900c       ??_C@_1M@BCFAJEAD@?$AAs?$AAl?$AA?9?$AAS?$AAI?$AA?$AA@ 1006e00c     libucrt:lcidtoname_downlevel.obj
 0002:0000901c       ??_C@_1M@FKFFEDDN@?$AAe?$AAt?$AA?9?$AAE?$AAE?$AA?$AA@ 1006e01c     libucrt:lcidtoname_downlevel.obj
 0002:0000902c       ??_C@_1M@KGKKAACI@?$AAl?$AAv?$AA?9?$AAL?$AAV?$AA?$AA@ 1006e02c     libucrt:lcidtoname_downlevel.obj
 0002:0000903c       ??_C@_1M@IFGBIJO@?$AAl?$AAt?$AA?9?$AAL?$AAT?$AA?$AA@ 1006e03c     libucrt:lcidtoname_downlevel.obj
 0002:0000904c       ??_C@_1M@FGEAHEDM@?$AAf?$AAa?$AA?9?$AAI?$AAR?$AA?$AA@ 1006e04c     libucrt:lcidtoname_downlevel.obj
 0002:0000905c       ??_C@_1M@KBMAIBFN@?$AAv?$AAi?$AA?9?$AAV?$AAN?$AA?$AA@ 1006e05c     libucrt:lcidtoname_downlevel.obj
 0002:0000906c       ??_C@_1M@GPCBKDJK@?$AAh?$AAy?$AA?9?$AAA?$AAM?$AA?$AA@ 1006e06c     libucrt:lcidtoname_downlevel.obj
 0002:0000907c       ??_C@_1BG@BECMDDJB@?$AAa?$AAz?$AA?9?$AAA?$AAZ?$AA?9?$AAL?$AAa?$AAt?$AAn?$AA?$AA@ 1006e07c     libucrt:lcidtoname_downlevel.obj
 0002:00009098       ??_C@_1M@MAOFCAEA@?$AAe?$AAu?$AA?9?$AAE?$AAS?$AA?$AA@ 1006e098     libucrt:lcidtoname_downlevel.obj
 0002:000090a8       ??_C@_1M@IGHABKPI@?$AAm?$AAk?$AA?9?$AAM?$AAK?$AA?$AA@ 1006e0a8     libucrt:lcidtoname_downlevel.obj
 0002:000090b8       ??_C@_1M@IAIGNEJG@?$AAt?$AAn?$AA?9?$AAZ?$AAA?$AA?$AA@ 1006e0b8     libucrt:lcidtoname_downlevel.obj
 0002:000090c8       ??_C@_1M@IIJCOJFA@?$AAx?$AAh?$AA?9?$AAZ?$AAA?$AA?$AA@ 1006e0c8     libucrt:lcidtoname_downlevel.obj
 0002:000090d8       ??_C@_1M@LGPJHNJH@?$AAz?$AAu?$AA?9?$AAZ?$AAA?$AA?$AA@ 1006e0d8     libucrt:lcidtoname_downlevel.obj
 0002:000090e8       ??_C@_1M@HOKAOIO@?$AAa?$AAf?$AA?9?$AAZ?$AAA?$AA?$AA@ 1006e0e8     libucrt:lcidtoname_downlevel.obj
 0002:000090f8       ??_C@_1M@DPCLHLIE@?$AAk?$AAa?$AA?9?$AAG?$AAE?$AA?$AA@ 1006e0f8     libucrt:lcidtoname_downlevel.obj
 0002:00009108       ??_C@_1M@BLKMHJBI@?$AAf?$AAo?$AA?9?$AAF?$AAO?$AA?$AA@ 1006e108     libucrt:lcidtoname_downlevel.obj
 0002:00009118       ??_C@_1M@LGGJAPPB@?$AAh?$AAi?$AA?9?$AAI?$AAN?$AA?$AA@ 1006e118     libucrt:lcidtoname_downlevel.obj
 0002:00009128       ??_C@_1M@FIKPIHFE@?$AAm?$AAt?$AA?9?$AAM?$AAT?$AA?$AA@ 1006e128     libucrt:lcidtoname_downlevel.obj
 0002:00009138       ??_C@_1M@HEGGPBFA@?$AAs?$AAe?$AA?9?$AAN?$AAO?$AA?$AA@ 1006e138     libucrt:lcidtoname_downlevel.obj
 0002:00009148       ??_C@_1M@EIBJEEPA@?$AAm?$AAs?$AA?9?$AAM?$AAY?$AA?$AA@ 1006e148     libucrt:lcidtoname_downlevel.obj
 0002:00009158       ??_C@_1M@FHLBGMPP@?$AAk?$AAk?$AA?9?$AAK?$AAZ?$AA?$AA@ 1006e158     libucrt:lcidtoname_downlevel.obj
 0002:00009168       ??_C@_1M@NGJJLCGI@?$AAk?$AAy?$AA?9?$AAK?$AAG?$AA?$AA@ 1006e168     libucrt:lcidtoname_downlevel.obj
 0002:00009178       ??_C@_1M@GIENNBFC@?$AAs?$AAw?$AA?9?$AAK?$AAE?$AA?$AA@ 1006e178     libucrt:lcidtoname_downlevel.obj
 0002:00009188       ??_C@_1BG@NDGMJIMJ@?$AAu?$AAz?$AA?9?$AAU?$AAZ?$AA?9?$AAL?$AAa?$AAt?$AAn?$AA?$AA@ 1006e188     libucrt:lcidtoname_downlevel.obj
 0002:000091a4       ??_C@_1M@IDCCIHBC@?$AAt?$AAt?$AA?9?$AAR?$AAU?$AA?$AA@ 1006e1a4     libucrt:lcidtoname_downlevel.obj
 0002:000091b4       ??_C@_1M@LOICPMOJ@?$AAb?$AAn?$AA?9?$AAI?$AAN?$AA?$AA@ 1006e1b4     libucrt:lcidtoname_downlevel.obj
 0002:000091c4       ??_C@_1M@KPKKNEAH@?$AAp?$AAa?$AA?9?$AAI?$AAN?$AA?$AA@ 1006e1c4     libucrt:lcidtoname_downlevel.obj
 0002:000091d4       ??_C@_1M@PJGPPBOG@?$AAg?$AAu?$AA?9?$AAI?$AAN?$AA?$AA@ 1006e1d4     libucrt:lcidtoname_downlevel.obj
 0002:000091e4       ??_C@_1M@KMKMOPHI@?$AAt?$AAa?$AA?9?$AAI?$AAN?$AA?$AA@ 1006e1e4     libucrt:lcidtoname_downlevel.obj
 0002:000091f4       ??_C@_1M@KFEHEPAC@?$AAt?$AAe?$AA?9?$AAI?$AAN?$AA?$AA@ 1006e1f4     libucrt:lcidtoname_downlevel.obj
 0002:00009204       ??_C@_1M@CDCLMGHI@?$AAk?$AAn?$AA?9?$AAI?$AAN?$AA?$AA@ 1006e204     libucrt:lcidtoname_downlevel.obj
 0002:00009214       ??_C@_1M@MIODLDKF@?$AAm?$AAl?$AA?9?$AAI?$AAN?$AA?$AA@ 1006e214     libucrt:lcidtoname_downlevel.obj
 0002:00009224       ??_C@_1M@PBIEACPO@?$AAm?$AAr?$AA?9?$AAI?$AAN?$AA?$AA@ 1006e224     libucrt:lcidtoname_downlevel.obj
 0002:00009234       ??_C@_1M@NIDEAGPH@?$AAs?$AAa?$AA?9?$AAI?$AAN?$AA?$AA@ 1006e234     libucrt:lcidtoname_downlevel.obj
 0002:00009244       ??_C@_1M@FHIHCBIO@?$AAm?$AAn?$AA?9?$AAM?$AAN?$AA?$AA@ 1006e244     libucrt:lcidtoname_downlevel.obj
 0002:00009254       ??_C@_1M@JAIJPENP@?$AAc?$AAy?$AA?9?$AAG?$AAB?$AA?$AA@ 1006e254     libucrt:lcidtoname_downlevel.obj
 0002:00009264       ??_C@_1M@PHGFBEPN@?$AAg?$AAl?$AA?9?$AAE?$AAS?$AA?$AA@ 1006e264     libucrt:lcidtoname_downlevel.obj
 0002:00009274       ??_C@_1O@KPIPDNCP@?$AAk?$AAo?$AAk?$AA?9?$AAI?$AAN?$AA?$AA@ 1006e274     libucrt:lcidtoname_downlevel.obj
 0002:00009284       ??_C@_1O@KNHJLDJA@?$AAs?$AAy?$AAr?$AA?9?$AAS?$AAY?$AA?$AA@ 1006e284     libucrt:lcidtoname_downlevel.obj
 0002:00009294       ??_C@_1O@MKEKBLAH@?$AAd?$AAi?$AAv?$AA?9?$AAM?$AAV?$AA?$AA@ 1006e294     libucrt:lcidtoname_downlevel.obj
 0002:000092a4       ??_C@_1O@OHDCKDDF@?$AAq?$AAu?$AAz?$AA?9?$AAB?$AAO?$AA?$AA@ 1006e2a4     libucrt:lcidtoname_downlevel.obj
 0002:000092b4       ??_C@_1M@LEPJNLFD@?$AAn?$AAs?$AA?9?$AAZ?$AAA?$AA?$AA@ 1006e2b4     libucrt:lcidtoname_downlevel.obj
 0002:000092c4       ??_C@_1M@OMLEIIJB@?$AAm?$AAi?$AA?9?$AAN?$AAZ?$AA?$AA@ 1006e2c4     libucrt:lcidtoname_downlevel.obj
 0002:000092d4       ??_C@_1M@PMPEAILG@?$AAa?$AAr?$AA?9?$AAI?$AAQ?$AA?$AA@ 1006e2d4     libucrt:lcidtoname_downlevel.obj
 0002:000092e4       ??_C@_1M@CNKPNOEE@?$AAd?$AAe?$AA?9?$AAC?$AAH?$AA?$AA@ 1006e2e4     libucrt:lcidtoname_downlevel.obj
 0002:000092f4       ??_C@_1M@LKMGMLKO@?$AAe?$AAn?$AA?9?$AAG?$AAB?$AA?$AA@ 1006e2f4     libucrt:lcidtoname_downlevel.obj
 0002:00009304       ??_C@_1M@PGKJFFGL@?$AAe?$AAs?$AA?9?$AAM?$AAX?$AA?$AA@ 1006e304     libucrt:lcidtoname_downlevel.obj
 0002:00009314       ??_C@_1M@DNNANBDC@?$AAf?$AAr?$AA?9?$AAB?$AAE?$AA?$AA@ 1006e314     libucrt:lcidtoname_downlevel.obj
 0002:00009324       ??_C@_1M@HLGMDFHM@?$AAi?$AAt?$AA?9?$AAC?$AAH?$AA?$AA@ 1006e324     libucrt:lcidtoname_downlevel.obj
 0002:00009334       ??_C@_1M@CLLBGJH@?$AAn?$AAl?$AA?9?$AAB?$AAE?$AA?$AA@ 1006e334     libucrt:lcidtoname_downlevel.obj
 0002:00009344       ??_C@_1M@BODBOGLF@?$AAn?$AAn?$AA?9?$AAN?$AAO?$AA?$AA@ 1006e344     libucrt:lcidtoname_downlevel.obj
 0002:00009354       ??_C@_1M@HFFAHKAD@?$AAp?$AAt?$AA?9?$AAP?$AAT?$AA?$AA@ 1006e354     libucrt:lcidtoname_downlevel.obj
 0002:00009364       ??_C@_1BG@LNOAKHIE@?$AAs?$AAr?$AA?9?$AAS?$AAP?$AA?9?$AAL?$AAa?$AAt?$AAn?$AA?$AA@ 1006e364     libucrt:lcidtoname_downlevel.obj
 0002:00009380       ??_C@_1M@HBMHBGAK@?$AAs?$AAv?$AA?9?$AAF?$AAI?$AA?$AA@ 1006e380     libucrt:lcidtoname_downlevel.obj
 0002:00009390       ??_C@_1BG@DGCJGJBE@?$AAa?$AAz?$AA?9?$AAA?$AAZ?$AA?9?$AAC?$AAy?$AAr?$AAl?$AA?$AA@ 1006e390     libucrt:lcidtoname_downlevel.obj
 0002:000093ac       ??_C@_1M@KEJDAAHB@?$AAs?$AAe?$AA?9?$AAS?$AAE?$AA?$AA@ 1006e3ac     libucrt:lcidtoname_downlevel.obj
 0002:000093bc       ??_C@_1M@HEIBJJAD@?$AAm?$AAs?$AA?9?$AAB?$AAN?$AA?$AA@ 1006e3bc     libucrt:lcidtoname_downlevel.obj
 0002:000093cc       ??_C@_1BG@PBGJMCEM@?$AAu?$AAz?$AA?9?$AAU?$AAZ?$AA?9?$AAC?$AAy?$AAr?$AAl?$AA?$AA@ 1006e3cc     libucrt:lcidtoname_downlevel.obj
 0002:000093e8       ??_C@_1O@LAOBCMDF@?$AAq?$AAu?$AAz?$AA?9?$AAE?$AAC?$AA?$AA@ 1006e3e8     libucrt:lcidtoname_downlevel.obj
 0002:000093f8       ??_C@_1M@POEEMAIO@?$AAa?$AAr?$AA?9?$AAE?$AAG?$AA?$AA@ 1006e3f8     libucrt:lcidtoname_downlevel.obj
 0002:00009408       ??_C@_1M@EFAKDEDL@?$AAz?$AAh?$AA?9?$AAH?$AAK?$AA?$AA@ 1006e408     libucrt:lcidtoname_downlevel.obj
 0002:00009418       ??_C@_1M@HKKIJHGI@?$AAd?$AAe?$AA?9?$AAA?$AAT?$AA?$AA@ 1006e418     libucrt:lcidtoname_downlevel.obj
 0002:00009428       ??_C@_1M@KBFBEHJF@?$AAe?$AAn?$AA?9?$AAA?$AAU?$AA?$AA@ 1006e428     libucrt:lcidtoname_downlevel.obj
 0002:00009438       ??_C@_1M@MNPLFAAH@?$AAe?$AAs?$AA?9?$AAE?$AAS?$AA?$AA@ 1006e438     libucrt:lcidtoname_downlevel.obj
 0002:00009448       ??_C@_1M@HJOOJFMA@?$AAf?$AAr?$AA?9?$AAC?$AAA?$AA?$AA@ 1006e448     libucrt:lcidtoname_downlevel.obj
 0002:00009458       ??_C@_1BG@JPOFPNAB@?$AAs?$AAr?$AA?9?$AAS?$AAP?$AA?9?$AAC?$AAy?$AAr?$AAl?$AA?$AA@ 1006e458     libucrt:lcidtoname_downlevel.obj
 0002:00009474       ??_C@_1M@LNFOCMOB@?$AAs?$AAe?$AA?9?$AAF?$AAI?$AA?$AA@ 1006e474     libucrt:lcidtoname_downlevel.obj
 0002:00009484       ??_C@_1O@MGJBOAMB@?$AAq?$AAu?$AAz?$AA?9?$AAP?$AAE?$AA?$AA@ 1006e484     libucrt:lcidtoname_downlevel.obj
 0002:00009494       ??_C@_1M@GJINLBOK@?$AAa?$AAr?$AA?9?$AAL?$AAY?$AA?$AA@ 1006e494     libucrt:lcidtoname_downlevel.obj
 0002:000094a4       ??_C@_1M@GGMNHJNL@?$AAz?$AAh?$AA?9?$AAS?$AAG?$AA?$AA@ 1006e4a4     libucrt:lcidtoname_downlevel.obj
 0002:000094b4       ??_C@_1M@HOIKODND@?$AAd?$AAe?$AA?9?$AAL?$AAU?$AA?$AA@ 1006e4b4     libucrt:lcidtoname_downlevel.obj
 0002:000094c4       ??_C@_1M@DDOCCGFG@?$AAe?$AAn?$AA?9?$AAC?$AAA?$AA?$AA@ 1006e4c4     libucrt:lcidtoname_downlevel.obj
 0002:000094d4       ??_C@_1M@BNOEMJLF@?$AAe?$AAs?$AA?9?$AAG?$AAT?$AA?$AA@ 1006e4d4     libucrt:lcidtoname_downlevel.obj
 0002:000094e4       ??_C@_1M@EOGNKEK@?$AAf?$AAr?$AA?9?$AAC?$AAH?$AA?$AA@ 1006e4e4     libucrt:lcidtoname_downlevel.obj
 0002:000094f4       ??_C@_1M@FLIDJFHL@?$AAh?$AAr?$AA?9?$AAB?$AAA?$AA?$AA@ 1006e4f4     libucrt:lcidtoname_downlevel.obj
 0002:00009504       ??_C@_1O@FMCELNAJ@?$AAs?$AAm?$AAj?$AA?9?$AAN?$AAO?$AA?$AA@ 1006e504     libucrt:lcidtoname_downlevel.obj
 0002:00009514       ??_C@_1M@JHGLJMGJ@?$AAa?$AAr?$AA?9?$AAD?$AAZ?$AA?$AA@ 1006e514     libucrt:lcidtoname_downlevel.obj
 0002:00009524       ??_C@_1M@JKKFDCNP@?$AAz?$AAh?$AA?9?$AAM?$AAO?$AA?$AA@ 1006e524     libucrt:lcidtoname_downlevel.obj
 0002:00009534       ??_C@_1M@GEEFALPE@?$AAd?$AAe?$AA?9?$AAL?$AAI?$AA?$AA@ 1006e534     libucrt:lcidtoname_downlevel.obj
 0002:00009544       ??_C@_1M@IGEOFBG@?$AAe?$AAn?$AA?9?$AAN?$AAZ?$AA?$AA@ 1006e544     libucrt:lcidtoname_downlevel.obj
 0002:00009554       ??_C@_1M@KDBONEHP@?$AAe?$AAs?$AA?9?$AAC?$AAR?$AA?$AA@ 1006e554     libucrt:lcidtoname_downlevel.obj
 0002:00009564       ??_C@_1M@FHMDOHNN@?$AAf?$AAr?$AA?9?$AAL?$AAU?$AA?$AA@ 1006e564     libucrt:lcidtoname_downlevel.obj
 0002:00009574       ??_C@_1BG@NFKKMAFG@?$AAb?$AAs?$AA?9?$AAB?$AAA?$AA?9?$AAL?$AAa?$AAt?$AAn?$AA?$AA@ 1006e574     libucrt:lcidtoname_downlevel.obj
 0002:00009590       ??_C@_1O@IMNBEMCI@?$AAs?$AAm?$AAj?$AA?9?$AAS?$AAE?$AA?$AA@ 1006e590     libucrt:lcidtoname_downlevel.obj
 0002:000095a0       ??_C@_1M@DHHMBNDP@?$AAa?$AAr?$AA?9?$AAM?$AAA?$AA?$AA@ 1006e5a0     libucrt:lcidtoname_downlevel.obj
 0002:000095b0       ??_C@_1M@BNBLJCGH@?$AAe?$AAn?$AA?9?$AAI?$AAE?$AA?$AA@ 1006e5b0     libucrt:lcidtoname_downlevel.obj
 0002:000095c0       ??_C@_1M@GEPAFMDL@?$AAe?$AAs?$AA?9?$AAP?$AAA?$AA?$AA@ 1006e5c0     libucrt:lcidtoname_downlevel.obj
 0002:000095d0       ??_C@_1M@OJONDMDL@?$AAf?$AAr?$AA?9?$AAM?$AAC?$AA?$AA@ 1006e5d0     libucrt:lcidtoname_downlevel.obj
 0002:000095e0       ??_C@_1BG@OBCNFJB@?$AAs?$AAr?$AA?9?$AAB?$AAA?$AA?9?$AAL?$AAa?$AAt?$AAn?$AA?$AA@ 1006e5e0     libucrt:lcidtoname_downlevel.obj
 0002:000095fc       ??_C@_1O@KEMEEGPO@?$AAs?$AAm?$AAa?$AA?9?$AAN?$AAO?$AA?$AA@ 1006e5fc     libucrt:lcidtoname_downlevel.obj
 0002:0000960c       ??_C@_1M@ELMGFODK@?$AAa?$AAr?$AA?9?$AAT?$AAN?$AA?$AA@ 1006e60c     libucrt:lcidtoname_downlevel.obj
 0002:0000961c       ??_C@_1M@BHDLHFAF@?$AAe?$AAn?$AA?9?$AAZ?$AAA?$AA?$AA@ 1006e61c     libucrt:lcidtoname_downlevel.obj
 0002:0000962c       ??_C@_1M@BMGIGLIF@?$AAe?$AAs?$AA?9?$AAD?$AAO?$AA?$AA@ 1006e62c     libucrt:lcidtoname_downlevel.obj
 0002:0000963c       ??_C@_1BG@CMBHIPBE@?$AAs?$AAr?$AA?9?$AAB?$AAA?$AA?9?$AAC?$AAy?$AAr?$AAl?$AA?$AA@ 1006e63c     libucrt:lcidtoname_downlevel.obj
 0002:00009658       ??_C@_1O@HEDBLHNP@?$AAs?$AAm?$AAa?$AA?9?$AAS?$AAE?$AA?$AA@ 1006e658     libucrt:lcidtoname_downlevel.obj
 0002:00009668       ??_C@_1M@DAGCADIM@?$AAa?$AAr?$AA?9?$AAO?$AAM?$AA?$AA@ 1006e668     libucrt:lcidtoname_downlevel.obj
 0002:00009678       ??_C@_1M@FODLMICG@?$AAe?$AAn?$AA?9?$AAJ?$AAM?$AA?$AA@ 1006e678     libucrt:lcidtoname_downlevel.obj
 0002:00009688       ??_C@_1M@DNMLCIHB@?$AAe?$AAs?$AA?9?$AAV?$AAE?$AA?$AA@ 1006e688     libucrt:lcidtoname_downlevel.obj
 0002:00009698       ??_C@_1O@EOKHMKJK@?$AAs?$AAm?$AAs?$AA?9?$AAF?$AAI?$AA?$AA@ 1006e698     libucrt:lcidtoname_downlevel.obj
 0002:000096a8       ??_C@_1M@CAFJMKOF@?$AAa?$AAr?$AA?9?$AAY?$AAE?$AA?$AA@ 1006e6a8     libucrt:lcidtoname_downlevel.obj
 0002:000096b8       ??_C@_1M@CBFHIJLI@?$AAe?$AAn?$AA?9?$AAC?$AAB?$AA?$AA@ 1006e6b8     libucrt:lcidtoname_downlevel.obj
 0002:000096c8       ??_C@_1M@BGNFLDN@?$AAe?$AAs?$AA?9?$AAC?$AAO?$AA?$AA@ 1006e6c8     libucrt:lcidtoname_downlevel.obj
 0002:000096d8       ??_C@_1O@JMPHMAMC@?$AAs?$AAm?$AAn?$AA?9?$AAF?$AAI?$AA?$AA@ 1006e6d8     libucrt:lcidtoname_downlevel.obj
 0002:000096e8       ??_C@_1M@JLANABKE@?$AAa?$AAr?$AA?9?$AAS?$AAY?$AA?$AA@ 1006e6e8     libucrt:lcidtoname_downlevel.obj
 0002:000096f8       ??_C@_1M@HPKGCFGN@?$AAe?$AAn?$AA?9?$AAB?$AAZ?$AA?$AA@ 1006e6f8     libucrt:lcidtoname_downlevel.obj
 0002:00009708       ??_C@_1M@OLJCMLGM@?$AAe?$AAs?$AA?9?$AAP?$AAE?$AA?$AA@ 1006e708     libucrt:lcidtoname_downlevel.obj
 0002:00009718       ??_C@_1M@MKKGFKLE@?$AAa?$AAr?$AA?9?$AAJ?$AAO?$AA?$AA@ 1006e718     libucrt:lcidtoname_downlevel.obj
 0002:00009728       ??_C@_1M@EKPGLDNI@?$AAe?$AAn?$AA?9?$AAT?$AAT?$AA?$AA@ 1006e728     libucrt:lcidtoname_downlevel.obj
 0002:00009738       ??_C@_1M@OONGHFHE@?$AAe?$AAs?$AA?9?$AAA?$AAR?$AA?$AA@ 1006e738     libucrt:lcidtoname_downlevel.obj
 0002:00009748       ??_C@_1M@OOJFGBHE@?$AAa?$AAr?$AA?9?$AAL?$AAB?$AA?$AA@ 1006e748     libucrt:lcidtoname_downlevel.obj
 0002:00009758       ??_C@_1M@GCEJHNEG@?$AAe?$AAn?$AA?9?$AAZ?$AAW?$AA?$AA@ 1006e758     libucrt:lcidtoname_downlevel.obj
 0002:00009768       ??_C@_1M@JNOCAHJI@?$AAe?$AAs?$AA?9?$AAE?$AAC?$AA?$AA@ 1006e768     libucrt:lcidtoname_downlevel.obj
 0002:00009778       ??_C@_1M@JEFHPGGB@?$AAa?$AAr?$AA?9?$AAK?$AAW?$AA?$AA@ 1006e778     libucrt:lcidtoname_downlevel.obj
 0002:00009788       ??_C@_1M@MLKIBJOJ@?$AAe?$AAn?$AA?9?$AAP?$AAH?$AA?$AA@ 1006e788     libucrt:lcidtoname_downlevel.obj
 0002:00009798       ??_C@_1M@BDNIPEND@?$AAe?$AAs?$AA?9?$AAC?$AAL?$AA?$AA@ 1006e798     libucrt:lcidtoname_downlevel.obj
 0002:000097a8       ??_C@_1M@MPNMEKBD@?$AAa?$AAr?$AA?9?$AAA?$AAE?$AA?$AA@ 1006e7a8     libucrt:lcidtoname_downlevel.obj
 0002:000097b8       ??_C@_1M@KBJALCPI@?$AAe?$AAs?$AA?9?$AAU?$AAY?$AA?$AA@ 1006e7b8     libucrt:lcidtoname_downlevel.obj
 0002:000097c8       ??_C@_1M@LLCCOAGA@?$AAa?$AAr?$AA?9?$AAB?$AAH?$AA?$AA@ 1006e7c8     libucrt:lcidtoname_downlevel.obj
 0002:000097d8       ??_C@_1M@PBFNCDEL@?$AAe?$AAs?$AA?9?$AAP?$AAY?$AA?$AA@ 1006e7d8     libucrt:lcidtoname_downlevel.obj
 0002:000097e8       ??_C@_1M@EDGINPNP@?$AAa?$AAr?$AA?9?$AAQ?$AAA?$AA?$AA@ 1006e7e8     libucrt:lcidtoname_downlevel.obj
 0002:000097f8       ??_C@_1M@MKDBIIJI@?$AAe?$AAs?$AA?9?$AAB?$AAO?$AA?$AA@ 1006e7f8     libucrt:lcidtoname_downlevel.obj
 0002:00009808       ??_C@_1M@CPKKEBLD@?$AAe?$AAs?$AA?9?$AAS?$AAV?$AA?$AA@ 1006e808     libucrt:lcidtoname_downlevel.obj
 0002:00009818       ??_C@_1M@NDBGMMJL@?$AAe?$AAs?$AA?9?$AAH?$AAN?$AA?$AA@ 1006e818     libucrt:lcidtoname_downlevel.obj
 0002:00009828       ??_C@_1M@JIJIBHDP@?$AAe?$AAs?$AA?9?$AAN?$AAI?$AA?$AA@ 1006e828     libucrt:lcidtoname_downlevel.obj
 0002:00009838       ??_C@_1M@CGFMKEEK@?$AAe?$AAs?$AA?9?$AAP?$AAR?$AA?$AA@ 1006e838     libucrt:lcidtoname_downlevel.obj
 0002:00009848       ??_C@_1O@ICJHKIIK@?$AAz?$AAh?$AA?9?$AAC?$AAH?$AAT?$AA?$AA@ 1006e848     libucrt:lcidtoname_downlevel.obj
 0002:00009858       ??_C@_15CLNEJCE@?$AAs?$AAr?$AA?$AA@ 1006e858     libucrt:lcidtoname_downlevel.obj
 0002:0000a0ec       ??_C@_1M@KAHEKEIG@?$AAa?$AAf?$AA?9?$AAz?$AAa?$AA?$AA@ 1006f0ec     libucrt:lcidtoname_downlevel.obj
 0002:0000a0fc       ??_C@_1M@GIECOABL@?$AAa?$AAr?$AA?9?$AAa?$AAe?$AA?$AA@ 1006f0fc     libucrt:lcidtoname_downlevel.obj
 0002:0000a10c       ??_C@_1M@BMLMEKGI@?$AAa?$AAr?$AA?9?$AAb?$AAh?$AA?$AA@ 1006f10c     libucrt:lcidtoname_downlevel.obj
 0002:0000a11c       ??_C@_1M@DAPFDGGB@?$AAa?$AAr?$AA?9?$AAd?$AAz?$AA?$AA@ 1006f11c     libucrt:lcidtoname_downlevel.obj
 0002:0000a12c       ??_C@_1M@FJNKGKIG@?$AAa?$AAr?$AA?9?$AAe?$AAg?$AA?$AA@ 1006f12c     libucrt:lcidtoname_downlevel.obj
 0002:0000a13c       ??_C@_1M@FLGKKCLO@?$AAa?$AAr?$AA?9?$AAi?$AAq?$AA?$AA@ 1006f13c     libucrt:lcidtoname_downlevel.obj
 0002:0000a14c       ??_C@_1M@GNDIPALM@?$AAa?$AAr?$AA?9?$AAj?$AAo?$AA?$AA@ 1006f14c     libucrt:lcidtoname_downlevel.obj
 0002:0000a15c       ??_C@_1M@DDMJFMGJ@?$AAa?$AAr?$AA?9?$AAk?$AAw?$AA?$AA@ 1006f15c     libucrt:lcidtoname_downlevel.obj
 0002:0000a16c       ??_C@_1M@EJALMLHM@?$AAa?$AAr?$AA?9?$AAl?$AAb?$AA?$AA@ 1006f16c     libucrt:lcidtoname_downlevel.obj
 0002:0000a17c       ??_C@_1M@MOBDBLOC@?$AAa?$AAr?$AA?9?$AAl?$AAy?$AA?$AA@ 1006f17c     libucrt:lcidtoname_downlevel.obj
 0002:0000a18c       ??_C@_1M@JAOCLHDH@?$AAa?$AAr?$AA?9?$AAm?$AAa?$AA?$AA@ 1006f18c     libucrt:lcidtoname_downlevel.obj
 0002:0000a19c       ??_C@_1M@JHPMKJIE@?$AAa?$AAr?$AA?9?$AAo?$AAm?$AA?$AA@ 1006f19c     libucrt:lcidtoname_downlevel.obj
 0002:0000a1ac       ??_C@_1M@OEPGHFNH@?$AAa?$AAr?$AA?9?$AAq?$AAa?$AA?$AA@ 1006f1ac     libucrt:lcidtoname_downlevel.obj
 0002:0000a1bc       ??_C@_1M@KJDONENM@?$AAa?$AAr?$AA?9?$AAs?$AAa?$AA?$AA@ 1006f1bc     libucrt:lcidtoname_downlevel.obj
 0002:0000a1cc       ??_C@_1M@DMJDKLKM@?$AAa?$AAr?$AA?9?$AAs?$AAy?$AA?$AA@ 1006f1cc     libucrt:lcidtoname_downlevel.obj
 0002:0000a1dc       ??_C@_1M@OMFIPEDC@?$AAa?$AAr?$AA?9?$AAt?$AAn?$AA?$AA@ 1006f1dc     libucrt:lcidtoname_downlevel.obj
 0002:0000a1ec       ??_C@_1M@IHMHGAON@?$AAa?$AAr?$AA?9?$AAy?$AAe?$AA?$AA@ 1006f1ec     libucrt:lcidtoname_downlevel.obj
 0002:0000a1fc       ??_C@_1BG@KDCPGJGB@?$AAa?$AAz?$AA?9?$AAa?$AAz?$AA?9?$AAc?$AAy?$AAr?$AAl?$AA?$AA@ 1006f1fc     libucrt:lcidtoname_downlevel.obj
 0002:0000a218       ??_C@_1BG@IBCKDDOE@?$AAa?$AAz?$AA?9?$AAa?$AAz?$AA?9?$AAl?$AAa?$AAt?$AAn?$AA?$AA@ 1006f218     libucrt:lcidtoname_downlevel.obj
 0002:0000a234       ??_C@_1M@EGPFDCPD@?$AAb?$AAe?$AA?9?$AAb?$AAy?$AA?$AA@ 1006f234     libucrt:lcidtoname_downlevel.obj
 0002:0000a244       ??_C@_1M@PCMGMCGC@?$AAb?$AAg?$AA?9?$AAb?$AAg?$AA?$AA@ 1006f244     libucrt:lcidtoname_downlevel.obj
 0002:0000a254       ??_C@_1M@BJBMFGOB@?$AAb?$AAn?$AA?9?$AAi?$AAn?$AA?$AA@ 1006f254     libucrt:lcidtoname_downlevel.obj
 0002:0000a264       ??_C@_1BG@EAKMMACD@?$AAb?$AAs?$AA?9?$AAb?$AAa?$AA?9?$AAl?$AAa?$AAt?$AAn?$AA?$AA@ 1006f264     libucrt:lcidtoname_downlevel.obj
 0002:0000a280       ??_C@_1M@KGADAODK@?$AAc?$AAa?$AA?9?$AAe?$AAs?$AA?$AA@ 1006f280     libucrt:lcidtoname_downlevel.obj
 0002:0000a290       ??_C@_1M@COAJPDHI@?$AAc?$AAs?$AA?9?$AAc?$AAz?$AA?$AA@ 1006f290     libucrt:lcidtoname_downlevel.obj
 0002:0000a2a0       ??_C@_1M@DHBHFONH@?$AAc?$AAy?$AA?9?$AAg?$AAb?$AA?$AA@ 1006f2a0     libucrt:lcidtoname_downlevel.obj
 0002:0000a2b0       ??_C@_1M@IMGKELGA@?$AAd?$AAa?$AA?9?$AAd?$AAk?$AA?$AA@ 1006f2b0     libucrt:lcidtoname_downlevel.obj
 0002:0000a2c0       ??_C@_1M@NNDGDNGA@?$AAd?$AAe?$AA?9?$AAa?$AAt?$AA?$AA@ 1006f2c0     libucrt:lcidtoname_downlevel.obj
 0002:0000a2d0       ??_C@_1M@IKDBHEEM@?$AAd?$AAe?$AA?9?$AAc?$AAh?$AA?$AA@ 1006f2d0     libucrt:lcidtoname_downlevel.obj
 0002:0000a2e0       ??_C@_1M@GFFOJMCJ@?$AAd?$AAe?$AA?9?$AAd?$AAe?$AA?$AA@ 1006f2e0     libucrt:lcidtoname_downlevel.obj
 0002:0000a2f0       ??_C@_1M@MDNLKBPM@?$AAd?$AAe?$AA?9?$AAl?$AAi?$AA?$AA@ 1006f2f0     libucrt:lcidtoname_downlevel.obj
 0002:0000a300       ??_C@_1M@NJBEEJNL@?$AAd?$AAe?$AA?9?$AAl?$AAu?$AA?$AA@ 1006f300     libucrt:lcidtoname_downlevel.obj
