 new_analog_loopback_q4_p4_slrt

 Timestamp is 5e2a7add (Fri Jan 24 00:04:29 2020)

 Preferred load address is 10000000

 Start         Length     Name                   Class
 0001:00000000 0006868cH .text$mn                CODE
 0001:0006868c 0000105aH .text$x                 CODE
 0002:00000000 00000104H .CRT$XCA                DATA
 0002:00000104 00000104H .CRT$XCZ                DATA
 0002:00000208 00000104H .CRT$XIA                DATA
 0002:0000030c 00000110H .CRT$XIC                DATA
 0002:0000041c 00000104H .CRT$XIZ                DATA
 0002:00000520 00000104H .CRT$XPA                DATA
 0002:00000624 0000010cH .CRT$XPX                DATA
 0002:00000730 00000104H .CRT$XPXA               DATA
 0002:00000834 00000104H .CRT$XPZ                DATA
 0002:00000938 00000104H .CRT$XTA                DATA
 0002:00000a3c 00000104H .CRT$XTZ                DATA
 0002:00000b40 0000c89cH .rdata                  DATA
 0002:0000d3dc 00000444H .rdata$r                DATA
 0002:0000d820 00000124H .rdata$sxdata           DATA
 0002:0000d944 000001c0H .rdata$zzzdbg           DATA
 0002:0000db04 00000104H .rtc$IAA                DATA
 0002:0000dc08 00000104H .rtc$IZZ                DATA
 0002:0000dd0c 00000104H .rtc$TAA                DATA
 0002:0000de10 00000108H .rtc$TZZ                DATA
 0002:0000df18 00000cd8H .xdata$x                DATA
 0002:0000ebf0 000001f6H .edata                  DATA
 0003:00000000 00000fb0H .data                   DATA
 0003:00000fb0 00000250H .data$r                 DATA
 0003:00001200 00013804H .bss                    DATA
 0004:00000000 000001b4H .idata$5                DATA
 0004:000001b4 00000014H .idata$2                DATA
 0004:000001c8 00000014H .idata$3                DATA
 0004:000001dc 000001b4H .idata$4                DATA
 0004:00000390 000007a2H .idata$6                DATA
 0005:00000000 00000311H .gfids$y                DATA
 0006:00000000 00000104H .00cfg                  DATA

  Address         Publics by Value              Rva+Base       Lib:Object

 0000:00000000       ___guard_longjmp_count     00000000     <absolute>
 0000:00000000       ___guard_fids_count        00000000     <absolute>
 0000:00000000       __except_list              00000000     <absolute>
 0000:00000000       ___guard_iat_table         00000000     <absolute>
 0000:00000000       ___guard_longjmp_table     00000000     <absolute>
 0000:00000000       ___dynamic_value_reloc_table 00000000     <absolute>
 0000:00000000       ___guard_fids_table        00000000     <absolute>
 0000:00000000       ___guard_iat_count         00000000     <absolute>
 0000:00000007       ___safe_se_handler_count   00000007     <absolute>
 0000:00000100       ___guard_flags             00000100     <absolute>
 0000:00000000       ___ImageBase               10000000     <linker-defined>
 0001:000062d0       _MdlInitialize             100072d0 f   new_analog_loopback_q4_p4.obj
 0001:000062e0       _MdlInitializeSampleTimes  100072e0 f   new_analog_loopback_q4_p4.obj
 0001:000062f0       _MdlInitializeSizes        100072f0 f   new_analog_loopback_q4_p4.obj
 0001:00006300       _MdlOutputs                10007300 f   new_analog_loopback_q4_p4.obj
 0001:00006350       _MdlStart                  10007350 f   new_analog_loopback_q4_p4.obj
 0001:00006360       _MdlTerminate              10007360 f   new_analog_loopback_q4_p4.obj
 0001:00006380       _MdlUpdate                 10007380 f   new_analog_loopback_q4_p4.obj
 0001:00006410       ___local_stdio_printf_options 10007410 f i new_analog_loopback_q4_p4.obj
 0001:00006420       __vfprintf_l               10007420 f i new_analog_loopback_q4_p4.obj
 0001:00006450       _new_analog_loopback_q4_p4 10007450 f   new_analog_loopback_q4_p4.obj
 0001:00006f60       _printf                    10007f60 f i new_analog_loopback_q4_p4.obj
 0001:00006fa0       _rt_mxCreateCharMatrixFromStrings 10007fa0 f   rt_matrx.obj
 0001:00007100       _rt_mxCreateDoubleMatrix   10008100 f   rt_matrx.obj
 0001:00007160       _rt_mxCreateNumericArray   10008160 f   rt_matrx.obj
 0001:000071e0       _rt_mxCreateString         100081e0 f   rt_matrx.obj
 0001:00007270       _rt_mxDuplicateArray       10008270 f   rt_matrx.obj
 0001:000072d0       _rt_mxGetDimensions        100082d0 f   rt_matrx.obj
 0001:00007310       _rt_mxGetEps               10008310 f   rt_matrx.obj
 0001:00007320       _rt_mxGetString            10008320 f   rt_matrx.obj
 0001:000073a0       _rtPrintfNoOp              100083a0 f   rt_printf.obj
 0001:000073b0       _new_analog_loopback_q4_p4_GetCAPIStaticMap 100083b0 f   new_analog_loopback_q4_p4_capi.obj
 0001:000073c0       _new_analog_loopback_q4_p4_InitializeDataMapInfo 100083c0 f   new_analog_loopback_q4_p4_capi.obj
 0001:00007450       _rtGetInf                  10008450 f   rtGetInf.obj
 0001:00007480       _rtGetInfF                 10008480 f   rtGetInf.obj
 0001:000074a0       _rtGetMinusInf             100084a0 f   rtGetInf.obj
 0001:000074d0       _rtGetMinusInfF            100084d0 f   rtGetInf.obj
 0001:000074f0       _rtGetNaN                  100084f0 f   rtGetNaN.obj
 0001:00007520       _rtGetNaNF                 10008520 f   rtGetNaN.obj
 0001:00007540       _rtIsInf                   10008540 f   rt_nonfinite.obj
 0001:00007580       _rtIsInfF                  10008580 f   rt_nonfinite.obj
 0001:000075c0       _rtIsNaN                   100085c0 f   rt_nonfinite.obj
 0001:000075e0       _rtIsNaNF                  100085e0 f   rt_nonfinite.obj
 0001:00007600       _rt_InitInfAndNaN          10008600 f   rt_nonfinite.obj
 0001:00007660       _rt_CleanUpForStateLogWithMMI 10008660 f   rt_logging_mmi.obj
 0001:00007770       _rt_FillStateSigInfoFromMMI 10008770 f   rt_logging_mmi.obj
 0001:00007b10       _rtwCAPI_CountSysRan       10008b10 f   rtw_modelmap_utils.obj
 0001:00007bb0       _rtwCAPI_EncodePath        10008bb0 f   rtw_modelmap_utils.obj
 0001:00007cb0       _rtwCAPI_FillSysRan        10008cb0 f   rtw_modelmap_utils.obj
 0001:00007da0       _rtwCAPI_FreeFullPaths     10008da0 f   rtw_modelmap_utils.obj
 0001:00007e30       _rtwCAPI_GetFullStateBlockPath 10008e30 f   rtw_modelmap_utils.obj
 0001:00007fe0       _rtwCAPI_GetNumContStateRecords 10008fe0 f   rtw_modelmap_utils.obj
 0001:000080a0       _rtwCAPI_GetNumSigLogRecords 100090a0 f   rtw_modelmap_utils.obj
 0001:000080f0       _rtwCAPI_GetNumSigLogRecordsForRTWLogging 100090f0 f   rtw_modelmap_utils.obj
 0001:00008190       _rtwCAPI_GetNumStateRecords 10009190 f   rtw_modelmap_utils.obj
 0001:000081e0       _rtwCAPI_GetNumStateRecordsForRTWLogging 100091e0 f   rtw_modelmap_utils.obj
 0001:00008280       _rtwCAPI_GetSigAddrFromMap 10009280 f   rtw_modelmap_utils.obj
 0001:00008340       _rtwCAPI_GetSigLogRecordInfo 10009340 f   rtw_modelmap_utils.obj
 0001:00008770       _rtwCAPI_GetStateRecordInfo 10009770 f   rtw_modelmap_utils.obj
 0001:00008c20       _rtwCAPI_GetStateWidth     10009c20 f   rtw_modelmap_utils.obj
 0001:00008c80       _rtwCAPI_HasStates         10009c80 f   rtw_modelmap_utils.obj
 0001:00008cf0       _rtwCAPI_UpdateFullPaths   10009cf0 f   rtw_modelmap_utils.obj
 0001:00008ed0       __vsnprintf_l              10009ed0 f i rt_logging.obj
 0001:00008f10       __vsprintf_l               10009f10 f i rt_logging.obj
 0001:00008f50       _fprintf                   10009f50 f i rt_logging.obj
 0001:00009860       _rt_CreateLogVar           1000a860 f   rt_logging.obj
 0001:000098f0       _rt_CreateLogVarWithConvert 1000a8f0 f   rt_logging.obj
 0001:0000a270       _rt_CreateStructLogVar     1000b270 f   rt_logging.obj
 0001:0000afd0       _rt_GetMxIdFromDTypeId     1000bfd0 f   rt_logging.obj
 0001:0000b000       _rt_GetMxIdFromDTypeIdForRSim 1000c000 f   rt_logging.obj
 0001:0000d8d0       _rt_StartDataLogging       1000e8d0 f   rt_logging.obj
 0001:0000dd90       _rt_StartDataLoggingWithStartTime 1000ed90 f   rt_logging.obj
 0001:0000e6f0       _rt_StopDataLogging        1000f6f0 f   rt_logging.obj
 0001:0000e710       _rt_StopDataLoggingImpl    1000f710 f   rt_logging.obj
 0001:0000ea40       _rt_UpdateLogVar           1000fa40 f   rt_logging.obj
 0001:0000fb60       _rt_UpdateStructLogVar     10010b60 f   rt_logging.obj
 0001:0000fbf0       _rt_UpdateTXXFYLogVars     10010bf0 f   rt_logging.obj
 0001:0000ff20       _rt_UpdateTXYLogVars       10010f20 f   rt_logging.obj
 0001:00010170       _sprintf                   10011170 f i rt_logging.obj
 0001:000101b0       _DllMain@12                100111b0 f   xpctarget.obj
 0001:000101c0       _SLRTSetErrorStatus        100111c0 f   xpctarget.obj
 0001:000101e0       _changeStepSize            100111e0 f   xpctarget.obj
 0001:00010230       _getDLMVersion             10011230 f   xpctarget.obj
 0001:00010240       _getRefMdlPath             10011240 f   xpctarget.obj
 0001:000102c0       _getRefMdlSignalNumber     100112c0 f   xpctarget.obj
 0001:00010370       _getrlmdlinfo              10011370 f   xpctarget.obj
 0001:00010550       _new_analog_loopback_q4_p4_ChangeStepSize 10011550 f   xpctarget.obj
 0001:000105a0       _updateDiscreteEvents      100115a0 f   xpctarget.obj
 0001:000105b0       _getNumRef                 100115b0 f   appmappingData.obj
 0001:000105c0       _vprintf                   100115c0 f i legacy_stdio.obj
 0001:00010600       _encquanserq8              10011600 f   encquanserq8.obj
 0001:00011140       _GetPCIDeviceFull          10012140 f   xpcruntime:xpcimports.obj
 0001:00011180       _ShowPCIDevice             10012180 f   xpcruntime:xpcimports.obj
 0001:00011940       _xpcGetPciConfigAtSlot     10012940 f   xpcruntime:xpcimports.obj
 0001:00011c50       _xpcInitProcs              10012c50 f   xpcruntime:xpcimports.obj
 0001:00012fb0       _xpceuploadevent           10013fb0 f   xpcruntime:xpcimports.obj
 0001:00012fc0       __ftoui3                   10013fc0 f   LIBCMT:_ftol3_.obj
 0001:00012fcf       __ftoul3                   10013fcf f   LIBCMT:_ftol3_.obj
 0001:00012fde       __ftol3                    10013fde f   LIBCMT:_ftol3_.obj
 0001:00012feb       __ftol3_NaN                10013feb f   LIBCMT:_ftol3_.obj
 0001:00013003       __ftol3_work               10014003 f   LIBCMT:_ftol3_.obj
 0001:00013089       __ftol3_common             10014089 f   LIBCMT:_ftol3_.obj
 0001:0001314b       __ftol3_arg_error          1001414b f   LIBCMT:_ftol3_.obj
 0001:0001315d       __ftol3_except             1001415d f   LIBCMT:_ftol3_.obj
 0001:000131a1       __dtoui3                   100141a1 f   LIBCMT:_ftol3_.obj
 0001:000131b0       __dtoul3                   100141b0 f   LIBCMT:_ftol3_.obj
 0001:000131bf       __dtol3                    100141bf f   LIBCMT:_ftol3_.obj
 0001:000131cc       __dtol3_NaN                100141cc f   LIBCMT:_ftol3_.obj
 0001:000131e9       __dtol3_work               100141e9 f   LIBCMT:_ftol3_.obj
 0001:000132d0       __ultod3                   100142d0 f   LIBCMT:_ftol3_.obj
 0001:00013310       __ltod3                    10014310 f   LIBCMT:_ftol3_.obj
 0001:00013414       ___raise_securityfailure   10014414 f   LIBCMT:gs_report.obj
 0001:00013446       ___report_gsfailure        10014446 f   LIBCMT:gs_report.obj
 0001:0001357f       ___report_rangecheckfailure 1001457f f   LIBCMT:gs_report.obj
 0001:0001358e       ___report_securityfailure  1001458e f   LIBCMT:gs_report.obj
 0001:00013692       ___report_securityfailureEx 10014692 f   LIBCMT:gs_report.obj
 0001:000137ed       @__security_check_cookie@4 100147ed f   LIBCMT:_secchk_.obj
 0001:00013802       ___isa_available_init      10014802 f   LIBCMT:_cpu_disp_.obj
 0001:00013dca       __CRT_INIT@12              10014dca f   LIBCMT:dll_dllmain.obj
 0001:00013dd5       __DllMainCRTStartup@12     10014dd5 f   LIBCMT:dll_dllmain.obj
 0001:00013e00       ??$__crt_fast_decode_pointer@PAP6AXXZ@@YAPAP6AXXZQAP6AXXZ@Z 10014e00 f i LIBCMT:utility.obj
 0001:00013e19       ??$__crt_fast_encode_pointer@PAP6AXXZ@@YAPAP6AXXZQAP6AXXZ@Z 10014e19 f i LIBCMT:utility.obj
 0001:00013e3d       ?__crt_rotate_pointer_value@@YAIIH@Z 10014e3d f i LIBCMT:utility.obj
 0001:00013e4d       ?configure_argv@__scrt_narrow_argv_policy@@SAHXZ 10014e4d f i LIBCMT:utility.obj
 0001:00013ef1       _NtCurrentTeb              10014ef1 f i LIBCMT:utility.obj
 0001:00013ef8       ___scrt_acquire_startup_lock 10014ef8 f   LIBCMT:utility.obj
 0001:00013f3a       ___scrt_dllmain_after_initialize_c 10014f3a f   LIBCMT:utility.obj
 0001:00013f6f       ___scrt_dllmain_before_initialize_c 10014f6f f   LIBCMT:utility.obj
 0001:00013f80       ___scrt_dllmain_crt_thread_attach 10014f80 f   LIBCMT:utility.obj
 0001:00013fa6       ___scrt_dllmain_crt_thread_detach 10014fa6 f   LIBCMT:utility.obj
 0001:00013fb6       ___scrt_dllmain_exception_filter 10014fb6 f   LIBCMT:utility.obj
 0001:00013ff5       ___scrt_dllmain_uninitialize_c 10014ff5 f   LIBCMT:utility.obj
 0001:00014020       ___scrt_dllmain_uninitialize_critical 10015020 f   LIBCMT:utility.obj
 0001:00014030       ___scrt_initialize_crt     10015030 f   LIBCMT:utility.obj
 0001:00014077       ___scrt_initialize_onexit_tables 10015077 f   LIBCMT:utility.obj
 0001:00014133       ___scrt_is_nonwritable_in_current_image 10015133 f   LIBCMT:utility.obj
 0001:000141df       ___scrt_release_startup_lock 100151df f   LIBCMT:utility.obj
 0001:00014203       ___scrt_uninitialize_crt   10015203 f   LIBCMT:utility.obj
 0001:00014235       __onexit                   10015235 f   LIBCMT:utility.obj
 0001:0001427e       _at_quick_exit             1001527e f   LIBCMT:utility.obj
 0001:000142bb       _atexit                    100152bb f   LIBCMT:utility.obj
 0001:000142d5       ___security_init_cookie    100152d5 f   LIBCMT:gs_support.obj
 0001:00014398       ?__scrt_initialize_type_info@@YAXXZ 10015398 f   LIBCMT:tncleanup.obj
 0001:000143a7       ?__scrt_uninitialize_type_info@@YAXXZ 100153a7 f   LIBCMT:tncleanup.obj
 0001:000143b6       ___local_stdio_scanf_options 100153b6 f i LIBCMT:default_local_stdio_options.obj
 0001:000143bc       ___scrt_initialize_default_local_stdio_options 100153bc f   LIBCMT:default_local_stdio_options.obj
 0001:000143e0       ___scrt_get_dyn_tls_init_callback 100153e0 f   LIBCMT:dyn_tls_init.obj
 0001:000143e6       ___scrt_fastfail           100153e6 f   LIBCMT:utility_desktop.obj
 0001:00014547       ___scrt_get_show_window_mode 10015547 f   LIBCMT:utility_desktop.obj
 0001:00014586       ___scrt_initialize_winrt   10015586 f   LIBCMT:utility_desktop.obj
 0001:00014589       ___scrt_is_managed_app     10015589 f   LIBCMT:utility_desktop.obj
 0001:000145de       ___scrt_set_unhandled_exception_filter 100155de f   LIBCMT:utility_desktop.obj
 0001:000145ed       ___scrt_unhandled_exception_filter@4 100155ed f   LIBCMT:utility_desktop.obj
 0001:0001463e       __crt_debugger_hook        1001563e f   LIBCMT:utility_desktop.obj
 0001:00014648       __RTC_Initialize           10015648 f   LIBCMT:_initsect_.obj
 0001:0001467d       __RTC_Terminate            1001567d f   LIBCMT:_initsect_.obj
 0001:000146b2       @_guard_check_icall@4      100156b2 f i LIBCMT:checkcfg.obj
 0001:000146c0       __SEH_prolog4              100156c0 f   LIBCMT:_sehprolg4_.obj
 0001:00014706       __SEH_epilog4              10015706 f   LIBCMT:_sehprolg4_.obj
 0001:00014731       __get_startup_argv_mode    10015731 f   LIBCMT:argv_mode.obj
 0001:00014735       ___scrt_is_ucrt_dll_in_use 10015735 f   LIBCMT:ucrt_detection.obj
 0001:00014744       @_guard_check_icall_nop@4  10015744 f i LIBCMT:guard_support.obj
 0001:00014745       __guard_icall_checks_enforced 10015745 f i LIBCMT:guard_support.obj
 0001:0001475c       _GetModuleHandleA@4        1001575c f   kernel32:KERNEL32.dll
 0001:00014762       _GetProcAddress@8          10015762 f   kernel32:KERNEL32.dll
 0001:00014768       _UnhandledExceptionFilter@4 10015768 f   kernel32:KERNEL32.dll
 0001:0001476e       _SetUnhandledExceptionFilter@4 1001576e f   kernel32:KERNEL32.dll
 0001:00014774       _GetCurrentProcess@0       10015774 f   kernel32:KERNEL32.dll
 0001:0001477a       _TerminateProcess@8        1001577a f   kernel32:KERNEL32.dll
 0001:00014780       _IsProcessorFeaturePresent@4 10015780 f   kernel32:KERNEL32.dll
 0001:00014786       _QueryPerformanceCounter@4 10015786 f   kernel32:KERNEL32.dll
 0001:0001478c       _GetCurrentProcessId@0     1001578c f   kernel32:KERNEL32.dll
 0001:00014792       _GetCurrentThreadId@0      10015792 f   kernel32:KERNEL32.dll
 0001:00014798       _GetSystemTimeAsFileTime@4 10015798 f   kernel32:KERNEL32.dll
 0001:0001479e       _InitializeSListHead@4     1001579e f   kernel32:KERNEL32.dll
 0001:000147a4       _IsDebuggerPresent@0       100157a4 f   kernel32:KERNEL32.dll
 0001:000147aa       _GetStartupInfoW@4         100157aa f   kernel32:KERNEL32.dll
 0001:000147b0       _GetModuleHandleW@4        100157b0 f   kernel32:KERNEL32.dll
 0001:000147c0       _memset                    100157c0 f   libvcruntime:memset.obj
 0001:00014970       _memcpy                    10015970 f   libvcruntime:memcpy.obj
 0001:00015050       _memmove                   10016050 f   libvcruntime:memmove.obj
 0001:00015730       _strchr                    10016730 f   libvcruntime:strchr.obj
 0001:0001579e       ___from_strstr_to_strchr   1001679e     libvcruntime:strchr.obj
 0001:000158f0       __except_handler4          100168f0 f   libvcruntime:_chandler4_.obj
 0001:00015aaf       ___vcrt_initialize         10016aaf f   libvcruntime:initialization.obj
 0001:00015ae2       ___vcrt_thread_attach      10016ae2 f   libvcruntime:initialization.obj
 0001:00015aef       ___vcrt_thread_detach      10016aef f   libvcruntime:initialization.obj
 0001:00015afc       ___vcrt_uninitialize       10016afc f   libvcruntime:initialization.obj
 0001:00015b22       ___vcrt_uninitialize_critical 10016b22 f   libvcruntime:initialization.obj
 0001:00015b3d       ??$?RD@__crt_internal_free_policy@@QBEXQBD@Z 10016b3d f i libvcruntime:std_type_info.obj
 0001:00015b51       ??$?RX@__crt_internal_free_policy@@QBEXQBX@Z 10016b51 f i libvcruntime:std_type_info.obj
 0001:00015b65       ??$__crt_interlocked_compare_exchange_pointer@$$CBD$$T$$T@@YAPBDPDSBD$$T1@Z 10016b65 f i libvcruntime:std_type_info.obj
 0001:00015b7b       ??$__crt_interlocked_compare_exchange_pointer@$$CBDPAD$$T@@YAPBDPDSBDQAD$$T@Z 10016b7b f i libvcruntime:std_type_info.obj
 0001:00015b91       ??$__crt_interlocked_read_pointer@$$CBD@@YAPBDPDSBD@Z 10016b91 f i libvcruntime:std_type_info.obj
 0001:00015ba5       ??0?$__crt_unique_heap_ptr@DU__crt_internal_free_policy@@@@QAE@QAD@Z 10016ba5 f i libvcruntime:std_type_info.obj
 0001:00015bb6       ??0?$__crt_unique_heap_ptr@XU__crt_internal_free_policy@@@@QAE@QAX@Z 10016bb6 f i libvcruntime:std_type_info.obj
 0001:00015bc7       ??1?$__crt_unique_heap_ptr@DU__crt_internal_free_policy@@@@QAE@XZ 10016bc7 f i libvcruntime:std_type_info.obj
 0001:00015bdb       ??1?$__crt_unique_heap_ptr@XU__crt_internal_free_policy@@@@QAE@XZ 10016bdb f i libvcruntime:std_type_info.obj
 0001:00015bfb       ??B?$__crt_unique_heap_ptr@DU__crt_internal_free_policy@@@@QBE_NXZ 10016bfb f i libvcruntime:std_type_info.obj
 0001:00015c02       ??B?$__crt_unique_heap_ptr@XU__crt_internal_free_policy@@@@QBE_NXZ 10016c02 f i libvcruntime:std_type_info.obj
 0001:00015c31       ?detach@?$__crt_unique_heap_ptr@XU__crt_internal_free_policy@@@@QAEPAXXZ 10016c31 f i libvcruntime:std_type_info.obj
 0001:00015c37       ?get@?$__crt_unique_heap_ptr@DU__crt_internal_free_policy@@@@QBEPADXZ 10016c37 f i libvcruntime:std_type_info.obj
 0001:00015c3a       ?get@?$__crt_unique_heap_ptr@XU__crt_internal_free_policy@@@@QBEPAXXZ 10016c3a f i libvcruntime:std_type_info.obj
 0001:00015c3d       ?is_valid@?$__crt_unique_heap_ptr@DU__crt_internal_free_policy@@@@QBE_NXZ 10016c3d f i libvcruntime:std_type_info.obj
 0001:00015c44       ?is_valid@?$__crt_unique_heap_ptr@XU__crt_internal_free_policy@@@@QBE_NXZ 10016c44 f i libvcruntime:std_type_info.obj
 0001:00015c4b       ?release@?$__crt_unique_heap_ptr@DU__crt_internal_free_policy@@@@QAEXXZ 10016c4b f i libvcruntime:std_type_info.obj
 0001:00015c5f       ?release@?$__crt_unique_heap_ptr@XU__crt_internal_free_policy@@@@QAEXXZ 10016c5f f i libvcruntime:std_type_info.obj
 0001:00015c73       ___std_type_info_compare   10016c73 f   libvcruntime:std_type_info.obj
 0001:00015cbe       ___std_type_info_destroy_list 10016cbe f   libvcruntime:std_type_info.obj
 0001:00015ce9       ___std_type_info_hash      10016ce9 f   libvcruntime:std_type_info.obj
 0001:00015d18       ___std_type_info_name      10016d18 f   libvcruntime:std_type_info.obj
 0001:00015e20       __local_unwind4            10016e20 f   libvcruntime:_exsup4_.obj
 0001:00015ef6       __seh_longjmp_unwind4@4    10016ef6 f   libvcruntime:_exsup4_.obj
 0001:00015f1e       @_EH4_CallFilterFunc@8     10016f1e f   libvcruntime:_exsup4_.obj
 0001:00015f35       @_EH4_TransferToHandler@8  10016f35 f   libvcruntime:_exsup4_.obj
 0001:00015f4e       @_EH4_GlobalUnwind2@8      10016f4e f   libvcruntime:_exsup4_.obj
 0001:00015f67       @_EH4_LocalUnwind@16       10016f67 f   libvcruntime:_exsup4_.obj
 0001:00015fd5       ___except_validate_context_record 10016fd5 f   libvcruntime:jbcxrval.obj
 0001:00015fd6       ___except_validate_jump_buffer 10016fd6 f   libvcruntime:jbcxrval.obj
 0001:00015fd7       ??$?RU__vcrt_ptd@@@__crt_internal_free_policy@@QBEXQBU__vcrt_ptd@@@Z 10016fd7 f i libvcruntime:per_thread_data.obj
 0001:00015feb       ??0?$__crt_unique_heap_ptr@U__vcrt_ptd@@U__crt_internal_free_policy@@@@QAE@QAU__vcrt_ptd@@@Z 10016feb f i libvcruntime:per_thread_data.obj
 0001:0001600e       ??1?$__crt_unique_heap_ptr@U__vcrt_ptd@@U__crt_internal_free_policy@@@@QAE@XZ 1001700e f i libvcruntime:per_thread_data.obj
 0001:0001602d       ??B?$__crt_unique_heap_ptr@U__vcrt_ptd@@U__crt_internal_free_policy@@@@QBE_NXZ 1001702d f i libvcruntime:per_thread_data.obj
 0001:00016034       ?detach@?$__crt_unique_heap_ptr@U__vcrt_ptd@@U__crt_internal_free_policy@@@@QAEPAU__vcrt_ptd@@XZ 10017034 f i libvcruntime:per_thread_data.obj
 0001:0001603a       ?get@?$__crt_unique_heap_ptr@U__vcrt_ptd@@U__crt_internal_free_policy@@@@QBEPAU__vcrt_ptd@@XZ 1001703a f i libvcruntime:per_thread_data.obj
 0001:0001603d       ?is_valid@?$__crt_unique_heap_ptr@U__vcrt_ptd@@U__crt_internal_free_policy@@@@QBE_NXZ 1001703d f i libvcruntime:per_thread_data.obj
 0001:00016044       ?release@?$__crt_unique_heap_ptr@U__vcrt_ptd@@U__crt_internal_free_policy@@@@QAEXXZ 10017044 f i libvcruntime:per_thread_data.obj
 0001:00016078       ___vcrt_freefls@4          10017078 f   libvcruntime:per_thread_data.obj
 0001:0001609b       ___vcrt_freeptd            1001709b f   libvcruntime:per_thread_data.obj
 0001:000160de       ___vcrt_getptd             100170de f   libvcruntime:per_thread_data.obj
 0001:000160ef       ___vcrt_getptd_noexit      100170ef f   libvcruntime:per_thread_data.obj
 0001:000161a5       ___vcrt_initialize_ptd     100171a5 f   libvcruntime:per_thread_data.obj
 0001:000161e4       ___vcrt_uninitialize_ptd   100171e4 f   libvcruntime:per_thread_data.obj
 0001:00016205       ___vcrt_initialize_locks   10017205 f   libvcruntime:locks.obj
 0001:00016250       ___vcrt_lock               10017250 f   libvcruntime:locks.obj
 0001:0001626a       ___vcrt_uninitialize_locks 1001726a f   libvcruntime:locks.obj
 0001:000162a4       ___vcrt_unlock             100172a4 f   libvcruntime:locks.obj
 0001:000162be       ??$?BX@__crt_fast_encoded_nullptr_t@@QBEPAXXZ 100172be f i libvcruntime:winapi_downlevel.obj
 0001:000162dc       ??$__crt_fast_decode_pointer@PAX@@YAPAXQAX@Z 100172dc f i libvcruntime:winapi_downlevel.obj
 0001:000162f5       ??$__crt_fast_encode_pointer@PAX@@YAPAXQAX@Z 100172f5 f i libvcruntime:winapi_downlevel.obj
 0001:00016319       ??$__crt_interlocked_compare_exchange_pointer@UHINSTANCE__@@$$T$$T@@YAPAUHINSTANCE__@@PDSAU0@$$T1@Z 10017319 f i libvcruntime:winapi_downlevel.obj
 0001:0001632f       ??$__crt_interlocked_compare_exchange_pointer@X$$T$$T@@YAPAXPDSAX$$T1@Z 1001732f f i libvcruntime:winapi_downlevel.obj
 0001:00016345       ??$__crt_interlocked_exchange_pointer@UHINSTANCE__@@PAU1@@@YAPAUHINSTANCE__@@PDSAU0@QAU0@@Z 10017345 f i libvcruntime:winapi_downlevel.obj
 0001:00016355       ??$__crt_interlocked_exchange_pointer@UHINSTANCE__@@PAX@@YAPAUHINSTANCE__@@PDSAU0@QAX@Z 10017355 f i libvcruntime:winapi_downlevel.obj
 0001:00016365       ??$__crt_interlocked_exchange_pointer@XPAX@@YAPAXPDSAXQAX@Z 10017365 f i libvcruntime:winapi_downlevel.obj
 0001:00016375       ??$__crt_interlocked_read_pointer@UHINSTANCE__@@@@YAPAUHINSTANCE__@@PDSAU0@@Z 10017375 f i libvcruntime:winapi_downlevel.obj
 0001:00016389       ??$__crt_interlocked_read_pointer@X@@YAPAXPDSAX@Z 10017389 f i libvcruntime:winapi_downlevel.obj
 0001:0001639d       ?__crt_fast_encode_pointer@@YA?AU__crt_fast_encoded_nullptr_t@@$$T@Z 1001739d f i libvcruntime:winapi_downlevel.obj
 0001:000166e1       ___vcrt_EventRegister      100176e1 f   libvcruntime:winapi_downlevel.obj
 0001:00016731       ___vcrt_EventSetInformation 10017731 f   libvcruntime:winapi_downlevel.obj
 0001:00016784       ___vcrt_EventUnregister    10017784 f   libvcruntime:winapi_downlevel.obj
 0001:000167cc       ___vcrt_EventWriteTransfer 100177cc f   libvcruntime:winapi_downlevel.obj
 0001:00016827       ___vcrt_FlsAlloc           10017827 f   libvcruntime:winapi_downlevel.obj
 0001:0001686f       ___vcrt_FlsFree            1001786f f   libvcruntime:winapi_downlevel.obj
 0001:000168b7       ___vcrt_FlsGetValue        100178b7 f   libvcruntime:winapi_downlevel.obj
 0001:000168ff       ___vcrt_FlsSetValue        100178ff f   libvcruntime:winapi_downlevel.obj
 0001:0001694b       ___vcrt_InitializeCriticalSectionEx 1001794b f   libvcruntime:winapi_downlevel.obj
 0001:000169a2       ___vcrt_initialize_winapi_thunks 100179a2 f   libvcruntime:winapi_downlevel.obj
 0001:000169ea       ___vcrt_uninitialize_winapi_thunks 100179ea f   libvcruntime:winapi_downlevel.obj
 0001:00016a28       ??$?B$$A6AXXZ@__crt_fast_encoded_nullptr_t@@QBEP6AXXZXZ 10017a28 f i libvcruntime:purevirt_data.obj
 0001:00016a46       ??$__crt_fast_encode_pointer@P6AXXZ@@YAP6AXXZQ6AXXZ@Z 10017a46 f i libvcruntime:purevirt_data.obj
 0001:00016a6a       ___vcrt_initialize_pure_virtual_call_handler 10017a6a f   libvcruntime:purevirt_data.obj
 0001:00016a8e       ??$__vcrt_va_start_verify_argument_type@QBD@@YAXXZ 10017a8e f i libvcruntime:undname.obj
 0001:00016a8f       ??0Block@_HeapManager@@QAE@XZ 10017a8f f i libvcruntime:undname.obj
 0001:00016a95       ??0DName@@QAE@AAPBDD@Z     10017a95 f   libvcruntime:undname.obj
 0001:00016b7c       ??0DName@@QAE@ABV0@@Z      10017b7c f i libvcruntime:undname.obj
 0001:00016b97       ??0DName@@QAE@D@Z          10017b97 f   libvcruntime:undname.obj
 0001:00016bce       ??0DName@@QAE@PAV0@@Z      10017bce f   libvcruntime:undname.obj
 0001:00016c2e       ??0DName@@QAE@PBD@Z        10017c2e f   libvcruntime:undname.obj
 0001:00016c76       ??0DName@@QAE@W4DNameStatus@@@Z 10017c76 f   libvcruntime:undname.obj
 0001:00016cc9       ??0DName@@QAE@XZ           10017cc9 f i libvcruntime:undname.obj
 0001:00016cde       ??0DName@@QAE@_J@Z         10017cde f   libvcruntime:undname.obj
 0001:00016d98       ??0DName@@QAE@_K@Z         10017d98 f   libvcruntime:undname.obj
 0001:00016e22       ??0DNameNode@@IAE@XZ       10017e22 f   libvcruntime:undname.obj
 0001:00016e2d       ??0DNameStatusNode@@AAE@W4DNameStatus@@@Z 10017e2d f   libvcruntime:undname.obj
 0001:00016e58       ??0Replicator@@QAE@XZ      10017e58 f i libvcruntime:undname.obj
 0001:00016e5e       ??0UnDecorator@@QAE@PADPBDHP6APADJ@ZK@Z 10017e5e f i libvcruntime:undname.obj
 0001:00016ee1       ??0charNode@@QAE@D@Z       10017ee1 f   libvcruntime:undname.obj
 0001:00016efb       ??0pDNameNode@@QAE@PAVDName@@@Z 10017efb f   libvcruntime:undname.obj
 0001:00016f2d       ??0pairNode@@QAE@PAVDNameNode@@0@Z 10017f2d f   libvcruntime:undname.obj
 0001:00016f53       ??0pcharNode@@QAE@PBDH@Z   10017f53 f   libvcruntime:undname.obj
 0001:00016fc2       ??2@YAPAXIAAV_HeapManager@@H@Z 10017fc2 f i libvcruntime:undname.obj
 0001:00016fdc       ??4DName@@QAEAAV0@ABV0@@Z  10017fdc f   libvcruntime:undname.obj
 0001:00016ff7       ??4DName@@QAEAAV0@D@Z      10017ff7 f i libvcruntime:undname.obj
 0001:0001702e       ??4DName@@QAEAAV0@PAV0@@Z  1001802e f   libvcruntime:undname.obj
 0001:00017089       ??4DName@@QAEAAV0@PBD@Z    10018089 f   libvcruntime:undname.obj
 0001:000170c7       ??4DName@@QAEAAV0@W4DNameStatus@@@Z 100180c7 f   libvcruntime:undname.obj
 0001:00017109       ??AReplicator@@QBE?AVDName@@H@Z 10018109 f   libvcruntime:undname.obj
 0001:00017154       ??BUnDecorator@@QAEPADXZ   10018154 f i libvcruntime:undname.obj
 0001:0001732b       ??H@YA?AVDName@@DABV0@@Z   1001832b f i libvcruntime:undname.obj
 0001:00017358       ??H@YA?AVDName@@PBDABV0@@Z 10018358 f i libvcruntime:undname.obj
 0001:00017385       ??H@YA?AVDName@@W4DNameStatus@@ABV0@@Z 10018385 f i libvcruntime:undname.obj
 0001:000173b2       ??HDName@@QBE?AV0@ABV0@@Z  100183b2 f   libvcruntime:undname.obj
 0001:000173dc       ??HDName@@QBE?AV0@D@Z      100183dc f   libvcruntime:undname.obj
 0001:00017406       ??HDName@@QBE?AV0@PAV0@@Z  10018406 f   libvcruntime:undname.obj
 0001:00017430       ??HDName@@QBE?AV0@PBD@Z    10018430 f   libvcruntime:undname.obj
 0001:0001745a       ??HDName@@QBE?AV0@W4DNameStatus@@@Z 1001845a f   libvcruntime:undname.obj
 0001:00017484       ??YDName@@QAEAAV0@ABV0@@Z  10018484 f   libvcruntime:undname.obj
 0001:000174d7       ??YDName@@QAEAAV0@D@Z      100184d7 f   libvcruntime:undname.obj
 0001:0001753b       ??YDName@@QAEAAV0@PAV0@@Z  1001853b f   libvcruntime:undname.obj
 0001:000175b9       ??YDName@@QAEAAV0@PBD@Z    100185b9 f   libvcruntime:undname.obj
 0001:00017632       ??YDName@@QAEAAV0@W4DNameStatus@@@Z 10018632 f   libvcruntime:undname.obj
 0001:00017682       ??YReplicator@@QAEAAV0@ABVDName@@@Z 10018682 f   libvcruntime:undname.obj
 0001:000176de       ??_5DName@@QAEAAV0@ABV0@@Z 100186de f   libvcruntime:undname.obj
 0001:00017701       ?Constructor@_HeapManager@@QAEXP6APAXI@ZP6AXPAX@Z@Z 10018701 f i libvcruntime:undname.obj
 0001:00017725       ?Destructor@_HeapManager@@QAEXXZ 10018725 f i libvcruntime:undname.obj
 0001:0001776c       ?UScore@UnDecorator@@SAPBDW4Tokens@@@Z 1001876c f   libvcruntime:undname.obj
 0001:00017790       ?append@DName@@AAEXPAVDNameNode@@@Z 10018790 f   libvcruntime:undname.obj
 0001:000177e7       ?composeDeclaration@UnDecorator@@CA?AVDName@@ABV2@@Z 100187e7 f i libvcruntime:undname.obj
 0001:00018822       ?doAccessSpecifiers@UnDecorator@@SAHXZ 10019822 f i libvcruntime:undname.obj
 0001:00018833       ?doAllocationLanguage@UnDecorator@@SAHXZ 10019833 f i libvcruntime:undname.obj
 0001:00018844       ?doAllocationModel@UnDecorator@@SAHXZ 10019844 f i libvcruntime:undname.obj
 0001:00018855       ?doEcsu@UnDecorator@@SAHXZ 10019855 f i libvcruntime:undname.obj
 0001:00018866       ?doEllipsis@UnDecorator@@SAHXZ 10019866 f i libvcruntime:undname.obj
 0001:00018877       ?doFunctionReturns@UnDecorator@@SAHXZ 10019877 f i libvcruntime:undname.obj
 0001:00018888       ?doMSKeywords@UnDecorator@@SAHXZ 10019888 f i libvcruntime:undname.obj
 0001:00018898       ?doMemberTypes@UnDecorator@@SAHXZ 10019898 f i libvcruntime:undname.obj
 0001:000188a9       ?doNameOnly@UnDecorator@@SAHXZ 100198a9 f i libvcruntime:undname.obj
 0001:000188b6       ?doNoIdentCharCheck@UnDecorator@@SAHXZ 100198b6 f i libvcruntime:undname.obj
 0001:000188c3       ?doPchar@DName@@AAEXPBDH@Z 100198c3 f   libvcruntime:undname.obj
 0001:0001896f       ?doPtr64@UnDecorator@@SAHXZ 1001996f f i libvcruntime:undname.obj
 0001:00018980       ?doRestrictionSpec@UnDecorator@@SAHXZ 10019980 f i libvcruntime:undname.obj
 0001:00018991       ?doThisTypes@UnDecorator@@SAHXZ 10019991 f i libvcruntime:undname.obj
 0001:000189a7       ?doThrowTypes@UnDecorator@@SAHXZ 100199a7 f i libvcruntime:undname.obj
 0001:000189b8       ?doTypeOnly@UnDecorator@@SAHXZ 100199b8 f i libvcruntime:undname.obj
 0001:000189c5       ?doUnderScore@UnDecorator@@SAHXZ 100199c5 f i libvcruntime:undname.obj
 0001:000189d2       ?getArgumentList@UnDecorator@@CA?AVDName@@XZ 100199d2 f   libvcruntime:undname.obj
 0001:00018b21       ?getArgumentTypes@UnDecorator@@CA?AVDName@@XZ 10019b21 f   libvcruntime:undname.obj
 0001:00018c39       ?getArrayType@UnDecorator@@CA?AVDName@@ABV2@@Z 10019c39 f i libvcruntime:undname.obj
 0001:00018ebb       ?getBasedType@UnDecorator@@CA?AVDName@@XZ 10019ebb f   libvcruntime:undname.obj
 0001:00018f7a       ?getBasicDataType@UnDecorator@@CA?AVDName@@ABV2@@Z 10019f7a f   libvcruntime:undname.obj
 0001:00019464       ?getCallIndex@UnDecorator@@CA?AVDName@@XZ 1001a464 f i libvcruntime:undname.obj
 0001:0001947d       ?getCallingConvention@UnDecorator@@CA?AVDName@@XZ 1001a47d f   libvcruntime:undname.obj
 0001:0001956b       ?getDataIndirectType@UnDecorator@@CA?AVDName@@ABV2@PBD0H@Z 1001a56b f   libvcruntime:undname.obj
 0001:00019d16       ?getDataIndirectType@UnDecorator@@CA?AVDName@@XZ 1001ad16 f i libvcruntime:undname.obj
 0001:00019d5d       ?getDataType@UnDecorator@@CA?AVDName@@PAV2@@Z 1001ad5d f   libvcruntime:undname.obj
 0001:00019e63       ?getDecoratedName@UnDecorator@@CA?AVDName@@XZ 1001ae63 f   libvcruntime:undname.obj
 0001:0001a142       ?getDimension@UnDecorator@@CA?AVDName@@_N@Z 1001b142 f   libvcruntime:undname.obj
 0001:0001a2c6       ?getDispatchTarget@UnDecorator@@CA?AVDName@@XZ 1001b2c6 f   libvcruntime:undname.obj
 0001:0001a337       ?getDisplacement@UnDecorator@@CA?AVDName@@XZ 1001b337 f i libvcruntime:undname.obj
 0001:0001a350       ?getECSUDataType@UnDecorator@@CA?AVDName@@XZ 1001b350 f   libvcruntime:undname.obj
 0001:0001a4b4       ?getECSUName@UnDecorator@@CA?AVDName@@XZ 1001b4b4 f i libvcruntime:undname.obj
 0001:0001a4c9       ?getEnumType@UnDecorator@@CA?AVDName@@XZ 1001b4c9 f i libvcruntime:undname.obj
 0001:0001a5f0       ?getExtendedDataIndirectType@UnDecorator@@CA?AVDName@@AAPBDAA_NH@Z 1001b5f0 f   libvcruntime:undname.obj
 0001:0001a803       ?getExternalDataType@UnDecorator@@CA?AVDName@@ABV2@@Z 1001b803 f i libvcruntime:undname.obj
 0001:0001a89a       ?getFunctionIndirectType@UnDecorator@@CA?AVDName@@ABV2@@Z 1001b89a f   libvcruntime:undname.obj
 0001:0001ada5       ?getGuardNumber@UnDecorator@@CA?AVDName@@XZ 1001bda5 f i libvcruntime:undname.obj
 0001:0001adbe       ?getLastChar@DName@@QBEDXZ 1001bdbe f i libvcruntime:undname.obj
 0001:0001ade4       ?getLastChar@DNameStatusNode@@UBEDXZ 1001bde4 f i libvcruntime:undname.obj
 0001:0001adf3       ?getLastChar@charNode@@UBEDXZ 1001bdf3 f i libvcruntime:undname.obj
 0001:0001adf7       ?getLastChar@pDNameNode@@UBEDXZ 1001bdf7 f i libvcruntime:undname.obj
 0001:0001ae08       ?getLastChar@pairNode@@UBEDXZ 1001be08 f i libvcruntime:undname.obj
 0001:0001ae47       ?getLastChar@pcharNode@@UBEDXZ 1001be47 f i libvcruntime:undname.obj
 0001:0001ae5d       ?getLexicalFrame@UnDecorator@@CA?AVDName@@XZ 1001be5d f i libvcruntime:undname.obj
 0001:0001aea9       ?getMemory@_HeapManager@@QAEPAXIH@Z 1001bea9 f   libvcruntime:undname.obj
 0001:0001af5a       ?getNumberOfDimensions@UnDecorator@@CAHXZ 1001bf5a f   libvcruntime:undname.obj
 0001:0001afd3       ?getOperatorName@UnDecorator@@CA?AVDName@@_NPA_N@Z 1001bfd3 f i libvcruntime:undname.obj
 0001:0001b783       ?getPointerType@UnDecorator@@CA?AVDName@@ABV2@0@Z 1001c783 f i libvcruntime:undname.obj
 0001:0001b7a8       ?getPointerTypeArray@UnDecorator@@CA?AVDName@@ABV2@0@Z 1001c7a8 f i libvcruntime:undname.obj
 0001:0001b7cd       ?getPrimaryDataType@UnDecorator@@CA?AVDName@@ABV2@@Z 1001c7cd f   libvcruntime:undname.obj
 0001:0001ba3e       ?getPtrRefDataType@UnDecorator@@CA?AVDName@@ABV2@H@Z 1001ca3e f   libvcruntime:undname.obj
 0001:0001bb80       ?getPtrRefType@UnDecorator@@CA?AVDName@@ABV2@0PBD@Z 1001cb80 f   libvcruntime:undname.obj
 0001:0001bcbb       ?getReferenceType@UnDecorator@@CA?AVDName@@ABV2@0PBD@Z 1001ccbb f i libvcruntime:undname.obj
 0001:0001bcde       ?getRestrictionSpec@UnDecorator@@CA?AVDName@@XZ 1001ccde f   libvcruntime:undname.obj
 0001:0001be0c       ?getReturnType@UnDecorator@@CA?AVDName@@PAV2@@Z 1001ce0c f   libvcruntime:undname.obj
 0001:0001be46       ?getScope@UnDecorator@@CA?AVDName@@XZ 1001ce46 f   libvcruntime:undname.obj
 0001:0001c31b       ?getScopedName@UnDecorator@@CA?AVDName@@XZ 1001d31b f   libvcruntime:undname.obj
 0001:0001c454       ?getSignedDimension@UnDecorator@@CA?AVDName@@XZ 1001d454 f   libvcruntime:undname.obj
 0001:0001c4bb       ?getStorageConvention@UnDecorator@@CA?AVDName@@XZ 1001d4bb f i libvcruntime:undname.obj
 0001:0001c4d0       ?getString@DName@@QBEPADPAD0@Z 1001d4d0 f i libvcruntime:undname.obj
 0001:0001c507       ?getString@DName@@QBEPADPADH@Z 1001d507 f i libvcruntime:undname.obj
 0001:0001c572       ?getString@DNameStatusNode@@UBEPADPAD0@Z 1001d572 f i libvcruntime:undname.obj
 0001:0001c5a2       ?getString@charNode@@UBEPADPAD0@Z 1001d5a2 f i libvcruntime:undname.obj
 0001:0001c5bc       ?getString@pDNameNode@@UBEPADPAD0@Z 1001d5bc f i libvcruntime:undname.obj
 0001:0001c5d8       ?getString@pairNode@@UBEPADPAD0@Z 1001d5d8 f i libvcruntime:undname.obj
 0001:0001c62d       ?getString@pcharNode@@UBEPADPAD0@Z 1001d62d f i libvcruntime:undname.obj
 0001:0001c64e       ?getStringEncoding@UnDecorator@@CA?AVDName@@PADH@Z 1001d64e f   libvcruntime:undname.obj
 0001:0001c719       ?getStringHelper@@YAPADPAD00H@Z 1001d719 f i libvcruntime:undname.obj
 0001:0001c75d       ?getSymbolName@UnDecorator@@CA?AVDName@@XZ 1001d75d f i libvcruntime:undname.obj
 0001:0001c7b7       ?getTemplateArgumentList@UnDecorator@@CA?AVDName@@XZ 1001d7b7 f   libvcruntime:undname.obj
 0001:0001cb04       ?getTemplateConstant@UnDecorator@@CA?AVDName@@XZ 1001db04 f   libvcruntime:undname.obj
 0001:0001cf19       ?getTemplateName@UnDecorator@@CA?AVDName@@_N@Z 1001df19 f   libvcruntime:undname.obj
 0001:0001d0c4       ?getThisType@UnDecorator@@CA?AVDName@@XZ 1001e0c4 f i libvcruntime:undname.obj
 0001:0001d10c       ?getThrowTypes@UnDecorator@@CA?AVDName@@XZ 1001e10c f   libvcruntime:undname.obj
 0001:0001d1b8       ?getTypeEncoding@UnDecorator@@CAHXZ 1001e1b8 f i libvcruntime:undname.obj
 0001:0001d5b4       ?getVCallThunkType@UnDecorator@@CA?AVDName@@XZ 1001e5b4 f i libvcruntime:undname.obj
 0001:0001d5fd       ?getVbTableType@UnDecorator@@CA?AVDName@@ABV2@@Z 1001e5fd f i libvcruntime:undname.obj
 0001:0001d617       ?getVdispMapType@UnDecorator@@CA?AVDName@@ABV2@@Z 1001e617 f i libvcruntime:undname.obj
 0001:0001d682       ?getVfTableType@UnDecorator@@CA?AVDName@@ABV2@@Z 1001e682 f i libvcruntime:undname.obj
 0001:0001d840       ?getZName@UnDecorator@@CA?AVDName@@_N0@Z 1001e840 f   libvcruntime:undname.obj
 0001:0001db10       ?haveTemplateParameters@UnDecorator@@SAHXZ 1001eb10 f i libvcruntime:undname.obj
 0001:0001db1d       ?isArray@DName@@QBEHXZ     1001eb1d f i libvcruntime:undname.obj
 0001:0001db29       ?isComArray@DName@@QBEHXZ  1001eb29 f i libvcruntime:undname.obj
 0001:0001db35       ?isEmpty@DName@@QBEHXZ     1001eb35 f i libvcruntime:undname.obj
 0001:0001db3f       ?isFull@Replicator@@QBEHXZ 1001eb3f f i libvcruntime:undname.obj
 0001:0001db4a       ?isNoTE@DName@@QBEHXZ      1001eb4a f i libvcruntime:undname.obj
 0001:0001db56       ?isPinPtr@DName@@QBEHXZ    1001eb56 f i libvcruntime:undname.obj
 0001:0001db62       ?isPtrRef@DName@@QBEHXZ    1001eb62 f i libvcruntime:undname.obj
 0001:0001db6e       ?isUDC@DName@@QBEHXZ       1001eb6e f i libvcruntime:undname.obj
 0001:0001db83       ?isUDTThunk@DName@@QBEHXZ  1001eb83 f i libvcruntime:undname.obj
 0001:0001db98       ?isVCallThunk@DName@@QBEHXZ 1001eb98 f i libvcruntime:undname.obj
 0001:0001dba4       ?isValid@DName@@QBEHXZ     1001eba4 f i libvcruntime:undname.obj
 0001:0001dbb0       ?length@DName@@QBEHXZ      1001ebb0 f i libvcruntime:undname.obj
 0001:0001dbd5       ?length@DNameStatusNode@@UBEHXZ 1001ebd5 f i libvcruntime:undname.obj
 0001:0001dbd9       ?length@charNode@@UBEHXZ   1001ebd9 f i libvcruntime:undname.obj
 0001:0001dbdd       ?length@pDNameNode@@UBEHXZ 1001ebdd f i libvcruntime:undname.obj
 0001:0001dbee       ?length@pairNode@@UBEHXZ   1001ebee f i libvcruntime:undname.obj
 0001:0001dc4a       ?length@pcharNode@@UBEHXZ  1001ec4a f i libvcruntime:undname.obj
 0001:0001dc4e       ?make@DNameStatusNode@@SAPAV1@W4DNameStatus@@@Z 1001ec4e f i libvcruntime:undname.obj
 0001:0001dcf5       ?setIsArray@DName@@QAEXXZ  1001ecf5 f i libvcruntime:undname.obj
 0001:0001dcff       ?setIsComArray@DName@@QAEXXZ 1001ecff f i libvcruntime:undname.obj
 0001:0001dd09       ?setIsNoTE@DName@@QAEXXZ   1001ed09 f i libvcruntime:undname.obj
 0001:0001dd13       ?setIsPinPtr@DName@@QAEXXZ 1001ed13 f i libvcruntime:undname.obj
 0001:0001dd1d       ?setIsUDC@DName@@QAEXXZ    1001ed1d f i libvcruntime:undname.obj
 0001:0001dd2d       ?setIsVCallThunk@DName@@QAEXXZ 1001ed2d f i libvcruntime:undname.obj
 0001:0001dd37       ?setPtrRef@DName@@QAEAAV1@XZ 1001ed37 f i libvcruntime:undname.obj
 0001:0001dd43       ?status@DName@@QBE?AW4DNameStatus@@XZ 1001ed43 f i libvcruntime:undname.obj
 0001:0001ddc8       ___unDName                 1001edc8 f   libvcruntime:undname.obj
 0001:0001de82       ___unDNameEx               1001ee82 f   libvcruntime:undname.obj
 0001:0001df3c       __vsprintf_s_l             1001ef3c f i libvcruntime:undname.obj
 0001:0001df74       _sprintf_s                 1001ef74 f i libvcruntime:undname.obj
 0001:0001dfa0       __global_unwind2           1001efa0 f   libvcruntime:_exsup_.obj
 0001:0001e005       __local_unwind2            1001f005 f   libvcruntime:_exsup_.obj
 0001:0001e089       __abnormal_termination     1001f089 f   libvcruntime:_exsup_.obj
 0001:0001e0ac       __NLG_Notify1              1001f0ac f   libvcruntime:_exsup_.obj
 0001:0001e0b5       __NLG_Notify               1001f0b5 f   libvcruntime:_exsup_.obj
 0001:0001e0cc       __NLG_Dispatch2            1001f0cc     libvcruntime:_exsup_.obj
 0001:0001e0cc       __NLG_Dispatch             1001f0cc     libvcruntime:_exsup_.obj
 0001:0001e0d4       __NLG_Call                 1001f0d4 f   libvcruntime:_exsup_.obj
 0001:0001e0d6       __NLG_Return2              1001f0d6     libvcruntime:_exsup_.obj
 0001:0001e124       ??$__crt_fast_decode_pointer@P6AXXZ@@YAP6AXXZQ6AXXZ@Z 1001f124 f i libvcruntime:purevirt.obj
 0001:0001e13d       ??$__crt_interlocked_compare_exchange_pointer@$$A6AXXZ$$T$$T@@YAP6AXXZPDS6AXXZ$$T1@Z 1001f13d f i libvcruntime:purevirt.obj
 0001:0001e153       ??$__crt_interlocked_exchange_pointer@$$A6AXXZP6AXXZ@@YAP6AXXZPDS6AXXZQ6AXXZ@Z 1001f153 f i libvcruntime:purevirt.obj
 0001:0001e163       ??$__crt_interlocked_read_pointer@$$A6AXXZ@@YAP6AXXZPDS6AXXZ@Z 1001f163 f i libvcruntime:purevirt.obj
 0001:0001e177       __get_purecall_handler     1001f177 f   libvcruntime:purevirt.obj
 0001:0001e19d       __purecall                 1001f19d f   libvcruntime:purevirt.obj
 0001:0001e1be       __set_purecall_handler     1001f1be f   libvcruntime:purevirt.obj
 0001:0001e1ec       _malloc                    1001f1ec f   libucrt:malloc.obj
 0001:0001e1f9       ??$?RPAU__crt_stdio_stream_data@@@__crt_internal_free_policy@@QBEXQBQAU__crt_stdio_stream_data@@@Z 1001f1f9 f i libucrt:_file.obj
 0001:0001e20f       ??0?$__crt_unique_heap_ptr@PAU__crt_stdio_stream_data@@U__crt_internal_free_policy@@@@QAE@QAPAU__crt_stdio_stream_data@@@Z 1001f20f f i libucrt:_file.obj
 0001:0001e223       ??0__crt_stdio_stream@@QAE@QAU_iobuf@@@Z 1001f223 f i libucrt:_file.obj
 0001:0001e237       ??1?$__crt_unique_heap_ptr@PAU__crt_stdio_stream_data@@U__crt_internal_free_policy@@@@QAE@XZ 1001f237 f i libucrt:_file.obj
 0001:0001e24d       ??C__crt_stdio_stream@@QBEPAU__crt_stdio_stream_data@@XZ 1001f24d f i libucrt:_file.obj
 0001:0001e250       ?detach@?$__crt_unique_heap_ptr@PAU__crt_stdio_stream_data@@U__crt_internal_free_policy@@@@QAEPAPAU__crt_stdio_stream_data@@XZ 1001f250 f i libucrt:_file.obj
 0001:0001e256       ?release@?$__crt_unique_heap_ptr@PAU__crt_stdio_stream_data@@U__crt_internal_free_policy@@@@QAEXXZ 1001f256 f i libucrt:_file.obj
 0001:0001e26c       ___acrt_initialize_stdio   1001f26c f   libucrt:_file.obj
 0001:0001e366       ___acrt_iob_func           1001f366 f   libucrt:_file.obj
 0001:0001e37a       ___acrt_uninitialize_stdio 1001f37a f   libucrt:_file.obj
 0001:0001e3d9       __get_stream_buffer_pointers 1001f3d9 f   libucrt:_file.obj
 0001:0001e430       __lock_file                1001f430 f   libucrt:_file.obj
 0001:0001e449       __unlock_file              1001f449 f   libucrt:_file.obj
 0001:0001e462       ??$?0ABV?$stream_output_adapter@D@__crt_stdio_output@@AB_KABQBDABQAU__crt_locale_pointers@@ABQAD@?$format_validation_base@DV?$stream_output_adapter@D@__crt_stdio_output@@@__crt_stdio_output@@IAE@ABV?$stream_output_adapter@D@1@AB_KABQBDABQAU__crt_locale_pointers@@ABQAD@Z 1001f462 f i libucrt:output.obj
 0001:0001e48d       ??$?0ABV?$stream_output_adapter@D@__crt_stdio_output@@AB_KABQBDABQAU__crt_locale_pointers@@ABQAD@?$positional_parameter_base@DV?$stream_output_adapter@D@__crt_stdio_output@@@__crt_stdio_output@@IAE@ABV?$stream_output_adapter@D@1@AB_KABQBDABQAU__crt_locale_pointers@@ABQAD@Z 1001f48d f i libucrt:output.obj
 0001:0001e4e7       ??$?0ABV?$stream_output_adapter@D@__crt_stdio_output@@AB_KABQBDABQAU__crt_locale_pointers@@ABQAD@?$standard_base@DV?$stream_output_adapter@D@__crt_stdio_output@@@__crt_stdio_output@@IAE@ABV?$stream_output_adapter@D@1@AB_KABQBDABQAU__crt_locale_pointers@@ABQAD@Z 1001f4e7 f i libucrt:output.obj
 0001:0001e529       ??$?0ABV?$stream_output_adapter@_W@__crt_stdio_output@@AB_KABQB_WABQAU__crt_locale_pointers@@ABQAD@?$format_validation_base@_WV?$stream_output_adapter@_W@__crt_stdio_output@@@__crt_stdio_output@@IAE@ABV?$stream_output_adapter@_W@1@AB_KABQB_WABQAU__crt_locale_pointers@@ABQAD@Z 1001f529 f i libucrt:output.obj
 0001:0001e554       ??$?0ABV?$stream_output_adapter@_W@__crt_stdio_output@@AB_KABQB_WABQAU__crt_locale_pointers@@ABQAD@?$positional_parameter_base@_WV?$stream_output_adapter@_W@__crt_stdio_output@@@__crt_stdio_output@@IAE@ABV?$stream_output_adapter@_W@1@AB_KABQB_WABQAU__crt_locale_pointers@@ABQAD@Z 1001f554 f i libucrt:output.obj
 0001:0001e5ae       ??$?0ABV?$stream_output_adapter@_W@__crt_stdio_output@@AB_KABQB_WABQAU__crt_locale_pointers@@ABQAD@?$standard_base@_WV?$stream_output_adapter@_W@__crt_stdio_output@@@__crt_stdio_output@@IAE@ABV?$stream_output_adapter@_W@1@AB_KABQB_WABQAU__crt_locale_pointers@@ABQAD@Z 1001f5ae f i libucrt:output.obj
 0001:0001e5f0       ??$?0ABV?$string_output_adapter@D@__crt_stdio_output@@AB_KABQBDABQAU__crt_locale_pointers@@ABQAD@?$format_validation_base@DV?$string_output_adapter@D@__crt_stdio_output@@@__crt_stdio_output@@IAE@ABV?$string_output_adapter@D@1@AB_KABQBDABQAU__crt_locale_pointers@@ABQAD@Z 1001f5f0 f i libucrt:output.obj
 0001:0001e61b       ??$?0ABV?$string_output_adapter@D@__crt_stdio_output@@AB_KABQBDABQAU__crt_locale_pointers@@ABQAD@?$positional_parameter_base@DV?$string_output_adapter@D@__crt_stdio_output@@@__crt_stdio_output@@IAE@ABV?$string_output_adapter@D@1@AB_KABQBDABQAU__crt_locale_pointers@@ABQAD@Z 1001f61b f i libucrt:output.obj
 0001:0001e675       ??$?0ABV?$string_output_adapter@D@__crt_stdio_output@@AB_KABQBDABQAU__crt_locale_pointers@@ABQAD@?$standard_base@DV?$string_output_adapter@D@__crt_stdio_output@@@__crt_stdio_output@@IAE@ABV?$string_output_adapter@D@1@AB_KABQBDABQAU__crt_locale_pointers@@ABQAD@Z 1001f675 f i libucrt:output.obj
 0001:0001e6b7       ??$?0ABV?$string_output_adapter@_W@__crt_stdio_output@@AB_KABQB_WABQAU__crt_locale_pointers@@ABQAD@?$format_validation_base@_WV?$string_output_adapter@_W@__crt_stdio_output@@@__crt_stdio_output@@IAE@ABV?$string_output_adapter@_W@1@AB_KABQB_WABQAU__crt_locale_pointers@@ABQAD@Z 1001f6b7 f i libucrt:output.obj
 0001:0001e6e2       ??$?0ABV?$string_output_adapter@_W@__crt_stdio_output@@AB_KABQB_WABQAU__crt_locale_pointers@@ABQAD@?$positional_parameter_base@_WV?$string_output_adapter@_W@__crt_stdio_output@@@__crt_stdio_output@@IAE@ABV?$string_output_adapter@_W@1@AB_KABQB_WABQAU__crt_locale_pointers@@ABQAD@Z 1001f6e2 f i libucrt:output.obj
 0001:0001e73c       ??$?0ABV?$string_output_adapter@_W@__crt_stdio_output@@AB_KABQB_WABQAU__crt_locale_pointers@@ABQAD@?$standard_base@_WV?$string_output_adapter@_W@__crt_stdio_output@@@__crt_stdio_output@@IAE@ABV?$string_output_adapter@_W@1@AB_KABQB_WABQAU__crt_locale_pointers@@ABQAD@Z 1001f73c f i libucrt:output.obj
 0001:0001eb08       ??$__crt_interlocked_read@J@@YAJPDJ@Z 1001fb08 f i libucrt:output.obj
 0001:0001fd71       ??$count@D@formatting_buffer@__crt_stdio_output@@QBEIXZ 10020d71 f i libucrt:output.obj
 0001:0001fd8f       ??$count@_W@formatting_buffer@__crt_stdio_output@@QBEIXZ 10020d8f f i libucrt:output.obj
 0001:0001fdae       ??$data@D@formatting_buffer@__crt_stdio_output@@QAEPADXZ 10020dae f i libucrt:output.obj
 0001:0001fdbe       ??$data@_W@formatting_buffer@__crt_stdio_output@@QAEPA_WXZ 10020dbe f i libucrt:output.obj
 0001:0001fdce       ??$ensure_buffer_is_big_enough@D@formatting_buffer@__crt_stdio_output@@QAE_NI@Z 10020dce f i libucrt:output.obj
 0001:0001fe6c       ??$ensure_buffer_is_big_enough@_W@formatting_buffer@__crt_stdio_output@@QAE_NI@Z 10020e6c f i libucrt:output.obj
 0001:0001ff0c       ??$extract_argument_from_va_list@C_J@?$positional_parameter_base@DV?$stream_output_adapter@D@__crt_stdio_output@@@__crt_stdio_output@@IAE_NAA_J@Z 10020f0c f i libucrt:output.obj
 0001:0001ffa3       ??$extract_argument_from_va_list@C_J@?$positional_parameter_base@DV?$string_output_adapter@D@__crt_stdio_output@@@__crt_stdio_output@@IAE_NAA_J@Z 10020fa3 f i libucrt:output.obj
 0001:0002003a       ??$extract_argument_from_va_list@C_J@?$positional_parameter_base@_WV?$stream_output_adapter@_W@__crt_stdio_output@@@__crt_stdio_output@@IAE_NAA_J@Z 1002103a f i libucrt:output.obj
 0001:000200d1       ??$extract_argument_from_va_list@C_J@?$positional_parameter_base@_WV?$string_output_adapter@_W@__crt_stdio_output@@@__crt_stdio_output@@IAE_NAA_J@Z 100210d1 f i libucrt:output.obj
 0001:00020168       ??$extract_argument_from_va_list@C_J@?$standard_base@DV?$stream_output_adapter@D@__crt_stdio_output@@@__crt_stdio_output@@IAE_NAA_J@Z 10021168 f i libucrt:output.obj
 0001:0002018e       ??$extract_argument_from_va_list@C_J@?$standard_base@DV?$string_output_adapter@D@__crt_stdio_output@@@__crt_stdio_output@@IAE_NAA_J@Z 1002118e f i libucrt:output.obj
 0001:000201b4       ??$extract_argument_from_va_list@C_J@?$standard_base@_WV?$stream_output_adapter@_W@__crt_stdio_output@@@__crt_stdio_output@@IAE_NAA_J@Z 100211b4 f i libucrt:output.obj
 0001:000201da       ??$extract_argument_from_va_list@C_J@?$standard_base@_WV?$string_output_adapter@_W@__crt_stdio_output@@@__crt_stdio_output@@IAE_NAA_J@Z 100211da f i libucrt:output.obj
 0001:00020200       ??$extract_argument_from_va_list@E_J@?$positional_parameter_base@DV?$stream_output_adapter@D@__crt_stdio_output@@@__crt_stdio_output@@IAE_NAA_J@Z 10021200 f i libucrt:output.obj
 0001:00020297       ??$extract_argument_from_va_list@E_J@?$positional_parameter_base@DV?$string_output_adapter@D@__crt_stdio_output@@@__crt_stdio_output@@IAE_NAA_J@Z 10021297 f i libucrt:output.obj
 0001:0002032e       ??$extract_argument_from_va_list@E_J@?$positional_parameter_base@_WV?$stream_output_adapter@_W@__crt_stdio_output@@@__crt_stdio_output@@IAE_NAA_J@Z 1002132e f i libucrt:output.obj
 0001:000203c5       ??$extract_argument_from_va_list@E_J@?$positional_parameter_base@_WV?$string_output_adapter@_W@__crt_stdio_output@@@__crt_stdio_output@@IAE_NAA_J@Z 100213c5 f i libucrt:output.obj
 0001:0002045c       ??$extract_argument_from_va_list@E_J@?$standard_base@DV?$stream_output_adapter@D@__crt_stdio_output@@@__crt_stdio_output@@IAE_NAA_J@Z 1002145c f i libucrt:output.obj
 0001:00020482       ??$extract_argument_from_va_list@E_J@?$standard_base@DV?$string_output_adapter@D@__crt_stdio_output@@@__crt_stdio_output@@IAE_NAA_J@Z 10021482 f i libucrt:output.obj
 0001:000204a8       ??$extract_argument_from_va_list@E_J@?$standard_base@_WV?$stream_output_adapter@_W@__crt_stdio_output@@@__crt_stdio_output@@IAE_NAA_J@Z 100214a8 f i libucrt:output.obj
 0001:000204ce       ??$extract_argument_from_va_list@E_J@?$standard_base@_WV?$string_output_adapter@_W@__crt_stdio_output@@@__crt_stdio_output@@IAE_NAA_J@Z 100214ce f i libucrt:output.obj
 0001:000204f4       ??$extract_argument_from_va_list@F_J@?$positional_parameter_base@DV?$stream_output_adapter@D@__crt_stdio_output@@@__crt_stdio_output@@IAE_NAA_J@Z 100214f4 f i libucrt:output.obj
 0001:0002058b       ??$extract_argument_from_va_list@F_J@?$positional_parameter_base@DV?$string_output_adapter@D@__crt_stdio_output@@@__crt_stdio_output@@IAE_NAA_J@Z 1002158b f i libucrt:output.obj
 0001:00020622       ??$extract_argument_from_va_list@F_J@?$positional_parameter_base@_WV?$stream_output_adapter@_W@__crt_stdio_output@@@__crt_stdio_output@@IAE_NAA_J@Z 10021622 f i libucrt:output.obj
 0001:000206b9       ??$extract_argument_from_va_list@F_J@?$positional_parameter_base@_WV?$string_output_adapter@_W@__crt_stdio_output@@@__crt_stdio_output@@IAE_NAA_J@Z 100216b9 f i libucrt:output.obj
 0001:00020750       ??$extract_argument_from_va_list@F_J@?$standard_base@DV?$stream_output_adapter@D@__crt_stdio_output@@@__crt_stdio_output@@IAE_NAA_J@Z 10021750 f i libucrt:output.obj
 0001:00020776       ??$extract_argument_from_va_list@F_J@?$standard_base@DV?$string_output_adapter@D@__crt_stdio_output@@@__crt_stdio_output@@IAE_NAA_J@Z 10021776 f i libucrt:output.obj
 0001:0002079c       ??$extract_argument_from_va_list@F_J@?$standard_base@_WV?$stream_output_adapter@_W@__crt_stdio_output@@@__crt_stdio_output@@IAE_NAA_J@Z 1002179c f i libucrt:output.obj
 0001:000207c2       ??$extract_argument_from_va_list@F_J@?$standard_base@_WV?$string_output_adapter@_W@__crt_stdio_output@@@__crt_stdio_output@@IAE_NAA_J@Z 100217c2 f i libucrt:output.obj
 0001:000207e8       ??$extract_argument_from_va_list@GD@?$positional_parameter_base@DV?$stream_output_adapter@D@__crt_stdio_output@@@__crt_stdio_output@@IAE_NAAD@Z 100217e8 f i libucrt:output.obj
 0001:0002087e       ??$extract_argument_from_va_list@GD@?$positional_parameter_base@DV?$string_output_adapter@D@__crt_stdio_output@@@__crt_stdio_output@@IAE_NAAD@Z 1002187e f i libucrt:output.obj
 0001:00020914       ??$extract_argument_from_va_list@GD@?$standard_base@DV?$stream_output_adapter@D@__crt_stdio_output@@@__crt_stdio_output@@IAE_NAAD@Z 10021914 f i libucrt:output.obj
 0001:00020934       ??$extract_argument_from_va_list@GD@?$standard_base@DV?$string_output_adapter@D@__crt_stdio_output@@@__crt_stdio_output@@IAE_NAAD@Z 10021934 f i libucrt:output.obj
 0001:00020954       ??$extract_argument_from_va_list@G_J@?$positional_parameter_base@DV?$stream_output_adapter@D@__crt_stdio_output@@@__crt_stdio_output@@IAE_NAA_J@Z 10021954 f i libucrt:output.obj
 0001:000209eb       ??$extract_argument_from_va_list@G_J@?$positional_parameter_base@DV?$string_output_adapter@D@__crt_stdio_output@@@__crt_stdio_output@@IAE_NAA_J@Z 100219eb f i libucrt:output.obj
 0001:00020a82       ??$extract_argument_from_va_list@G_J@?$positional_parameter_base@_WV?$stream_output_adapter@_W@__crt_stdio_output@@@__crt_stdio_output@@IAE_NAA_J@Z 10021a82 f i libucrt:output.obj
 0001:00020b19       ??$extract_argument_from_va_list@G_J@?$positional_parameter_base@_WV?$string_output_adapter@_W@__crt_stdio_output@@@__crt_stdio_output@@IAE_NAA_J@Z 10021b19 f i libucrt:output.obj
 0001:00020bb0       ??$extract_argument_from_va_list@G_J@?$standard_base@DV?$stream_output_adapter@D@__crt_stdio_output@@@__crt_stdio_output@@IAE_NAA_J@Z 10021bb0 f i libucrt:output.obj
 0001:00020bd6       ??$extract_argument_from_va_list@G_J@?$standard_base@DV?$string_output_adapter@D@__crt_stdio_output@@@__crt_stdio_output@@IAE_NAA_J@Z 10021bd6 f i libucrt:output.obj
 0001:00020bfc       ??$extract_argument_from_va_list@G_J@?$standard_base@_WV?$stream_output_adapter@_W@__crt_stdio_output@@@__crt_stdio_output@@IAE_NAA_J@Z 10021bfc f i libucrt:output.obj
 0001:00020c22       ??$extract_argument_from_va_list@G_J@?$standard_base@_WV?$string_output_adapter@_W@__crt_stdio_output@@@__crt_stdio_output@@IAE_NAA_J@Z 10021c22 f i libucrt:output.obj
 0001:00020c48       ??$extract_argument_from_va_list@H_J@?$positional_parameter_base@DV?$stream_output_adapter@D@__crt_stdio_output@@@__crt_stdio_output@@IAE_NAA_J@Z 10021c48 f i libucrt:output.obj
 0001:00020cdc       ??$extract_argument_from_va_list@H_J@?$positional_parameter_base@DV?$string_output_adapter@D@__crt_stdio_output@@@__crt_stdio_output@@IAE_NAA_J@Z 10021cdc f i libucrt:output.obj
 0001:00020d70       ??$extract_argument_from_va_list@H_J@?$positional_parameter_base@_WV?$stream_output_adapter@_W@__crt_stdio_output@@@__crt_stdio_output@@IAE_NAA_J@Z 10021d70 f i libucrt:output.obj
 0001:00020e04       ??$extract_argument_from_va_list@H_J@?$positional_parameter_base@_WV?$string_output_adapter@_W@__crt_stdio_output@@@__crt_stdio_output@@IAE_NAA_J@Z 10021e04 f i libucrt:output.obj
 0001:00020e98       ??$extract_argument_from_va_list@H_J@?$standard_base@DV?$stream_output_adapter@D@__crt_stdio_output@@@__crt_stdio_output@@IAE_NAA_J@Z 10021e98 f i libucrt:output.obj
 0001:00020ebd       ??$extract_argument_from_va_list@H_J@?$standard_base@DV?$string_output_adapter@D@__crt_stdio_output@@@__crt_stdio_output@@IAE_NAA_J@Z 10021ebd f i libucrt:output.obj
 0001:00020ee2       ??$extract_argument_from_va_list@H_J@?$standard_base@_WV?$stream_output_adapter@_W@__crt_stdio_output@@@__crt_stdio_output@@IAE_NAA_J@Z 10021ee2 f i libucrt:output.obj
 0001:00020f07       ??$extract_argument_from_va_list@H_J@?$standard_base@_WV?$string_output_adapter@_W@__crt_stdio_output@@@__crt_stdio_output@@IAE_NAA_J@Z 10021f07 f i libucrt:output.obj
 0001:00020f2c       ??$extract_argument_from_va_list@I_J@?$positional_parameter_base@DV?$stream_output_adapter@D@__crt_stdio_output@@@__crt_stdio_output@@IAE_NAA_J@Z 10021f2c f i libucrt:output.obj
 0001:00020fcc       ??$extract_argument_from_va_list@I_J@?$positional_parameter_base@DV?$string_output_adapter@D@__crt_stdio_output@@@__crt_stdio_output@@IAE_NAA_J@Z 10021fcc f i libucrt:output.obj
 0001:0002106c       ??$extract_argument_from_va_list@I_J@?$positional_parameter_base@_WV?$stream_output_adapter@_W@__crt_stdio_output@@@__crt_stdio_output@@IAE_NAA_J@Z 1002206c f i libucrt:output.obj
 0001:0002110c       ??$extract_argument_from_va_list@I_J@?$positional_parameter_base@_WV?$string_output_adapter@_W@__crt_stdio_output@@@__crt_stdio_output@@IAE_NAA_J@Z 1002210c f i libucrt:output.obj
 0001:000211ac       ??$extract_argument_from_va_list@I_J@?$standard_base@DV?$stream_output_adapter@D@__crt_stdio_output@@@__crt_stdio_output@@IAE_NAA_J@Z 100221ac f i libucrt:output.obj
 0001:000211d1       ??$extract_argument_from_va_list@I_J@?$standard_base@DV?$string_output_adapter@D@__crt_stdio_output@@@__crt_stdio_output@@IAE_NAA_J@Z 100221d1 f i libucrt:output.obj
 0001:000211f6       ??$extract_argument_from_va_list@I_J@?$standard_base@_WV?$stream_output_adapter@_W@__crt_stdio_output@@@__crt_stdio_output@@IAE_NAA_J@Z 100221f6 f i libucrt:output.obj
 0001:0002121b       ??$extract_argument_from_va_list@I_J@?$standard_base@_WV?$string_output_adapter@_W@__crt_stdio_output@@@__crt_stdio_output@@IAE_NAA_J@Z 1002221b f i libucrt:output.obj
 0001:00021240       ??$extract_argument_from_va_list@PADPAD@?$positional_parameter_base@DV?$stream_output_adapter@D@__crt_stdio_output@@@__crt_stdio_output@@IAE_NAAPAD@Z 10022240 f i libucrt:output.obj
 0001:000212d6       ??$extract_argument_from_va_list@PADPAD@?$positional_parameter_base@DV?$string_output_adapter@D@__crt_stdio_output@@@__crt_stdio_output@@IAE_NAAPAD@Z 100222d6 f i libucrt:output.obj
 0001:0002136c       ??$extract_argument_from_va_list@PADPAD@?$positional_parameter_base@_WV?$stream_output_adapter@_W@__crt_stdio_output@@@__crt_stdio_output@@IAE_NAAPAD@Z 1002236c f i libucrt:output.obj
 0001:00021402       ??$extract_argument_from_va_list@PADPAD@?$positional_parameter_base@_WV?$string_output_adapter@_W@__crt_stdio_output@@@__crt_stdio_output@@IAE_NAAPAD@Z 10022402 f i libucrt:output.obj
 0001:00021498       ??$extract_argument_from_va_list@PADPAD@?$standard_base@DV?$stream_output_adapter@D@__crt_stdio_output@@@__crt_stdio_output@@IAE_NAAPAD@Z 10022498 f i libucrt:output.obj
 0001:000214b8       ??$extract_argument_from_va_list@PADPAD@?$standard_base@DV?$string_output_adapter@D@__crt_stdio_output@@@__crt_stdio_output@@IAE_NAAPAD@Z 100224b8 f i libucrt:output.obj
 0001:000214d8       ??$extract_argument_from_va_list@PADPAD@?$standard_base@_WV?$stream_output_adapter@_W@__crt_stdio_output@@@__crt_stdio_output@@IAE_NAAPAD@Z 100224d8 f i libucrt:output.obj
 0001:000214f8       ??$extract_argument_from_va_list@PADPAD@?$standard_base@_WV?$string_output_adapter@_W@__crt_stdio_output@@@__crt_stdio_output@@IAE_NAAPAD@Z 100224f8 f i libucrt:output.obj
 0001:000218f0       ??$extract_argument_from_va_list@PAXPAX@?$positional_parameter_base@DV?$stream_output_adapter@D@__crt_stdio_output@@@__crt_stdio_output@@IAE_NAAPAX@Z 100228f0 f i libucrt:output.obj
 0001:00021986       ??$extract_argument_from_va_list@PAXPAX@?$positional_parameter_base@DV?$string_output_adapter@D@__crt_stdio_output@@@__crt_stdio_output@@IAE_NAAPAX@Z 10022986 f i libucrt:output.obj
 0001:00021a1c       ??$extract_argument_from_va_list@PAXPAX@?$positional_parameter_base@_WV?$stream_output_adapter@_W@__crt_stdio_output@@@__crt_stdio_output@@IAE_NAAPAX@Z 10022a1c f i libucrt:output.obj
 0001:00021ab2       ??$extract_argument_from_va_list@PAXPAX@?$positional_parameter_base@_WV?$string_output_adapter@_W@__crt_stdio_output@@@__crt_stdio_output@@IAE_NAAPAX@Z 10022ab2 f i libucrt:output.obj
 0001:00021b48       ??$extract_argument_from_va_list@PAXPAX@?$standard_base@DV?$stream_output_adapter@D@__crt_stdio_output@@@__crt_stdio_output@@IAE_NAAPAX@Z 10022b48 f i libucrt:output.obj
 0001:00021b68       ??$extract_argument_from_va_list@PAXPAX@?$standard_base@DV?$string_output_adapter@D@__crt_stdio_output@@@__crt_stdio_output@@IAE_NAAPAX@Z 10022b68 f i libucrt:output.obj
 0001:00021b88       ??$extract_argument_from_va_list@PAXPAX@?$standard_base@_WV?$stream_output_adapter@_W@__crt_stdio_output@@@__crt_stdio_output@@IAE_NAAPAX@Z 10022b88 f i libucrt:output.obj
 0001:00021ba8       ??$extract_argument_from_va_list@PAXPAX@?$standard_base@_WV?$string_output_adapter@_W@__crt_stdio_output@@@__crt_stdio_output@@IAE_NAAPAX@Z 10022ba8 f i libucrt:output.obj
 0001:00021bc8       ??$extract_argument_from_va_list@U_CRT_DOUBLE@@U1@@?$positional_parameter_base@DV?$stream_output_adapter@D@__crt_stdio_output@@@__crt_stdio_output@@IAE_NAAU_CRT_DOUBLE@@@Z 10022bc8 f i libucrt:output.obj
 0001:00021c6f       ??$extract_argument_from_va_list@U_CRT_DOUBLE@@U1@@?$positional_parameter_base@DV?$string_output_adapter@D@__crt_stdio_output@@@__crt_stdio_output@@IAE_NAAU_CRT_DOUBLE@@@Z 10022c6f f i libucrt:output.obj
 0001:00021d16       ??$extract_argument_from_va_list@U_CRT_DOUBLE@@U1@@?$positional_parameter_base@_WV?$stream_output_adapter@_W@__crt_stdio_output@@@__crt_stdio_output@@IAE_NAAU_CRT_DOUBLE@@@Z 10022d16 f i libucrt:output.obj
 0001:00021dbd       ??$extract_argument_from_va_list@U_CRT_DOUBLE@@U1@@?$positional_parameter_base@_WV?$string_output_adapter@_W@__crt_stdio_output@@@__crt_stdio_output@@IAE_NAAU_CRT_DOUBLE@@@Z 10022dbd f i libucrt:output.obj
 0001:00021e64       ??$extract_argument_from_va_list@U_CRT_DOUBLE@@U1@@?$standard_base@DV?$stream_output_adapter@D@__crt_stdio_output@@@__crt_stdio_output@@IAE_NAAU_CRT_DOUBLE@@@Z 10022e64 f i libucrt:output.obj
 0001:00021e8c       ??$extract_argument_from_va_list@U_CRT_DOUBLE@@U1@@?$standard_base@DV?$string_output_adapter@D@__crt_stdio_output@@@__crt_stdio_output@@IAE_NAAU_CRT_DOUBLE@@@Z 10022e8c f i libucrt:output.obj
 0001:00021eb4       ??$extract_argument_from_va_list@U_CRT_DOUBLE@@U1@@?$standard_base@_WV?$stream_output_adapter@_W@__crt_stdio_output@@@__crt_stdio_output@@IAE_NAAU_CRT_DOUBLE@@@Z 10022eb4 f i libucrt:output.obj
 0001:00021edc       ??$extract_argument_from_va_list@U_CRT_DOUBLE@@U1@@?$standard_base@_WV?$string_output_adapter@_W@__crt_stdio_output@@@__crt_stdio_output@@IAE_NAAU_CRT_DOUBLE@@@Z 10022edc f i libucrt:output.obj
 0001:00021f04       ??$extract_argument_from_va_list@_J_J@?$positional_parameter_base@DV?$stream_output_adapter@D@__crt_stdio_output@@@__crt_stdio_output@@IAE_NAA_J@Z 10022f04 f i libucrt:output.obj
 0001:00021fab       ??$extract_argument_from_va_list@_J_J@?$positional_parameter_base@DV?$string_output_adapter@D@__crt_stdio_output@@@__crt_stdio_output@@IAE_NAA_J@Z 10022fab f i libucrt:output.obj
 0001:00022052       ??$extract_argument_from_va_list@_J_J@?$positional_parameter_base@_WV?$stream_output_adapter@_W@__crt_stdio_output@@@__crt_stdio_output@@IAE_NAA_J@Z 10023052 f i libucrt:output.obj
 0001:000220f9       ??$extract_argument_from_va_list@_J_J@?$positional_parameter_base@_WV?$string_output_adapter@_W@__crt_stdio_output@@@__crt_stdio_output@@IAE_NAA_J@Z 100230f9 f i libucrt:output.obj
 0001:000221a0       ??$extract_argument_from_va_list@_J_J@?$standard_base@DV?$stream_output_adapter@D@__crt_stdio_output@@@__crt_stdio_output@@IAE_NAA_J@Z 100231a0 f i libucrt:output.obj
 0001:000221c8       ??$extract_argument_from_va_list@_J_J@?$standard_base@DV?$string_output_adapter@D@__crt_stdio_output@@@__crt_stdio_output@@IAE_NAA_J@Z 100231c8 f i libucrt:output.obj
 0001:000221f0       ??$extract_argument_from_va_list@_J_J@?$standard_base@_WV?$stream_output_adapter@_W@__crt_stdio_output@@@__crt_stdio_output@@IAE_NAA_J@Z 100231f0 f i libucrt:output.obj
 0001:00022218       ??$extract_argument_from_va_list@_J_J@?$standard_base@_WV?$string_output_adapter@_W@__crt_stdio_output@@@__crt_stdio_output@@IAE_NAA_J@Z 10023218 f i libucrt:output.obj
 0001:00022240       ??$extract_argument_from_va_list@_K_J@?$positional_parameter_base@DV?$stream_output_adapter@D@__crt_stdio_output@@@__crt_stdio_output@@IAE_NAA_J@Z 10023240 f i libucrt:output.obj
 0001:000222e7       ??$extract_argument_from_va_list@_K_J@?$positional_parameter_base@DV?$string_output_adapter@D@__crt_stdio_output@@@__crt_stdio_output@@IAE_NAA_J@Z 100232e7 f i libucrt:output.obj
 0001:0002238e       ??$extract_argument_from_va_list@_K_J@?$positional_parameter_base@_WV?$stream_output_adapter@_W@__crt_stdio_output@@@__crt_stdio_output@@IAE_NAA_J@Z 1002338e f i libucrt:output.obj
 0001:00022435       ??$extract_argument_from_va_list@_K_J@?$positional_parameter_base@_WV?$string_output_adapter@_W@__crt_stdio_output@@@__crt_stdio_output@@IAE_NAA_J@Z 10023435 f i libucrt:output.obj
 0001:000224dc       ??$extract_argument_from_va_list@_K_J@?$standard_base@DV?$stream_output_adapter@D@__crt_stdio_output@@@__crt_stdio_output@@IAE_NAA_J@Z 100234dc f i libucrt:output.obj
 0001:00022504       ??$extract_argument_from_va_list@_K_J@?$standard_base@DV?$string_output_adapter@D@__crt_stdio_output@@@__crt_stdio_output@@IAE_NAA_J@Z 10023504 f i libucrt:output.obj
 0001:0002252c       ??$extract_argument_from_va_list@_K_J@?$standard_base@_WV?$stream_output_adapter@_W@__crt_stdio_output@@@__crt_stdio_output@@IAE_NAA_J@Z 1002352c f i libucrt:output.obj
 0001:00022554       ??$extract_argument_from_va_list@_K_J@?$standard_base@_WV?$string_output_adapter@_W@__crt_stdio_output@@@__crt_stdio_output@@IAE_NAA_J@Z 10023554 f i libucrt:output.obj
 0001:0002257c       ??$extract_argument_from_va_list@_W_W@?$positional_parameter_base@DV?$stream_output_adapter@D@__crt_stdio_output@@@__crt_stdio_output@@IAE_NAA_W@Z 1002357c f i libucrt:output.obj
 0001:00022617       ??$extract_argument_from_va_list@_W_W@?$positional_parameter_base@DV?$string_output_adapter@D@__crt_stdio_output@@@__crt_stdio_output@@IAE_NAA_W@Z 10023617 f i libucrt:output.obj
 0001:000226b2       ??$extract_argument_from_va_list@_W_W@?$positional_parameter_base@_WV?$stream_output_adapter@_W@__crt_stdio_output@@@__crt_stdio_output@@IAE_NAA_W@Z 100236b2 f i libucrt:output.obj
 0001:0002274d       ??$extract_argument_from_va_list@_W_W@?$positional_parameter_base@_WV?$string_output_adapter@_W@__crt_stdio_output@@@__crt_stdio_output@@IAE_NAA_W@Z 1002374d f i libucrt:output.obj
 0001:000227e8       ??$extract_argument_from_va_list@_W_W@?$standard_base@DV?$stream_output_adapter@D@__crt_stdio_output@@@__crt_stdio_output@@IAE_NAA_W@Z 100237e8 f i libucrt:output.obj
 0001:0002280b       ??$extract_argument_from_va_list@_W_W@?$standard_base@DV?$string_output_adapter@D@__crt_stdio_output@@@__crt_stdio_output@@IAE_NAA_W@Z 1002380b f i libucrt:output.obj
 0001:0002282e       ??$extract_argument_from_va_list@_W_W@?$standard_base@_WV?$stream_output_adapter@_W@__crt_stdio_output@@@__crt_stdio_output@@IAE_NAA_W@Z 1002382e f i libucrt:output.obj
 0001:00022851       ??$extract_argument_from_va_list@_W_W@?$standard_base@_WV?$string_output_adapter@_W@__crt_stdio_output@@@__crt_stdio_output@@IAE_NAA_W@Z 10023851 f i libucrt:output.obj
 0001:00022874       ??$get_parameter_type@D@?$positional_parameter_base@DV?$stream_output_adapter@D@__crt_stdio_output@@@__crt_stdio_output@@CA?AW4parameter_type@01@PAD@Z 10023874 f i libucrt:output.obj
 0001:00022878       ??$get_parameter_type@D@?$positional_parameter_base@DV?$string_output_adapter@D@__crt_stdio_output@@@__crt_stdio_output@@CA?AW4parameter_type@01@PAD@Z 10023878 f i libucrt:output.obj
 0001:0002287c       ??$get_parameter_type@D@?$positional_parameter_base@_WV?$stream_output_adapter@_W@__crt_stdio_output@@@__crt_stdio_output@@CA?AW4parameter_type@01@PAD@Z 1002387c f i libucrt:output.obj
 0001:00022880       ??$get_parameter_type@D@?$positional_parameter_base@_WV?$string_output_adapter@_W@__crt_stdio_output@@@__crt_stdio_output@@CA?AW4parameter_type@01@PAD@Z 10023880 f i libucrt:output.obj
 0001:00022894       ??$get_parameter_type@X@?$positional_parameter_base@DV?$stream_output_adapter@D@__crt_stdio_output@@@__crt_stdio_output@@CA?AW4parameter_type@01@PAX@Z 10023894 f i libucrt:output.obj
 0001:00022898       ??$get_parameter_type@X@?$positional_parameter_base@DV?$string_output_adapter@D@__crt_stdio_output@@@__crt_stdio_output@@CA?AW4parameter_type@01@PAX@Z 10023898 f i libucrt:output.obj
 0001:0002289c       ??$get_parameter_type@X@?$positional_parameter_base@_WV?$stream_output_adapter@_W@__crt_stdio_output@@@__crt_stdio_output@@CA?AW4parameter_type@01@PAX@Z 1002389c f i libucrt:output.obj
 0001:000228a0       ??$get_parameter_type@X@?$positional_parameter_base@_WV?$string_output_adapter@_W@__crt_stdio_output@@@__crt_stdio_output@@CA?AW4parameter_type@01@PAX@Z 100238a0 f i libucrt:output.obj
 0001:000228a4       ??$is_character_specifier@D@?$positional_parameter_base@DV?$stream_output_adapter@D@__crt_stdio_output@@@__crt_stdio_output@@CA_ND@Z 100238a4 f i libucrt:output.obj
 0001:000228c2       ??$is_character_specifier@D@?$positional_parameter_base@DV?$string_output_adapter@D@__crt_stdio_output@@@__crt_stdio_output@@CA_ND@Z 100238c2 f i libucrt:output.obj
 0001:000228e0       ??$is_character_specifier@_W@?$positional_parameter_base@_WV?$stream_output_adapter@_W@__crt_stdio_output@@@__crt_stdio_output@@CA_N_W@Z 100238e0 f i libucrt:output.obj
 0001:00022901       ??$is_character_specifier@_W@?$positional_parameter_base@_WV?$string_output_adapter@_W@__crt_stdio_output@@@__crt_stdio_output@@CA_N_W@Z 10023901 f i libucrt:output.obj
 0001:00022922       ??$is_integral_specifier@D@?$positional_parameter_base@DV?$stream_output_adapter@D@__crt_stdio_output@@@__crt_stdio_output@@CA_ND@Z 10023922 f i libucrt:output.obj
 0001:00022959       ??$is_integral_specifier@D@?$positional_parameter_base@DV?$string_output_adapter@D@__crt_stdio_output@@@__crt_stdio_output@@CA_ND@Z 10023959 f i libucrt:output.obj
 0001:00022990       ??$is_integral_specifier@_W@?$positional_parameter_base@_WV?$stream_output_adapter@_W@__crt_stdio_output@@@__crt_stdio_output@@CA_N_W@Z 10023990 f i libucrt:output.obj
 0001:000229d9       ??$is_integral_specifier@_W@?$positional_parameter_base@_WV?$string_output_adapter@_W@__crt_stdio_output@@@__crt_stdio_output@@CA_N_W@Z 100239d9 f i libucrt:output.obj
 0001:00022a22       ??$is_pointer_specifier@D@?$positional_parameter_base@DV?$stream_output_adapter@D@__crt_stdio_output@@@__crt_stdio_output@@CA_ND@Z 10023a22 f i libucrt:output.obj
 0001:00022a33       ??$is_pointer_specifier@D@?$positional_parameter_base@DV?$string_output_adapter@D@__crt_stdio_output@@@__crt_stdio_output@@CA_ND@Z 10023a33 f i libucrt:output.obj
 0001:00022a44       ??$is_pointer_specifier@_W@?$positional_parameter_base@_WV?$stream_output_adapter@_W@__crt_stdio_output@@@__crt_stdio_output@@CA_N_W@Z 10023a44 f i libucrt:output.obj
 0001:00022a56       ??$is_pointer_specifier@_W@?$positional_parameter_base@_WV?$string_output_adapter@_W@__crt_stdio_output@@@__crt_stdio_output@@CA_N_W@Z 10023a56 f i libucrt:output.obj
 0001:00022a68       ??$is_string_specifier@D@?$positional_parameter_base@DV?$stream_output_adapter@D@__crt_stdio_output@@@__crt_stdio_output@@CA_ND@Z 10023a68 f i libucrt:output.obj
 0001:00022a86       ??$is_string_specifier@D@?$positional_parameter_base@DV?$string_output_adapter@D@__crt_stdio_output@@@__crt_stdio_output@@CA_ND@Z 10023a86 f i libucrt:output.obj
 0001:00022aa4       ??$is_string_specifier@_W@?$positional_parameter_base@_WV?$stream_output_adapter@_W@__crt_stdio_output@@@__crt_stdio_output@@CA_N_W@Z 10023aa4 f i libucrt:output.obj
 0001:00022ac5       ??$is_string_specifier@_W@?$positional_parameter_base@_WV?$string_output_adapter@_W@__crt_stdio_output@@@__crt_stdio_output@@CA_N_W@Z 10023ac5 f i libucrt:output.obj
 0001:00022ae6       ??$is_wide_character_specifier@D@__crt_stdio_output@@YA_N_KDW4length_modifier@0@@Z 10023ae6 f i libucrt:output.obj
 0001:00022b23       ??$is_wide_character_specifier@_W@__crt_stdio_output@@YA_N_K_WW4length_modifier@0@@Z 10023b23 f i libucrt:output.obj
 0001:00022b84       ??$peek_va_arg@C@__crt_stdio_output@@YACPAD@Z 10023b84 f i libucrt:output.obj
 0001:00022b93       ??$peek_va_arg@E@__crt_stdio_output@@YAEPAD@Z 10023b93 f i libucrt:output.obj
 0001:00022ba2       ??$peek_va_arg@F@__crt_stdio_output@@YAFPAD@Z 10023ba2 f i libucrt:output.obj
 0001:00022bb2       ??$peek_va_arg@G@__crt_stdio_output@@YAGPAD@Z 10023bb2 f i libucrt:output.obj
 0001:00022bc2       ??$peek_va_arg@H@__crt_stdio_output@@YAHPAD@Z 10023bc2 f i libucrt:output.obj
 0001:00022bd1       ??$peek_va_arg@I@__crt_stdio_output@@YAIPAD@Z 10023bd1 f i libucrt:output.obj
 0001:00022be0       ??$peek_va_arg@PAD@__crt_stdio_output@@YAPADPAD@Z 10023be0 f i libucrt:output.obj
 0001:00022c2b       ??$peek_va_arg@PAX@__crt_stdio_output@@YAPAXPAD@Z 10023c2b f i libucrt:output.obj
 0001:00022c3a       ??$peek_va_arg@U_CRT_DOUBLE@@@__crt_stdio_output@@YA?AU_CRT_DOUBLE@@PAD@Z 10023c3a f i libucrt:output.obj
 0001:00022c4c       ??$peek_va_arg@_J@__crt_stdio_output@@YA_JPAD@Z 10023c4c f i libucrt:output.obj
 0001:00022c5e       ??$peek_va_arg@_K@__crt_stdio_output@@YA_KPAD@Z 10023c5e f i libucrt:output.obj
 0001:00022c70       ??$peek_va_arg@_W@__crt_stdio_output@@YA_WPAD@Z 10023c70 f i libucrt:output.obj
 0001:00022c80       ??$puttc_nolock@ABDPAU_iobuf@@@?$__crt_char_traits@D@@SAHABD$$QAPAU_iobuf@@@Z 10023c80 f i libucrt:output.obj
 0001:00022ca0       ??$puttc_nolock@AB_WPAU_iobuf@@@?$__crt_char_traits@_W@@SAGAB_W$$QAPAU_iobuf@@@Z 10023ca0 f i libucrt:output.obj
 0001:00022cc0       ??$read_va_arg@C@__crt_stdio_output@@YACAAPAD@Z 10023cc0 f i libucrt:output.obj
 0001:00022cd6       ??$read_va_arg@E@__crt_stdio_output@@YAEAAPAD@Z 10023cd6 f i libucrt:output.obj
 0001:00022cec       ??$read_va_arg@F@__crt_stdio_output@@YAFAAPAD@Z 10023cec f i libucrt:output.obj
 0001:00022d03       ??$read_va_arg@G@__crt_stdio_output@@YAGAAPAD@Z 10023d03 f i libucrt:output.obj
 0001:00022d1a       ??$read_va_arg@H@__crt_stdio_output@@YAHAAPAD@Z 10023d1a f i libucrt:output.obj
 0001:00022d30       ??$read_va_arg@I@__crt_stdio_output@@YAIAAPAD@Z 10023d30 f i libucrt:output.obj
 0001:00022d46       ??$read_va_arg@PAD@__crt_stdio_output@@YAPADAAPAD@Z 10023d46 f i libucrt:output.obj
 0001:00022e64       ??$read_va_arg@PAX@__crt_stdio_output@@YAPAXAAPAD@Z 10023e64 f i libucrt:output.obj
 0001:00022e7a       ??$read_va_arg@U_CRT_DOUBLE@@@__crt_stdio_output@@YA?AU_CRT_DOUBLE@@AAPAD@Z 10023e7a f i libucrt:output.obj
 0001:00022e95       ??$read_va_arg@_J@__crt_stdio_output@@YA_JAAPAD@Z 10023e95 f i libucrt:output.obj
 0001:00022eaf       ??$read_va_arg@_K@__crt_stdio_output@@YA_KAAPAD@Z 10023eaf f i libucrt:output.obj
 0001:00022ec9       ??$read_va_arg@_W@__crt_stdio_output@@YA_WAAPAD@Z 10023ec9 f i libucrt:output.obj
 0001:00022ee0       ??$scratch_count@D@formatting_buffer@__crt_stdio_output@@QBEIXZ 10023ee0 f i libucrt:output.obj
 0001:00022ee5       ??$scratch_data@D@formatting_buffer@__crt_stdio_output@@QAEPADXZ 10023ee5 f i libucrt:output.obj
 0001:00022f0a       ??$tcstol@AAPBDPAPADH@?$__crt_char_traits@D@@SAJAAPBD$$QAPAPAD$$QAH@Z 10023f0a f i libucrt:output.obj
 0001:00022f2f       ??$tcstol@AAPB_WPAPA_WH@?$__crt_char_traits@_W@@SAJAAPB_W$$QAPAPA_W$$QAH@Z 10023f2f f i libucrt:output.obj
 0001:00022f54       ??$tcstol@PBDPAPADH@?$__crt_char_traits@D@@SAJ$$QAPBD$$QAPAPAD$$QAH@Z 10023f54 f i libucrt:output.obj
 0001:00022f79       ??$tcstol@PB_WPAPA_WH@?$__crt_char_traits@_W@@SAJ$$QAPB_W$$QAPAPA_W$$QAH@Z 10023f79 f i libucrt:output.obj
 0001:00022f9e       ??$type_case_integer_parse_into_buffer@I@?$output_processor@DV?$stream_output_adapter@D@__crt_stdio_output@@V?$format_validation_base@DV?$stream_output_adapter@D@__crt_stdio_output@@@2@@__crt_stdio_output@@AAEXII_N@Z 10023f9e f i libucrt:output.obj
 0001:0002302d       ??$type_case_integer_parse_into_buffer@I@?$output_processor@DV?$stream_output_adapter@D@__crt_stdio_output@@V?$positional_parameter_base@DV?$stream_output_adapter@D@__crt_stdio_output@@@2@@__crt_stdio_output@@AAEXII_N@Z 1002402d f i libucrt:output.obj
 0001:000230bc       ??$type_case_integer_parse_into_buffer@I@?$output_processor@DV?$stream_output_adapter@D@__crt_stdio_output@@V?$standard_base@DV?$stream_output_adapter@D@__crt_stdio_output@@@2@@__crt_stdio_output@@AAEXII_N@Z 100240bc f i libucrt:output.obj
 0001:0002314b       ??$type_case_integer_parse_into_buffer@I@?$output_processor@DV?$string_output_adapter@D@__crt_stdio_output@@V?$format_validation_base@DV?$string_output_adapter@D@__crt_stdio_output@@@2@@__crt_stdio_output@@AAEXII_N@Z 1002414b f i libucrt:output.obj
 0001:000231da       ??$type_case_integer_parse_into_buffer@I@?$output_processor@DV?$string_output_adapter@D@__crt_stdio_output@@V?$positional_parameter_base@DV?$string_output_adapter@D@__crt_stdio_output@@@2@@__crt_stdio_output@@AAEXII_N@Z 100241da f i libucrt:output.obj
 0001:00023269       ??$type_case_integer_parse_into_buffer@I@?$output_processor@DV?$string_output_adapter@D@__crt_stdio_output@@V?$standard_base@DV?$string_output_adapter@D@__crt_stdio_output@@@2@@__crt_stdio_output@@AAEXII_N@Z 10024269 f i libucrt:output.obj
 0001:000232f8       ??$type_case_integer_parse_into_buffer@I@?$output_processor@_WV?$stream_output_adapter@_W@__crt_stdio_output@@V?$format_validation_base@_WV?$stream_output_adapter@_W@__crt_stdio_output@@@2@@__crt_stdio_output@@AAEXII_N@Z 100242f8 f i libucrt:output.obj
 0001:00023398       ??$type_case_integer_parse_into_buffer@I@?$output_processor@_WV?$stream_output_adapter@_W@__crt_stdio_output@@V?$positional_parameter_base@_WV?$stream_output_adapter@_W@__crt_stdio_output@@@2@@__crt_stdio_output@@AAEXII_N@Z 10024398 f i libucrt:output.obj
 0001:00023438       ??$type_case_integer_parse_into_buffer@I@?$output_processor@_WV?$stream_output_adapter@_W@__crt_stdio_output@@V?$standard_base@_WV?$stream_output_adapter@_W@__crt_stdio_output@@@2@@__crt_stdio_output@@AAEXII_N@Z 10024438 f i libucrt:output.obj
 0001:000234d8       ??$type_case_integer_parse_into_buffer@I@?$output_processor@_WV?$string_output_adapter@_W@__crt_stdio_output@@V?$format_validation_base@_WV?$string_output_adapter@_W@__crt_stdio_output@@@2@@__crt_stdio_output@@AAEXII_N@Z 100244d8 f i libucrt:output.obj
 0001:00023578       ??$type_case_integer_parse_into_buffer@I@?$output_processor@_WV?$string_output_adapter@_W@__crt_stdio_output@@V?$positional_parameter_base@_WV?$string_output_adapter@_W@__crt_stdio_output@@@2@@__crt_stdio_output@@AAEXII_N@Z 10024578 f i libucrt:output.obj
 0001:00023618       ??$type_case_integer_parse_into_buffer@I@?$output_processor@_WV?$string_output_adapter@_W@__crt_stdio_output@@V?$standard_base@_WV?$string_output_adapter@_W@__crt_stdio_output@@@2@@__crt_stdio_output@@AAEXII_N@Z 10024618 f i libucrt:output.obj
 0001:000236b8       ??$type_case_integer_parse_into_buffer@_K@?$output_processor@DV?$stream_output_adapter@D@__crt_stdio_output@@V?$format_validation_base@DV?$stream_output_adapter@D@__crt_stdio_output@@@2@@__crt_stdio_output@@AAEX_KI_N@Z 100246b8 f i libucrt:output.obj
 0001:0002376a       ??$type_case_integer_parse_into_buffer@_K@?$output_processor@DV?$stream_output_adapter@D@__crt_stdio_output@@V?$positional_parameter_base@DV?$stream_output_adapter@D@__crt_stdio_output@@@2@@__crt_stdio_output@@AAEX_KI_N@Z 1002476a f i libucrt:output.obj
 0001:0002381c       ??$type_case_integer_parse_into_buffer@_K@?$output_processor@DV?$stream_output_adapter@D@__crt_stdio_output@@V?$standard_base@DV?$stream_output_adapter@D@__crt_stdio_output@@@2@@__crt_stdio_output@@AAEX_KI_N@Z 1002481c f i libucrt:output.obj
 0001:000238ce       ??$type_case_integer_parse_into_buffer@_K@?$output_processor@DV?$string_output_adapter@D@__crt_stdio_output@@V?$format_validation_base@DV?$string_output_adapter@D@__crt_stdio_output@@@2@@__crt_stdio_output@@AAEX_KI_N@Z 100248ce f i libucrt:output.obj
 0001:00023980       ??$type_case_integer_parse_into_buffer@_K@?$output_processor@DV?$string_output_adapter@D@__crt_stdio_output@@V?$positional_parameter_base@DV?$string_output_adapter@D@__crt_stdio_output@@@2@@__crt_stdio_output@@AAEX_KI_N@Z 10024980 f i libucrt:output.obj
 0001:00023a32       ??$type_case_integer_parse_into_buffer@_K@?$output_processor@DV?$string_output_adapter@D@__crt_stdio_output@@V?$standard_base@DV?$string_output_adapter@D@__crt_stdio_output@@@2@@__crt_stdio_output@@AAEX_KI_N@Z 10024a32 f i libucrt:output.obj
 0001:00023ae4       ??$type_case_integer_parse_into_buffer@_K@?$output_processor@_WV?$stream_output_adapter@_W@__crt_stdio_output@@V?$format_validation_base@_WV?$stream_output_adapter@_W@__crt_stdio_output@@@2@@__crt_stdio_output@@AAEX_KI_N@Z 10024ae4 f i libucrt:output.obj
 0001:00023ba7       ??$type_case_integer_parse_into_buffer@_K@?$output_processor@_WV?$stream_output_adapter@_W@__crt_stdio_output@@V?$positional_parameter_base@_WV?$stream_output_adapter@_W@__crt_stdio_output@@@2@@__crt_stdio_output@@AAEX_KI_N@Z 10024ba7 f i libucrt:output.obj
 0001:00023c6a       ??$type_case_integer_parse_into_buffer@_K@?$output_processor@_WV?$stream_output_adapter@_W@__crt_stdio_output@@V?$standard_base@_WV?$stream_output_adapter@_W@__crt_stdio_output@@@2@@__crt_stdio_output@@AAEX_KI_N@Z 10024c6a f i libucrt:output.obj
 0001:00023d2d       ??$type_case_integer_parse_into_buffer@_K@?$output_processor@_WV?$string_output_adapter@_W@__crt_stdio_output@@V?$format_validation_base@_WV?$string_output_adapter@_W@__crt_stdio_output@@@2@@__crt_stdio_output@@AAEX_KI_N@Z 10024d2d f i libucrt:output.obj
 0001:00023df0       ??$type_case_integer_parse_into_buffer@_K@?$output_processor@_WV?$string_output_adapter@_W@__crt_stdio_output@@V?$positional_parameter_base@_WV?$string_output_adapter@_W@__crt_stdio_output@@@2@@__crt_stdio_output@@AAEX_KI_N@Z 10024df0 f i libucrt:output.obj
 0001:00023eb3       ??$type_case_integer_parse_into_buffer@_K@?$output_processor@_WV?$string_output_adapter@_W@__crt_stdio_output@@V?$standard_base@_WV?$string_output_adapter@_W@__crt_stdio_output@@@2@@__crt_stdio_output@@AAEX_KI_N@Z 10024eb3 f i libucrt:output.obj
 0001:00023f76       ??$write_multiple_characters@V?$stream_output_adapter@D@__crt_stdio_output@@D@__crt_stdio_output@@YAXABV?$stream_output_adapter@D@0@DHQAH@Z 10024f76 f i libucrt:output.obj
 0001:00023fbf       ??$write_multiple_characters@V?$stream_output_adapter@_W@__crt_stdio_output@@D@__crt_stdio_output@@YAXABV?$stream_output_adapter@_W@0@DHQAH@Z 10024fbf f i libucrt:output.obj
 0001:0002400f       ??$write_multiple_characters@V?$string_output_adapter@D@__crt_stdio_output@@D@__crt_stdio_output@@YAXABV?$string_output_adapter@D@0@DHQAH@Z 1002500f f i libucrt:output.obj
 0001:00024046       ??$write_multiple_characters@V?$string_output_adapter@_W@__crt_stdio_output@@D@__crt_stdio_output@@YAXABV?$string_output_adapter@_W@0@DHQAH@Z 10025046 f i libucrt:output.obj
 0001:000242b7       ??0?$common_data@D@__crt_stdio_output@@IAE@XZ 100252b7 f i libucrt:output.obj
 0001:0002430f       ??0?$common_data@_W@__crt_stdio_output@@IAE@XZ 1002530f f i libucrt:output.obj
 0001:0002436e       ??0?$output_adapter_data@DV?$stream_output_adapter@D@__crt_stdio_output@@@__crt_stdio_output@@IAE@ABV?$stream_output_adapter@D@1@_KQBDQAU__crt_locale_pointers@@QAD@Z 1002536e f i libucrt:output.obj
 0001:000243b9       ??0?$output_adapter_data@DV?$string_output_adapter@D@__crt_stdio_output@@@__crt_stdio_output@@IAE@ABV?$string_output_adapter@D@1@_KQBDQAU__crt_locale_pointers@@QAD@Z 100253b9 f i libucrt:output.obj
 0001:00024404       ??0?$output_adapter_data@_WV?$stream_output_adapter@_W@__crt_stdio_output@@@__crt_stdio_output@@IAE@ABV?$stream_output_adapter@_W@1@_KQB_WQAU__crt_locale_pointers@@QAD@Z 10025404 f i libucrt:output.obj
 0001:0002444f       ??0?$output_adapter_data@_WV?$string_output_adapter@_W@__crt_stdio_output@@@__crt_stdio_output@@IAE@ABV?$string_output_adapter@_W@1@_KQB_WQAU__crt_locale_pointers@@QAD@Z 1002544f f i libucrt:output.obj
 0001:0002449a       ??0?$output_processor@DV?$stream_output_adapter@D@__crt_stdio_output@@V?$format_validation_base@DV?$stream_output_adapter@D@__crt_stdio_output@@@2@@__crt_stdio_output@@QAE@ABV?$stream_output_adapter@D@1@_KQBDQAU__crt_locale_pointers@@QAD@Z 1002549a f i libucrt:output.obj
 0001:000244d2       ??0?$output_processor@DV?$stream_output_adapter@D@__crt_stdio_output@@V?$positional_parameter_base@DV?$stream_output_adapter@D@__crt_stdio_output@@@2@@__crt_stdio_output@@QAE@ABV?$stream_output_adapter@D@1@_KQBDQAU__crt_locale_pointers@@QAD@Z 100254d2 f i libucrt:output.obj
 0001:00024502       ??0?$output_processor@DV?$stream_output_adapter@D@__crt_stdio_output@@V?$standard_base@DV?$stream_output_adapter@D@__crt_stdio_output@@@2@@__crt_stdio_output@@QAE@ABV?$stream_output_adapter@D@1@_KQBDQAU__crt_locale_pointers@@QAD@Z 10025502 f i libucrt:output.obj
 0001:0002453a       ??0?$output_processor@DV?$string_output_adapter@D@__crt_stdio_output@@V?$format_validation_base@DV?$string_output_adapter@D@__crt_stdio_output@@@2@@__crt_stdio_output@@QAE@ABV?$string_output_adapter@D@1@_KQBDQAU__crt_locale_pointers@@QAD@Z 1002553a f i libucrt:output.obj
 0001:00024572       ??0?$output_processor@DV?$string_output_adapter@D@__crt_stdio_output@@V?$positional_parameter_base@DV?$string_output_adapter@D@__crt_stdio_output@@@2@@__crt_stdio_output@@QAE@ABV?$string_output_adapter@D@1@_KQBDQAU__crt_locale_pointers@@QAD@Z 10025572 f i libucrt:output.obj
 0001:000245a2       ??0?$output_processor@DV?$string_output_adapter@D@__crt_stdio_output@@V?$standard_base@DV?$string_output_adapter@D@__crt_stdio_output@@@2@@__crt_stdio_output@@QAE@ABV?$string_output_adapter@D@1@_KQBDQAU__crt_locale_pointers@@QAD@Z 100255a2 f i libucrt:output.obj
 0001:000245da       ??0?$output_processor@_WV?$stream_output_adapter@_W@__crt_stdio_output@@V?$format_validation_base@_WV?$stream_output_adapter@_W@__crt_stdio_output@@@2@@__crt_stdio_output@@QAE@ABV?$stream_output_adapter@_W@1@_KQB_WQAU__crt_locale_pointers@@QAD@Z 100255da f i libucrt:output.obj
 0001:00024612       ??0?$output_processor@_WV?$stream_output_adapter@_W@__crt_stdio_output@@V?$positional_parameter_base@_WV?$stream_output_adapter@_W@__crt_stdio_output@@@2@@__crt_stdio_output@@QAE@ABV?$stream_output_adapter@_W@1@_KQB_WQAU__crt_locale_pointers@@QAD@Z 10025612 f i libucrt:output.obj
 0001:00024642       ??0?$output_processor@_WV?$stream_output_adapter@_W@__crt_stdio_output@@V?$standard_base@_WV?$stream_output_adapter@_W@__crt_stdio_output@@@2@@__crt_stdio_output@@QAE@ABV?$stream_output_adapter@_W@1@_KQB_WQAU__crt_locale_pointers@@QAD@Z 10025642 f i libucrt:output.obj
 0001:0002467a       ??0?$output_processor@_WV?$string_output_adapter@_W@__crt_stdio_output@@V?$format_validation_base@_WV?$string_output_adapter@_W@__crt_stdio_output@@@2@@__crt_stdio_output@@QAE@ABV?$string_output_adapter@_W@1@_KQB_WQAU__crt_locale_pointers@@QAD@Z 1002567a f i libucrt:output.obj
 0001:000246b2       ??0?$output_processor@_WV?$string_output_adapter@_W@__crt_stdio_output@@V?$positional_parameter_base@_WV?$string_output_adapter@_W@__crt_stdio_output@@@2@@__crt_stdio_output@@QAE@ABV?$string_output_adapter@_W@1@_KQB_WQAU__crt_locale_pointers@@QAD@Z 100256b2 f i libucrt:output.obj
 0001:000246e2       ??0?$output_processor@_WV?$string_output_adapter@_W@__crt_stdio_output@@V?$standard_base@_WV?$string_output_adapter@_W@__crt_stdio_output@@@2@@__crt_stdio_output@@QAE@ABV?$string_output_adapter@_W@1@_KQB_WQAU__crt_locale_pointers@@QAD@Z 100256e2 f i libucrt:output.obj
 0001:0002471a       ??0?$stream_output_adapter@D@__crt_stdio_output@@QAE@QAU_iobuf@@@Z 1002571a f i libucrt:output.obj
 0001:0002472e       ??0?$stream_output_adapter@_W@__crt_stdio_output@@QAE@QAU_iobuf@@@Z 1002572e f i libucrt:output.obj
 0001:00024742       ??0?$string_output_adapter@D@__crt_stdio_output@@QAE@QAU?$string_output_adapter_context@D@1@@Z 10025742 f i libucrt:output.obj
 0001:00024756       ??0?$string_output_adapter@_W@__crt_stdio_output@@QAE@QAU?$string_output_adapter_context@_W@1@@Z 10025756 f i libucrt:output.obj
 0001:0002476a       ??0_LocaleUpdate@@QAE@QAU__crt_locale_pointers@@@Z 1002576a f i libucrt:output.obj
 0001:0002480d       ??0__acrt_stdio_temporary_buffering_guard@@QAE@QAU_iobuf@@@Z 1002580d f i libucrt:output.obj
 0001:00024832       ??0__crt_deferred_errno_cache@@QAE@XZ 10025832 f i libucrt:output.obj
 0001:00024838       ??0__crt_errno_guard@@QAE@QAH@Z 10025838 f i libucrt:output.obj
 0001:00024856       ??0formatting_buffer@__crt_stdio_output@@QAE@XZ 10025856 f i libucrt:output.obj
 0001:0002486b       ??1?$common_data@D@__crt_stdio_output@@QAE@XZ 1002586b f i libucrt:output.obj
 0001:00024875       ??1?$common_data@_W@__crt_stdio_output@@QAE@XZ 10025875 f i libucrt:output.obj
 0001:0002487f       ??1?$format_validation_base@DV?$stream_output_adapter@D@__crt_stdio_output@@@__crt_stdio_output@@QAE@XZ 1002587f f i libucrt:output.obj
 0001:00024889       ??1?$format_validation_base@DV?$string_output_adapter@D@__crt_stdio_output@@@__crt_stdio_output@@QAE@XZ 10025889 f i libucrt:output.obj
 0001:00024893       ??1?$format_validation_base@_WV?$stream_output_adapter@_W@__crt_stdio_output@@@__crt_stdio_output@@QAE@XZ 10025893 f i libucrt:output.obj
 0001:0002489d       ??1?$format_validation_base@_WV?$string_output_adapter@_W@__crt_stdio_output@@@__crt_stdio_output@@QAE@XZ 1002589d f i libucrt:output.obj
 0001:000248a7       ??1?$output_adapter_data@DV?$stream_output_adapter@D@__crt_stdio_output@@@__crt_stdio_output@@QAE@XZ 100258a7 f i libucrt:output.obj
 0001:000248b1       ??1?$output_adapter_data@DV?$string_output_adapter@D@__crt_stdio_output@@@__crt_stdio_output@@QAE@XZ 100258b1 f i libucrt:output.obj
 0001:000248bb       ??1?$output_adapter_data@_WV?$stream_output_adapter@_W@__crt_stdio_output@@@__crt_stdio_output@@QAE@XZ 100258bb f i libucrt:output.obj
 0001:000248c5       ??1?$output_adapter_data@_WV?$string_output_adapter@_W@__crt_stdio_output@@@__crt_stdio_output@@QAE@XZ 100258c5 f i libucrt:output.obj
 0001:000248cf       ??1?$output_processor@DV?$stream_output_adapter@D@__crt_stdio_output@@V?$format_validation_base@DV?$stream_output_adapter@D@__crt_stdio_output@@@2@@__crt_stdio_output@@QAE@XZ 100258cf f i libucrt:output.obj
 0001:000248d9       ??1?$output_processor@DV?$stream_output_adapter@D@__crt_stdio_output@@V?$positional_parameter_base@DV?$stream_output_adapter@D@__crt_stdio_output@@@2@@__crt_stdio_output@@QAE@XZ 100258d9 f i libucrt:output.obj
 0001:000248e3       ??1?$output_processor@DV?$stream_output_adapter@D@__crt_stdio_output@@V?$standard_base@DV?$stream_output_adapter@D@__crt_stdio_output@@@2@@__crt_stdio_output@@QAE@XZ 100258e3 f i libucrt:output.obj
 0001:000248ed       ??1?$output_processor@DV?$string_output_adapter@D@__crt_stdio_output@@V?$format_validation_base@DV?$string_output_adapter@D@__crt_stdio_output@@@2@@__crt_stdio_output@@QAE@XZ 100258ed f i libucrt:output.obj
 0001:000248f7       ??1?$output_processor@DV?$string_output_adapter@D@__crt_stdio_output@@V?$positional_parameter_base@DV?$string_output_adapter@D@__crt_stdio_output@@@2@@__crt_stdio_output@@QAE@XZ 100258f7 f i libucrt:output.obj
 0001:00024901       ??1?$output_processor@DV?$string_output_adapter@D@__crt_stdio_output@@V?$standard_base@DV?$string_output_adapter@D@__crt_stdio_output@@@2@@__crt_stdio_output@@QAE@XZ 10025901 f i libucrt:output.obj
 0001:0002490b       ??1?$output_processor@_WV?$stream_output_adapter@_W@__crt_stdio_output@@V?$format_validation_base@_WV?$stream_output_adapter@_W@__crt_stdio_output@@@2@@__crt_stdio_output@@QAE@XZ 1002590b f i libucrt:output.obj
 0001:00024915       ??1?$output_processor@_WV?$stream_output_adapter@_W@__crt_stdio_output@@V?$positional_parameter_base@_WV?$stream_output_adapter@_W@__crt_stdio_output@@@2@@__crt_stdio_output@@QAE@XZ 10025915 f i libucrt:output.obj
 0001:0002491f       ??1?$output_processor@_WV?$stream_output_adapter@_W@__crt_stdio_output@@V?$standard_base@_WV?$stream_output_adapter@_W@__crt_stdio_output@@@2@@__crt_stdio_output@@QAE@XZ 1002591f f i libucrt:output.obj
 0001:00024929       ??1?$output_processor@_WV?$string_output_adapter@_W@__crt_stdio_output@@V?$format_validation_base@_WV?$string_output_adapter@_W@__crt_stdio_output@@@2@@__crt_stdio_output@@QAE@XZ 10025929 f i libucrt:output.obj
 0001:00024933       ??1?$output_processor@_WV?$string_output_adapter@_W@__crt_stdio_output@@V?$positional_parameter_base@_WV?$string_output_adapter@_W@__crt_stdio_output@@@2@@__crt_stdio_output@@QAE@XZ 10025933 f i libucrt:output.obj
 0001:0002493d       ??1?$output_processor@_WV?$string_output_adapter@_W@__crt_stdio_output@@V?$standard_base@_WV?$string_output_adapter@_W@__crt_stdio_output@@@2@@__crt_stdio_output@@QAE@XZ 1002593d f i libucrt:output.obj
 0001:00024947       ??1?$positional_parameter_base@DV?$stream_output_adapter@D@__crt_stdio_output@@@__crt_stdio_output@@QAE@XZ 10025947 f i libucrt:output.obj
 0001:00024951       ??1?$positional_parameter_base@DV?$string_output_adapter@D@__crt_stdio_output@@@__crt_stdio_output@@QAE@XZ 10025951 f i libucrt:output.obj
 0001:0002495b       ??1?$positional_parameter_base@_WV?$stream_output_adapter@_W@__crt_stdio_output@@@__crt_stdio_output@@QAE@XZ 1002595b f i libucrt:output.obj
 0001:00024965       ??1?$positional_parameter_base@_WV?$string_output_adapter@_W@__crt_stdio_output@@@__crt_stdio_output@@QAE@XZ 10025965 f i libucrt:output.obj
 0001:0002496f       ??1?$standard_base@DV?$stream_output_adapter@D@__crt_stdio_output@@@__crt_stdio_output@@QAE@XZ 1002596f f i libucrt:output.obj
 0001:00024979       ??1?$standard_base@DV?$string_output_adapter@D@__crt_stdio_output@@@__crt_stdio_output@@QAE@XZ 10025979 f i libucrt:output.obj
 0001:00024983       ??1?$standard_base@_WV?$stream_output_adapter@_W@__crt_stdio_output@@@__crt_stdio_output@@QAE@XZ 10025983 f i libucrt:output.obj
 0001:0002498d       ??1?$standard_base@_WV?$string_output_adapter@_W@__crt_stdio_output@@@__crt_stdio_output@@QAE@XZ 1002598d f i libucrt:output.obj
 0001:00024997       ??1_LocaleUpdate@@QAE@XZ   10025997 f i libucrt:output.obj
 0001:000249ab       ??1__acrt_stdio_temporary_buffering_guard@@QAE@XZ 100259ab f i libucrt:output.obj
 0001:000249bd       ??1__crt_errno_guard@@QAE@XZ 100259bd f i libucrt:output.obj
 0001:000249d2       ??1formatting_buffer@__crt_stdio_output@@QAE@XZ 100259d2 f i libucrt:output.obj
 0001:000249f2       ??4?$__crt_unique_heap_ptr@DU__crt_internal_free_policy@@@@QAEAAV0@$$QAV0@@Z 100259f2 f i libucrt:output.obj
 0001:000250cd       ?GetLocaleT@_LocaleUpdate@@QAEPAU__crt_locale_pointers@@XZ 100260cd f i libucrt:output.obj
 0001:000250d1       ?__crt_interlocked_read_32@@YAHPDH@Z 100260d1 f i libucrt:output.obj
 0001:000250e0       ?adjust_hexit@?$output_processor@DV?$stream_output_adapter@D@__crt_stdio_output@@V?$format_validation_base@DV?$stream_output_adapter@D@__crt_stdio_output@@@2@@__crt_stdio_output@@CADH_N@Z 100260e0 f i libucrt:output.obj
 0001:000250f9       ?adjust_hexit@?$output_processor@DV?$stream_output_adapter@D@__crt_stdio_output@@V?$positional_parameter_base@DV?$stream_output_adapter@D@__crt_stdio_output@@@2@@__crt_stdio_output@@CADH_N@Z 100260f9 f i libucrt:output.obj
 0001:00025112       ?adjust_hexit@?$output_processor@DV?$stream_output_adapter@D@__crt_stdio_output@@V?$standard_base@DV?$stream_output_adapter@D@__crt_stdio_output@@@2@@__crt_stdio_output@@CADH_N@Z 10026112 f i libucrt:output.obj
 0001:0002512b       ?adjust_hexit@?$output_processor@DV?$string_output_adapter@D@__crt_stdio_output@@V?$format_validation_base@DV?$string_output_adapter@D@__crt_stdio_output@@@2@@__crt_stdio_output@@CADH_N@Z 1002612b f i libucrt:output.obj
 0001:00025144       ?adjust_hexit@?$output_processor@DV?$string_output_adapter@D@__crt_stdio_output@@V?$positional_parameter_base@DV?$string_output_adapter@D@__crt_stdio_output@@@2@@__crt_stdio_output@@CADH_N@Z 10026144 f i libucrt:output.obj
 0001:0002515d       ?adjust_hexit@?$output_processor@DV?$string_output_adapter@D@__crt_stdio_output@@V?$standard_base@DV?$string_output_adapter@D@__crt_stdio_output@@@2@@__crt_stdio_output@@CADH_N@Z 1002615d f i libucrt:output.obj
 0001:00025176       ?adjust_hexit@?$output_processor@_WV?$stream_output_adapter@_W@__crt_stdio_output@@V?$format_validation_base@_WV?$stream_output_adapter@_W@__crt_stdio_output@@@2@@__crt_stdio_output@@CADH_N@Z 10026176 f i libucrt:output.obj
 0001:0002518f       ?adjust_hexit@?$output_processor@_WV?$stream_output_adapter@_W@__crt_stdio_output@@V?$positional_parameter_base@_WV?$stream_output_adapter@_W@__crt_stdio_output@@@2@@__crt_stdio_output@@CADH_N@Z 1002618f f i libucrt:output.obj
 0001:000251a8       ?adjust_hexit@?$output_processor@_WV?$stream_output_adapter@_W@__crt_stdio_output@@V?$standard_base@_WV?$stream_output_adapter@_W@__crt_stdio_output@@@2@@__crt_stdio_output@@CADH_N@Z 100261a8 f i libucrt:output.obj
 0001:000251c1       ?adjust_hexit@?$output_processor@_WV?$string_output_adapter@_W@__crt_stdio_output@@V?$format_validation_base@_WV?$string_output_adapter@_W@__crt_stdio_output@@@2@@__crt_stdio_output@@CADH_N@Z 100261c1 f i libucrt:output.obj
 0001:000251da       ?adjust_hexit@?$output_processor@_WV?$string_output_adapter@_W@__crt_stdio_output@@V?$positional_parameter_base@_WV?$string_output_adapter@_W@__crt_stdio_output@@@2@@__crt_stdio_output@@CADH_N@Z 100261da f i libucrt:output.obj
 0001:000251f3       ?adjust_hexit@?$output_processor@_WV?$string_output_adapter@_W@__crt_stdio_output@@V?$standard_base@_WV?$string_output_adapter@_W@__crt_stdio_output@@@2@@__crt_stdio_output@@CADH_N@Z 100261f3 f i libucrt:output.obj
 0001:0002520c       ?advance_to_next_pass@?$positional_parameter_base@DV?$stream_output_adapter@D@__crt_stdio_output@@@__crt_stdio_output@@IAE_NXZ 1002620c f i libucrt:output.obj
 0001:0002526b       ?advance_to_next_pass@?$positional_parameter_base@DV?$string_output_adapter@D@__crt_stdio_output@@@__crt_stdio_output@@IAE_NXZ 1002626b f i libucrt:output.obj
 0001:000252ca       ?advance_to_next_pass@?$positional_parameter_base@_WV?$stream_output_adapter@_W@__crt_stdio_output@@@__crt_stdio_output@@IAE_NXZ 100262ca f i libucrt:output.obj
 0001:00025329       ?advance_to_next_pass@?$positional_parameter_base@_WV?$string_output_adapter@_W@__crt_stdio_output@@@__crt_stdio_output@@IAE_NXZ 10026329 f i libucrt:output.obj
 0001:00025388       ?advance_to_next_pass@?$standard_base@DV?$stream_output_adapter@D@__crt_stdio_output@@@__crt_stdio_output@@IAE_NXZ 10026388 f i libucrt:output.obj
 0001:0002539d       ?advance_to_next_pass@?$standard_base@DV?$string_output_adapter@D@__crt_stdio_output@@@__crt_stdio_output@@IAE_NXZ 1002639d f i libucrt:output.obj
 0001:000253b2       ?advance_to_next_pass@?$standard_base@_WV?$stream_output_adapter@_W@__crt_stdio_output@@@__crt_stdio_output@@IAE_NXZ 100263b2 f i libucrt:output.obj
 0001:000253c7       ?advance_to_next_pass@?$standard_base@_WV?$string_output_adapter@_W@__crt_stdio_output@@@__crt_stdio_output@@IAE_NXZ 100263c7 f i libucrt:output.obj
 0001:000253dc       ?crop_zeroes@__crt_stdio_output@@YAXPADQAU__crt_locale_pointers@@@Z 100263dc f i libucrt:output.obj
 0001:00025454       ?find_next_state@?$output_processor@DV?$stream_output_adapter@D@__crt_stdio_output@@V?$format_validation_base@DV?$stream_output_adapter@D@__crt_stdio_output@@@2@@__crt_stdio_output@@ABE?AW4state@2@DW432@@Z 10026454 f i libucrt:output.obj
 0001:000254a6       ?find_next_state@?$output_processor@DV?$stream_output_adapter@D@__crt_stdio_output@@V?$positional_parameter_base@DV?$stream_output_adapter@D@__crt_stdio_output@@@2@@__crt_stdio_output@@ABE?AW4state@2@DW432@@Z 100264a6 f i libucrt:output.obj
 0001:000254f8       ?find_next_state@?$output_processor@DV?$stream_output_adapter@D@__crt_stdio_output@@V?$standard_base@DV?$stream_output_adapter@D@__crt_stdio_output@@@2@@__crt_stdio_output@@ABE?AW4state@2@DW432@@Z 100264f8 f i libucrt:output.obj
 0001:00025546       ?find_next_state@?$output_processor@DV?$string_output_adapter@D@__crt_stdio_output@@V?$format_validation_base@DV?$string_output_adapter@D@__crt_stdio_output@@@2@@__crt_stdio_output@@ABE?AW4state@2@DW432@@Z 10026546 f i libucrt:output.obj
 0001:00025598       ?find_next_state@?$output_processor@DV?$string_output_adapter@D@__crt_stdio_output@@V?$positional_parameter_base@DV?$string_output_adapter@D@__crt_stdio_output@@@2@@__crt_stdio_output@@ABE?AW4state@2@DW432@@Z 10026598 f i libucrt:output.obj
 0001:000255ea       ?find_next_state@?$output_processor@DV?$string_output_adapter@D@__crt_stdio_output@@V?$standard_base@DV?$string_output_adapter@D@__crt_stdio_output@@@2@@__crt_stdio_output@@ABE?AW4state@2@DW432@@Z 100265ea f i libucrt:output.obj
 0001:00025638       ?find_next_state@?$output_processor@_WV?$stream_output_adapter@_W@__crt_stdio_output@@V?$format_validation_base@_WV?$stream_output_adapter@_W@__crt_stdio_output@@@2@@__crt_stdio_output@@ABE?AW4state@2@_WW432@@Z 10026638 f i libucrt:output.obj
 0001:0002568d       ?find_next_state@?$output_processor@_WV?$stream_output_adapter@_W@__crt_stdio_output@@V?$positional_parameter_base@_WV?$stream_output_adapter@_W@__crt_stdio_output@@@2@@__crt_stdio_output@@ABE?AW4state@2@_WW432@@Z 1002668d f i libucrt:output.obj
 0001:000256e2       ?find_next_state@?$output_processor@_WV?$stream_output_adapter@_W@__crt_stdio_output@@V?$standard_base@_WV?$stream_output_adapter@_W@__crt_stdio_output@@@2@@__crt_stdio_output@@ABE?AW4state@2@_WW432@@Z 100266e2 f i libucrt:output.obj
 0001:00025733       ?find_next_state@?$output_processor@_WV?$string_output_adapter@_W@__crt_stdio_output@@V?$format_validation_base@_WV?$string_output_adapter@_W@__crt_stdio_output@@@2@@__crt_stdio_output@@ABE?AW4state@2@_WW432@@Z 10026733 f i libucrt:output.obj
 0001:00025788       ?find_next_state@?$output_processor@_WV?$string_output_adapter@_W@__crt_stdio_output@@V?$positional_parameter_base@_WV?$string_output_adapter@_W@__crt_stdio_output@@@2@@__crt_stdio_output@@ABE?AW4state@2@_WW432@@Z 10026788 f i libucrt:output.obj
 0001:000257dd       ?find_next_state@?$output_processor@_WV?$string_output_adapter@_W@__crt_stdio_output@@V?$standard_base@_WV?$string_output_adapter@_W@__crt_stdio_output@@@2@@__crt_stdio_output@@ABE?AW4state@2@_WW432@@Z 100267dd f i libucrt:output.obj
 0001:0002582e       ?force_decimal_point@__crt_stdio_output@@YAXPADQAU__crt_locale_pointers@@@Z 1002682e f i libucrt:output.obj
 0001:000258a1       ?get@__crt_deferred_errno_cache@@QAEAAHXZ 100268a1 f i libucrt:output.obj
 0001:000258ba       ?get_flags@__crt_stdio_stream@@QBEJXZ 100268ba f i libucrt:output.obj
 0001:000258c0       ?get_parameter_type@?$positional_parameter_base@DV?$stream_output_adapter@D@__crt_stdio_output@@@__crt_stdio_output@@CA?AW4parameter_type@12@F@Z 100268c0 f i libucrt:output.obj
 0001:000258c4       ?get_parameter_type@?$positional_parameter_base@DV?$stream_output_adapter@D@__crt_stdio_output@@@__crt_stdio_output@@CA?AW4parameter_type@12@G@Z 100268c4 f i libucrt:output.obj
 0001:000258c8       ?get_parameter_type@?$positional_parameter_base@DV?$stream_output_adapter@D@__crt_stdio_output@@@__crt_stdio_output@@CA?AW4parameter_type@12@H@Z 100268c8 f i libucrt:output.obj
 0001:000258cc       ?get_parameter_type@?$positional_parameter_base@DV?$stream_output_adapter@D@__crt_stdio_output@@@__crt_stdio_output@@CA?AW4parameter_type@12@I@Z 100268cc f i libucrt:output.obj
 0001:000258d0       ?get_parameter_type@?$positional_parameter_base@DV?$stream_output_adapter@D@__crt_stdio_output@@@__crt_stdio_output@@CA?AW4parameter_type@12@U_CRT_DOUBLE@@@Z 100268d0 f i libucrt:output.obj
 0001:000258d4       ?get_parameter_type@?$positional_parameter_base@DV?$stream_output_adapter@D@__crt_stdio_output@@@__crt_stdio_output@@CA?AW4parameter_type@12@_J@Z 100268d4 f i libucrt:output.obj
 0001:000258d8       ?get_parameter_type@?$positional_parameter_base@DV?$stream_output_adapter@D@__crt_stdio_output@@@__crt_stdio_output@@CA?AW4parameter_type@12@_K@Z 100268d8 f i libucrt:output.obj
 0001:000258dc       ?get_parameter_type@?$positional_parameter_base@DV?$stream_output_adapter@D@__crt_stdio_output@@@__crt_stdio_output@@CA?AW4parameter_type@12@_W@Z 100268dc f i libucrt:output.obj
 0001:000258e0       ?get_parameter_type@?$positional_parameter_base@DV?$string_output_adapter@D@__crt_stdio_output@@@__crt_stdio_output@@CA?AW4parameter_type@12@F@Z 100268e0 f i libucrt:output.obj
 0001:000258e4       ?get_parameter_type@?$positional_parameter_base@DV?$string_output_adapter@D@__crt_stdio_output@@@__crt_stdio_output@@CA?AW4parameter_type@12@G@Z 100268e4 f i libucrt:output.obj
 0001:000258e8       ?get_parameter_type@?$positional_parameter_base@DV?$string_output_adapter@D@__crt_stdio_output@@@__crt_stdio_output@@CA?AW4parameter_type@12@H@Z 100268e8 f i libucrt:output.obj
 0001:000258ec       ?get_parameter_type@?$positional_parameter_base@DV?$string_output_adapter@D@__crt_stdio_output@@@__crt_stdio_output@@CA?AW4parameter_type@12@I@Z 100268ec f i libucrt:output.obj
 0001:000258f0       ?get_parameter_type@?$positional_parameter_base@DV?$string_output_adapter@D@__crt_stdio_output@@@__crt_stdio_output@@CA?AW4parameter_type@12@U_CRT_DOUBLE@@@Z 100268f0 f i libucrt:output.obj
 0001:000258f4       ?get_parameter_type@?$positional_parameter_base@DV?$string_output_adapter@D@__crt_stdio_output@@@__crt_stdio_output@@CA?AW4parameter_type@12@_J@Z 100268f4 f i libucrt:output.obj
 0001:000258f8       ?get_parameter_type@?$positional_parameter_base@DV?$string_output_adapter@D@__crt_stdio_output@@@__crt_stdio_output@@CA?AW4parameter_type@12@_K@Z 100268f8 f i libucrt:output.obj
 0001:000258fc       ?get_parameter_type@?$positional_parameter_base@DV?$string_output_adapter@D@__crt_stdio_output@@@__crt_stdio_output@@CA?AW4parameter_type@12@_W@Z 100268fc f i libucrt:output.obj
 0001:00025900       ?get_parameter_type@?$positional_parameter_base@_WV?$stream_output_adapter@_W@__crt_stdio_output@@@__crt_stdio_output@@CA?AW4parameter_type@12@F@Z 10026900 f i libucrt:output.obj
 0001:00025904       ?get_parameter_type@?$positional_parameter_base@_WV?$stream_output_adapter@_W@__crt_stdio_output@@@__crt_stdio_output@@CA?AW4parameter_type@12@G@Z 10026904 f i libucrt:output.obj
 0001:00025908       ?get_parameter_type@?$positional_parameter_base@_WV?$stream_output_adapter@_W@__crt_stdio_output@@@__crt_stdio_output@@CA?AW4parameter_type@12@H@Z 10026908 f i libucrt:output.obj
 0001:0002590c       ?get_parameter_type@?$positional_parameter_base@_WV?$stream_output_adapter@_W@__crt_stdio_output@@@__crt_stdio_output@@CA?AW4parameter_type@12@I@Z 1002690c f i libucrt:output.obj
 0001:00025910       ?get_parameter_type@?$positional_parameter_base@_WV?$stream_output_adapter@_W@__crt_stdio_output@@@__crt_stdio_output@@CA?AW4parameter_type@12@U_CRT_DOUBLE@@@Z 10026910 f i libucrt:output.obj
 0001:00025914       ?get_parameter_type@?$positional_parameter_base@_WV?$stream_output_adapter@_W@__crt_stdio_output@@@__crt_stdio_output@@CA?AW4parameter_type@12@_J@Z 10026914 f i libucrt:output.obj
 0001:00025918       ?get_parameter_type@?$positional_parameter_base@_WV?$stream_output_adapter@_W@__crt_stdio_output@@@__crt_stdio_output@@CA?AW4parameter_type@12@_K@Z 10026918 f i libucrt:output.obj
 0001:0002591c       ?get_parameter_type@?$positional_parameter_base@_WV?$stream_output_adapter@_W@__crt_stdio_output@@@__crt_stdio_output@@CA?AW4parameter_type@12@_W@Z 1002691c f i libucrt:output.obj
 0001:00025920       ?get_parameter_type@?$positional_parameter_base@_WV?$string_output_adapter@_W@__crt_stdio_output@@@__crt_stdio_output@@CA?AW4parameter_type@12@F@Z 10026920 f i libucrt:output.obj
 0001:00025924       ?get_parameter_type@?$positional_parameter_base@_WV?$string_output_adapter@_W@__crt_stdio_output@@@__crt_stdio_output@@CA?AW4parameter_type@12@G@Z 10026924 f i libucrt:output.obj
 0001:00025928       ?get_parameter_type@?$positional_parameter_base@_WV?$string_output_adapter@_W@__crt_stdio_output@@@__crt_stdio_output@@CA?AW4parameter_type@12@H@Z 10026928 f i libucrt:output.obj
 0001:0002592c       ?get_parameter_type@?$positional_parameter_base@_WV?$string_output_adapter@_W@__crt_stdio_output@@@__crt_stdio_output@@CA?AW4parameter_type@12@I@Z 1002692c f i libucrt:output.obj
 0001:00025930       ?get_parameter_type@?$positional_parameter_base@_WV?$string_output_adapter@_W@__crt_stdio_output@@@__crt_stdio_output@@CA?AW4parameter_type@12@U_CRT_DOUBLE@@@Z 10026930 f i libucrt:output.obj
 0001:00025934       ?get_parameter_type@?$positional_parameter_base@_WV?$string_output_adapter@_W@__crt_stdio_output@@@__crt_stdio_output@@CA?AW4parameter_type@12@_J@Z 10026934 f i libucrt:output.obj
 0001:00025938       ?get_parameter_type@?$positional_parameter_base@_WV?$string_output_adapter@_W@__crt_stdio_output@@@__crt_stdio_output@@CA?AW4parameter_type@12@_K@Z 10026938 f i libucrt:output.obj
 0001:0002593c       ?get_parameter_type@?$positional_parameter_base@_WV?$string_output_adapter@_W@__crt_stdio_output@@@__crt_stdio_output@@CA?AW4parameter_type@12@_W@Z 1002693c f i libucrt:output.obj
 0001:00025940       ?has_flag@?$output_processor@DV?$stream_output_adapter@D@__crt_stdio_output@@V?$format_validation_base@DV?$stream_output_adapter@D@__crt_stdio_output@@@2@@__crt_stdio_output@@ABE_NI@Z 10026940 f i libucrt:output.obj
 0001:00025956       ?has_flag@?$output_processor@DV?$stream_output_adapter@D@__crt_stdio_output@@V?$positional_parameter_base@DV?$stream_output_adapter@D@__crt_stdio_output@@@2@@__crt_stdio_output@@ABE_NI@Z 10026956 f i libucrt:output.obj
 0001:0002596c       ?has_flag@?$output_processor@DV?$stream_output_adapter@D@__crt_stdio_output@@V?$standard_base@DV?$stream_output_adapter@D@__crt_stdio_output@@@2@@__crt_stdio_output@@ABE_NI@Z 1002696c f i libucrt:output.obj
 0001:00025982       ?has_flag@?$output_processor@DV?$string_output_adapter@D@__crt_stdio_output@@V?$format_validation_base@DV?$string_output_adapter@D@__crt_stdio_output@@@2@@__crt_stdio_output@@ABE_NI@Z 10026982 f i libucrt:output.obj
 0001:00025998       ?has_flag@?$output_processor@DV?$string_output_adapter@D@__crt_stdio_output@@V?$positional_parameter_base@DV?$string_output_adapter@D@__crt_stdio_output@@@2@@__crt_stdio_output@@ABE_NI@Z 10026998 f i libucrt:output.obj
 0001:000259ae       ?has_flag@?$output_processor@DV?$string_output_adapter@D@__crt_stdio_output@@V?$standard_base@DV?$string_output_adapter@D@__crt_stdio_output@@@2@@__crt_stdio_output@@ABE_NI@Z 100269ae f i libucrt:output.obj
 0001:000259c4       ?has_flag@?$output_processor@_WV?$stream_output_adapter@_W@__crt_stdio_output@@V?$format_validation_base@_WV?$stream_output_adapter@_W@__crt_stdio_output@@@2@@__crt_stdio_output@@ABE_NI@Z 100269c4 f i libucrt:output.obj
 0001:000259da       ?has_flag@?$output_processor@_WV?$stream_output_adapter@_W@__crt_stdio_output@@V?$positional_parameter_base@_WV?$stream_output_adapter@_W@__crt_stdio_output@@@2@@__crt_stdio_output@@ABE_NI@Z 100269da f i libucrt:output.obj
 0001:000259f0       ?has_flag@?$output_processor@_WV?$stream_output_adapter@_W@__crt_stdio_output@@V?$standard_base@_WV?$stream_output_adapter@_W@__crt_stdio_output@@@2@@__crt_stdio_output@@ABE_NI@Z 100269f0 f i libucrt:output.obj
 0001:00025a06       ?has_flag@?$output_processor@_WV?$string_output_adapter@_W@__crt_stdio_output@@V?$format_validation_base@_WV?$string_output_adapter@_W@__crt_stdio_output@@@2@@__crt_stdio_output@@ABE_NI@Z 10026a06 f i libucrt:output.obj
 0001:00025a1c       ?has_flag@?$output_processor@_WV?$string_output_adapter@_W@__crt_stdio_output@@V?$positional_parameter_base@_WV?$string_output_adapter@_W@__crt_stdio_output@@@2@@__crt_stdio_output@@ABE_NI@Z 10026a1c f i libucrt:output.obj
 0001:00025a32       ?has_flag@?$output_processor@_WV?$string_output_adapter@_W@__crt_stdio_output@@V?$standard_base@_WV?$string_output_adapter@_W@__crt_stdio_output@@@2@@__crt_stdio_output@@ABE_NI@Z 10026a32 f i libucrt:output.obj
 0001:00025a48       ?is_positional_parameter_reappearance_consistent@?$positional_parameter_base@DV?$stream_output_adapter@D@__crt_stdio_output@@@__crt_stdio_output@@AAE_NABUparameter_data@12@W4parameter_type@12@DW4length_modifier@2@@Z 10026a48 f i libucrt:output.obj
 0001:00025ba8       ?is_positional_parameter_reappearance_consistent@?$positional_parameter_base@DV?$string_output_adapter@D@__crt_stdio_output@@@__crt_stdio_output@@AAE_NABUparameter_data@12@W4parameter_type@12@DW4length_modifier@2@@Z 10026ba8 f i libucrt:output.obj
 0001:00025d08       ?is_positional_parameter_reappearance_consistent@?$positional_parameter_base@_WV?$stream_output_adapter@_W@__crt_stdio_output@@@__crt_stdio_output@@AAE_NABUparameter_data@12@W4parameter_type@12@_WW4length_modifier@2@@Z 10026d08 f i libucrt:output.obj
 0001:00025e67       ?is_positional_parameter_reappearance_consistent@?$positional_parameter_base@_WV?$string_output_adapter@_W@__crt_stdio_output@@@__crt_stdio_output@@AAE_NABUparameter_data@12@W4parameter_type@12@_WW4length_modifier@2@@Z 10026e67 f i libucrt:output.obj
 0001:00025fc6       ?is_string_backed@__crt_stdio_stream@@QBE_NXZ 10026fc6 f i libucrt:output.obj
 0001:00025fd3       ?narrow_null_string@?$output_processor@DV?$stream_output_adapter@D@__crt_stdio_output@@V?$format_validation_base@DV?$stream_output_adapter@D@__crt_stdio_output@@@2@@__crt_stdio_output@@CAPADXZ 10026fd3 f i libucrt:output.obj
 0001:00025fd9       ?narrow_null_string@?$output_processor@DV?$stream_output_adapter@D@__crt_stdio_output@@V?$positional_parameter_base@DV?$stream_output_adapter@D@__crt_stdio_output@@@2@@__crt_stdio_output@@CAPADXZ 10026fd9 f i libucrt:output.obj
 0001:00025fdf       ?narrow_null_string@?$output_processor@DV?$stream_output_adapter@D@__crt_stdio_output@@V?$standard_base@DV?$stream_output_adapter@D@__crt_stdio_output@@@2@@__crt_stdio_output@@CAPADXZ 10026fdf f i libucrt:output.obj
 0001:00025fe5       ?narrow_null_string@?$output_processor@DV?$string_output_adapter@D@__crt_stdio_output@@V?$format_validation_base@DV?$string_output_adapter@D@__crt_stdio_output@@@2@@__crt_stdio_output@@CAPADXZ 10026fe5 f i libucrt:output.obj
 0001:00025feb       ?narrow_null_string@?$output_processor@DV?$string_output_adapter@D@__crt_stdio_output@@V?$positional_parameter_base@DV?$string_output_adapter@D@__crt_stdio_output@@@2@@__crt_stdio_output@@CAPADXZ 10026feb f i libucrt:output.obj
 0001:00025ff1       ?narrow_null_string@?$output_processor@DV?$string_output_adapter@D@__crt_stdio_output@@V?$standard_base@DV?$string_output_adapter@D@__crt_stdio_output@@@2@@__crt_stdio_output@@CAPADXZ 10026ff1 f i libucrt:output.obj
 0001:00025ff7       ?narrow_null_string@?$output_processor@_WV?$stream_output_adapter@_W@__crt_stdio_output@@V?$format_validation_base@_WV?$stream_output_adapter@_W@__crt_stdio_output@@@2@@__crt_stdio_output@@CAPADXZ 10026ff7 f i libucrt:output.obj
 0001:00025ffd       ?narrow_null_string@?$output_processor@_WV?$stream_output_adapter@_W@__crt_stdio_output@@V?$positional_parameter_base@_WV?$stream_output_adapter@_W@__crt_stdio_output@@@2@@__crt_stdio_output@@CAPADXZ 10026ffd f i libucrt:output.obj
 0001:00026003       ?narrow_null_string@?$output_processor@_WV?$stream_output_adapter@_W@__crt_stdio_output@@V?$standard_base@_WV?$stream_output_adapter@_W@__crt_stdio_output@@@2@@__crt_stdio_output@@CAPADXZ 10027003 f i libucrt:output.obj
 0001:00026009       ?narrow_null_string@?$output_processor@_WV?$string_output_adapter@_W@__crt_stdio_output@@V?$format_validation_base@_WV?$string_output_adapter@_W@__crt_stdio_output@@@2@@__crt_stdio_output@@CAPADXZ 10027009 f i libucrt:output.obj
 0001:0002600f       ?narrow_null_string@?$output_processor@_WV?$string_output_adapter@_W@__crt_stdio_output@@V?$positional_parameter_base@_WV?$string_output_adapter@_W@__crt_stdio_output@@@2@@__crt_stdio_output@@CAPADXZ 1002700f f i libucrt:output.obj
 0001:00026015       ?narrow_null_string@?$output_processor@_WV?$string_output_adapter@_W@__crt_stdio_output@@V?$standard_base@_WV?$string_output_adapter@_W@__crt_stdio_output@@@2@@__crt_stdio_output@@CAPADXZ 10027015 f i libucrt:output.obj
 0001:0002601b       ?parse_int_from_format_string@?$output_processor@DV?$stream_output_adapter@D@__crt_stdio_output@@V?$format_validation_base@DV?$stream_output_adapter@D@__crt_stdio_output@@@2@@__crt_stdio_output@@AAE_NQAH@Z 1002701b f i libucrt:output.obj
 0001:000260ae       ?parse_int_from_format_string@?$output_processor@DV?$stream_output_adapter@D@__crt_stdio_output@@V?$positional_parameter_base@DV?$stream_output_adapter@D@__crt_stdio_output@@@2@@__crt_stdio_output@@AAE_NQAH@Z 100270ae f i libucrt:output.obj
 0001:00026141       ?parse_int_from_format_string@?$output_processor@DV?$stream_output_adapter@D@__crt_stdio_output@@V?$standard_base@DV?$stream_output_adapter@D@__crt_stdio_output@@@2@@__crt_stdio_output@@AAE_NQAH@Z 10027141 f i libucrt:output.obj
 0001:000261d4       ?parse_int_from_format_string@?$output_processor@DV?$string_output_adapter@D@__crt_stdio_output@@V?$format_validation_base@DV?$string_output_adapter@D@__crt_stdio_output@@@2@@__crt_stdio_output@@AAE_NQAH@Z 100271d4 f i libucrt:output.obj
 0001:00026267       ?parse_int_from_format_string@?$output_processor@DV?$string_output_adapter@D@__crt_stdio_output@@V?$positional_parameter_base@DV?$string_output_adapter@D@__crt_stdio_output@@@2@@__crt_stdio_output@@AAE_NQAH@Z 10027267 f i libucrt:output.obj
 0001:000262fa       ?parse_int_from_format_string@?$output_processor@DV?$string_output_adapter@D@__crt_stdio_output@@V?$standard_base@DV?$string_output_adapter@D@__crt_stdio_output@@@2@@__crt_stdio_output@@AAE_NQAH@Z 100272fa f i libucrt:output.obj
 0001:0002638d       ?parse_int_from_format_string@?$output_processor@_WV?$stream_output_adapter@_W@__crt_stdio_output@@V?$format_validation_base@_WV?$stream_output_adapter@_W@__crt_stdio_output@@@2@@__crt_stdio_output@@AAE_NQAH@Z 1002738d f i libucrt:output.obj
 0001:00026423       ?parse_int_from_format_string@?$output_processor@_WV?$stream_output_adapter@_W@__crt_stdio_output@@V?$positional_parameter_base@_WV?$stream_output_adapter@_W@__crt_stdio_output@@@2@@__crt_stdio_output@@AAE_NQAH@Z 10027423 f i libucrt:output.obj
 0001:000264b9       ?parse_int_from_format_string@?$output_processor@_WV?$stream_output_adapter@_W@__crt_stdio_output@@V?$standard_base@_WV?$stream_output_adapter@_W@__crt_stdio_output@@@2@@__crt_stdio_output@@AAE_NQAH@Z 100274b9 f i libucrt:output.obj
 0001:0002654f       ?parse_int_from_format_string@?$output_processor@_WV?$string_output_adapter@_W@__crt_stdio_output@@V?$format_validation_base@_WV?$string_output_adapter@_W@__crt_stdio_output@@@2@@__crt_stdio_output@@AAE_NQAH@Z 1002754f f i libucrt:output.obj
 0001:000265e5       ?parse_int_from_format_string@?$output_processor@_WV?$string_output_adapter@_W@__crt_stdio_output@@V?$positional_parameter_base@_WV?$string_output_adapter@_W@__crt_stdio_output@@@2@@__crt_stdio_output@@AAE_NQAH@Z 100275e5 f i libucrt:output.obj
 0001:0002667b       ?parse_int_from_format_string@?$output_processor@_WV?$string_output_adapter@_W@__crt_stdio_output@@V?$standard_base@_WV?$string_output_adapter@_W@__crt_stdio_output@@@2@@__crt_stdio_output@@AAE_NQAH@Z 1002767b f i libucrt:output.obj
 0001:00026711       ?process@?$output_processor@DV?$stream_output_adapter@D@__crt_stdio_output@@V?$format_validation_base@DV?$stream_output_adapter@D@__crt_stdio_output@@@2@@__crt_stdio_output@@QAEHXZ 10027711 f i libucrt:output.obj
 0001:00026883       ?process@?$output_processor@DV?$stream_output_adapter@D@__crt_stdio_output@@V?$positional_parameter_base@DV?$stream_output_adapter@D@__crt_stdio_output@@@2@@__crt_stdio_output@@QAEHXZ 10027883 f i libucrt:output.obj
 0001:00026a36       ?process@?$output_processor@DV?$stream_output_adapter@D@__crt_stdio_output@@V?$standard_base@DV?$stream_output_adapter@D@__crt_stdio_output@@@2@@__crt_stdio_output@@QAEHXZ 10027a36 f i libucrt:output.obj
 0001:00026b99       ?process@?$output_processor@DV?$string_output_adapter@D@__crt_stdio_output@@V?$format_validation_base@DV?$string_output_adapter@D@__crt_stdio_output@@@2@@__crt_stdio_output@@QAEHXZ 10027b99 f i libucrt:output.obj
 0001:00026d0b       ?process@?$output_processor@DV?$string_output_adapter@D@__crt_stdio_output@@V?$positional_parameter_base@DV?$string_output_adapter@D@__crt_stdio_output@@@2@@__crt_stdio_output@@QAEHXZ 10027d0b f i libucrt:output.obj
 0001:00026ebe       ?process@?$output_processor@DV?$string_output_adapter@D@__crt_stdio_output@@V?$standard_base@DV?$string_output_adapter@D@__crt_stdio_output@@@2@@__crt_stdio_output@@QAEHXZ 10027ebe f i libucrt:output.obj
 0001:00027021       ?process@?$output_processor@_WV?$stream_output_adapter@_W@__crt_stdio_output@@V?$format_validation_base@_WV?$stream_output_adapter@_W@__crt_stdio_output@@@2@@__crt_stdio_output@@QAEHXZ 10028021 f i libucrt:output.obj
 0001:0002719d       ?process@?$output_processor@_WV?$stream_output_adapter@_W@__crt_stdio_output@@V?$positional_parameter_base@_WV?$stream_output_adapter@_W@__crt_stdio_output@@@2@@__crt_stdio_output@@QAEHXZ 1002819d f i libucrt:output.obj
 0001:00027355       ?process@?$output_processor@_WV?$stream_output_adapter@_W@__crt_stdio_output@@V?$standard_base@_WV?$stream_output_adapter@_W@__crt_stdio_output@@@2@@__crt_stdio_output@@QAEHXZ 10028355 f i libucrt:output.obj
 0001:000274bd       ?process@?$output_processor@_WV?$string_output_adapter@_W@__crt_stdio_output@@V?$format_validation_base@_WV?$string_output_adapter@_W@__crt_stdio_output@@@2@@__crt_stdio_output@@QAEHXZ 100284bd f i libucrt:output.obj
 0001:00027639       ?process@?$output_processor@_WV?$string_output_adapter@_W@__crt_stdio_output@@V?$positional_parameter_base@_WV?$string_output_adapter@_W@__crt_stdio_output@@@2@@__crt_stdio_output@@QAEHXZ 10028639 f i libucrt:output.obj
 0001:000277f1       ?process@?$output_processor@_WV?$string_output_adapter@_W@__crt_stdio_output@@V?$standard_base@_WV?$string_output_adapter@_W@__crt_stdio_output@@@2@@__crt_stdio_output@@QAEHXZ 100287f1 f i libucrt:output.obj
 0001:00027959       ?public_stream@__crt_stdio_stream@@QBEPAU_iobuf@@XZ 10028959 f i libucrt:output.obj
 0001:0002795c       ?set_flag@?$output_processor@DV?$stream_output_adapter@D@__crt_stdio_output@@V?$format_validation_base@DV?$stream_output_adapter@D@__crt_stdio_output@@@2@@__crt_stdio_output@@AAEXI@Z 1002895c f i libucrt:output.obj
 0001:0002796e       ?set_flag@?$output_processor@DV?$stream_output_adapter@D@__crt_stdio_output@@V?$positional_parameter_base@DV?$stream_output_adapter@D@__crt_stdio_output@@@2@@__crt_stdio_output@@AAEXI@Z 1002896e f i libucrt:output.obj
 0001:00027980       ?set_flag@?$output_processor@DV?$stream_output_adapter@D@__crt_stdio_output@@V?$standard_base@DV?$stream_output_adapter@D@__crt_stdio_output@@@2@@__crt_stdio_output@@AAEXI@Z 10028980 f i libucrt:output.obj
 0001:00027992       ?set_flag@?$output_processor@DV?$string_output_adapter@D@__crt_stdio_output@@V?$format_validation_base@DV?$string_output_adapter@D@__crt_stdio_output@@@2@@__crt_stdio_output@@AAEXI@Z 10028992 f i libucrt:output.obj
 0001:000279a4       ?set_flag@?$output_processor@DV?$string_output_adapter@D@__crt_stdio_output@@V?$positional_parameter_base@DV?$string_output_adapter@D@__crt_stdio_output@@@2@@__crt_stdio_output@@AAEXI@Z 100289a4 f i libucrt:output.obj
 0001:000279b6       ?set_flag@?$output_processor@DV?$string_output_adapter@D@__crt_stdio_output@@V?$standard_base@DV?$string_output_adapter@D@__crt_stdio_output@@@2@@__crt_stdio_output@@AAEXI@Z 100289b6 f i libucrt:output.obj
 0001:000279c8       ?set_flag@?$output_processor@_WV?$stream_output_adapter@_W@__crt_stdio_output@@V?$format_validation_base@_WV?$stream_output_adapter@_W@__crt_stdio_output@@@2@@__crt_stdio_output@@AAEXI@Z 100289c8 f i libucrt:output.obj
 0001:000279da       ?set_flag@?$output_processor@_WV?$stream_output_adapter@_W@__crt_stdio_output@@V?$positional_parameter_base@_WV?$stream_output_adapter@_W@__crt_stdio_output@@@2@@__crt_stdio_output@@AAEXI@Z 100289da f i libucrt:output.obj
 0001:000279ec       ?set_flag@?$output_processor@_WV?$stream_output_adapter@_W@__crt_stdio_output@@V?$standard_base@_WV?$stream_output_adapter@_W@__crt_stdio_output@@@2@@__crt_stdio_output@@AAEXI@Z 100289ec f i libucrt:output.obj
 0001:000279fe       ?set_flag@?$output_processor@_WV?$string_output_adapter@_W@__crt_stdio_output@@V?$format_validation_base@_WV?$string_output_adapter@_W@__crt_stdio_output@@@2@@__crt_stdio_output@@AAEXI@Z 100289fe f i libucrt:output.obj
 0001:00027a10       ?set_flag@?$output_processor@_WV?$string_output_adapter@_W@__crt_stdio_output@@V?$positional_parameter_base@_WV?$string_output_adapter@_W@__crt_stdio_output@@@2@@__crt_stdio_output@@AAEXI@Z 10028a10 f i libucrt:output.obj
 0001:00027a22       ?set_flag@?$output_processor@_WV?$string_output_adapter@_W@__crt_stdio_output@@V?$standard_base@_WV?$string_output_adapter@_W@__crt_stdio_output@@@2@@__crt_stdio_output@@AAEXI@Z 10028a22 f i libucrt:output.obj
 0001:00027a34       ?should_format@?$positional_parameter_base@DV?$stream_output_adapter@D@__crt_stdio_output@@@__crt_stdio_output@@IAE_NXZ 10028a34 f i libucrt:output.obj
 0001:00027a4f       ?should_format@?$positional_parameter_base@DV?$string_output_adapter@D@__crt_stdio_output@@@__crt_stdio_output@@IAE_NXZ 10028a4f f i libucrt:output.obj
 0001:00027a6a       ?should_format@?$positional_parameter_base@_WV?$stream_output_adapter@_W@__crt_stdio_output@@@__crt_stdio_output@@IAE_NXZ 10028a6a f i libucrt:output.obj
 0001:00027a85       ?should_format@?$positional_parameter_base@_WV?$string_output_adapter@_W@__crt_stdio_output@@@__crt_stdio_output@@IAE_NXZ 10028a85 f i libucrt:output.obj
 0001:00027aa0       ?should_format@?$standard_base@DV?$stream_output_adapter@D@__crt_stdio_output@@@__crt_stdio_output@@IAE_NXZ 10028aa0 f i libucrt:output.obj
 0001:00027aa3       ?should_format@?$standard_base@DV?$string_output_adapter@D@__crt_stdio_output@@@__crt_stdio_output@@IAE_NXZ 10028aa3 f i libucrt:output.obj
 0001:00027aa6       ?should_format@?$standard_base@_WV?$stream_output_adapter@_W@__crt_stdio_output@@@__crt_stdio_output@@IAE_NXZ 10028aa6 f i libucrt:output.obj
 0001:00027aa9       ?should_format@?$standard_base@_WV?$string_output_adapter@_W@__crt_stdio_output@@@__crt_stdio_output@@IAE_NXZ 10028aa9 f i libucrt:output.obj
 0001:00027aac       ?should_skip_normal_state_processing@?$positional_parameter_base@DV?$stream_output_adapter@D@__crt_stdio_output@@@__crt_stdio_output@@IAE_NXZ 10028aac f i libucrt:output.obj
 0001:00027ade       ?should_skip_normal_state_processing@?$positional_parameter_base@DV?$string_output_adapter@D@__crt_stdio_output@@@__crt_stdio_output@@IAE_NXZ 10028ade f i libucrt:output.obj
 0001:00027b10       ?should_skip_normal_state_processing@?$positional_parameter_base@_WV?$stream_output_adapter@_W@__crt_stdio_output@@@__crt_stdio_output@@IAE_NXZ 10028b10 f i libucrt:output.obj
 0001:00027b42       ?should_skip_normal_state_processing@?$positional_parameter_base@_WV?$string_output_adapter@_W@__crt_stdio_output@@@__crt_stdio_output@@IAE_NXZ 10028b42 f i libucrt:output.obj
 0001:00027b74       ?should_skip_normal_state_processing@?$standard_base@DV?$stream_output_adapter@D@__crt_stdio_output@@@__crt_stdio_output@@IAE_NXZ 10028b74 f i libucrt:output.obj
 0001:00027b77       ?should_skip_normal_state_processing@?$standard_base@DV?$string_output_adapter@D@__crt_stdio_output@@@__crt_stdio_output@@IAE_NXZ 10028b77 f i libucrt:output.obj
 0001:00027b7a       ?should_skip_normal_state_processing@?$standard_base@_WV?$stream_output_adapter@_W@__crt_stdio_output@@@__crt_stdio_output@@IAE_NXZ 10028b7a f i libucrt:output.obj
 0001:00027b7d       ?should_skip_normal_state_processing@?$standard_base@_WV?$string_output_adapter@_W@__crt_stdio_output@@@__crt_stdio_output@@IAE_NXZ 10028b7d f i libucrt:output.obj
 0001:00027b80       ?should_skip_type_state_output@?$positional_parameter_base@DV?$stream_output_adapter@D@__crt_stdio_output@@@__crt_stdio_output@@IBE_NXZ 10028b80 f i libucrt:output.obj
 0001:00027b9c       ?should_skip_type_state_output@?$positional_parameter_base@DV?$string_output_adapter@D@__crt_stdio_output@@@__crt_stdio_output@@IBE_NXZ 10028b9c f i libucrt:output.obj
 0001:00027bb8       ?should_skip_type_state_output@?$positional_parameter_base@_WV?$stream_output_adapter@_W@__crt_stdio_output@@@__crt_stdio_output@@IBE_NXZ 10028bb8 f i libucrt:output.obj
 0001:00027bd4       ?should_skip_type_state_output@?$positional_parameter_base@_WV?$string_output_adapter@_W@__crt_stdio_output@@@__crt_stdio_output@@IBE_NXZ 10028bd4 f i libucrt:output.obj
 0001:00027bf0       ?should_skip_type_state_output@?$standard_base@DV?$stream_output_adapter@D@__crt_stdio_output@@@__crt_stdio_output@@IBE_NXZ 10028bf0 f i libucrt:output.obj
 0001:00027bf3       ?should_skip_type_state_output@?$standard_base@DV?$string_output_adapter@D@__crt_stdio_output@@@__crt_stdio_output@@IBE_NXZ 10028bf3 f i libucrt:output.obj
 0001:00027bf6       ?should_skip_type_state_output@?$standard_base@_WV?$stream_output_adapter@_W@__crt_stdio_output@@@__crt_stdio_output@@IBE_NXZ 10028bf6 f i libucrt:output.obj
 0001:00027bf9       ?should_skip_type_state_output@?$standard_base@_WV?$string_output_adapter@_W@__crt_stdio_output@@@__crt_stdio_output@@IBE_NXZ 10028bf9 f i libucrt:output.obj
 0001:00027bfc       ?state_case_dot@?$output_processor@DV?$stream_output_adapter@D@__crt_stdio_output@@V?$format_validation_base@DV?$stream_output_adapter@D@__crt_stdio_output@@@2@@__crt_stdio_output@@AAE_NXZ 10028bfc f i libucrt:output.obj
 0001:00027c03       ?state_case_dot@?$output_processor@DV?$stream_output_adapter@D@__crt_stdio_output@@V?$positional_parameter_base@DV?$stream_output_adapter@D@__crt_stdio_output@@@2@@__crt_stdio_output@@AAE_NXZ 10028c03 f i libucrt:output.obj
 0001:00027c0a       ?state_case_dot@?$output_processor@DV?$stream_output_adapter@D@__crt_stdio_output@@V?$standard_base@DV?$stream_output_adapter@D@__crt_stdio_output@@@2@@__crt_stdio_output@@AAE_NXZ 10028c0a f i libucrt:output.obj
 0001:00027c11       ?state_case_dot@?$output_processor@DV?$string_output_adapter@D@__crt_stdio_output@@V?$format_validation_base@DV?$string_output_adapter@D@__crt_stdio_output@@@2@@__crt_stdio_output@@AAE_NXZ 10028c11 f i libucrt:output.obj
 0001:00027c18       ?state_case_dot@?$output_processor@DV?$string_output_adapter@D@__crt_stdio_output@@V?$positional_parameter_base@DV?$string_output_adapter@D@__crt_stdio_output@@@2@@__crt_stdio_output@@AAE_NXZ 10028c18 f i libucrt:output.obj
 0001:00027c1f       ?state_case_dot@?$output_processor@DV?$string_output_adapter@D@__crt_stdio_output@@V?$standard_base@DV?$string_output_adapter@D@__crt_stdio_output@@@2@@__crt_stdio_output@@AAE_NXZ 10028c1f f i libucrt:output.obj
 0001:00027c26       ?state_case_dot@?$output_processor@_WV?$stream_output_adapter@_W@__crt_stdio_output@@V?$format_validation_base@_WV?$stream_output_adapter@_W@__crt_stdio_output@@@2@@__crt_stdio_output@@AAE_NXZ 10028c26 f i libucrt:output.obj
 0001:00027c2d       ?state_case_dot@?$output_processor@_WV?$stream_output_adapter@_W@__crt_stdio_output@@V?$positional_parameter_base@_WV?$stream_output_adapter@_W@__crt_stdio_output@@@2@@__crt_stdio_output@@AAE_NXZ 10028c2d f i libucrt:output.obj
 0001:00027c34       ?state_case_dot@?$output_processor@_WV?$stream_output_adapter@_W@__crt_stdio_output@@V?$standard_base@_WV?$stream_output_adapter@_W@__crt_stdio_output@@@2@@__crt_stdio_output@@AAE_NXZ 10028c34 f i libucrt:output.obj
 0001:00027c3b       ?state_case_dot@?$output_processor@_WV?$string_output_adapter@_W@__crt_stdio_output@@V?$format_validation_base@_WV?$string_output_adapter@_W@__crt_stdio_output@@@2@@__crt_stdio_output@@AAE_NXZ 10028c3b f i libucrt:output.obj
 0001:00027c42       ?state_case_dot@?$output_processor@_WV?$string_output_adapter@_W@__crt_stdio_output@@V?$positional_parameter_base@_WV?$string_output_adapter@_W@__crt_stdio_output@@@2@@__crt_stdio_output@@AAE_NXZ 10028c42 f i libucrt:output.obj
 0001:00027c49       ?state_case_dot@?$output_processor@_WV?$string_output_adapter@_W@__crt_stdio_output@@V?$standard_base@_WV?$string_output_adapter@_W@__crt_stdio_output@@@2@@__crt_stdio_output@@AAE_NXZ 10028c49 f i libucrt:output.obj
 0001:00027c50       ?state_case_flag@?$output_processor@DV?$stream_output_adapter@D@__crt_stdio_output@@V?$format_validation_base@DV?$stream_output_adapter@D@__crt_stdio_output@@@2@@__crt_stdio_output@@AAE_NXZ 10028c50 f i libucrt:output.obj
 0001:00027c9c       ?state_case_flag@?$output_processor@DV?$stream_output_adapter@D@__crt_stdio_output@@V?$positional_parameter_base@DV?$stream_output_adapter@D@__crt_stdio_output@@@2@@__crt_stdio_output@@AAE_NXZ 10028c9c f i libucrt:output.obj
 0001:00027ce8       ?state_case_flag@?$output_processor@DV?$stream_output_adapter@D@__crt_stdio_output@@V?$standard_base@DV?$stream_output_adapter@D@__crt_stdio_output@@@2@@__crt_stdio_output@@AAE_NXZ 10028ce8 f i libucrt:output.obj
 0001:00027d34       ?state_case_flag@?$output_processor@DV?$string_output_adapter@D@__crt_stdio_output@@V?$format_validation_base@DV?$string_output_adapter@D@__crt_stdio_output@@@2@@__crt_stdio_output@@AAE_NXZ 10028d34 f i libucrt:output.obj
 0001:00027d80       ?state_case_flag@?$output_processor@DV?$string_output_adapter@D@__crt_stdio_output@@V?$positional_parameter_base@DV?$string_output_adapter@D@__crt_stdio_output@@@2@@__crt_stdio_output@@AAE_NXZ 10028d80 f i libucrt:output.obj
 0001:00027dcc       ?state_case_flag@?$output_processor@DV?$string_output_adapter@D@__crt_stdio_output@@V?$standard_base@DV?$string_output_adapter@D@__crt_stdio_output@@@2@@__crt_stdio_output@@AAE_NXZ 10028dcc f i libucrt:output.obj
 0001:00027e18       ?state_case_flag@?$output_processor@_WV?$stream_output_adapter@_W@__crt_stdio_output@@V?$format_validation_base@_WV?$stream_output_adapter@_W@__crt_stdio_output@@@2@@__crt_stdio_output@@AAE_NXZ 10028e18 f i libucrt:output.obj
 0001:00027e64       ?state_case_flag@?$output_processor@_WV?$stream_output_adapter@_W@__crt_stdio_output@@V?$positional_parameter_base@_WV?$stream_output_adapter@_W@__crt_stdio_output@@@2@@__crt_stdio_output@@AAE_NXZ 10028e64 f i libucrt:output.obj
 0001:00027eb0       ?state_case_flag@?$output_processor@_WV?$stream_output_adapter@_W@__crt_stdio_output@@V?$standard_base@_WV?$stream_output_adapter@_W@__crt_stdio_output@@@2@@__crt_stdio_output@@AAE_NXZ 10028eb0 f i libucrt:output.obj
 0001:00027efc       ?state_case_flag@?$output_processor@_WV?$string_output_adapter@_W@__crt_stdio_output@@V?$format_validation_base@_WV?$string_output_adapter@_W@__crt_stdio_output@@@2@@__crt_stdio_output@@AAE_NXZ 10028efc f i libucrt:output.obj
 0001:00027f48       ?state_case_flag@?$output_processor@_WV?$string_output_adapter@_W@__crt_stdio_output@@V?$positional_parameter_base@_WV?$string_output_adapter@_W@__crt_stdio_output@@@2@@__crt_stdio_output@@AAE_NXZ 10028f48 f i libucrt:output.obj
 0001:00027f94       ?state_case_flag@?$output_processor@_WV?$string_output_adapter@_W@__crt_stdio_output@@V?$standard_base@_WV?$string_output_adapter@_W@__crt_stdio_output@@@2@@__crt_stdio_output@@AAE_NXZ 10028f94 f i libucrt:output.obj
 0001:00027fe0       ?state_case_normal@?$output_processor@DV?$stream_output_adapter@D@__crt_stdio_output@@V?$format_validation_base@DV?$stream_output_adapter@D@__crt_stdio_output@@@2@@__crt_stdio_output@@AAE_NXZ 10028fe0 f i libucrt:output.obj
 0001:00028006       ?state_case_normal@?$output_processor@DV?$stream_output_adapter@D@__crt_stdio_output@@V?$positional_parameter_base@DV?$stream_output_adapter@D@__crt_stdio_output@@@2@@__crt_stdio_output@@AAE_NXZ 10029006 f i libucrt:output.obj
 0001:00028043       ?state_case_normal@?$output_processor@DV?$stream_output_adapter@D@__crt_stdio_output@@V?$standard_base@DV?$stream_output_adapter@D@__crt_stdio_output@@@2@@__crt_stdio_output@@AAE_NXZ 10029043 f i libucrt:output.obj
 0001:00028069       ?state_case_normal@?$output_processor@DV?$string_output_adapter@D@__crt_stdio_output@@V?$format_validation_base@DV?$string_output_adapter@D@__crt_stdio_output@@@2@@__crt_stdio_output@@AAE_NXZ 10029069 f i libucrt:output.obj
 0001:0002808f       ?state_case_normal@?$output_processor@DV?$string_output_adapter@D@__crt_stdio_output@@V?$positional_parameter_base@DV?$string_output_adapter@D@__crt_stdio_output@@@2@@__crt_stdio_output@@AAE_NXZ 1002908f f i libucrt:output.obj
 0001:000280cc       ?state_case_normal@?$output_processor@DV?$string_output_adapter@D@__crt_stdio_output@@V?$standard_base@DV?$string_output_adapter@D@__crt_stdio_output@@@2@@__crt_stdio_output@@AAE_NXZ 100290cc f i libucrt:output.obj
 0001:000280f2       ?state_case_normal@?$output_processor@_WV?$stream_output_adapter@_W@__crt_stdio_output@@V?$format_validation_base@_WV?$stream_output_adapter@_W@__crt_stdio_output@@@2@@__crt_stdio_output@@AAE_NXZ 100290f2 f i libucrt:output.obj
 0001:00028118       ?state_case_normal@?$output_processor@_WV?$stream_output_adapter@_W@__crt_stdio_output@@V?$positional_parameter_base@_WV?$stream_output_adapter@_W@__crt_stdio_output@@@2@@__crt_stdio_output@@AAE_NXZ 10029118 f i libucrt:output.obj
 0001:00028155       ?state_case_normal@?$output_processor@_WV?$stream_output_adapter@_W@__crt_stdio_output@@V?$standard_base@_WV?$stream_output_adapter@_W@__crt_stdio_output@@@2@@__crt_stdio_output@@AAE_NXZ 10029155 f i libucrt:output.obj
 0001:0002817b       ?state_case_normal@?$output_processor@_WV?$string_output_adapter@_W@__crt_stdio_output@@V?$format_validation_base@_WV?$string_output_adapter@_W@__crt_stdio_output@@@2@@__crt_stdio_output@@AAE_NXZ 1002917b f i libucrt:output.obj
 0001:000281a1       ?state_case_normal@?$output_processor@_WV?$string_output_adapter@_W@__crt_stdio_output@@V?$positional_parameter_base@_WV?$string_output_adapter@_W@__crt_stdio_output@@@2@@__crt_stdio_output@@AAE_NXZ 100291a1 f i libucrt:output.obj
 0001:000281de       ?state_case_normal@?$output_processor@_WV?$string_output_adapter@_W@__crt_stdio_output@@V?$standard_base@_WV?$string_output_adapter@_W@__crt_stdio_output@@@2@@__crt_stdio_output@@AAE_NXZ 100291de f i libucrt:output.obj
 0001:00028204       ?state_case_normal_common@?$output_processor@DV?$stream_output_adapter@D@__crt_stdio_output@@V?$format_validation_base@DV?$stream_output_adapter@D@__crt_stdio_output@@@2@@__crt_stdio_output@@AAE_NXZ 10029204 f i libucrt:output.obj
 0001:0002824f       ?state_case_normal_common@?$output_processor@DV?$stream_output_adapter@D@__crt_stdio_output@@V?$positional_parameter_base@DV?$stream_output_adapter@D@__crt_stdio_output@@@2@@__crt_stdio_output@@AAE_NXZ 1002924f f i libucrt:output.obj
 0001:0002829a       ?state_case_normal_common@?$output_processor@DV?$stream_output_adapter@D@__crt_stdio_output@@V?$standard_base@DV?$stream_output_adapter@D@__crt_stdio_output@@@2@@__crt_stdio_output@@AAE_NXZ 1002929a f i libucrt:output.obj
 0001:000282e5       ?state_case_normal_common@?$output_processor@DV?$string_output_adapter@D@__crt_stdio_output@@V?$format_validation_base@DV?$string_output_adapter@D@__crt_stdio_output@@@2@@__crt_stdio_output@@AAE_NXZ 100292e5 f i libucrt:output.obj
 0001:00028319       ?state_case_normal_common@?$output_processor@DV?$string_output_adapter@D@__crt_stdio_output@@V?$positional_parameter_base@DV?$string_output_adapter@D@__crt_stdio_output@@@2@@__crt_stdio_output@@AAE_NXZ 10029319 f i libucrt:output.obj
 0001:0002834d       ?state_case_normal_common@?$output_processor@DV?$string_output_adapter@D@__crt_stdio_output@@V?$standard_base@DV?$string_output_adapter@D@__crt_stdio_output@@@2@@__crt_stdio_output@@AAE_NXZ 1002934d f i libucrt:output.obj
 0001:00028381       ?state_case_normal_common@?$output_processor@_WV?$stream_output_adapter@_W@__crt_stdio_output@@V?$format_validation_base@_WV?$stream_output_adapter@_W@__crt_stdio_output@@@2@@__crt_stdio_output@@AAE_NXZ 10029381 f i libucrt:output.obj
 0001:000283b5       ?state_case_normal_common@?$output_processor@_WV?$stream_output_adapter@_W@__crt_stdio_output@@V?$positional_parameter_base@_WV?$stream_output_adapter@_W@__crt_stdio_output@@@2@@__crt_stdio_output@@AAE_NXZ 100293b5 f i libucrt:output.obj
 0001:000283e9       ?state_case_normal_common@?$output_processor@_WV?$stream_output_adapter@_W@__crt_stdio_output@@V?$standard_base@_WV?$stream_output_adapter@_W@__crt_stdio_output@@@2@@__crt_stdio_output@@AAE_NXZ 100293e9 f i libucrt:output.obj
 0001:0002841d       ?state_case_normal_common@?$output_processor@_WV?$string_output_adapter@_W@__crt_stdio_output@@V?$format_validation_base@_WV?$string_output_adapter@_W@__crt_stdio_output@@@2@@__crt_stdio_output@@AAE_NXZ 1002941d f i libucrt:output.obj
 0001:0002843e       ?state_case_normal_common@?$output_processor@_WV?$string_output_adapter@_W@__crt_stdio_output@@V?$positional_parameter_base@_WV?$string_output_adapter@_W@__crt_stdio_output@@@2@@__crt_stdio_output@@AAE_NXZ 1002943e f i libucrt:output.obj
 0001:0002845f       ?state_case_normal_common@?$output_processor@_WV?$string_output_adapter@_W@__crt_stdio_output@@V?$standard_base@_WV?$string_output_adapter@_W@__crt_stdio_output@@@2@@__crt_stdio_output@@AAE_NXZ 1002945f f i libucrt:output.obj
 0001:00028480       ?state_case_normal_tchar@?$output_processor@DV?$stream_output_adapter@D@__crt_stdio_output@@V?$format_validation_base@DV?$stream_output_adapter@D@__crt_stdio_output@@@2@@__crt_stdio_output@@AAE_ND@Z 10029480 f i libucrt:output.obj
 0001:000284fa       ?state_case_normal_tchar@?$output_processor@DV?$stream_output_adapter@D@__crt_stdio_output@@V?$positional_parameter_base@DV?$stream_output_adapter@D@__crt_stdio_output@@@2@@__crt_stdio_output@@AAE_ND@Z 100294fa f i libucrt:output.obj
 0001:00028574       ?state_case_normal_tchar@?$output_processor@DV?$stream_output_adapter@D@__crt_stdio_output@@V?$standard_base@DV?$stream_output_adapter@D@__crt_stdio_output@@@2@@__crt_stdio_output@@AAE_ND@Z 10029574 f i libucrt:output.obj
 0001:000285ee       ?state_case_normal_tchar@?$output_processor@DV?$string_output_adapter@D@__crt_stdio_output@@V?$format_validation_base@DV?$string_output_adapter@D@__crt_stdio_output@@@2@@__crt_stdio_output@@AAE_ND@Z 100295ee f i libucrt:output.obj
 0001:0002865d       ?state_case_normal_tchar@?$output_processor@DV?$string_output_adapter@D@__crt_stdio_output@@V?$positional_parameter_base@DV?$string_output_adapter@D@__crt_stdio_output@@@2@@__crt_stdio_output@@AAE_ND@Z 1002965d f i libucrt:output.obj
 0001:000286cc       ?state_case_normal_tchar@?$output_processor@DV?$string_output_adapter@D@__crt_stdio_output@@V?$standard_base@DV?$string_output_adapter@D@__crt_stdio_output@@@2@@__crt_stdio_output@@AAE_ND@Z 100296cc f i libucrt:output.obj
 0001:0002873b       ?state_case_normal_tchar@?$output_processor@_WV?$stream_output_adapter@_W@__crt_stdio_output@@V?$format_validation_base@_WV?$stream_output_adapter@_W@__crt_stdio_output@@@2@@__crt_stdio_output@@AAE_N_W@Z 1002973b f i libucrt:output.obj
 0001:00028746       ?state_case_normal_tchar@?$output_processor@_WV?$stream_output_adapter@_W@__crt_stdio_output@@V?$positional_parameter_base@_WV?$stream_output_adapter@_W@__crt_stdio_output@@@2@@__crt_stdio_output@@AAE_N_W@Z 10029746 f i libucrt:output.obj
 0001:00028751       ?state_case_normal_tchar@?$output_processor@_WV?$stream_output_adapter@_W@__crt_stdio_output@@V?$standard_base@_WV?$stream_output_adapter@_W@__crt_stdio_output@@@2@@__crt_stdio_output@@AAE_N_W@Z 10029751 f i libucrt:output.obj
 0001:0002875c       ?state_case_normal_tchar@?$output_processor@_WV?$string_output_adapter@_W@__crt_stdio_output@@V?$format_validation_base@_WV?$string_output_adapter@_W@__crt_stdio_output@@@2@@__crt_stdio_output@@AAE_N_W@Z 1002975c f i libucrt:output.obj
 0001:00028767       ?state_case_normal_tchar@?$output_processor@_WV?$string_output_adapter@_W@__crt_stdio_output@@V?$positional_parameter_base@_WV?$string_output_adapter@_W@__crt_stdio_output@@@2@@__crt_stdio_output@@AAE_N_W@Z 10029767 f i libucrt:output.obj
 0001:00028772       ?state_case_normal_tchar@?$output_processor@_WV?$string_output_adapter@_W@__crt_stdio_output@@V?$standard_base@_WV?$string_output_adapter@_W@__crt_stdio_output@@@2@@__crt_stdio_output@@AAE_N_W@Z 10029772 f i libucrt:output.obj
 0001:0002877d       ?state_case_percent@?$output_processor@DV?$stream_output_adapter@D@__crt_stdio_output@@V?$format_validation_base@DV?$stream_output_adapter@D@__crt_stdio_output@@@2@@__crt_stdio_output@@AAE_NXZ 1002977d f i libucrt:output.obj
 0001:0002879b       ?state_case_percent@?$output_processor@DV?$stream_output_adapter@D@__crt_stdio_output@@V?$positional_parameter_base@DV?$stream_output_adapter@D@__crt_stdio_output@@@2@@__crt_stdio_output@@AAE_NXZ 1002979b f i libucrt:output.obj
 0001:000287b9       ?state_case_percent@?$output_processor@DV?$stream_output_adapter@D@__crt_stdio_output@@V?$standard_base@DV?$stream_output_adapter@D@__crt_stdio_output@@@2@@__crt_stdio_output@@AAE_NXZ 100297b9 f i libucrt:output.obj
 0001:000287d7       ?state_case_percent@?$output_processor@DV?$string_output_adapter@D@__crt_stdio_output@@V?$format_validation_base@DV?$string_output_adapter@D@__crt_stdio_output@@@2@@__crt_stdio_output@@AAE_NXZ 100297d7 f i libucrt:output.obj
 0001:000287f5       ?state_case_percent@?$output_processor@DV?$string_output_adapter@D@__crt_stdio_output@@V?$positional_parameter_base@DV?$string_output_adapter@D@__crt_stdio_output@@@2@@__crt_stdio_output@@AAE_NXZ 100297f5 f i libucrt:output.obj
 0001:00028813       ?state_case_percent@?$output_processor@DV?$string_output_adapter@D@__crt_stdio_output@@V?$standard_base@DV?$string_output_adapter@D@__crt_stdio_output@@@2@@__crt_stdio_output@@AAE_NXZ 10029813 f i libucrt:output.obj
 0001:00028831       ?state_case_percent@?$output_processor@_WV?$stream_output_adapter@_W@__crt_stdio_output@@V?$format_validation_base@_WV?$stream_output_adapter@_W@__crt_stdio_output@@@2@@__crt_stdio_output@@AAE_NXZ 10029831 f i libucrt:output.obj
 0001:0002884f       ?state_case_percent@?$output_processor@_WV?$stream_output_adapter@_W@__crt_stdio_output@@V?$positional_parameter_base@_WV?$stream_output_adapter@_W@__crt_stdio_output@@@2@@__crt_stdio_output@@AAE_NXZ 1002984f f i libucrt:output.obj
 0001:0002886d       ?state_case_percent@?$output_processor@_WV?$stream_output_adapter@_W@__crt_stdio_output@@V?$standard_base@_WV?$stream_output_adapter@_W@__crt_stdio_output@@@2@@__crt_stdio_output@@AAE_NXZ 1002986d f i libucrt:output.obj
 0001:0002888b       ?state_case_percent@?$output_processor@_WV?$string_output_adapter@_W@__crt_stdio_output@@V?$format_validation_base@_WV?$string_output_adapter@_W@__crt_stdio_output@@@2@@__crt_stdio_output@@AAE_NXZ 1002988b f i libucrt:output.obj
 0001:000288a9       ?state_case_percent@?$output_processor@_WV?$string_output_adapter@_W@__crt_stdio_output@@V?$positional_parameter_base@_WV?$string_output_adapter@_W@__crt_stdio_output@@@2@@__crt_stdio_output@@AAE_NXZ 100298a9 f i libucrt:output.obj
 0001:000288c7       ?state_case_percent@?$output_processor@_WV?$string_output_adapter@_W@__crt_stdio_output@@V?$standard_base@_WV?$string_output_adapter@_W@__crt_stdio_output@@@2@@__crt_stdio_output@@AAE_NXZ 100298c7 f i libucrt:output.obj
 0001:000288e5       ?state_case_precision@?$output_processor@DV?$stream_output_adapter@D@__crt_stdio_output@@V?$format_validation_base@DV?$stream_output_adapter@D@__crt_stdio_output@@@2@@__crt_stdio_output@@AAE_NXZ 100298e5 f i libucrt:output.obj
 0001:00028914       ?state_case_precision@?$output_processor@DV?$stream_output_adapter@D@__crt_stdio_output@@V?$positional_parameter_base@DV?$stream_output_adapter@D@__crt_stdio_output@@@2@@__crt_stdio_output@@AAE_NXZ 10029914 f i libucrt:output.obj
 0001:0002895c       ?state_case_precision@?$output_processor@DV?$stream_output_adapter@D@__crt_stdio_output@@V?$standard_base@DV?$stream_output_adapter@D@__crt_stdio_output@@@2@@__crt_stdio_output@@AAE_NXZ 1002995c f i libucrt:output.obj
 0001:0002898b       ?state_case_precision@?$output_processor@DV?$string_output_adapter@D@__crt_stdio_output@@V?$format_validation_base@DV?$string_output_adapter@D@__crt_stdio_output@@@2@@__crt_stdio_output@@AAE_NXZ 1002998b f i libucrt:output.obj
 0001:000289ba       ?state_case_precision@?$output_processor@DV?$string_output_adapter@D@__crt_stdio_output@@V?$positional_parameter_base@DV?$string_output_adapter@D@__crt_stdio_output@@@2@@__crt_stdio_output@@AAE_NXZ 100299ba f i libucrt:output.obj
 0001:00028a02       ?state_case_precision@?$output_processor@DV?$string_output_adapter@D@__crt_stdio_output@@V?$standard_base@DV?$string_output_adapter@D@__crt_stdio_output@@@2@@__crt_stdio_output@@AAE_NXZ 10029a02 f i libucrt:output.obj
 0001:00028a31       ?state_case_precision@?$output_processor@_WV?$stream_output_adapter@_W@__crt_stdio_output@@V?$format_validation_base@_WV?$stream_output_adapter@_W@__crt_stdio_output@@@2@@__crt_stdio_output@@AAE_NXZ 10029a31 f i libucrt:output.obj
 0001:00028a61       ?state_case_precision@?$output_processor@_WV?$stream_output_adapter@_W@__crt_stdio_output@@V?$positional_parameter_base@_WV?$stream_output_adapter@_W@__crt_stdio_output@@@2@@__crt_stdio_output@@AAE_NXZ 10029a61 f i libucrt:output.obj
 0001:00028aaa       ?state_case_precision@?$output_processor@_WV?$stream_output_adapter@_W@__crt_stdio_output@@V?$standard_base@_WV?$stream_output_adapter@_W@__crt_stdio_output@@@2@@__crt_stdio_output@@AAE_NXZ 10029aaa f i libucrt:output.obj
 0001:00028ada       ?state_case_precision@?$output_processor@_WV?$string_output_adapter@_W@__crt_stdio_output@@V?$format_validation_base@_WV?$string_output_adapter@_W@__crt_stdio_output@@@2@@__crt_stdio_output@@AAE_NXZ 10029ada f i libucrt:output.obj
 0001:00028b0a       ?state_case_precision@?$output_processor@_WV?$string_output_adapter@_W@__crt_stdio_output@@V?$positional_parameter_base@_WV?$string_output_adapter@_W@__crt_stdio_output@@@2@@__crt_stdio_output@@AAE_NXZ 10029b0a f i libucrt:output.obj
 0001:00028b53       ?state_case_precision@?$output_processor@_WV?$string_output_adapter@_W@__crt_stdio_output@@V?$standard_base@_WV?$string_output_adapter@_W@__crt_stdio_output@@@2@@__crt_stdio_output@@AAE_NXZ 10029b53 f i libucrt:output.obj
 0001:00028b83       ?state_case_size@?$output_processor@DV?$stream_output_adapter@D@__crt_stdio_output@@V?$format_validation_base@DV?$stream_output_adapter@D@__crt_stdio_output@@@2@@__crt_stdio_output@@AAE_NXZ 10029b83 f i libucrt:output.obj
 0001:00028d33       ?state_case_size@?$output_processor@DV?$stream_output_adapter@D@__crt_stdio_output@@V?$positional_parameter_base@DV?$stream_output_adapter@D@__crt_stdio_output@@@2@@__crt_stdio_output@@AAE_NXZ 10029d33 f i libucrt:output.obj
 0001:00028ee3       ?state_case_size@?$output_processor@DV?$stream_output_adapter@D@__crt_stdio_output@@V?$standard_base@DV?$stream_output_adapter@D@__crt_stdio_output@@@2@@__crt_stdio_output@@AAE_NXZ 10029ee3 f i libucrt:output.obj
 0001:00029093       ?state_case_size@?$output_processor@DV?$string_output_adapter@D@__crt_stdio_output@@V?$format_validation_base@DV?$string_output_adapter@D@__crt_stdio_output@@@2@@__crt_stdio_output@@AAE_NXZ 1002a093 f i libucrt:output.obj
 0001:00029243       ?state_case_size@?$output_processor@DV?$string_output_adapter@D@__crt_stdio_output@@V?$positional_parameter_base@DV?$string_output_adapter@D@__crt_stdio_output@@@2@@__crt_stdio_output@@AAE_NXZ 1002a243 f i libucrt:output.obj
 0001:000293f3       ?state_case_size@?$output_processor@DV?$string_output_adapter@D@__crt_stdio_output@@V?$standard_base@DV?$string_output_adapter@D@__crt_stdio_output@@@2@@__crt_stdio_output@@AAE_NXZ 1002a3f3 f i libucrt:output.obj
 0001:000295a3       ?state_case_size@?$output_processor@_WV?$stream_output_adapter@_W@__crt_stdio_output@@V?$format_validation_base@_WV?$stream_output_adapter@_W@__crt_stdio_output@@@2@@__crt_stdio_output@@AAE_NXZ 1002a5a3 f i libucrt:output.obj
 0001:0002976b       ?state_case_size@?$output_processor@_WV?$stream_output_adapter@_W@__crt_stdio_output@@V?$positional_parameter_base@_WV?$stream_output_adapter@_W@__crt_stdio_output@@@2@@__crt_stdio_output@@AAE_NXZ 1002a76b f i libucrt:output.obj
 0001:00029933       ?state_case_size@?$output_processor@_WV?$stream_output_adapter@_W@__crt_stdio_output@@V?$standard_base@_WV?$stream_output_adapter@_W@__crt_stdio_output@@@2@@__crt_stdio_output@@AAE_NXZ 1002a933 f i libucrt:output.obj
 0001:00029afb       ?state_case_size@?$output_processor@_WV?$string_output_adapter@_W@__crt_stdio_output@@V?$format_validation_base@_WV?$string_output_adapter@_W@__crt_stdio_output@@@2@@__crt_stdio_output@@AAE_NXZ 1002aafb f i libucrt:output.obj
 0001:00029cc3       ?state_case_size@?$output_processor@_WV?$string_output_adapter@_W@__crt_stdio_output@@V?$positional_parameter_base@_WV?$string_output_adapter@_W@__crt_stdio_output@@@2@@__crt_stdio_output@@AAE_NXZ 1002acc3 f i libucrt:output.obj
 0001:00029e8b       ?state_case_size@?$output_processor@_WV?$string_output_adapter@_W@__crt_stdio_output@@V?$standard_base@_WV?$string_output_adapter@_W@__crt_stdio_output@@@2@@__crt_stdio_output@@AAE_NXZ 1002ae8b f i libucrt:output.obj
 0001:0002a053       ?state_case_type@?$output_processor@DV?$stream_output_adapter@D@__crt_stdio_output@@V?$format_validation_base@DV?$stream_output_adapter@D@__crt_stdio_output@@@2@@__crt_stdio_output@@AAE_NXZ 1002b053 f i libucrt:output.obj
 0001:0002a306       ?state_case_type@?$output_processor@DV?$stream_output_adapter@D@__crt_stdio_output@@V?$positional_parameter_base@DV?$stream_output_adapter@D@__crt_stdio_output@@@2@@__crt_stdio_output@@AAE_NXZ 1002b306 f i libucrt:output.obj
 0001:0002a5c7       ?state_case_type@?$output_processor@DV?$stream_output_adapter@D@__crt_stdio_output@@V?$standard_base@DV?$stream_output_adapter@D@__crt_stdio_output@@@2@@__crt_stdio_output@@AAE_NXZ 1002b5c7 f i libucrt:output.obj
 0001:0002a87a       ?state_case_type@?$output_processor@DV?$string_output_adapter@D@__crt_stdio_output@@V?$format_validation_base@DV?$string_output_adapter@D@__crt_stdio_output@@@2@@__crt_stdio_output@@AAE_NXZ 1002b87a f i libucrt:output.obj
 0001:0002ab2d       ?state_case_type@?$output_processor@DV?$string_output_adapter@D@__crt_stdio_output@@V?$positional_parameter_base@DV?$string_output_adapter@D@__crt_stdio_output@@@2@@__crt_stdio_output@@AAE_NXZ 1002bb2d f i libucrt:output.obj
 0001:0002adee       ?state_case_type@?$output_processor@DV?$string_output_adapter@D@__crt_stdio_output@@V?$standard_base@DV?$string_output_adapter@D@__crt_stdio_output@@@2@@__crt_stdio_output@@AAE_NXZ 1002bdee f i libucrt:output.obj
 0001:0002b0a1       ?state_case_type@?$output_processor@_WV?$stream_output_adapter@_W@__crt_stdio_output@@V?$format_validation_base@_WV?$stream_output_adapter@_W@__crt_stdio_output@@@2@@__crt_stdio_output@@AAE_NXZ 1002c0a1 f i libucrt:output.obj
 0001:0002b3a1       ?state_case_type@?$output_processor@_WV?$stream_output_adapter@_W@__crt_stdio_output@@V?$positional_parameter_base@_WV?$stream_output_adapter@_W@__crt_stdio_output@@@2@@__crt_stdio_output@@AAE_NXZ 1002c3a1 f i libucrt:output.obj
 0001:0002b6b4       ?state_case_type@?$output_processor@_WV?$stream_output_adapter@_W@__crt_stdio_output@@V?$standard_base@_WV?$stream_output_adapter@_W@__crt_stdio_output@@@2@@__crt_stdio_output@@AAE_NXZ 1002c6b4 f i libucrt:output.obj
 0001:0002b9b4       ?state_case_type@?$output_processor@_WV?$string_output_adapter@_W@__crt_stdio_output@@V?$format_validation_base@_WV?$string_output_adapter@_W@__crt_stdio_output@@@2@@__crt_stdio_output@@AAE_NXZ 1002c9b4 f i libucrt:output.obj
 0001:0002bcb4       ?state_case_type@?$output_processor@_WV?$string_output_adapter@_W@__crt_stdio_output@@V?$positional_parameter_base@_WV?$string_output_adapter@_W@__crt_stdio_output@@@2@@__crt_stdio_output@@AAE_NXZ 1002ccb4 f i libucrt:output.obj
 0001:0002bfc7       ?state_case_type@?$output_processor@_WV?$string_output_adapter@_W@__crt_stdio_output@@V?$standard_base@_WV?$string_output_adapter@_W@__crt_stdio_output@@@2@@__crt_stdio_output@@AAE_NXZ 1002cfc7 f i libucrt:output.obj
 0001:0002c2c7       ?state_case_width@?$output_processor@DV?$stream_output_adapter@D@__crt_stdio_output@@V?$format_validation_base@DV?$stream_output_adapter@D@__crt_stdio_output@@@2@@__crt_stdio_output@@AAE_NXZ 1002d2c7 f i libucrt:output.obj
 0001:0002c2fc       ?state_case_width@?$output_processor@DV?$stream_output_adapter@D@__crt_stdio_output@@V?$positional_parameter_base@DV?$stream_output_adapter@D@__crt_stdio_output@@@2@@__crt_stdio_output@@AAE_NXZ 1002d2fc f i libucrt:output.obj
 0001:0002c34c       ?state_case_width@?$output_processor@DV?$stream_output_adapter@D@__crt_stdio_output@@V?$standard_base@DV?$stream_output_adapter@D@__crt_stdio_output@@@2@@__crt_stdio_output@@AAE_NXZ 1002d34c f i libucrt:output.obj
 0001:0002c381       ?state_case_width@?$output_processor@DV?$string_output_adapter@D@__crt_stdio_output@@V?$format_validation_base@DV?$string_output_adapter@D@__crt_stdio_output@@@2@@__crt_stdio_output@@AAE_NXZ 1002d381 f i libucrt:output.obj
 0001:0002c3b6       ?state_case_width@?$output_processor@DV?$string_output_adapter@D@__crt_stdio_output@@V?$positional_parameter_base@DV?$string_output_adapter@D@__crt_stdio_output@@@2@@__crt_stdio_output@@AAE_NXZ 1002d3b6 f i libucrt:output.obj
 0001:0002c406       ?state_case_width@?$output_processor@DV?$string_output_adapter@D@__crt_stdio_output@@V?$standard_base@DV?$string_output_adapter@D@__crt_stdio_output@@@2@@__crt_stdio_output@@AAE_NXZ 1002d406 f i libucrt:output.obj
 0001:0002c43b       ?state_case_width@?$output_processor@_WV?$stream_output_adapter@_W@__crt_stdio_output@@V?$format_validation_base@_WV?$stream_output_adapter@_W@__crt_stdio_output@@@2@@__crt_stdio_output@@AAE_NXZ 1002d43b f i libucrt:output.obj
 0001:0002c472       ?state_case_width@?$output_processor@_WV?$stream_output_adapter@_W@__crt_stdio_output@@V?$positional_parameter_base@_WV?$stream_output_adapter@_W@__crt_stdio_output@@@2@@__crt_stdio_output@@AAE_NXZ 1002d472 f i libucrt:output.obj
 0001:0002c4c3       ?state_case_width@?$output_processor@_WV?$stream_output_adapter@_W@__crt_stdio_output@@V?$standard_base@_WV?$stream_output_adapter@_W@__crt_stdio_output@@@2@@__crt_stdio_output@@AAE_NXZ 1002d4c3 f i libucrt:output.obj
 0001:0002c4fa       ?state_case_width@?$output_processor@_WV?$string_output_adapter@_W@__crt_stdio_output@@V?$format_validation_base@_WV?$string_output_adapter@_W@__crt_stdio_output@@@2@@__crt_stdio_output@@AAE_NXZ 1002d4fa f i libucrt:output.obj
 0001:0002c531       ?state_case_width@?$output_processor@_WV?$string_output_adapter@_W@__crt_stdio_output@@V?$positional_parameter_base@_WV?$string_output_adapter@_W@__crt_stdio_output@@@2@@__crt_stdio_output@@AAE_NXZ 1002d531 f i libucrt:output.obj
 0001:0002c582       ?state_case_width@?$output_processor@_WV?$string_output_adapter@_W@__crt_stdio_output@@V?$standard_base@_WV?$string_output_adapter@_W@__crt_stdio_output@@@2@@__crt_stdio_output@@AAE_NXZ 1002d582 f i libucrt:output.obj
 0001:0002c5b9       ?state_count@?$format_validation_base@DV?$stream_output_adapter@D@__crt_stdio_output@@@__crt_stdio_output@@KAIXZ 1002d5b9 f i libucrt:output.obj
 0001:0002c5bd       ?state_count@?$format_validation_base@DV?$string_output_adapter@D@__crt_stdio_output@@@__crt_stdio_output@@KAIXZ 1002d5bd f i libucrt:output.obj
 0001:0002c5c1       ?state_count@?$format_validation_base@_WV?$stream_output_adapter@_W@__crt_stdio_output@@@__crt_stdio_output@@KAIXZ 1002d5c1 f i libucrt:output.obj
 0001:0002c5c5       ?state_count@?$format_validation_base@_WV?$string_output_adapter@_W@__crt_stdio_output@@@__crt_stdio_output@@KAIXZ 1002d5c5 f i libucrt:output.obj
 0001:0002c5c9       ?state_count@?$standard_base@DV?$stream_output_adapter@D@__crt_stdio_output@@@__crt_stdio_output@@KAIXZ 1002d5c9 f i libucrt:output.obj
 0001:0002c5cd       ?state_count@?$standard_base@DV?$string_output_adapter@D@__crt_stdio_output@@@__crt_stdio_output@@KAIXZ 1002d5cd f i libucrt:output.obj
 0001:0002c5d1       ?state_count@?$standard_base@_WV?$stream_output_adapter@_W@__crt_stdio_output@@@__crt_stdio_output@@KAIXZ 1002d5d1 f i libucrt:output.obj
 0001:0002c5d5       ?state_count@?$standard_base@_WV?$string_output_adapter@_W@__crt_stdio_output@@@__crt_stdio_output@@KAIXZ 1002d5d5 f i libucrt:output.obj
 0001:0002c5d9       ?state_transition_table@?$format_validation_base@DV?$stream_output_adapter@D@__crt_stdio_output@@@__crt_stdio_output@@KAPBEXZ 1002d5d9 f i libucrt:output.obj
 0001:0002c5df       ?state_transition_table@?$format_validation_base@DV?$string_output_adapter@D@__crt_stdio_output@@@__crt_stdio_output@@KAPBEXZ 1002d5df f i libucrt:output.obj
 0001:0002c5e5       ?state_transition_table@?$format_validation_base@_WV?$stream_output_adapter@_W@__crt_stdio_output@@@__crt_stdio_output@@KAPBEXZ 1002d5e5 f i libucrt:output.obj
 0001:0002c5eb       ?state_transition_table@?$format_validation_base@_WV?$string_output_adapter@_W@__crt_stdio_output@@@__crt_stdio_output@@KAPBEXZ 1002d5eb f i libucrt:output.obj
 0001:0002c5f1       ?state_transition_table@?$standard_base@DV?$stream_output_adapter@D@__crt_stdio_output@@@__crt_stdio_output@@KAPBEXZ 1002d5f1 f i libucrt:output.obj
 0001:0002c5f7       ?state_transition_table@?$standard_base@DV?$string_output_adapter@D@__crt_stdio_output@@@__crt_stdio_output@@KAPBEXZ 1002d5f7 f i libucrt:output.obj
 0001:0002c5fd       ?state_transition_table@?$standard_base@_WV?$stream_output_adapter@_W@__crt_stdio_output@@@__crt_stdio_output@@KAPBEXZ 1002d5fd f i libucrt:output.obj
 0001:0002c603       ?state_transition_table@?$standard_base@_WV?$string_output_adapter@_W@__crt_stdio_output@@@__crt_stdio_output@@KAPBEXZ 1002d603 f i libucrt:output.obj
 0001:0002c609       ?tchar_string@?$common_data@D@__crt_stdio_output@@IAEAAPADD@Z 1002d609 f i libucrt:output.obj
 0001:0002c60f       ?tchar_string@?$common_data@D@__crt_stdio_output@@IAEAAPADXZ 1002d60f f i libucrt:output.obj
 0001:0002c613       ?tchar_string@?$common_data@_W@__crt_stdio_output@@IAEAAPA_WXZ 1002d613 f i libucrt:output.obj
 0001:0002c617       ?tchar_string@?$common_data@_W@__crt_stdio_output@@IAEAAPA_W_W@Z 1002d617 f i libucrt:output.obj
 0001:0002c61d       ?to_integer_size@__crt_stdio_output@@YAIW4length_modifier@1@@Z 1002d61d f i libucrt:output.obj
 0001:0002c690       ?type_case_X@?$output_processor@DV?$stream_output_adapter@D@__crt_stdio_output@@V?$format_validation_base@DV?$stream_output_adapter@D@__crt_stdio_output@@@2@@__crt_stdio_output@@AAE_NXZ 1002d690 f i libucrt:output.obj
 0001:0002c69c       ?type_case_X@?$output_processor@DV?$stream_output_adapter@D@__crt_stdio_output@@V?$positional_parameter_base@DV?$stream_output_adapter@D@__crt_stdio_output@@@2@@__crt_stdio_output@@AAE_NXZ 1002d69c f i libucrt:output.obj
 0001:0002c6a8       ?type_case_X@?$output_processor@DV?$stream_output_adapter@D@__crt_stdio_output@@V?$standard_base@DV?$stream_output_adapter@D@__crt_stdio_output@@@2@@__crt_stdio_output@@AAE_NXZ 1002d6a8 f i libucrt:output.obj
 0001:0002c6b4       ?type_case_X@?$output_processor@DV?$string_output_adapter@D@__crt_stdio_output@@V?$format_validation_base@DV?$string_output_adapter@D@__crt_stdio_output@@@2@@__crt_stdio_output@@AAE_NXZ 1002d6b4 f i libucrt:output.obj
 0001:0002c6c0       ?type_case_X@?$output_processor@DV?$string_output_adapter@D@__crt_stdio_output@@V?$positional_parameter_base@DV?$string_output_adapter@D@__crt_stdio_output@@@2@@__crt_stdio_output@@AAE_NXZ 1002d6c0 f i libucrt:output.obj
 0001:0002c6cc       ?type_case_X@?$output_processor@DV?$string_output_adapter@D@__crt_stdio_output@@V?$standard_base@DV?$string_output_adapter@D@__crt_stdio_output@@@2@@__crt_stdio_output@@AAE_NXZ 1002d6cc f i libucrt:output.obj
 0001:0002c6d8       ?type_case_X@?$output_processor@_WV?$stream_output_adapter@_W@__crt_stdio_output@@V?$format_validation_base@_WV?$stream_output_adapter@_W@__crt_stdio_output@@@2@@__crt_stdio_output@@AAE_NXZ 1002d6d8 f i libucrt:output.obj
 0001:0002c6e4       ?type_case_X@?$output_processor@_WV?$stream_output_adapter@_W@__crt_stdio_output@@V?$positional_parameter_base@_WV?$stream_output_adapter@_W@__crt_stdio_output@@@2@@__crt_stdio_output@@AAE_NXZ 1002d6e4 f i libucrt:output.obj
 0001:0002c6f0       ?type_case_X@?$output_processor@_WV?$stream_output_adapter@_W@__crt_stdio_output@@V?$standard_base@_WV?$stream_output_adapter@_W@__crt_stdio_output@@@2@@__crt_stdio_output@@AAE_NXZ 1002d6f0 f i libucrt:output.obj
 0001:0002c6fc       ?type_case_X@?$output_processor@_WV?$string_output_adapter@_W@__crt_stdio_output@@V?$format_validation_base@_WV?$string_output_adapter@_W@__crt_stdio_output@@@2@@__crt_stdio_output@@AAE_NXZ 1002d6fc f i libucrt:output.obj
 0001:0002c708       ?type_case_X@?$output_processor@_WV?$string_output_adapter@_W@__crt_stdio_output@@V?$positional_parameter_base@_WV?$string_output_adapter@_W@__crt_stdio_output@@@2@@__crt_stdio_output@@AAE_NXZ 1002d708 f i libucrt:output.obj
 0001:0002c714       ?type_case_X@?$output_processor@_WV?$string_output_adapter@_W@__crt_stdio_output@@V?$standard_base@_WV?$string_output_adapter@_W@__crt_stdio_output@@@2@@__crt_stdio_output@@AAE_NXZ 1002d714 f i libucrt:output.obj
 0001:0002c720       ?type_case_Z@?$output_processor@DV?$stream_output_adapter@D@__crt_stdio_output@@V?$format_validation_base@DV?$stream_output_adapter@D@__crt_stdio_output@@@2@@__crt_stdio_output@@AAE_NXZ 1002d720 f i libucrt:output.obj
 0001:0002c799       ?type_case_Z@?$output_processor@DV?$stream_output_adapter@D@__crt_stdio_output@@V?$positional_parameter_base@DV?$stream_output_adapter@D@__crt_stdio_output@@@2@@__crt_stdio_output@@AAE_NXZ 1002d799 f i libucrt:output.obj
 0001:0002c8af       ?type_case_Z@?$output_processor@DV?$stream_output_adapter@D@__crt_stdio_output@@V?$standard_base@DV?$stream_output_adapter@D@__crt_stdio_output@@@2@@__crt_stdio_output@@AAE_NXZ 1002d8af f i libucrt:output.obj
 0001:0002c928       ?type_case_Z@?$output_processor@DV?$string_output_adapter@D@__crt_stdio_output@@V?$format_validation_base@DV?$string_output_adapter@D@__crt_stdio_output@@@2@@__crt_stdio_output@@AAE_NXZ 1002d928 f i libucrt:output.obj
 0001:0002c9a1       ?type_case_Z@?$output_processor@DV?$string_output_adapter@D@__crt_stdio_output@@V?$positional_parameter_base@DV?$string_output_adapter@D@__crt_stdio_output@@@2@@__crt_stdio_output@@AAE_NXZ 1002d9a1 f i libucrt:output.obj
 0001:0002cab7       ?type_case_Z@?$output_processor@DV?$string_output_adapter@D@__crt_stdio_output@@V?$standard_base@DV?$string_output_adapter@D@__crt_stdio_output@@@2@@__crt_stdio_output@@AAE_NXZ 1002dab7 f i libucrt:output.obj
 0001:0002cb30       ?type_case_Z@?$output_processor@_WV?$stream_output_adapter@_W@__crt_stdio_output@@V?$format_validation_base@_WV?$stream_output_adapter@_W@__crt_stdio_output@@@2@@__crt_stdio_output@@AAE_NXZ 1002db30 f i libucrt:output.obj
 0001:0002cba9       ?type_case_Z@?$output_processor@_WV?$stream_output_adapter@_W@__crt_stdio_output@@V?$positional_parameter_base@_WV?$stream_output_adapter@_W@__crt_stdio_output@@@2@@__crt_stdio_output@@AAE_NXZ 1002dba9 f i libucrt:output.obj
 0001:0002ccbf       ?type_case_Z@?$output_processor@_WV?$stream_output_adapter@_W@__crt_stdio_output@@V?$standard_base@_WV?$stream_output_adapter@_W@__crt_stdio_output@@@2@@__crt_stdio_output@@AAE_NXZ 1002dcbf f i libucrt:output.obj
 0001:0002cd38       ?type_case_Z@?$output_processor@_WV?$string_output_adapter@_W@__crt_stdio_output@@V?$format_validation_base@_WV?$string_output_adapter@_W@__crt_stdio_output@@@2@@__crt_stdio_output@@AAE_NXZ 1002dd38 f i libucrt:output.obj
 0001:0002cdb1       ?type_case_Z@?$output_processor@_WV?$string_output_adapter@_W@__crt_stdio_output@@V?$positional_parameter_base@_WV?$string_output_adapter@_W@__crt_stdio_output@@@2@@__crt_stdio_output@@AAE_NXZ 1002ddb1 f i libucrt:output.obj
 0001:0002cec7       ?type_case_Z@?$output_processor@_WV?$string_output_adapter@_W@__crt_stdio_output@@V?$standard_base@_WV?$string_output_adapter@_W@__crt_stdio_output@@@2@@__crt_stdio_output@@AAE_NXZ 1002dec7 f i libucrt:output.obj
 0001:0002cf40       ?type_case_a@?$output_processor@DV?$stream_output_adapter@D@__crt_stdio_output@@V?$format_validation_base@DV?$stream_output_adapter@D@__crt_stdio_output@@@2@@__crt_stdio_output@@AAE_NXZ 1002df40 f i libucrt:output.obj
 0001:0002d0ef       ?type_case_a@?$output_processor@DV?$stream_output_adapter@D@__crt_stdio_output@@V?$positional_parameter_base@DV?$stream_output_adapter@D@__crt_stdio_output@@@2@@__crt_stdio_output@@AAE_NXZ 1002e0ef f i libucrt:output.obj
 0001:0002d2c5       ?type_case_a@?$output_processor@DV?$stream_output_adapter@D@__crt_stdio_output@@V?$standard_base@DV?$stream_output_adapter@D@__crt_stdio_output@@@2@@__crt_stdio_output@@AAE_NXZ 1002e2c5 f i libucrt:output.obj
 0001:0002d474       ?type_case_a@?$output_processor@DV?$string_output_adapter@D@__crt_stdio_output@@V?$format_validation_base@DV?$string_output_adapter@D@__crt_stdio_output@@@2@@__crt_stdio_output@@AAE_NXZ 1002e474 f i libucrt:output.obj
 0001:0002d623       ?type_case_a@?$output_processor@DV?$string_output_adapter@D@__crt_stdio_output@@V?$positional_parameter_base@DV?$string_output_adapter@D@__crt_stdio_output@@@2@@__crt_stdio_output@@AAE_NXZ 1002e623 f i libucrt:output.obj
 0001:0002d7f9       ?type_case_a@?$output_processor@DV?$string_output_adapter@D@__crt_stdio_output@@V?$standard_base@DV?$string_output_adapter@D@__crt_stdio_output@@@2@@__crt_stdio_output@@AAE_NXZ 1002e7f9 f i libucrt:output.obj
 0001:0002d9a8       ?type_case_a@?$output_processor@_WV?$stream_output_adapter@_W@__crt_stdio_output@@V?$format_validation_base@_WV?$stream_output_adapter@_W@__crt_stdio_output@@@2@@__crt_stdio_output@@AAE_NXZ 1002e9a8 f i libucrt:output.obj
 0001:0002db72       ?type_case_a@?$output_processor@_WV?$stream_output_adapter@_W@__crt_stdio_output@@V?$positional_parameter_base@_WV?$stream_output_adapter@_W@__crt_stdio_output@@@2@@__crt_stdio_output@@AAE_NXZ 1002eb72 f i libucrt:output.obj
 0001:0002dd63       ?type_case_a@?$output_processor@_WV?$stream_output_adapter@_W@__crt_stdio_output@@V?$standard_base@_WV?$stream_output_adapter@_W@__crt_stdio_output@@@2@@__crt_stdio_output@@AAE_NXZ 1002ed63 f i libucrt:output.obj
 0001:0002df2d       ?type_case_a@?$output_processor@_WV?$string_output_adapter@_W@__crt_stdio_output@@V?$format_validation_base@_WV?$string_output_adapter@_W@__crt_stdio_output@@@2@@__crt_stdio_output@@AAE_NXZ 1002ef2d f i libucrt:output.obj
 0001:0002e0f7       ?type_case_a@?$output_processor@_WV?$string_output_adapter@_W@__crt_stdio_output@@V?$positional_parameter_base@_WV?$string_output_adapter@_W@__crt_stdio_output@@@2@@__crt_stdio_output@@AAE_NXZ 1002f0f7 f i libucrt:output.obj
 0001:0002e2e8       ?type_case_a@?$output_processor@_WV?$string_output_adapter@_W@__crt_stdio_output@@V?$standard_base@_WV?$string_output_adapter@_W@__crt_stdio_output@@@2@@__crt_stdio_output@@AAE_NXZ 1002f2e8 f i libucrt:output.obj
 0001:0002e4b2       ?type_case_c@?$output_processor@DV?$stream_output_adapter@D@__crt_stdio_output@@V?$format_validation_base@DV?$stream_output_adapter@D@__crt_stdio_output@@@2@@__crt_stdio_output@@AAE_NXZ 1002f4b2 f i libucrt:output.obj
 0001:0002e4bc       ?type_case_c@?$output_processor@DV?$stream_output_adapter@D@__crt_stdio_output@@V?$positional_parameter_base@DV?$stream_output_adapter@D@__crt_stdio_output@@@2@@__crt_stdio_output@@AAE_NXZ 1002f4bc f i libucrt:output.obj
 0001:0002e4c6       ?type_case_c@?$output_processor@DV?$stream_output_adapter@D@__crt_stdio_output@@V?$standard_base@DV?$stream_output_adapter@D@__crt_stdio_output@@@2@@__crt_stdio_output@@AAE_NXZ 1002f4c6 f i libucrt:output.obj
 0001:0002e4d0       ?type_case_c@?$output_processor@DV?$string_output_adapter@D@__crt_stdio_output@@V?$format_validation_base@DV?$string_output_adapter@D@__crt_stdio_output@@@2@@__crt_stdio_output@@AAE_NXZ 1002f4d0 f i libucrt:output.obj
 0001:0002e4da       ?type_case_c@?$output_processor@DV?$string_output_adapter@D@__crt_stdio_output@@V?$positional_parameter_base@DV?$string_output_adapter@D@__crt_stdio_output@@@2@@__crt_stdio_output@@AAE_NXZ 1002f4da f i libucrt:output.obj
 0001:0002e4e4       ?type_case_c@?$output_processor@DV?$string_output_adapter@D@__crt_stdio_output@@V?$standard_base@DV?$string_output_adapter@D@__crt_stdio_output@@@2@@__crt_stdio_output@@AAE_NXZ 1002f4e4 f i libucrt:output.obj
 0001:0002e4ee       ?type_case_c@?$output_processor@_WV?$stream_output_adapter@_W@__crt_stdio_output@@V?$format_validation_base@_WV?$stream_output_adapter@_W@__crt_stdio_output@@@2@@__crt_stdio_output@@AAE_NXZ 1002f4ee f i libucrt:output.obj
 0001:0002e4f8       ?type_case_c@?$output_processor@_WV?$stream_output_adapter@_W@__crt_stdio_output@@V?$positional_parameter_base@_WV?$stream_output_adapter@_W@__crt_stdio_output@@@2@@__crt_stdio_output@@AAE_NXZ 1002f4f8 f i libucrt:output.obj
 0001:0002e502       ?type_case_c@?$output_processor@_WV?$stream_output_adapter@_W@__crt_stdio_output@@V?$standard_base@_WV?$stream_output_adapter@_W@__crt_stdio_output@@@2@@__crt_stdio_output@@AAE_NXZ 1002f502 f i libucrt:output.obj
 0001:0002e50c       ?type_case_c@?$output_processor@_WV?$string_output_adapter@_W@__crt_stdio_output@@V?$format_validation_base@_WV?$string_output_adapter@_W@__crt_stdio_output@@@2@@__crt_stdio_output@@AAE_NXZ 1002f50c f i libucrt:output.obj
 0001:0002e516       ?type_case_c@?$output_processor@_WV?$string_output_adapter@_W@__crt_stdio_output@@V?$positional_parameter_base@_WV?$string_output_adapter@_W@__crt_stdio_output@@@2@@__crt_stdio_output@@AAE_NXZ 1002f516 f i libucrt:output.obj
 0001:0002e520       ?type_case_c@?$output_processor@_WV?$string_output_adapter@_W@__crt_stdio_output@@V?$standard_base@_WV?$string_output_adapter@_W@__crt_stdio_output@@@2@@__crt_stdio_output@@AAE_NXZ 1002f520 f i libucrt:output.obj
 0001:0002e52a       ?type_case_c_tchar@?$output_processor@DV?$stream_output_adapter@D@__crt_stdio_output@@V?$format_validation_base@DV?$stream_output_adapter@D@__crt_stdio_output@@@2@@__crt_stdio_output@@AAE_ND@Z 1002f52a f i libucrt:output.obj
 0001:0002e5de       ?type_case_c_tchar@?$output_processor@DV?$stream_output_adapter@D@__crt_stdio_output@@V?$positional_parameter_base@DV?$stream_output_adapter@D@__crt_stdio_output@@@2@@__crt_stdio_output@@AAE_ND@Z 1002f5de f i libucrt:output.obj
 0001:0002e6ce       ?type_case_c_tchar@?$output_processor@DV?$stream_output_adapter@D@__crt_stdio_output@@V?$standard_base@DV?$stream_output_adapter@D@__crt_stdio_output@@@2@@__crt_stdio_output@@AAE_ND@Z 1002f6ce f i libucrt:output.obj
 0001:0002e782       ?type_case_c_tchar@?$output_processor@DV?$string_output_adapter@D@__crt_stdio_output@@V?$format_validation_base@DV?$string_output_adapter@D@__crt_stdio_output@@@2@@__crt_stdio_output@@AAE_ND@Z 1002f782 f i libucrt:output.obj
 0001:0002e836       ?type_case_c_tchar@?$output_processor@DV?$string_output_adapter@D@__crt_stdio_output@@V?$positional_parameter_base@DV?$string_output_adapter@D@__crt_stdio_output@@@2@@__crt_stdio_output@@AAE_ND@Z 1002f836 f i libucrt:output.obj
 0001:0002e926       ?type_case_c_tchar@?$output_processor@DV?$string_output_adapter@D@__crt_stdio_output@@V?$standard_base@DV?$string_output_adapter@D@__crt_stdio_output@@@2@@__crt_stdio_output@@AAE_ND@Z 1002f926 f i libucrt:output.obj
 0001:0002e9da       ?type_case_c_tchar@?$output_processor@_WV?$stream_output_adapter@_W@__crt_stdio_output@@V?$format_validation_base@_WV?$stream_output_adapter@_W@__crt_stdio_output@@@2@@__crt_stdio_output@@AAE_N_W@Z 1002f9da f i libucrt:output.obj
 0001:0002ea98       ?type_case_c_tchar@?$output_processor@_WV?$stream_output_adapter@_W@__crt_stdio_output@@V?$positional_parameter_base@_WV?$stream_output_adapter@_W@__crt_stdio_output@@@2@@__crt_stdio_output@@AAE_N_W@Z 1002fa98 f i libucrt:output.obj
 0001:0002eb72       ?type_case_c_tchar@?$output_processor@_WV?$stream_output_adapter@_W@__crt_stdio_output@@V?$standard_base@_WV?$stream_output_adapter@_W@__crt_stdio_output@@@2@@__crt_stdio_output@@AAE_N_W@Z 1002fb72 f i libucrt:output.obj
 0001:0002ec30       ?type_case_c_tchar@?$output_processor@_WV?$string_output_adapter@_W@__crt_stdio_output@@V?$format_validation_base@_WV?$string_output_adapter@_W@__crt_stdio_output@@@2@@__crt_stdio_output@@AAE_N_W@Z 1002fc30 f i libucrt:output.obj
 0001:0002ecee       ?type_case_c_tchar@?$output_processor@_WV?$string_output_adapter@_W@__crt_stdio_output@@V?$positional_parameter_base@_WV?$string_output_adapter@_W@__crt_stdio_output@@@2@@__crt_stdio_output@@AAE_N_W@Z 1002fcee f i libucrt:output.obj
 0001:0002edc8       ?type_case_c_tchar@?$output_processor@_WV?$string_output_adapter@_W@__crt_stdio_output@@V?$standard_base@_WV?$string_output_adapter@_W@__crt_stdio_output@@@2@@__crt_stdio_output@@AAE_N_W@Z 1002fdc8 f i libucrt:output.obj
 0001:0002ee86       ?type_case_d@?$output_processor@DV?$stream_output_adapter@D@__crt_stdio_output@@V?$format_validation_base@DV?$stream_output_adapter@D@__crt_stdio_output@@@2@@__crt_stdio_output@@AAE_NXZ 1002fe86 f i libucrt:output.obj
 0001:0002ee97       ?type_case_d@?$output_processor@DV?$stream_output_adapter@D@__crt_stdio_output@@V?$positional_parameter_base@DV?$stream_output_adapter@D@__crt_stdio_output@@@2@@__crt_stdio_output@@AAE_NXZ 1002fe97 f i libucrt:output.obj
 0001:0002eea8       ?type_case_d@?$output_processor@DV?$stream_output_adapter@D@__crt_stdio_output@@V?$standard_base@DV?$stream_output_adapter@D@__crt_stdio_output@@@2@@__crt_stdio_output@@AAE_NXZ 1002fea8 f i libucrt:output.obj
 0001:0002eeb9       ?type_case_d@?$output_processor@DV?$string_output_adapter@D@__crt_stdio_output@@V?$format_validation_base@DV?$string_output_adapter@D@__crt_stdio_output@@@2@@__crt_stdio_output@@AAE_NXZ 1002feb9 f i libucrt:output.obj
 0001:0002eeca       ?type_case_d@?$output_processor@DV?$string_output_adapter@D@__crt_stdio_output@@V?$positional_parameter_base@DV?$string_output_adapter@D@__crt_stdio_output@@@2@@__crt_stdio_output@@AAE_NXZ 1002feca f i libucrt:output.obj
 0001:0002eedb       ?type_case_d@?$output_processor@DV?$string_output_adapter@D@__crt_stdio_output@@V?$standard_base@DV?$string_output_adapter@D@__crt_stdio_output@@@2@@__crt_stdio_output@@AAE_NXZ 1002fedb f i libucrt:output.obj
 0001:0002eeec       ?type_case_d@?$output_processor@_WV?$stream_output_adapter@_W@__crt_stdio_output@@V?$format_validation_base@_WV?$stream_output_adapter@_W@__crt_stdio_output@@@2@@__crt_stdio_output@@AAE_NXZ 1002feec f i libucrt:output.obj
 0001:0002eefd       ?type_case_d@?$output_processor@_WV?$stream_output_adapter@_W@__crt_stdio_output@@V?$positional_parameter_base@_WV?$stream_output_adapter@_W@__crt_stdio_output@@@2@@__crt_stdio_output@@AAE_NXZ 1002fefd f i libucrt:output.obj
 0001:0002ef0e       ?type_case_d@?$output_processor@_WV?$stream_output_adapter@_W@__crt_stdio_output@@V?$standard_base@_WV?$stream_output_adapter@_W@__crt_stdio_output@@@2@@__crt_stdio_output@@AAE_NXZ 1002ff0e f i libucrt:output.obj
 0001:0002ef1f       ?type_case_d@?$output_processor@_WV?$string_output_adapter@_W@__crt_stdio_output@@V?$format_validation_base@_WV?$string_output_adapter@_W@__crt_stdio_output@@@2@@__crt_stdio_output@@AAE_NXZ 1002ff1f f i libucrt:output.obj
 0001:0002ef30       ?type_case_d@?$output_processor@_WV?$string_output_adapter@_W@__crt_stdio_output@@V?$positional_parameter_base@_WV?$string_output_adapter@_W@__crt_stdio_output@@@2@@__crt_stdio_output@@AAE_NXZ 1002ff30 f i libucrt:output.obj
 0001:0002ef41       ?type_case_d@?$output_processor@_WV?$string_output_adapter@_W@__crt_stdio_output@@V?$standard_base@_WV?$string_output_adapter@_W@__crt_stdio_output@@@2@@__crt_stdio_output@@AAE_NXZ 1002ff41 f i libucrt:output.obj
 0001:0002ef52       ?type_case_integer@?$output_processor@DV?$stream_output_adapter@D@__crt_stdio_output@@V?$format_validation_base@DV?$stream_output_adapter@D@__crt_stdio_output@@@2@@__crt_stdio_output@@AAE_NI_N@Z 1002ff52 f i libucrt:output.obj
 0001:0002f0f9       ?type_case_integer@?$output_processor@DV?$stream_output_adapter@D@__crt_stdio_output@@V?$positional_parameter_base@DV?$stream_output_adapter@D@__crt_stdio_output@@@2@@__crt_stdio_output@@AAE_NI_N@Z 100300f9 f i libucrt:output.obj
 0001:0002f2dc       ?type_case_integer@?$output_processor@DV?$stream_output_adapter@D@__crt_stdio_output@@V?$standard_base@DV?$stream_output_adapter@D@__crt_stdio_output@@@2@@__crt_stdio_output@@AAE_NI_N@Z 100302dc f i libucrt:output.obj
 0001:0002f483       ?type_case_integer@?$output_processor@DV?$string_output_adapter@D@__crt_stdio_output@@V?$format_validation_base@DV?$string_output_adapter@D@__crt_stdio_output@@@2@@__crt_stdio_output@@AAE_NI_N@Z 10030483 f i libucrt:output.obj
 0001:0002f62a       ?type_case_integer@?$output_processor@DV?$string_output_adapter@D@__crt_stdio_output@@V?$positional_parameter_base@DV?$string_output_adapter@D@__crt_stdio_output@@@2@@__crt_stdio_output@@AAE_NI_N@Z 1003062a f i libucrt:output.obj
 0001:0002f80d       ?type_case_integer@?$output_processor@DV?$string_output_adapter@D@__crt_stdio_output@@V?$standard_base@DV?$string_output_adapter@D@__crt_stdio_output@@@2@@__crt_stdio_output@@AAE_NI_N@Z 1003080d f i libucrt:output.obj
 0001:0002f9b4       ?type_case_integer@?$output_processor@_WV?$stream_output_adapter@_W@__crt_stdio_output@@V?$format_validation_base@_WV?$stream_output_adapter@_W@__crt_stdio_output@@@2@@__crt_stdio_output@@AAE_NI_N@Z 100309b4 f i libucrt:output.obj
 0001:0002fb60       ?type_case_integer@?$output_processor@_WV?$stream_output_adapter@_W@__crt_stdio_output@@V?$positional_parameter_base@_WV?$stream_output_adapter@_W@__crt_stdio_output@@@2@@__crt_stdio_output@@AAE_NI_N@Z 10030b60 f i libucrt:output.obj
 0001:0002fd48       ?type_case_integer@?$output_processor@_WV?$stream_output_adapter@_W@__crt_stdio_output@@V?$standard_base@_WV?$stream_output_adapter@_W@__crt_stdio_output@@@2@@__crt_stdio_output@@AAE_NI_N@Z 10030d48 f i libucrt:output.obj
 0001:0002fef4       ?type_case_integer@?$output_processor@_WV?$string_output_adapter@_W@__crt_stdio_output@@V?$format_validation_base@_WV?$string_output_adapter@_W@__crt_stdio_output@@@2@@__crt_stdio_output@@AAE_NI_N@Z 10030ef4 f i libucrt:output.obj
 0001:000300a0       ?type_case_integer@?$output_processor@_WV?$string_output_adapter@_W@__crt_stdio_output@@V?$positional_parameter_base@_WV?$string_output_adapter@_W@__crt_stdio_output@@@2@@__crt_stdio_output@@AAE_NI_N@Z 100310a0 f i libucrt:output.obj
 0001:00030288       ?type_case_integer@?$output_processor@_WV?$string_output_adapter@_W@__crt_stdio_output@@V?$standard_base@_WV?$string_output_adapter@_W@__crt_stdio_output@@@2@@__crt_stdio_output@@AAE_NI_N@Z 10031288 f i libucrt:output.obj
 0001:00030434       ?type_case_n@?$output_processor@DV?$stream_output_adapter@D@__crt_stdio_output@@V?$format_validation_base@DV?$stream_output_adapter@D@__crt_stdio_output@@@2@@__crt_stdio_output@@AAE_NXZ 10031434 f i libucrt:output.obj
 0001:000304c5       ?type_case_n@?$output_processor@DV?$stream_output_adapter@D@__crt_stdio_output@@V?$positional_parameter_base@DV?$stream_output_adapter@D@__crt_stdio_output@@@2@@__crt_stdio_output@@AAE_NXZ 100314c5 f i libucrt:output.obj
 0001:00030584       ?type_case_n@?$output_processor@DV?$stream_output_adapter@D@__crt_stdio_output@@V?$standard_base@DV?$stream_output_adapter@D@__crt_stdio_output@@@2@@__crt_stdio_output@@AAE_NXZ 10031584 f i libucrt:output.obj
 0001:00030615       ?type_case_n@?$output_processor@DV?$string_output_adapter@D@__crt_stdio_output@@V?$format_validation_base@DV?$string_output_adapter@D@__crt_stdio_output@@@2@@__crt_stdio_output@@AAE_NXZ 10031615 f i libucrt:output.obj
 0001:000306a6       ?type_case_n@?$output_processor@DV?$string_output_adapter@D@__crt_stdio_output@@V?$positional_parameter_base@DV?$string_output_adapter@D@__crt_stdio_output@@@2@@__crt_stdio_output@@AAE_NXZ 100316a6 f i libucrt:output.obj
 0001:00030765       ?type_case_n@?$output_processor@DV?$string_output_adapter@D@__crt_stdio_output@@V?$standard_base@DV?$string_output_adapter@D@__crt_stdio_output@@@2@@__crt_stdio_output@@AAE_NXZ 10031765 f i libucrt:output.obj
 0001:000307f6       ?type_case_n@?$output_processor@_WV?$stream_output_adapter@_W@__crt_stdio_output@@V?$format_validation_base@_WV?$stream_output_adapter@_W@__crt_stdio_output@@@2@@__crt_stdio_output@@AAE_NXZ 100317f6 f i libucrt:output.obj
 0001:00030887       ?type_case_n@?$output_processor@_WV?$stream_output_adapter@_W@__crt_stdio_output@@V?$positional_parameter_base@_WV?$stream_output_adapter@_W@__crt_stdio_output@@@2@@__crt_stdio_output@@AAE_NXZ 10031887 f i libucrt:output.obj
 0001:00030946       ?type_case_n@?$output_processor@_WV?$stream_output_adapter@_W@__crt_stdio_output@@V?$standard_base@_WV?$stream_output_adapter@_W@__crt_stdio_output@@@2@@__crt_stdio_output@@AAE_NXZ 10031946 f i libucrt:output.obj
 0001:000309d7       ?type_case_n@?$output_processor@_WV?$string_output_adapter@_W@__crt_stdio_output@@V?$format_validation_base@_WV?$string_output_adapter@_W@__crt_stdio_output@@@2@@__crt_stdio_output@@AAE_NXZ 100319d7 f i libucrt:output.obj
 0001:00030a68       ?type_case_n@?$output_processor@_WV?$string_output_adapter@_W@__crt_stdio_output@@V?$positional_parameter_base@_WV?$string_output_adapter@_W@__crt_stdio_output@@@2@@__crt_stdio_output@@AAE_NXZ 10031a68 f i libucrt:output.obj
 0001:00030b27       ?type_case_n@?$output_processor@_WV?$string_output_adapter@_W@__crt_stdio_output@@V?$standard_base@_WV?$string_output_adapter@_W@__crt_stdio_output@@@2@@__crt_stdio_output@@AAE_NXZ 10031b27 f i libucrt:output.obj
 0001:00030bb8       ?type_case_o@?$output_processor@DV?$stream_output_adapter@D@__crt_stdio_output@@V?$format_validation_base@DV?$stream_output_adapter@D@__crt_stdio_output@@@2@@__crt_stdio_output@@AAE_NXZ 10031bb8 f i libucrt:output.obj
 0001:00030bde       ?type_case_o@?$output_processor@DV?$stream_output_adapter@D@__crt_stdio_output@@V?$positional_parameter_base@DV?$stream_output_adapter@D@__crt_stdio_output@@@2@@__crt_stdio_output@@AAE_NXZ 10031bde f i libucrt:output.obj
 0001:00030c04       ?type_case_o@?$output_processor@DV?$stream_output_adapter@D@__crt_stdio_output@@V?$standard_base@DV?$stream_output_adapter@D@__crt_stdio_output@@@2@@__crt_stdio_output@@AAE_NXZ 10031c04 f i libucrt:output.obj
 0001:00030c2a       ?type_case_o@?$output_processor@DV?$string_output_adapter@D@__crt_stdio_output@@V?$format_validation_base@DV?$string_output_adapter@D@__crt_stdio_output@@@2@@__crt_stdio_output@@AAE_NXZ 10031c2a f i libucrt:output.obj
 0001:00030c50       ?type_case_o@?$output_processor@DV?$string_output_adapter@D@__crt_stdio_output@@V?$positional_parameter_base@DV?$string_output_adapter@D@__crt_stdio_output@@@2@@__crt_stdio_output@@AAE_NXZ 10031c50 f i libucrt:output.obj
 0001:00030c76       ?type_case_o@?$output_processor@DV?$string_output_adapter@D@__crt_stdio_output@@V?$standard_base@DV?$string_output_adapter@D@__crt_stdio_output@@@2@@__crt_stdio_output@@AAE_NXZ 10031c76 f i libucrt:output.obj
 0001:00030c9c       ?type_case_o@?$output_processor@_WV?$stream_output_adapter@_W@__crt_stdio_output@@V?$format_validation_base@_WV?$stream_output_adapter@_W@__crt_stdio_output@@@2@@__crt_stdio_output@@AAE_NXZ 10031c9c f i libucrt:output.obj
 0001:00030cc2       ?type_case_o@?$output_processor@_WV?$stream_output_adapter@_W@__crt_stdio_output@@V?$positional_parameter_base@_WV?$stream_output_adapter@_W@__crt_stdio_output@@@2@@__crt_stdio_output@@AAE_NXZ 10031cc2 f i libucrt:output.obj
 0001:00030ce8       ?type_case_o@?$output_processor@_WV?$stream_output_adapter@_W@__crt_stdio_output@@V?$standard_base@_WV?$stream_output_adapter@_W@__crt_stdio_output@@@2@@__crt_stdio_output@@AAE_NXZ 10031ce8 f i libucrt:output.obj
 0001:00030d0e       ?type_case_o@?$output_processor@_WV?$string_output_adapter@_W@__crt_stdio_output@@V?$format_validation_base@_WV?$string_output_adapter@_W@__crt_stdio_output@@@2@@__crt_stdio_output@@AAE_NXZ 10031d0e f i libucrt:output.obj
 0001:00030d34       ?type_case_o@?$output_processor@_WV?$string_output_adapter@_W@__crt_stdio_output@@V?$positional_parameter_base@_WV?$string_output_adapter@_W@__crt_stdio_output@@@2@@__crt_stdio_output@@AAE_NXZ 10031d34 f i libucrt:output.obj
 0001:00030d5a       ?type_case_o@?$output_processor@_WV?$string_output_adapter@_W@__crt_stdio_output@@V?$standard_base@_WV?$string_output_adapter@_W@__crt_stdio_output@@@2@@__crt_stdio_output@@AAE_NXZ 10031d5a f i libucrt:output.obj
 0001:00030d80       ?type_case_p@?$output_processor@DV?$stream_output_adapter@D@__crt_stdio_output@@V?$format_validation_base@DV?$stream_output_adapter@D@__crt_stdio_output@@@2@@__crt_stdio_output@@AAE_NXZ 10031d80 f i libucrt:output.obj
 0001:00030d9e       ?type_case_p@?$output_processor@DV?$stream_output_adapter@D@__crt_stdio_output@@V?$positional_parameter_base@DV?$stream_output_adapter@D@__crt_stdio_output@@@2@@__crt_stdio_output@@AAE_NXZ 10031d9e f i libucrt:output.obj
 0001:00030dbc       ?type_case_p@?$output_processor@DV?$stream_output_adapter@D@__crt_stdio_output@@V?$standard_base@DV?$stream_output_adapter@D@__crt_stdio_output@@@2@@__crt_stdio_output@@AAE_NXZ 10031dbc f i libucrt:output.obj
 0001:00030dda       ?type_case_p@?$output_processor@DV?$string_output_adapter@D@__crt_stdio_output@@V?$format_validation_base@DV?$string_output_adapter@D@__crt_stdio_output@@@2@@__crt_stdio_output@@AAE_NXZ 10031dda f i libucrt:output.obj
 0001:00030df8       ?type_case_p@?$output_processor@DV?$string_output_adapter@D@__crt_stdio_output@@V?$positional_parameter_base@DV?$string_output_adapter@D@__crt_stdio_output@@@2@@__crt_stdio_output@@AAE_NXZ 10031df8 f i libucrt:output.obj
 0001:00030e16       ?type_case_p@?$output_processor@DV?$string_output_adapter@D@__crt_stdio_output@@V?$standard_base@DV?$string_output_adapter@D@__crt_stdio_output@@@2@@__crt_stdio_output@@AAE_NXZ 10031e16 f i libucrt:output.obj
 0001:00030e34       ?type_case_p@?$output_processor@_WV?$stream_output_adapter@_W@__crt_stdio_output@@V?$format_validation_base@_WV?$stream_output_adapter@_W@__crt_stdio_output@@@2@@__crt_stdio_output@@AAE_NXZ 10031e34 f i libucrt:output.obj
 0001:00030e52       ?type_case_p@?$output_processor@_WV?$stream_output_adapter@_W@__crt_stdio_output@@V?$positional_parameter_base@_WV?$stream_output_adapter@_W@__crt_stdio_output@@@2@@__crt_stdio_output@@AAE_NXZ 10031e52 f i libucrt:output.obj
 0001:00030e70       ?type_case_p@?$output_processor@_WV?$stream_output_adapter@_W@__crt_stdio_output@@V?$standard_base@_WV?$stream_output_adapter@_W@__crt_stdio_output@@@2@@__crt_stdio_output@@AAE_NXZ 10031e70 f i libucrt:output.obj
 0001:00030e8e       ?type_case_p@?$output_processor@_WV?$string_output_adapter@_W@__crt_stdio_output@@V?$format_validation_base@_WV?$string_output_adapter@_W@__crt_stdio_output@@@2@@__crt_stdio_output@@AAE_NXZ 10031e8e f i libucrt:output.obj
 0001:00030eac       ?type_case_p@?$output_processor@_WV?$string_output_adapter@_W@__crt_stdio_output@@V?$positional_parameter_base@_WV?$string_output_adapter@_W@__crt_stdio_output@@@2@@__crt_stdio_output@@AAE_NXZ 10031eac f i libucrt:output.obj
 0001:00030eca       ?type_case_p@?$output_processor@_WV?$string_output_adapter@_W@__crt_stdio_output@@V?$standard_base@_WV?$string_output_adapter@_W@__crt_stdio_output@@@2@@__crt_stdio_output@@AAE_NXZ 10031eca f i libucrt:output.obj
 0001:00030ee8       ?type_case_s@?$output_processor@DV?$stream_output_adapter@D@__crt_stdio_output@@V?$format_validation_base@DV?$stream_output_adapter@D@__crt_stdio_output@@@2@@__crt_stdio_output@@AAE_NXZ 10031ee8 f i libucrt:output.obj
 0001:00030f75       ?type_case_s@?$output_processor@DV?$stream_output_adapter@D@__crt_stdio_output@@V?$positional_parameter_base@DV?$stream_output_adapter@D@__crt_stdio_output@@@2@@__crt_stdio_output@@AAE_NXZ 10031f75 f i libucrt:output.obj
 0001:00031012       ?type_case_s@?$output_processor@DV?$stream_output_adapter@D@__crt_stdio_output@@V?$standard_base@DV?$stream_output_adapter@D@__crt_stdio_output@@@2@@__crt_stdio_output@@AAE_NXZ 10032012 f i libucrt:output.obj
 0001:0003109f       ?type_case_s@?$output_processor@DV?$string_output_adapter@D@__crt_stdio_output@@V?$format_validation_base@DV?$string_output_adapter@D@__crt_stdio_output@@@2@@__crt_stdio_output@@AAE_NXZ 1003209f f i libucrt:output.obj
 0001:0003112c       ?type_case_s@?$output_processor@DV?$string_output_adapter@D@__crt_stdio_output@@V?$positional_parameter_base@DV?$string_output_adapter@D@__crt_stdio_output@@@2@@__crt_stdio_output@@AAE_NXZ 1003212c f i libucrt:output.obj
 0001:000311c9       ?type_case_s@?$output_processor@DV?$string_output_adapter@D@__crt_stdio_output@@V?$standard_base@DV?$string_output_adapter@D@__crt_stdio_output@@@2@@__crt_stdio_output@@AAE_NXZ 100321c9 f i libucrt:output.obj
 0001:00031256       ?type_case_s@?$output_processor@_WV?$stream_output_adapter@_W@__crt_stdio_output@@V?$format_validation_base@_WV?$stream_output_adapter@_W@__crt_stdio_output@@@2@@__crt_stdio_output@@AAE_NXZ 10032256 f i libucrt:output.obj
 0001:000312e5       ?type_case_s@?$output_processor@_WV?$stream_output_adapter@_W@__crt_stdio_output@@V?$positional_parameter_base@_WV?$stream_output_adapter@_W@__crt_stdio_output@@@2@@__crt_stdio_output@@AAE_NXZ 100322e5 f i libucrt:output.obj
 0001:00031385       ?type_case_s@?$output_processor@_WV?$stream_output_adapter@_W@__crt_stdio_output@@V?$standard_base@_WV?$stream_output_adapter@_W@__crt_stdio_output@@@2@@__crt_stdio_output@@AAE_NXZ 10032385 f i libucrt:output.obj
 0001:00031414       ?type_case_s@?$output_processor@_WV?$string_output_adapter@_W@__crt_stdio_output@@V?$format_validation_base@_WV?$string_output_adapter@_W@__crt_stdio_output@@@2@@__crt_stdio_output@@AAE_NXZ 10032414 f i libucrt:output.obj
 0001:000314a3       ?type_case_s@?$output_processor@_WV?$string_output_adapter@_W@__crt_stdio_output@@V?$positional_parameter_base@_WV?$string_output_adapter@_W@__crt_stdio_output@@@2@@__crt_stdio_output@@AAE_NXZ 100324a3 f i libucrt:output.obj
 0001:00031543       ?type_case_s@?$output_processor@_WV?$string_output_adapter@_W@__crt_stdio_output@@V?$standard_base@_WV?$string_output_adapter@_W@__crt_stdio_output@@@2@@__crt_stdio_output@@AAE_NXZ 10032543 f i libucrt:output.obj
 0001:000315d2       ?type_case_s_compute_narrow_string_length@?$output_processor@DV?$stream_output_adapter@D@__crt_stdio_output@@V?$format_validation_base@DV?$stream_output_adapter@D@__crt_stdio_output@@@2@@__crt_stdio_output@@ABEHHD@Z 100325d2 f i libucrt:output.obj
 0001:000315ed       ?type_case_s_compute_narrow_string_length@?$output_processor@DV?$stream_output_adapter@D@__crt_stdio_output@@V?$positional_parameter_base@DV?$stream_output_adapter@D@__crt_stdio_output@@@2@@__crt_stdio_output@@ABEHHD@Z 100325ed f i libucrt:output.obj
 0001:00031608       ?type_case_s_compute_narrow_string_length@?$output_processor@DV?$stream_output_adapter@D@__crt_stdio_output@@V?$standard_base@DV?$stream_output_adapter@D@__crt_stdio_output@@@2@@__crt_stdio_output@@ABEHHD@Z 10032608 f i libucrt:output.obj
 0001:00031623       ?type_case_s_compute_narrow_string_length@?$output_processor@DV?$string_output_adapter@D@__crt_stdio_output@@V?$format_validation_base@DV?$string_output_adapter@D@__crt_stdio_output@@@2@@__crt_stdio_output@@ABEHHD@Z 10032623 f i libucrt:output.obj
 0001:0003163e       ?type_case_s_compute_narrow_string_length@?$output_processor@DV?$string_output_adapter@D@__crt_stdio_output@@V?$positional_parameter_base@DV?$string_output_adapter@D@__crt_stdio_output@@@2@@__crt_stdio_output@@ABEHHD@Z 1003263e f i libucrt:output.obj
 0001:00031659       ?type_case_s_compute_narrow_string_length@?$output_processor@DV?$string_output_adapter@D@__crt_stdio_output@@V?$standard_base@DV?$string_output_adapter@D@__crt_stdio_output@@@2@@__crt_stdio_output@@ABEHHD@Z 10032659 f i libucrt:output.obj
 0001:00031674       ?type_case_s_compute_narrow_string_length@?$output_processor@_WV?$stream_output_adapter@_W@__crt_stdio_output@@V?$format_validation_base@_WV?$stream_output_adapter@_W@__crt_stdio_output@@@2@@__crt_stdio_output@@ABEHH_W@Z 10032674 f i libucrt:output.obj
 0001:000316c0       ?type_case_s_compute_narrow_string_length@?$output_processor@_WV?$stream_output_adapter@_W@__crt_stdio_output@@V?$positional_parameter_base@_WV?$stream_output_adapter@_W@__crt_stdio_output@@@2@@__crt_stdio_output@@ABEHH_W@Z 100326c0 f i libucrt:output.obj
 0001:0003170c       ?type_case_s_compute_narrow_string_length@?$output_processor@_WV?$stream_output_adapter@_W@__crt_stdio_output@@V?$standard_base@_WV?$stream_output_adapter@_W@__crt_stdio_output@@@2@@__crt_stdio_output@@ABEHH_W@Z 1003270c f i libucrt:output.obj
 0001:00031758       ?type_case_s_compute_narrow_string_length@?$output_processor@_WV?$string_output_adapter@_W@__crt_stdio_output@@V?$format_validation_base@_WV?$string_output_adapter@_W@__crt_stdio_output@@@2@@__crt_stdio_output@@ABEHH_W@Z 10032758 f i libucrt:output.obj
 0001:000317a4       ?type_case_s_compute_narrow_string_length@?$output_processor@_WV?$string_output_adapter@_W@__crt_stdio_output@@V?$positional_parameter_base@_WV?$string_output_adapter@_W@__crt_stdio_output@@@2@@__crt_stdio_output@@ABEHH_W@Z 100327a4 f i libucrt:output.obj
 0001:000317f0       ?type_case_s_compute_narrow_string_length@?$output_processor@_WV?$string_output_adapter@_W@__crt_stdio_output@@V?$standard_base@_WV?$string_output_adapter@_W@__crt_stdio_output@@@2@@__crt_stdio_output@@ABEHH_W@Z 100327f0 f i libucrt:output.obj
 0001:0003183c       ?type_case_u@?$output_processor@DV?$stream_output_adapter@D@__crt_stdio_output@@V?$format_validation_base@DV?$stream_output_adapter@D@__crt_stdio_output@@@2@@__crt_stdio_output@@AAE_NXZ 1003283c f i libucrt:output.obj
 0001:00031848       ?type_case_u@?$output_processor@DV?$stream_output_adapter@D@__crt_stdio_output@@V?$positional_parameter_base@DV?$stream_output_adapter@D@__crt_stdio_output@@@2@@__crt_stdio_output@@AAE_NXZ 10032848 f i libucrt:output.obj
 0001:00031854       ?type_case_u@?$output_processor@DV?$stream_output_adapter@D@__crt_stdio_output@@V?$standard_base@DV?$stream_output_adapter@D@__crt_stdio_output@@@2@@__crt_stdio_output@@AAE_NXZ 10032854 f i libucrt:output.obj
 0001:00031860       ?type_case_u@?$output_processor@DV?$string_output_adapter@D@__crt_stdio_output@@V?$format_validation_base@DV?$string_output_adapter@D@__crt_stdio_output@@@2@@__crt_stdio_output@@AAE_NXZ 10032860 f i libucrt:output.obj
 0001:0003186c       ?type_case_u@?$output_processor@DV?$string_output_adapter@D@__crt_stdio_output@@V?$positional_parameter_base@DV?$string_output_adapter@D@__crt_stdio_output@@@2@@__crt_stdio_output@@AAE_NXZ 1003286c f i libucrt:output.obj
 0001:00031878       ?type_case_u@?$output_processor@DV?$string_output_adapter@D@__crt_stdio_output@@V?$standard_base@DV?$string_output_adapter@D@__crt_stdio_output@@@2@@__crt_stdio_output@@AAE_NXZ 10032878 f i libucrt:output.obj
 0001:00031884       ?type_case_u@?$output_processor@_WV?$stream_output_adapter@_W@__crt_stdio_output@@V?$format_validation_base@_WV?$stream_output_adapter@_W@__crt_stdio_output@@@2@@__crt_stdio_output@@AAE_NXZ 10032884 f i libucrt:output.obj
 0001:00031890       ?type_case_u@?$output_processor@_WV?$stream_output_adapter@_W@__crt_stdio_output@@V?$positional_parameter_base@_WV?$stream_output_adapter@_W@__crt_stdio_output@@@2@@__crt_stdio_output@@AAE_NXZ 10032890 f i libucrt:output.obj
 0001:0003189c       ?type_case_u@?$output_processor@_WV?$stream_output_adapter@_W@__crt_stdio_output@@V?$standard_base@_WV?$stream_output_adapter@_W@__crt_stdio_output@@@2@@__crt_stdio_output@@AAE_NXZ 1003289c f i libucrt:output.obj
 0001:000318a8       ?type_case_u@?$output_processor@_WV?$string_output_adapter@_W@__crt_stdio_output@@V?$format_validation_base@_WV?$string_output_adapter@_W@__crt_stdio_output@@@2@@__crt_stdio_output@@AAE_NXZ 100328a8 f i libucrt:output.obj
 0001:000318b4       ?type_case_u@?$output_processor@_WV?$string_output_adapter@_W@__crt_stdio_output@@V?$positional_parameter_base@_WV?$string_output_adapter@_W@__crt_stdio_output@@@2@@__crt_stdio_output@@AAE_NXZ 100328b4 f i libucrt:output.obj
 0001:000318c0       ?type_case_u@?$output_processor@_WV?$string_output_adapter@_W@__crt_stdio_output@@V?$standard_base@_WV?$string_output_adapter@_W@__crt_stdio_output@@@2@@__crt_stdio_output@@AAE_NXZ 100328c0 f i libucrt:output.obj
 0001:000318cc       ?type_case_x@?$output_processor@DV?$stream_output_adapter@D@__crt_stdio_output@@V?$format_validation_base@DV?$stream_output_adapter@D@__crt_stdio_output@@@2@@__crt_stdio_output@@AAE_NXZ 100328cc f i libucrt:output.obj
 0001:000318d8       ?type_case_x@?$output_processor@DV?$stream_output_adapter@D@__crt_stdio_output@@V?$positional_parameter_base@DV?$stream_output_adapter@D@__crt_stdio_output@@@2@@__crt_stdio_output@@AAE_NXZ 100328d8 f i libucrt:output.obj
 0001:000318e4       ?type_case_x@?$output_processor@DV?$stream_output_adapter@D@__crt_stdio_output@@V?$standard_base@DV?$stream_output_adapter@D@__crt_stdio_output@@@2@@__crt_stdio_output@@AAE_NXZ 100328e4 f i libucrt:output.obj
 0001:000318f0       ?type_case_x@?$output_processor@DV?$string_output_adapter@D@__crt_stdio_output@@V?$format_validation_base@DV?$string_output_adapter@D@__crt_stdio_output@@@2@@__crt_stdio_output@@AAE_NXZ 100328f0 f i libucrt:output.obj
 0001:000318fc       ?type_case_x@?$output_processor@DV?$string_output_adapter@D@__crt_stdio_output@@V?$positional_parameter_base@DV?$string_output_adapter@D@__crt_stdio_output@@@2@@__crt_stdio_output@@AAE_NXZ 100328fc f i libucrt:output.obj
 0001:00031908       ?type_case_x@?$output_processor@DV?$string_output_adapter@D@__crt_stdio_output@@V?$standard_base@DV?$string_output_adapter@D@__crt_stdio_output@@@2@@__crt_stdio_output@@AAE_NXZ 10032908 f i libucrt:output.obj
 0001:00031914       ?type_case_x@?$output_processor@_WV?$stream_output_adapter@_W@__crt_stdio_output@@V?$format_validation_base@_WV?$stream_output_adapter@_W@__crt_stdio_output@@@2@@__crt_stdio_output@@AAE_NXZ 10032914 f i libucrt:output.obj
 0001:00031920       ?type_case_x@?$output_processor@_WV?$stream_output_adapter@_W@__crt_stdio_output@@V?$positional_parameter_base@_WV?$stream_output_adapter@_W@__crt_stdio_output@@@2@@__crt_stdio_output@@AAE_NXZ 10032920 f i libucrt:output.obj
 0001:0003192c       ?type_case_x@?$output_processor@_WV?$stream_output_adapter@_W@__crt_stdio_output@@V?$standard_base@_WV?$stream_output_adapter@_W@__crt_stdio_output@@@2@@__crt_stdio_output@@AAE_NXZ 1003292c f i libucrt:output.obj
 0001:00031938       ?type_case_x@?$output_processor@_WV?$string_output_adapter@_W@__crt_stdio_output@@V?$format_validation_base@_WV?$string_output_adapter@_W@__crt_stdio_output@@@2@@__crt_stdio_output@@AAE_NXZ 10032938 f i libucrt:output.obj
 0001:00031944       ?type_case_x@?$output_processor@_WV?$string_output_adapter@_W@__crt_stdio_output@@V?$positional_parameter_base@_WV?$string_output_adapter@_W@__crt_stdio_output@@@2@@__crt_stdio_output@@AAE_NXZ 10032944 f i libucrt:output.obj
 0001:00031950       ?type_case_x@?$output_processor@_WV?$string_output_adapter@_W@__crt_stdio_output@@V?$standard_base@_WV?$string_output_adapter@_W@__crt_stdio_output@@@2@@__crt_stdio_output@@AAE_NXZ 10032950 f i libucrt:output.obj
 0001:0003195c       ?unset_flag@?$output_processor@DV?$stream_output_adapter@D@__crt_stdio_output@@V?$format_validation_base@DV?$stream_output_adapter@D@__crt_stdio_output@@@2@@__crt_stdio_output@@AAEXI@Z 1003295c f i libucrt:output.obj
 0001:00031971       ?unset_flag@?$output_processor@DV?$stream_output_adapter@D@__crt_stdio_output@@V?$positional_parameter_base@DV?$stream_output_adapter@D@__crt_stdio_output@@@2@@__crt_stdio_output@@AAEXI@Z 10032971 f i libucrt:output.obj
 0001:00031986       ?unset_flag@?$output_processor@DV?$stream_output_adapter@D@__crt_stdio_output@@V?$standard_base@DV?$stream_output_adapter@D@__crt_stdio_output@@@2@@__crt_stdio_output@@AAEXI@Z 10032986 f i libucrt:output.obj
 0001:0003199b       ?unset_flag@?$output_processor@DV?$string_output_adapter@D@__crt_stdio_output@@V?$format_validation_base@DV?$string_output_adapter@D@__crt_stdio_output@@@2@@__crt_stdio_output@@AAEXI@Z 1003299b f i libucrt:output.obj
 0001:000319b0       ?unset_flag@?$output_processor@DV?$string_output_adapter@D@__crt_stdio_output@@V?$positional_parameter_base@DV?$string_output_adapter@D@__crt_stdio_output@@@2@@__crt_stdio_output@@AAEXI@Z 100329b0 f i libucrt:output.obj
 0001:000319c5       ?unset_flag@?$output_processor@DV?$string_output_adapter@D@__crt_stdio_output@@V?$standard_base@DV?$string_output_adapter@D@__crt_stdio_output@@@2@@__crt_stdio_output@@AAEXI@Z 100329c5 f i libucrt:output.obj
 0001:000319da       ?unset_flag@?$output_processor@_WV?$stream_output_adapter@_W@__crt_stdio_output@@V?$format_validation_base@_WV?$stream_output_adapter@_W@__crt_stdio_output@@@2@@__crt_stdio_output@@AAEXI@Z 100329da f i libucrt:output.obj
 0001:000319ef       ?unset_flag@?$output_processor@_WV?$stream_output_adapter@_W@__crt_stdio_output@@V?$positional_parameter_base@_WV?$stream_output_adapter@_W@__crt_stdio_output@@@2@@__crt_stdio_output@@AAEXI@Z 100329ef f i libucrt:output.obj
 0001:00031a04       ?unset_flag@?$output_processor@_WV?$stream_output_adapter@_W@__crt_stdio_output@@V?$standard_base@_WV?$stream_output_adapter@_W@__crt_stdio_output@@@2@@__crt_stdio_output@@AAEXI@Z 10032a04 f i libucrt:output.obj
 0001:00031a19       ?unset_flag@?$output_processor@_WV?$string_output_adapter@_W@__crt_stdio_output@@V?$format_validation_base@_WV?$string_output_adapter@_W@__crt_stdio_output@@@2@@__crt_stdio_output@@AAEXI@Z 10032a19 f i libucrt:output.obj
 0001:00031a2e       ?unset_flag@?$output_processor@_WV?$string_output_adapter@_W@__crt_stdio_output@@V?$positional_parameter_base@_WV?$string_output_adapter@_W@__crt_stdio_output@@@2@@__crt_stdio_output@@AAEXI@Z 10032a2e f i libucrt:output.obj
 0001:00031a43       ?unset_flag@?$output_processor@_WV?$string_output_adapter@_W@__crt_stdio_output@@V?$standard_base@_WV?$string_output_adapter@_W@__crt_stdio_output@@@2@@__crt_stdio_output@@AAEXI@Z 10032a43 f i libucrt:output.obj
 0001:00031a58       ?update_field_width@?$positional_parameter_base@DV?$stream_output_adapter@D@__crt_stdio_output@@@__crt_stdio_output@@IAE_NXZ 10032a58 f i libucrt:output.obj
 0001:00031b3b       ?update_field_width@?$positional_parameter_base@DV?$string_output_adapter@D@__crt_stdio_output@@@__crt_stdio_output@@IAE_NXZ 10032b3b f i libucrt:output.obj
 0001:00031c1e       ?update_field_width@?$positional_parameter_base@_WV?$stream_output_adapter@_W@__crt_stdio_output@@@__crt_stdio_output@@IAE_NXZ 10032c1e f i libucrt:output.obj
 0001:00031d02       ?update_field_width@?$positional_parameter_base@_WV?$string_output_adapter@_W@__crt_stdio_output@@@__crt_stdio_output@@IAE_NXZ 10032d02 f i libucrt:output.obj
 0001:00031de6       ?update_field_width@?$standard_base@DV?$stream_output_adapter@D@__crt_stdio_output@@@__crt_stdio_output@@IAE_NXZ 10032de6 f i libucrt:output.obj
 0001:00031dfa       ?update_field_width@?$standard_base@DV?$string_output_adapter@D@__crt_stdio_output@@@__crt_stdio_output@@IAE_NXZ 10032dfa f i libucrt:output.obj
 0001:00031e0e       ?update_field_width@?$standard_base@_WV?$stream_output_adapter@_W@__crt_stdio_output@@@__crt_stdio_output@@IAE_NXZ 10032e0e f i libucrt:output.obj
 0001:00031e22       ?update_field_width@?$standard_base@_WV?$string_output_adapter@_W@__crt_stdio_output@@@__crt_stdio_output@@IAE_NXZ 10032e22 f i libucrt:output.obj
 0001:00031e36       ?update_precision@?$positional_parameter_base@DV?$stream_output_adapter@D@__crt_stdio_output@@@__crt_stdio_output@@IAE_NXZ 10032e36 f i libucrt:output.obj
 0001:00031f19       ?update_precision@?$positional_parameter_base@DV?$string_output_adapter@D@__crt_stdio_output@@@__crt_stdio_output@@IAE_NXZ 10032f19 f i libucrt:output.obj
 0001:00031ffc       ?update_precision@?$positional_parameter_base@_WV?$stream_output_adapter@_W@__crt_stdio_output@@@__crt_stdio_output@@IAE_NXZ 10032ffc f i libucrt:output.obj
 0001:000320e0       ?update_precision@?$positional_parameter_base@_WV?$string_output_adapter@_W@__crt_stdio_output@@@__crt_stdio_output@@IAE_NXZ 100330e0 f i libucrt:output.obj
 0001:000321c4       ?update_precision@?$standard_base@DV?$stream_output_adapter@D@__crt_stdio_output@@@__crt_stdio_output@@IAE_NXZ 100331c4 f i libucrt:output.obj
 0001:000321d8       ?update_precision@?$standard_base@DV?$string_output_adapter@D@__crt_stdio_output@@@__crt_stdio_output@@IAE_NXZ 100331d8 f i libucrt:output.obj
 0001:000321ec       ?update_precision@?$standard_base@_WV?$stream_output_adapter@_W@__crt_stdio_output@@@__crt_stdio_output@@IAE_NXZ 100331ec f i libucrt:output.obj
 0001:00032200       ?update_precision@?$standard_base@_WV?$string_output_adapter@_W@__crt_stdio_output@@@__crt_stdio_output@@IAE_NXZ 10033200 f i libucrt:output.obj
 0001:00032214       ?valid@__crt_stdio_stream@@QBE_NXZ 10033214 f i libucrt:output.obj
 0001:0003221b       ?validate@?$stream_output_adapter@D@__crt_stdio_output@@QBE_NXZ 1003321b f i libucrt:output.obj
 0001:00032244       ?validate@?$stream_output_adapter@_W@__crt_stdio_output@@QBE_NXZ 10033244 f i libucrt:output.obj
 0001:00032265       ?validate@?$string_output_adapter@D@__crt_stdio_output@@QBE_NXZ 10033265 f i libucrt:output.obj
 0001:00032286       ?validate@?$string_output_adapter@_W@__crt_stdio_output@@QBE_NXZ 10033286 f i libucrt:output.obj
 0001:000322a7       ?validate_and_store_parameter_data@?$positional_parameter_base@DV?$stream_output_adapter@D@__crt_stdio_output@@@__crt_stdio_output@@AAE_NAAUparameter_data@12@W4parameter_type@12@DW4length_modifier@2@@Z 100332a7 f i libucrt:output.obj
 0001:00032304       ?validate_and_store_parameter_data@?$positional_parameter_base@DV?$string_output_adapter@D@__crt_stdio_output@@@__crt_stdio_output@@AAE_NAAUparameter_data@12@W4parameter_type@12@DW4length_modifier@2@@Z 10033304 f i libucrt:output.obj
 0001:00032361       ?validate_and_store_parameter_data@?$positional_parameter_base@_WV?$stream_output_adapter@_W@__crt_stdio_output@@@__crt_stdio_output@@AAE_NAAUparameter_data@12@W4parameter_type@12@_WW4length_modifier@2@@Z 10033361 f i libucrt:output.obj
 0001:000323c1       ?validate_and_store_parameter_data@?$positional_parameter_base@_WV?$string_output_adapter@_W@__crt_stdio_output@@@__crt_stdio_output@@AAE_NAAUparameter_data@12@W4parameter_type@12@_WW4length_modifier@2@@Z 100333c1 f i libucrt:output.obj
 0001:00032421       ?validate_and_update_state_at_beginning_of_format_character@?$positional_parameter_base@DV?$stream_output_adapter@D@__crt_stdio_output@@@__crt_stdio_output@@IAE_NXZ 10033421 f i libucrt:output.obj
 0001:00032559       ?validate_and_update_state_at_beginning_of_format_character@?$positional_parameter_base@DV?$string_output_adapter@D@__crt_stdio_output@@@__crt_stdio_output@@IAE_NXZ 10033559 f i libucrt:output.obj
 0001:00032691       ?validate_and_update_state_at_beginning_of_format_character@?$positional_parameter_base@_WV?$stream_output_adapter@_W@__crt_stdio_output@@@__crt_stdio_output@@IAE_NXZ 10033691 f i libucrt:output.obj
 0001:000327d4       ?validate_and_update_state_at_beginning_of_format_character@?$positional_parameter_base@_WV?$string_output_adapter@_W@__crt_stdio_output@@@__crt_stdio_output@@IAE_NXZ 100337d4 f i libucrt:output.obj
 0001:00032917       ?validate_and_update_state_at_beginning_of_format_character@?$standard_base@DV?$stream_output_adapter@D@__crt_stdio_output@@@__crt_stdio_output@@IAE_NXZ 10033917 f i libucrt:output.obj
 0001:0003291a       ?validate_and_update_state_at_beginning_of_format_character@?$standard_base@DV?$string_output_adapter@D@__crt_stdio_output@@@__crt_stdio_output@@IAE_NXZ 1003391a f i libucrt:output.obj
 0001:0003291d       ?validate_and_update_state_at_beginning_of_format_character@?$standard_base@_WV?$stream_output_adapter@_W@__crt_stdio_output@@@__crt_stdio_output@@IAE_NXZ 1003391d f i libucrt:output.obj
 0001:00032920       ?validate_and_update_state_at_beginning_of_format_character@?$standard_base@_WV?$string_output_adapter@_W@__crt_stdio_output@@@__crt_stdio_output@@IAE_NXZ 10033920 f i libucrt:output.obj
 0001:00032923       ?validate_and_update_state_at_end_of_format_string@?$format_validation_base@DV?$stream_output_adapter@D@__crt_stdio_output@@@__crt_stdio_output@@IBE_NXZ 10033923 f i libucrt:output.obj
 0001:0003294d       ?validate_and_update_state_at_end_of_format_string@?$format_validation_base@DV?$string_output_adapter@D@__crt_stdio_output@@@__crt_stdio_output@@IBE_NXZ 1003394d f i libucrt:output.obj
 0001:00032977       ?validate_and_update_state_at_end_of_format_string@?$format_validation_base@_WV?$stream_output_adapter@_W@__crt_stdio_output@@@__crt_stdio_output@@IBE_NXZ 10033977 f i libucrt:output.obj
 0001:000329a1       ?validate_and_update_state_at_end_of_format_string@?$format_validation_base@_WV?$string_output_adapter@_W@__crt_stdio_output@@@__crt_stdio_output@@IBE_NXZ 100339a1 f i libucrt:output.obj
 0001:000329cb       ?validate_and_update_state_at_end_of_format_string@?$positional_parameter_base@DV?$stream_output_adapter@D@__crt_stdio_output@@@__crt_stdio_output@@IAE_NXZ 100339cb f i libucrt:output.obj
 0001:00032a71       ?validate_and_update_state_at_end_of_format_string@?$positional_parameter_base@DV?$string_output_adapter@D@__crt_stdio_output@@@__crt_stdio_output@@IAE_NXZ 10033a71 f i libucrt:output.obj
 0001:00032b17       ?validate_and_update_state_at_end_of_format_string@?$positional_parameter_base@_WV?$stream_output_adapter@_W@__crt_stdio_output@@@__crt_stdio_output@@IAE_NXZ 10033b17 f i libucrt:output.obj
 0001:00032bbd       ?validate_and_update_state_at_end_of_format_string@?$positional_parameter_base@_WV?$string_output_adapter@_W@__crt_stdio_output@@@__crt_stdio_output@@IAE_NXZ 10033bbd f i libucrt:output.obj
 0001:00032c63       ?validate_and_update_state_at_end_of_format_string@?$standard_base@DV?$stream_output_adapter@D@__crt_stdio_output@@@__crt_stdio_output@@IBE_NXZ 10033c63 f i libucrt:output.obj
 0001:00032c66       ?validate_and_update_state_at_end_of_format_string@?$standard_base@DV?$string_output_adapter@D@__crt_stdio_output@@@__crt_stdio_output@@IBE_NXZ 10033c66 f i libucrt:output.obj
 0001:00032c69       ?validate_and_update_state_at_end_of_format_string@?$standard_base@_WV?$stream_output_adapter@_W@__crt_stdio_output@@@__crt_stdio_output@@IBE_NXZ 10033c69 f i libucrt:output.obj
 0001:00032c6c       ?validate_and_update_state_at_end_of_format_string@?$standard_base@_WV?$string_output_adapter@_W@__crt_stdio_output@@@__crt_stdio_output@@IBE_NXZ 10033c6c f i libucrt:output.obj
 0001:00032c6f       ?validate_state_for_type_case_a@?$positional_parameter_base@DV?$stream_output_adapter@D@__crt_stdio_output@@@__crt_stdio_output@@IAE_NXZ 10033c6f f i libucrt:output.obj
 0001:00032cd1       ?validate_state_for_type_case_a@?$positional_parameter_base@DV?$string_output_adapter@D@__crt_stdio_output@@@__crt_stdio_output@@IAE_NXZ 10033cd1 f i libucrt:output.obj
 0001:00032d33       ?validate_state_for_type_case_a@?$positional_parameter_base@_WV?$stream_output_adapter@_W@__crt_stdio_output@@@__crt_stdio_output@@IAE_NXZ 10033d33 f i libucrt:output.obj
 0001:00032d95       ?validate_state_for_type_case_a@?$positional_parameter_base@_WV?$string_output_adapter@_W@__crt_stdio_output@@@__crt_stdio_output@@IAE_NXZ 10033d95 f i libucrt:output.obj
 0001:00032df7       ?validate_state_for_type_case_a@?$standard_base@DV?$stream_output_adapter@D@__crt_stdio_output@@@__crt_stdio_output@@IBE_NXZ 10033df7 f i libucrt:output.obj
 0001:00032dfa       ?validate_state_for_type_case_a@?$standard_base@DV?$string_output_adapter@D@__crt_stdio_output@@@__crt_stdio_output@@IBE_NXZ 10033dfa f i libucrt:output.obj
 0001:00032dfd       ?validate_state_for_type_case_a@?$standard_base@_WV?$stream_output_adapter@_W@__crt_stdio_output@@@__crt_stdio_output@@IBE_NXZ 10033dfd f i libucrt:output.obj
 0001:00032e00       ?validate_state_for_type_case_a@?$standard_base@_WV?$string_output_adapter@_W@__crt_stdio_output@@@__crt_stdio_output@@IBE_NXZ 10033e00 f i libucrt:output.obj
 0001:00032e03       ?validate_stream_is_ansi_if_required@?$__acrt_stdio_char_traits@D@@SA_NQAU_iobuf@@@Z 10033e03 f i libucrt:output.obj
 0001:00032eaa       ?validate_stream_is_ansi_if_required@?$__acrt_stdio_char_traits@_W@@SA_NQAU_iobuf@@@Z 10033eaa f i libucrt:output.obj
 0001:00032ead       ?wide_null_string@?$output_processor@DV?$stream_output_adapter@D@__crt_stdio_output@@V?$format_validation_base@DV?$stream_output_adapter@D@__crt_stdio_output@@@2@@__crt_stdio_output@@CAPA_WXZ 10033ead f i libucrt:output.obj
 0001:00032eb3       ?wide_null_string@?$output_processor@DV?$stream_output_adapter@D@__crt_stdio_output@@V?$positional_parameter_base@DV?$stream_output_adapter@D@__crt_stdio_output@@@2@@__crt_stdio_output@@CAPA_WXZ 10033eb3 f i libucrt:output.obj
 0001:00032eb9       ?wide_null_string@?$output_processor@DV?$stream_output_adapter@D@__crt_stdio_output@@V?$standard_base@DV?$stream_output_adapter@D@__crt_stdio_output@@@2@@__crt_stdio_output@@CAPA_WXZ 10033eb9 f i libucrt:output.obj
 0001:00032ebf       ?wide_null_string@?$output_processor@DV?$string_output_adapter@D@__crt_stdio_output@@V?$format_validation_base@DV?$string_output_adapter@D@__crt_stdio_output@@@2@@__crt_stdio_output@@CAPA_WXZ 10033ebf f i libucrt:output.obj
 0001:00032ec5       ?wide_null_string@?$output_processor@DV?$string_output_adapter@D@__crt_stdio_output@@V?$positional_parameter_base@DV?$string_output_adapter@D@__crt_stdio_output@@@2@@__crt_stdio_output@@CAPA_WXZ 10033ec5 f i libucrt:output.obj
 0001:00032ecb       ?wide_null_string@?$output_processor@DV?$string_output_adapter@D@__crt_stdio_output@@V?$standard_base@DV?$string_output_adapter@D@__crt_stdio_output@@@2@@__crt_stdio_output@@CAPA_WXZ 10033ecb f i libucrt:output.obj
 0001:00032ed1       ?wide_null_string@?$output_processor@_WV?$stream_output_adapter@_W@__crt_stdio_output@@V?$format_validation_base@_WV?$stream_output_adapter@_W@__crt_stdio_output@@@2@@__crt_stdio_output@@CAPA_WXZ 10033ed1 f i libucrt:output.obj
 0001:00032ed7       ?wide_null_string@?$output_processor@_WV?$stream_output_adapter@_W@__crt_stdio_output@@V?$positional_parameter_base@_WV?$stream_output_adapter@_W@__crt_stdio_output@@@2@@__crt_stdio_output@@CAPA_WXZ 10033ed7 f i libucrt:output.obj
 0001:00032edd       ?wide_null_string@?$output_processor@_WV?$stream_output_adapter@_W@__crt_stdio_output@@V?$standard_base@_WV?$stream_output_adapter@_W@__crt_stdio_output@@@2@@__crt_stdio_output@@CAPA_WXZ 10033edd f i libucrt:output.obj
 0001:00032ee3       ?wide_null_string@?$output_processor@_WV?$string_output_adapter@_W@__crt_stdio_output@@V?$format_validation_base@_WV?$string_output_adapter@_W@__crt_stdio_output@@@2@@__crt_stdio_output@@CAPA_WXZ 10033ee3 f i libucrt:output.obj
 0001:00032ee9       ?wide_null_string@?$output_processor@_WV?$string_output_adapter@_W@__crt_stdio_output@@V?$positional_parameter_base@_WV?$string_output_adapter@_W@__crt_stdio_output@@@2@@__crt_stdio_output@@CAPA_WXZ 10033ee9 f i libucrt:output.obj
 0001:00032eef       ?wide_null_string@?$output_processor@_WV?$string_output_adapter@_W@__crt_stdio_output@@V?$standard_base@_WV?$string_output_adapter@_W@__crt_stdio_output@@@2@@__crt_stdio_output@@CAPA_WXZ 10033eef f i libucrt:output.obj
 0001:00032ef5       ?write_character@?$output_adapter_common@DV?$stream_output_adapter@D@__crt_stdio_output@@@__crt_stdio_output@@QBEXDQAH@Z 10033ef5 f i libucrt:output.obj
 0001:00032f1b       ?write_character@?$output_adapter_common@_WV?$stream_output_adapter@_W@__crt_stdio_output@@@__crt_stdio_output@@QBEX_WQAH@Z 10033f1b f i libucrt:output.obj
 0001:00032f41       ?write_character@?$string_output_adapter@D@__crt_stdio_output@@QBE_NDQAH@Z 10033f41 f i libucrt:output.obj
 0001:00032f93       ?write_character@?$string_output_adapter@_W@__crt_stdio_output@@QBE_N_WQAH@Z 10033f93 f i libucrt:output.obj
 0001:00032fe9       ?write_character_without_count_update@?$stream_output_adapter@D@__crt_stdio_output@@QBE_ND@Z 10033fe9 f i libucrt:output.obj
 0001:0003302b       ?write_character_without_count_update@?$stream_output_adapter@_W@__crt_stdio_output@@QBE_N_W@Z 1003402b f i libucrt:output.obj
 0001:00033071       ?write_stored_string_tchar@?$output_processor@DV?$stream_output_adapter@D@__crt_stdio_output@@V?$format_validation_base@DV?$stream_output_adapter@D@__crt_stdio_output@@@2@@__crt_stdio_output@@AAE_ND@Z 10034071 f i libucrt:output.obj
 0001:00033144       ?write_stored_string_tchar@?$output_processor@DV?$stream_output_adapter@D@__crt_stdio_output@@V?$positional_parameter_base@DV?$stream_output_adapter@D@__crt_stdio_output@@@2@@__crt_stdio_output@@AAE_ND@Z 10034144 f i libucrt:output.obj
 0001:00033217       ?write_stored_string_tchar@?$output_processor@DV?$stream_output_adapter@D@__crt_stdio_output@@V?$standard_base@DV?$stream_output_adapter@D@__crt_stdio_output@@@2@@__crt_stdio_output@@AAE_ND@Z 10034217 f i libucrt:output.obj
 0001:000332ea       ?write_stored_string_tchar@?$output_processor@DV?$string_output_adapter@D@__crt_stdio_output@@V?$format_validation_base@DV?$string_output_adapter@D@__crt_stdio_output@@@2@@__crt_stdio_output@@AAE_ND@Z 100342ea f i libucrt:output.obj
 0001:000333bd       ?write_stored_string_tchar@?$output_processor@DV?$string_output_adapter@D@__crt_stdio_output@@V?$positional_parameter_base@DV?$string_output_adapter@D@__crt_stdio_output@@@2@@__crt_stdio_output@@AAE_ND@Z 100343bd f i libucrt:output.obj
 0001:00033490       ?write_stored_string_tchar@?$output_processor@DV?$string_output_adapter@D@__crt_stdio_output@@V?$standard_base@DV?$string_output_adapter@D@__crt_stdio_output@@@2@@__crt_stdio_output@@AAE_ND@Z 10034490 f i libucrt:output.obj
 0001:00033563       ?write_stored_string_tchar@?$output_processor@_WV?$stream_output_adapter@_W@__crt_stdio_output@@V?$format_validation_base@_WV?$stream_output_adapter@_W@__crt_stdio_output@@@2@@__crt_stdio_output@@AAE_N_W@Z 10034563 f i libucrt:output.obj
 0001:0003361d       ?write_stored_string_tchar@?$output_processor@_WV?$stream_output_adapter@_W@__crt_stdio_output@@V?$positional_parameter_base@_WV?$stream_output_adapter@_W@__crt_stdio_output@@@2@@__crt_stdio_output@@AAE_N_W@Z 1003461d f i libucrt:output.obj
 0001:000336d7       ?write_stored_string_tchar@?$output_processor@_WV?$stream_output_adapter@_W@__crt_stdio_output@@V?$standard_base@_WV?$stream_output_adapter@_W@__crt_stdio_output@@@2@@__crt_stdio_output@@AAE_N_W@Z 100346d7 f i libucrt:output.obj
 0001:00033791       ?write_stored_string_tchar@?$output_processor@_WV?$string_output_adapter@_W@__crt_stdio_output@@V?$format_validation_base@_WV?$string_output_adapter@_W@__crt_stdio_output@@@2@@__crt_stdio_output@@AAE_N_W@Z 10034791 f i libucrt:output.obj
 0001:0003384b       ?write_stored_string_tchar@?$output_processor@_WV?$string_output_adapter@_W@__crt_stdio_output@@V?$positional_parameter_base@_WV?$string_output_adapter@_W@__crt_stdio_output@@@2@@__crt_stdio_output@@AAE_N_W@Z 1003484b f i libucrt:output.obj
 0001:00033905       ?write_stored_string_tchar@?$output_processor@_WV?$string_output_adapter@_W@__crt_stdio_output@@V?$standard_base@_WV?$string_output_adapter@_W@__crt_stdio_output@@@2@@__crt_stdio_output@@AAE_N_W@Z 10034905 f i libucrt:output.obj
 0001:000339bf       ?write_string@?$stream_output_adapter@D@__crt_stdio_output@@QBEXQBDHQAHAAV__crt_deferred_errno_cache@@@Z 100349bf f i libucrt:output.obj
 0001:000339f4       ?write_string@?$stream_output_adapter@_W@__crt_stdio_output@@QBEXQB_WHQAHAAV__crt_deferred_errno_cache@@@Z 100349f4 f i libucrt:output.obj
 0001:00033a29       ?write_string@?$string_output_adapter@D@__crt_stdio_output@@QBEXQBDHQAHAAV__crt_deferred_errno_cache@@@Z 10034a29 f i libucrt:output.obj
 0001:00033aa9       ?write_string@?$string_output_adapter@_W@__crt_stdio_output@@QBEXQB_WHQAHAAV__crt_deferred_errno_cache@@@Z 10034aa9 f i libucrt:output.obj
 0001:00033b38       ?write_string_impl@?$output_adapter_common@DV?$stream_output_adapter@D@__crt_stdio_output@@@__crt_stdio_output@@IBEXQBDHQAHAAV__crt_deferred_errno_cache@@@Z 10034b38 f i libucrt:output.obj
 0001:00033c00       ?write_string_impl@?$output_adapter_common@_WV?$stream_output_adapter@_W@__crt_stdio_output@@@__crt_stdio_output@@IBEXQB_WHQAHAAV__crt_deferred_errno_cache@@@Z 10034c00 f i libucrt:output.obj
 0001:00033ccb       ___acrt_isleadbyte_l_noupdate 10034ccb f i libucrt:output.obj
 0001:00033cec       ___acrt_locale_changed     10034cec f i libucrt:output.obj
 0001:00033cf9       ___stdio_common_vfprintf   10034cf9 f   libucrt:output.obj
 0001:00033d9f       ___stdio_common_vfprintf_p 10034d9f f   libucrt:output.obj
 0001:00033e45       ___stdio_common_vfprintf_s 10034e45 f   libucrt:output.obj
 0001:00033eeb       ___stdio_common_vfwprintf  10034eeb f   libucrt:output.obj
 0001:00033f91       ___stdio_common_vfwprintf_p 10034f91 f   libucrt:output.obj
 0001:00034037       ___stdio_common_vfwprintf_s 10035037 f   libucrt:output.obj
 0001:000340dd       ___stdio_common_vsnprintf_s 100350dd f   libucrt:output.obj
 0001:0003410d       ___stdio_common_vsnwprintf_s 1003510d f   libucrt:output.obj
 0001:0003413d       ___stdio_common_vsprintf   1003513d f   libucrt:output.obj
 0001:0003416a       ___stdio_common_vsprintf_p 1003516a f   libucrt:output.obj
 0001:00034197       ___stdio_common_vsprintf_s 10035197 f   libucrt:output.obj
 0001:000341c4       ___stdio_common_vswprintf  100351c4 f   libucrt:output.obj
 0001:000341f1       ___stdio_common_vswprintf_p 100351f1 f   libucrt:output.obj
 0001:0003421e       ___stdio_common_vswprintf_s 1003521e f   libucrt:output.obj
 0001:0003424b       _calloc                    1003524b f   libucrt:calloc.obj
 0001:00034258       _free                      10035258 f   libucrt:free.obj
 0001:0003427c       ??$__vcrt_va_start_verify_argument_type@QB_W@@YAXXZ 1003527c f i libucrt:assert.obj
 0001:0003521e       ??$ftprintf@PAU_iobuf@@PBDABQBDABQBDABI@?$__crt_char_traits@D@@SAH$$QAPAU_iobuf@@$$QAPBDABQBD2ABI@Z 1003621e f i libucrt:assert.obj
 0001:00035250       ??$ftprintf@PAU_iobuf@@PB_WABQB_WABQB_WABI@?$__crt_char_traits@_W@@SAH$$QAPAU_iobuf@@$$QAPB_WABQB_W2ABI@Z 10036250 f i libucrt:assert.obj
 0001:00035282       ??$get_module_file_name@AAPAUHINSTANCE__@@AAY0BAF@DK@?$__crt_char_traits@D@@SAKAAPAUHINSTANCE__@@AAY0BAF@D$$QAK@Z 10036282 f i libucrt:assert.obj
 0001:000352a5       ??$get_module_file_name@AAPAUHINSTANCE__@@AAY0BAF@_WK@?$__crt_char_traits@_W@@SAKAAPAUHINSTANCE__@@AAY0BAF@_W$$QAK@Z 100362a5 f i libucrt:assert.obj
 0001:000352c5       ??$itot_s@ABIPADIH@?$__crt_char_traits@D@@SAHABI$$QAPAD$$QAI$$QAH@Z 100362c5 f i libucrt:assert.obj
 0001:000352f0       ??$itot_s@ABIPA_WIH@?$__crt_char_traits@_W@@SAHABI$$QAPA_W$$QAI$$QAH@Z 100362f0 f i libucrt:assert.obj
 0001:0003531b       ??$show_message_box@AAY0CEA@DPBDJ@?$__crt_char_traits@D@@SAHAAY0CEA@D$$QAPBD$$QAJ@Z 1003631b f i libucrt:assert.obj
 0001:0003533e       ??$show_message_box@AAY0CEA@_WPB_WJ@?$__crt_char_traits@_W@@SAHAAY0CEA@_W$$QAPB_W$$QAJ@Z 1003633e f i libucrt:assert.obj
 0001:00035361       ??$tcscat_s@ABQADABIAAPAD@?$__crt_char_traits@D@@SAHABQADABIAAPAD@Z 10036361 f i libucrt:assert.obj
 0001:00035386       ??$tcscat_s@ABQADABIABQBD@?$__crt_char_traits@D@@SAHABQADABIABQBD@Z 10036386 f i libucrt:assert.obj
 0001:000353ab       ??$tcscat_s@ABQADABIPBD@?$__crt_char_traits@D@@SAHABQADABI$$QAPBD@Z 100363ab f i libucrt:assert.obj
 0001:000353d0       ??$tcscat_s@ABQA_WABIAAPA_W@?$__crt_char_traits@_W@@SAHABQA_WABIAAPA_W@Z 100363d0 f i libucrt:assert.obj
 0001:000353f5       ??$tcscat_s@ABQA_WABIABQB_W@?$__crt_char_traits@_W@@SAHABQA_WABIABQB_W@Z 100363f5 f i libucrt:assert.obj
 0001:0003541a       ??$tcscat_s@ABQA_WABIPB_W@?$__crt_char_traits@_W@@SAHABQA_WABI$$QAPB_W@Z 1003641a f i libucrt:assert.obj
 0001:0003543f       ??$tcscpy_s@AAY0BAF@DIPBD@?$__crt_char_traits@D@@SAHAAY0BAF@D$$QAI$$QAPBD@Z 1003643f f i libucrt:assert.obj
 0001:00035462       ??$tcscpy_s@AAY0BAF@_WIPB_W@?$__crt_char_traits@_W@@SAHAAY0BAF@_W$$QAI$$QAPB_W@Z 10036462 f i libucrt:assert.obj
 0001:00035485       ??$tcscpy_s@ABQADABIPBD@?$__crt_char_traits@D@@SAHABQADABI$$QAPBD@Z 10036485 f i libucrt:assert.obj
 0001:000354aa       ??$tcscpy_s@ABQA_WABIPB_W@?$__crt_char_traits@_W@@SAHABQA_WABI$$QAPB_W@Z 100364aa f i libucrt:assert.obj
 0001:000354cf       ??$tcslen@AAY0BAF@D@?$__crt_char_traits@D@@SAIAAY0BAF@D@Z 100364cf f i libucrt:assert.obj
 0001:000354ea       ??$tcslen@AAY0BAF@_W@?$__crt_char_traits@_W@@SAIAAY0BAF@_W@Z 100364ea f i libucrt:assert.obj
 0001:0003550d       ??$tcslen@ABQAD@?$__crt_char_traits@D@@SAIABQAD@Z 1003650d f i libucrt:assert.obj
 0001:0003552b       ??$tcslen@ABQA_W@?$__crt_char_traits@_W@@SAIABQA_W@Z 1003652b f i libucrt:assert.obj
 0001:00035550       ??$tcslen@ABQBD@?$__crt_char_traits@D@@SAIABQBD@Z 10036550 f i libucrt:assert.obj
 0001:0003556e       ??$tcslen@ABQB_W@?$__crt_char_traits@_W@@SAIABQB_W@Z 1003656e f i libucrt:assert.obj
 0001:00035593       ??$tcsncat_s@ABQADABIAAPBDI@?$__crt_char_traits@D@@SAHABQADABIAAPBD$$QAI@Z 10036593 f i libucrt:assert.obj
 0001:000355be       ??$tcsncat_s@ABQADABIABQBDABI@?$__crt_char_traits@D@@SAHABQADABIABQBD1@Z 100365be f i libucrt:assert.obj
 0001:000355e9       ??$tcsncat_s@ABQADABIPBDI@?$__crt_char_traits@D@@SAHABQADABI$$QAPBD$$QAI@Z 100365e9 f i libucrt:assert.obj
 0001:00035614       ??$tcsncat_s@ABQA_WABIAAPB_WI@?$__crt_char_traits@_W@@SAHABQA_WABIAAPB_W$$QAI@Z 10036614 f i libucrt:assert.obj
 0001:0003563f       ??$tcsncat_s@ABQA_WABIABQB_WABI@?$__crt_char_traits@_W@@SAHABQA_WABIABQB_W1@Z 1003663f f i libucrt:assert.obj
 0001:0003566a       ??$tcsncat_s@ABQA_WABIPB_WI@?$__crt_char_traits@_W@@SAHABQA_WABI$$QAPB_W$$QAI@Z 1003666a f i libucrt:assert.obj
 0001:0003580f       ?has_any_buffer@__crt_stdio_stream@@QBE_NXZ 1003680f f i libucrt:assert.obj
 0001:00035820       ?has_any_of@__crt_stdio_stream@@QBE_NJ@Z 10036820 f i libucrt:assert.obj
 0001:00035839       __assert                   10036839 f   libucrt:assert.obj
 0001:00035893       __invoke_watson_if_error   10036893 f i libucrt:assert.obj
 0001:000358bd       __vfwprintf_l              100368bd f i libucrt:assert.obj
 0001:000358eb       __vswprintf_c_l            100368eb f i libucrt:assert.obj
 0001:00035925       __wassert                  10036925 f   libucrt:assert.obj
 0001:0003597f       _fwprintf                  1003697f f i libucrt:assert.obj
 0001:00035a41       _swprintf                  10036a41 f i libucrt:assert.obj
 0001:00035a66       _realloc                   10036a66 f   libucrt:realloc.obj
 0001:00035a73       ??$?B$$A6GXPAXK0@Z@__crt_fast_encoded_nullptr_t@@QBEP6GXPAXK0@ZXZ 10036a73 f i libucrt:exit.obj
 0001:00035b16       ??$__crt_fast_decode_pointer@P6GXPAXK0@Z@@YAP6GXPAXK0@ZQ6GX0K0@Z@Z 10036b16 f i libucrt:exit.obj
 0001:00035b31       ??$__crt_fast_encode_pointer@P6GXPAXK0@Z@@YAP6GXPAXK0@ZQ6GX0K0@Z@Z 10036b31 f i libucrt:exit.obj
 0001:00035b57       ??$__crt_get_proc_address@P6GXI@Z@@YAP6GXI@ZQAUHINSTANCE__@@QBD@Z 10036b57 f i libucrt:exit.obj
 0001:00035bbd       ??0?$__crt_unique_handle_t@U__crt_hmodule_traits@@@@QAE@QAUHINSTANCE__@@@Z 10036bbd f i libucrt:exit.obj
 0001:00035bd1       ??1?$__crt_unique_handle_t@U__crt_hmodule_traits@@@@QAE@XZ 10036bd1 f i libucrt:exit.obj
 0001:00035d16       ?__acrt_select_exit_lock@@YA?AW4__acrt_lock_id@@XZ 10036d16 f i libucrt:exit.obj
 0001:00035d31       ?close@?$__crt_unique_handle_t@U__crt_hmodule_traits@@@@QAEXXZ 10036d31 f i libucrt:exit.obj
 0001:00035d4d       ?close@__crt_hmodule_traits@@SA_NPAUHINSTANCE__@@@Z 10036d4d f i libucrt:exit.obj
 0001:00035e38       ?get@?$__crt_unique_handle_t@U__crt_hmodule_traits@@@@QBEPAUHINSTANCE__@@XZ 10036e38 f i libucrt:exit.obj
 0001:00035e3b       ?get_address_of@?$__crt_unique_handle_t@U__crt_hmodule_traits@@@@QAEPAPAUHINSTANCE__@@XZ 10036e3b f i libucrt:exit.obj
 0001:00035e3e       ?get_invalid_value@__crt_hmodule_traits@@SAPAUHINSTANCE__@@XZ 10036e3e f i libucrt:exit.obj
 0001:00035f3f       __Exit                     10036f3f f   libucrt:exit.obj
 0001:00035f5a       ___acrt_initialize_thread_local_exit_callback 10036f5a f   libucrt:exit.obj
 0001:00035f6c       __c_exit                   10036f6c f   libucrt:exit.obj
 0001:00035f7e       __cexit                    10036f7e f   libucrt:exit.obj
 0001:00035f90       __exit                     10036f90 f   libucrt:exit.obj
 0001:00035fab       __is_c_termination_complete 10036fab f   libucrt:exit.obj
 0001:00035fb1       __register_thread_local_exe_atexit_callback 10036fb1 f   libucrt:exit.obj
 0001:00035ff7       _exit                      10036ff7 f   libucrt:exit.obj
 0001:00036012       _quick_exit                10037012 f   libucrt:exit.obj
 0001:00036030       _strncat                   10037030 f   libucrt:strncat.obj
 0001:000361c0       _strncpy                   100371c0 f   libucrt:strncpy.obj
 0001:0003632d       ?is_in_use@__crt_stdio_stream@@QBE_NXZ 1003732d f i libucrt:fclose.obj
 0001:0003633a       __fclose_nolock            1003733a f   libucrt:fclose.obj
 0001:000363cd       _fclose                    100373cd f   libucrt:fclose.obj
 0001:000366c3       ??$open_file@ABQBDABQBDABHPAU_iobuf@@@?$__crt_char_traits@D@@SAPAU_iobuf@@ABQBD0ABH$$QAPAU1@@Z 100376c3 f i libucrt:fopen.obj
 0001:000366ee       ??$open_file@ABQB_WABQB_WABHPAU_iobuf@@@?$__crt_char_traits@_W@@SAPAU_iobuf@@ABQB_W0ABH$$QAPAU1@@Z 100376ee f i libucrt:fopen.obj
 0001:00036719       ?unlock@__crt_stdio_stream@@QBEXXZ 10037719 f i libucrt:fopen.obj
 0001:00036724       __fsopen                   10037724 f   libucrt:fopen.obj
 0001:00036731       __wfopen                   10037731 f   libucrt:fopen.obj
 0001:0003674d       __wfopen_s                 1003774d f   libucrt:fopen.obj
 0001:000367a5       __wfsopen                  100377a5 f   libucrt:fopen.obj
 0001:000367b2       _fopen                     100377b2 f   libucrt:fopen.obj
 0001:000367ce       _fopen_s                   100377ce f   libucrt:fopen.obj
 0001:00036826       ?__acrt_stdio_reset_buffer@@YAXV__crt_stdio_stream@@@Z 10037826 f i libucrt:fread.obj
 0001:00036841       ?set_flags@__crt_stdio_stream@@QBE_NJ@Z 10037841 f i libucrt:fread.obj
 0001:0003686e       __fread_nolock             1003786e f   libucrt:fread.obj
 0001:00036892       __fread_nolock_s           10037892 f   libucrt:fread.obj
 0001:00036ae1       _fread                     10037ae1 f   libucrt:fread.obj
 0001:00036b05       _fread_s                   10037b05 f   libucrt:fread.obj
 0001:00036db6       ?has_big_buffer@__crt_stdio_stream@@QBE_NXZ 10037db6 f i libucrt:fwrite.obj
 0001:00036dc3       __fwrite_nolock            10037dc3 f   libucrt:fwrite.obj
 0001:00036f9c       _fwrite                    10037f9c f   libucrt:fwrite.obj
 0001:000370bf       ??$__acrt_mbs_to_wcs_cp@U__crt_win32_buffer_internal_dynamic_resizing@@@@YAHQBDAAV?$__crt_win32_buffer@_WU__crt_win32_buffer_internal_dynamic_resizing@@@@I@Z 100380bf f i libucrt:unlink.obj
 0001:000370e5       ??0?$__crt_win32_buffer@_WU__crt_win32_buffer_internal_dynamic_resizing@@@@QAE@XZ 100380e5 f i libucrt:unlink.obj
 0001:00037100       ??1?$__crt_win32_buffer@_WU__crt_win32_buffer_internal_dynamic_resizing@@@@QAE@XZ 10038100 f i libucrt:unlink.obj
 0001:0003712e       ?__acrt_get_utf8_acp_compatibility_codepage@@YAIXZ 1003812e f i libucrt:unlink.obj
 0001:0003717f       ?_deallocate@?$__crt_win32_buffer@_WU__crt_win32_buffer_internal_dynamic_resizing@@@@AAEXXZ 1003817f f i libucrt:unlink.obj
 0001:0003719f       ?allocate@?$__crt_win32_buffer@_WU__crt_win32_buffer_internal_dynamic_resizing@@@@QAEHI@Z 1003819f f i libucrt:unlink.obj
 0001:000371ed       ?allocate@__crt_win32_buffer_internal_dynamic_resizing@@SAHQAPAXIABV__crt_win32_buffer_empty_debug_info@@@Z 100381ed f i libucrt:unlink.obj
 0001:00037213       ?capacity@?$__crt_win32_buffer@_WU__crt_win32_buffer_internal_dynamic_resizing@@@@QBEIXZ 10038213 f i libucrt:unlink.obj
 0001:00037217       ?data@?$__crt_win32_buffer@_WU__crt_win32_buffer_internal_dynamic_resizing@@@@QAEPA_WXZ 10038217 f i libucrt:unlink.obj
 0001:0003721b       ?deallocate@__crt_win32_buffer_internal_dynamic_resizing@@SAXQAXABV__crt_win32_buffer_empty_debug_info@@@Z 1003821b f i libucrt:unlink.obj
 0001:0003722f       ?debug_info@?$__crt_win32_buffer@_WU__crt_win32_buffer_internal_dynamic_resizing@@@@QBEABV__crt_win32_buffer_empty_debug_info@@XZ 1003822f f i libucrt:unlink.obj
 0001:00037232       ?size@?$__crt_win32_buffer@_WU__crt_win32_buffer_internal_dynamic_resizing@@@@QAEXI@Z 10038232 f i libucrt:unlink.obj
 0001:00037244       __unlink                   10038244 f   libucrt:unlink.obj
 0001:00037251       _remove                    10038251 f   libucrt:unlink.obj
 0001:000372d8       ?has_all_of@__crt_stdio_stream@@QBE_NJ@Z 100382d8 f i libucrt:rewind.obj
 0001:000372f4       ?unset_flags@__crt_stdio_stream@@QBE_NJ@Z 100382f4 f i libucrt:rewind.obj
 0001:00037327       _rewind                    10038327 f   libucrt:rewind.obj
 0001:00037419       _ldexp                     10038419 f   libucrt:ldexp.obj
 0001:00037692       __errcode                  10038692 f   libucrt:fpexcept.obj
 0001:000376d3       __except1                  100386d3 f   libucrt:fpexcept.obj
 0001:000377d4       __except2                  100387d4 f   libucrt:fpexcept.obj
 0001:0003791d       __handle_exc               1003891d f   libucrt:fpexcept.obj
 0001:00037b85       __handle_qnan2             10038b85 f   libucrt:fpexcept.obj
 0001:00037b95       __raise_exc                10038b95 f   libucrt:fpexcept.obj
 0001:00037bc0       __raise_exc_ex             10038bc0 f   libucrt:fpexcept.obj
 0001:00037f73       __raise_excf               10038f73 f   libucrt:fpexcept.obj
 0001:00037f9e       __set_errno_from_matherr   10038f9e f   libucrt:fpexcept.obj
 0001:00037fd8       __umatherr                 10038fd8 f   libucrt:fpexcept.obj
 0001:000380a2       __initterm                 100390a2 f   libucrt:initterm.obj
 0001:00038115       __initterm_e               10039115 f   libucrt:initterm.obj
 0001:00038198       __seh_filter_dll           10039198 f   libucrt:exception_filter.obj
 0001:000381c0       __seh_filter_exe           100391c0 f   libucrt:exception_filter.obj
 0001:0003837f       ??$?RE@__crt_internal_free_policy@@QBEXQBE@Z 1003937f f i libucrt:argv_parsing.obj
 0001:00038395       ??$?RPAD@__crt_internal_free_policy@@QBEXQBQAD@Z 10039395 f i libucrt:argv_parsing.obj
 0001:000383ab       ??$?RPA_W@__crt_internal_free_policy@@QBEXQBQA_W@Z 100393ab f i libucrt:argv_parsing.obj
 0001:000386c4       ??$get_module_file_name@$$TAAY0BAF@DH@?$__crt_char_traits@D@@SAK$$QA$$TAAY0BAF@D$$QAH@Z 100396c4 f i libucrt:argv_parsing.obj
 0001:000386e7       ??$get_module_file_name@$$TAAY0BAF@_WH@?$__crt_char_traits@_W@@SAK$$QA$$TAAY0BAF@_W$$QAH@Z 100396e7 f i libucrt:argv_parsing.obj
 0001:00038ada       ??$set_program_name@PAD@?$__crt_char_traits@D@@SAX$$QAPAD@Z 10039ada f i libucrt:argv_parsing.obj
 0001:00038aef       ??$set_program_name@PA_W@?$__crt_char_traits@_W@@SAX$$QAPA_W@Z 10039aef f i libucrt:argv_parsing.obj
 0001:00038b2c       ??0?$__crt_unique_heap_ptr@EU__crt_internal_free_policy@@@@QAE@QAE@Z 10039b2c f i libucrt:argv_parsing.obj
 0001:00038b40       ??0?$__crt_unique_heap_ptr@PADU__crt_internal_free_policy@@@@QAE@QAPAD@Z 10039b40 f i libucrt:argv_parsing.obj
 0001:00038b54       ??0?$__crt_unique_heap_ptr@PA_WU__crt_internal_free_policy@@@@QAE@QAPA_W@Z 10039b54 f i libucrt:argv_parsing.obj
 0001:00038b68       ??1?$__crt_unique_heap_ptr@EU__crt_internal_free_policy@@@@QAE@XZ 10039b68 f i libucrt:argv_parsing.obj
 0001:00038b7e       ??1?$__crt_unique_heap_ptr@PADU__crt_internal_free_policy@@@@QAE@XZ 10039b7e f i libucrt:argv_parsing.obj
 0001:00038b94       ??1?$__crt_unique_heap_ptr@PA_WU__crt_internal_free_policy@@@@QAE@XZ 10039b94 f i libucrt:argv_parsing.obj
 0001:00038baa       ??B?$__crt_unique_heap_ptr@EU__crt_internal_free_policy@@@@QBE_NXZ 10039baa f i libucrt:argv_parsing.obj
 0001:00038be7       ?detach@?$__crt_unique_heap_ptr@EU__crt_internal_free_policy@@@@QAEPAEXZ 10039be7 f i libucrt:argv_parsing.obj
 0001:00038bed       ?detach@?$__crt_unique_heap_ptr@PADU__crt_internal_free_policy@@@@QAEPAPADXZ 10039bed f i libucrt:argv_parsing.obj
 0001:00038bf3       ?detach@?$__crt_unique_heap_ptr@PA_WU__crt_internal_free_policy@@@@QAEPAPA_WXZ 10039bf3 f i libucrt:argv_parsing.obj
 0001:00038c19       ?get@?$__crt_unique_heap_ptr@EU__crt_internal_free_policy@@@@QBEPAEXZ 10039c19 f i libucrt:argv_parsing.obj
 0001:00038c1c       ?get@?$__crt_unique_heap_ptr@PADU__crt_internal_free_policy@@@@QBEPAPADXZ 10039c1c f i libucrt:argv_parsing.obj
 0001:00038c1f       ?get@?$__crt_unique_heap_ptr@PA_WU__crt_internal_free_policy@@@@QBEPAPA_WXZ 10039c1f f i libucrt:argv_parsing.obj
 0001:00038c22       ?get_address_of@?$__crt_unique_heap_ptr@PADU__crt_internal_free_policy@@@@QAEPAPAPADXZ 10039c22 f i libucrt:argv_parsing.obj
 0001:00038c25       ?get_address_of@?$__crt_unique_heap_ptr@PA_WU__crt_internal_free_policy@@@@QAEPAPAPA_WXZ 10039c25 f i libucrt:argv_parsing.obj
 0001:00038c40       ?is_valid@?$__crt_unique_heap_ptr@EU__crt_internal_free_policy@@@@QBE_NXZ 10039c40 f i libucrt:argv_parsing.obj
 0001:00038c47       ?release@?$__crt_unique_heap_ptr@EU__crt_internal_free_policy@@@@QAEXXZ 10039c47 f i libucrt:argv_parsing.obj
 0001:00038c5d       ?release@?$__crt_unique_heap_ptr@PADU__crt_internal_free_policy@@@@QAEXXZ 10039c5d f i libucrt:argv_parsing.obj
 0001:00038c73       ?release@?$__crt_unique_heap_ptr@PA_WU__crt_internal_free_policy@@@@QAEXXZ 10039c73 f i libucrt:argv_parsing.obj
 0001:00038ca8       ___acrt_allocate_buffer_for_argv 10039ca8 f   libucrt:argv_parsing.obj
 0001:00038d0a       __configure_narrow_argv    10039d0a f   libucrt:argv_parsing.obj
 0001:00038d17       __configure_wide_argv      10039d17 f   libucrt:argv_parsing.obj
 0001:00038d24       __set_pgmptr               10039d24 f i libucrt:argv_parsing.obj
 0001:00038d36       __set_wpgmptr              10039d36 f i libucrt:argv_parsing.obj
 0001:00038d48       ??$?R_W@__crt_internal_free_policy@@QBEXQB_W@Z 10039d48 f i libucrt:environment_initialization.obj
 0001:0003922e       ??$get_environment_from_os@$$V@?$__crt_char_traits@D@@SAPADXZ 1003a22e f i libucrt:environment_initialization.obj
 0001:00039233       ??$get_environment_from_os@$$V@?$__crt_char_traits@_W@@SAPA_WXZ 1003a233 f i libucrt:environment_initialization.obj
 0001:00039384       ??$set_variable_in_environment_nolock@PADH@?$__crt_char_traits@D@@SAH$$QAPAD$$QAH@Z 1003a384 f i libucrt:environment_initialization.obj
 0001:000393a2       ??$set_variable_in_environment_nolock@PA_WH@?$__crt_char_traits@_W@@SAH$$QAPA_W$$QAH@Z 1003a3a2 f i libucrt:environment_initialization.obj
 0001:000393c0       ??$tcscpy_s@PADABIAAPAD@?$__crt_char_traits@D@@SAH$$QAPADABIAAPAD@Z 1003a3c0 f i libucrt:environment_initialization.obj
 0001:000393e5       ??$tcscpy_s@PA_WABIAAPA_W@?$__crt_char_traits@_W@@SAH$$QAPA_WABIAAPA_W@Z 1003a3e5 f i libucrt:environment_initialization.obj
 0001:0003940a       ??$tcslen@AAPAD@?$__crt_char_traits@D@@SAIAAPAD@Z 1003a40a f i libucrt:environment_initialization.obj
 0001:00039428       ??$tcslen@AAPA_W@?$__crt_char_traits@_W@@SAIAAPA_W@Z 1003a428 f i libucrt:environment_initialization.obj
 0001:0003944d       ??$uninitialize@A6AXAAPAPAD@Z@?$dual_state_global@PAPAD@__crt_state_management@@QAEXA6AXAAPAPAD@Z@Z 1003a44d f i libucrt:environment_initialization.obj
 0001:0003949d       ??$uninitialize@A6AXAAPAPA_W@Z@?$dual_state_global@PAPA_W@__crt_state_management@@QAEXA6AXAAPAPA_W@Z@Z 1003a49d f i libucrt:environment_initialization.obj
 0001:0003952f       ??0?$__crt_unique_heap_ptr@_WU__crt_internal_free_policy@@@@QAE@QA_W@Z 1003a52f f i libucrt:environment_initialization.obj
 0001:00039543       ??1?$__crt_unique_heap_ptr@_WU__crt_internal_free_policy@@@@QAE@XZ 1003a543 f i libucrt:environment_initialization.obj
 0001:00039559       ??B?$__crt_unique_heap_ptr@PADU__crt_internal_free_policy@@@@QBE_NXZ 1003a559 f i libucrt:environment_initialization.obj
 0001:00039560       ??B?$__crt_unique_heap_ptr@PA_WU__crt_internal_free_policy@@@@QBE_NXZ 1003a560 f i libucrt:environment_initialization.obj
 0001:00039567       ??B?$__crt_unique_heap_ptr@_WU__crt_internal_free_policy@@@@QBE_NXZ 1003a567 f i libucrt:environment_initialization.obj
 0001:0003956e       ?__crt_compute_required_transform_buffer_count@@YAIIQBD@Z 1003a56e f i libucrt:environment_initialization.obj
 0001:00039591       ?__crt_compute_required_transform_buffer_count@@YAIIQB_W@Z 1003a591 f i libucrt:environment_initialization.obj
 0001:000395b6       ?__crt_transform_string@@YAIIQBDQA_WI@Z 1003a5b6 f i libucrt:environment_initialization.obj
 0001:000395dc       ?__crt_transform_string@@YAIIQB_WQADI@Z 1003a5dc f i libucrt:environment_initialization.obj
 0001:00039606       ?detach@?$__crt_unique_heap_ptr@DU__crt_internal_free_policy@@@@QAEPADXZ 1003a606 f i libucrt:environment_initialization.obj
 0001:0003960c       ?detach@?$__crt_unique_heap_ptr@_WU__crt_internal_free_policy@@@@QAEPA_WXZ 1003a60c f i libucrt:environment_initialization.obj
 0001:00039612       ?get@?$__crt_unique_heap_ptr@_WU__crt_internal_free_policy@@@@QBEPA_WXZ 1003a612 f i libucrt:environment_initialization.obj
 0001:00039615       ?get_current_state_index@__crt_state_management@@YAIXZ 1003a615 f i libucrt:environment_initialization.obj
 0001:0003963c       ?initialize@?$dual_state_global@PAPAD@__crt_state_management@@QAEXQAPAD@Z 1003a63c f i libucrt:environment_initialization.obj
 0001:0003966b       ?initialize@?$dual_state_global@PAPA_W@__crt_state_management@@QAEXQAPA_W@Z 1003a66b f i libucrt:environment_initialization.obj
 0001:0003969a       ?is_valid@?$__crt_unique_heap_ptr@PADU__crt_internal_free_policy@@@@QBE_NXZ 1003a69a f i libucrt:environment_initialization.obj
 0001:000396a1       ?is_valid@?$__crt_unique_heap_ptr@PA_WU__crt_internal_free_policy@@@@QBE_NXZ 1003a6a1 f i libucrt:environment_initialization.obj
 0001:000396a8       ?is_valid@?$__crt_unique_heap_ptr@_WU__crt_internal_free_policy@@@@QBE_NXZ 1003a6a8 f i libucrt:environment_initialization.obj
 0001:000396b5       ?release@?$__crt_unique_heap_ptr@_WU__crt_internal_free_policy@@@@QAEXXZ 1003a6b5 f i libucrt:environment_initialization.obj
 0001:000396cb       ?value@?$dual_state_global@PAPAD@__crt_state_management@@QAEAAPAPADXZ 1003a6cb f i libucrt:environment_initialization.obj
 0001:000396ce       ?value@?$dual_state_global@PAPA_W@__crt_state_management@@QAEAAPAPA_WXZ 1003a6ce f i libucrt:environment_initialization.obj
 0001:000396d1       ___dcrt_get_or_create_narrow_environment_nolock 1003a6d1 f   libucrt:environment_initialization.obj
 0001:000396d6       ___dcrt_get_or_create_wide_environment_nolock 1003a6d6 f   libucrt:environment_initialization.obj
 0001:000396db       ___dcrt_uninitialize_environments_nolock 1003a6db f   libucrt:environment_initialization.obj
 0001:0003971f       ___p__environ              1003a71f f   libucrt:environment_initialization.obj
 0001:00039725       ___p__wenviron             1003a725 f   libucrt:environment_initialization.obj
 0001:0003972b       __get_initial_narrow_environment 1003a72b f   libucrt:environment_initialization.obj
 0001:00039744       __get_initial_wide_environment 1003a744 f   libucrt:environment_initialization.obj
 0001:0003975d       __initialize_narrow_environment 1003a75d f   libucrt:environment_initialization.obj
 0001:00039762       __initialize_wide_environment 1003a762 f   libucrt:environment_initialization.obj
 0001:00039767       ??$?BP6AXXZ@__crt_fast_encoded_nullptr_t@@QBEPAP6AXXZXZ 1003a767 f i libucrt:onexit.obj
 0001:00039785       ??$?RP6AXXZ@__crt_internal_free_policy@@QBEXQBQ6AXXZ@Z 1003a785 f i libucrt:onexit.obj
 0001:000398c9       ??$__crt_fast_encode_pointer@P6AHXZ@@YAP6AHXZQ6AHXZ@Z 1003a8c9 f i libucrt:onexit.obj
 0001:00039976       ??0?$__crt_unique_heap_ptr@P6AXXZU__crt_internal_free_policy@@@@QAE@QAP6AXXZ@Z 1003a976 f i libucrt:onexit.obj
 0001:0003998a       ??1?$__crt_unique_heap_ptr@P6AXXZU__crt_internal_free_policy@@@@QAE@XZ 1003a98a f i libucrt:onexit.obj
 0001:000399a0       ??1scoped_global_state_reset@__crt_state_management@@QAE@XZ 1003a9a0 f i libucrt:onexit.obj
 0001:00039ccb       ?detach@?$__crt_unique_heap_ptr@P6AXXZU__crt_internal_free_policy@@@@QAEPAP6AXXZXZ 1003accb f i libucrt:onexit.obj
 0001:00039cd1       ?release@?$__crt_unique_heap_ptr@P6AXXZU__crt_internal_free_policy@@@@QAEXXZ 1003acd1 f i libucrt:onexit.obj
 0001:00039ce7       __crt_at_quick_exit        1003ace7 f   libucrt:onexit.obj
 0001:00039d02       __crt_atexit               1003ad02 f   libucrt:onexit.obj
 0001:00039d1d       __execute_onexit_table     1003ad1d f   libucrt:onexit.obj
 0001:00039d57       __initialize_onexit_table  1003ad57 f   libucrt:onexit.obj
 0001:00039da3       __register_onexit_function 1003ada3 f   libucrt:onexit.obj
 0001:00039f6e       ?__acrt_stdio_is_initialized@@YA_NXZ 1003af6e f i libucrt:initialization.obj
 0001:00039f7b       ?initialize@?$dual_state_global@PAU__crt_locale_data@@@__crt_state_management@@QAEXQAU__crt_locale_data@@@Z 1003af7b f i libucrt:initialization.obj
 0001:00039faa       ___acrt_initialize         1003afaa f   libucrt:initialization.obj
 0001:00039fc0       ___acrt_thread_attach      1003afc0 f   libucrt:initialization.obj
 0001:00039fcd       ___acrt_thread_detach      1003afcd f   libucrt:initialization.obj
 0001:00039fd7       ___acrt_uninitialize       1003afd7 f   libucrt:initialization.obj
 0001:0003a013       ___acrt_uninitialize_critical 1003b013 f   libucrt:initialization.obj
 0001:0003a044       __get_terminate            1003b044 f   libucrt:terminate.obj
 0001:0003a05a       _set_terminate             1003b05a f   libucrt:terminate.obj
 0001:0003a082       _terminate                 1003b082 f   libucrt:terminate.obj
 0001:0003a0d3       __free_base                1003b0d3 f   libucrt:free_base.obj
 0001:0003a11b       __malloc_base              1003b11b f   libucrt:malloc_base.obj
 0001:0003a1ec       _strcpy_s                  1003b1ec f   libucrt:strcpy_s.obj
 0001:0003a25c       __set_abort_behavior       1003b25c f   libucrt:abort.obj
 0001:0003a285       _abort                     1003b285 f   libucrt:abort.obj
 0001:0003a2da       __calloc_base              1003b2da f   libucrt:calloc_base.obj
 0001:0003a34e       ??$is_overflow_condition@K@__crt_strtox@@YA_NIK@Z 1003b34e f i libucrt:atox.obj
 0001:0003a38b       ??$is_overflow_condition@_K@__crt_strtox@@YA_NI_K@Z 1003b38b f i libucrt:atox.obj
 0001:0003a3dc       ??$make_c_string_character_source@D$$T@__crt_strtox@@YA?AV?$c_string_character_source@D@0@QBD$$T@Z 1003b3dc f i libucrt:atox.obj
 0001:0003a3fd       ??$make_c_string_character_source@_W$$T@__crt_strtox@@YA?AV?$c_string_character_source@_W@0@QB_W$$T@Z 1003b3fd f i libucrt:atox.obj
 0001:0003a41e       ??$parse_integer@KV?$c_string_character_source@D@__crt_strtox@@@__crt_strtox@@YAKQAU__crt_locale_pointers@@V?$c_string_character_source@D@0@H_N@Z 1003b41e f i libucrt:atox.obj
 0001:0003a6d1       ??$parse_integer@KV?$c_string_character_source@_W@__crt_strtox@@@__crt_strtox@@YAKQAU__crt_locale_pointers@@V?$c_string_character_source@_W@0@H_N@Z 1003b6d1 f i libucrt:atox.obj
 0001:0003aea2       ??$parse_integer@_KV?$c_string_character_source@D@__crt_strtox@@@__crt_strtox@@YA_KQAU__crt_locale_pointers@@V?$c_string_character_source@D@0@H_N@Z 1003bea2 f i libucrt:atox.obj
 0001:0003b1f2       ??$parse_integer@_KV?$c_string_character_source@_W@__crt_strtox@@@__crt_strtox@@YA_KQAU__crt_locale_pointers@@V?$c_string_character_source@_W@0@H_N@Z 1003c1f2 f i libucrt:atox.obj
 0001:0003babf       ??$parse_integer_from_string@JD$$T@__crt_strtox@@YAJQBD$$THQAU__crt_locale_pointers@@@Z 1003cabf f i libucrt:atox.obj
 0001:0003baf7       ??$parse_integer_from_string@J_W$$T@__crt_strtox@@YAJQB_W$$THQAU__crt_locale_pointers@@@Z 1003caf7 f i libucrt:atox.obj
 0001:0003bb2f       ??$parse_integer_from_string@_JD$$T@__crt_strtox@@YA_JQBD$$THQAU__crt_locale_pointers@@@Z 1003cb2f f i libucrt:atox.obj
 0001:0003bb67       ??$parse_integer_from_string@_J_W$$T@__crt_strtox@@YA_JQB_W$$THQAU__crt_locale_pointers@@@Z 1003cb67 f i libucrt:atox.obj
 0001:0003bb9f       ??0?$c_string_character_source@D@__crt_strtox@@QAE@QBDQAPBD@Z 1003cb9f f i libucrt:atox.obj
 0001:0003bbc2       ??0?$c_string_character_source@_W@__crt_strtox@@QAE@QB_WQAPB_W@Z 1003cbc2 f i libucrt:atox.obj
 0001:0003bbe5       ??1?$c_string_character_source@D@__crt_strtox@@QAE@XZ 1003cbe5 f i libucrt:atox.obj
 0001:0003bbf4       ??1?$c_string_character_source@_W@__crt_strtox@@QAE@XZ 1003cbf4 f i libucrt:atox.obj
 0001:0003bc03       ?get@?$c_string_character_source@D@__crt_strtox@@QAEDXZ 1003cc03 f i libucrt:atox.obj
 0001:0003bc0d       ?get@?$c_string_character_source@_W@__crt_strtox@@QAE_WXZ 1003cc0d f i libucrt:atox.obj
 0001:0003bc1a       ?is_space@__crt_strtox@@YA_NDQAU__crt_locale_pointers@@@Z 1003cc1a f i libucrt:atox.obj
 0001:0003bc3f       ?is_space@__crt_strtox@@YA_N_WPAU__crt_locale_pointers@@@Z 1003cc3f f i libucrt:atox.obj
 0001:0003bc5d       ?maximum_signed_value@__crt_strtox@@YAJK@Z 1003cc5d f i libucrt:atox.obj
 0001:0003bc63       ?maximum_signed_value@__crt_strtox@@YA_J_K@Z 1003cc63 f i libucrt:atox.obj
 0001:0003bc6e       ?minimum_signed_value@__crt_strtox@@YAJK@Z 1003cc6e f i libucrt:atox.obj
 0001:0003bc74       ?minimum_signed_value@__crt_strtox@@YA_J_K@Z 1003cc74 f i libucrt:atox.obj
 0001:0003bc7e       ?parse_digit@__crt_strtox@@YAID@Z 1003cc7e f i libucrt:atox.obj
 0001:0003bcc6       ?parse_digit@__crt_strtox@@YAI_W@Z 1003ccc6 f i libucrt:atox.obj
 0001:0003bf37       ?restore_state@?$c_string_character_source@D@__crt_strtox@@QAE_NQBD@Z 1003cf37 f i libucrt:atox.obj
 0001:0003bf4b       ?restore_state@?$c_string_character_source@_W@__crt_strtox@@QAE_NQB_W@Z 1003cf4b f i libucrt:atox.obj
 0001:0003bf5f       ?save_state@?$c_string_character_source@D@__crt_strtox@@QBEPBDXZ 1003cf5f f i libucrt:atox.obj
 0001:0003bf62       ?save_state@?$c_string_character_source@_W@__crt_strtox@@QBEPB_WXZ 1003cf62 f i libucrt:atox.obj
 0001:0003bf65       ?unget@?$c_string_character_source@D@__crt_strtox@@QAEXD@Z 1003cf65 f i libucrt:atox.obj
 0001:0003bf98       ?unget@?$c_string_character_source@_W@__crt_strtox@@QAEX_W@Z 1003cf98 f i libucrt:atox.obj
 0001:0003bfd1       ?validate@?$c_string_character_source@D@__crt_strtox@@QBE_NXZ 1003cfd1 f i libucrt:atox.obj
 0001:0003bff2       ?validate@?$c_string_character_source@_W@__crt_strtox@@QBE_NXZ 1003cff2 f i libucrt:atox.obj
 0001:0003c013       ?wide_character_to_digit@__crt_strtox@@YAH_W@Z 1003d013 f i libucrt:atox.obj
 0001:0003c21c       ___acrt_get_locale_data_prefix 1003d21c f i libucrt:atox.obj
 0001:0003c22b       __atoi64                   1003d22b f   libucrt:atox.obj
 0001:0003c259       __atoi64_l                 1003d259 f   libucrt:atox.obj
 0001:0003c288       __atoi_l                   1003d288 f   libucrt:atox.obj
 0001:0003c2b7       __atol_l                   1003d2b7 f   libucrt:atox.obj
 0001:0003c2e6       __atoll_l                  1003d2e6 f   libucrt:atox.obj
 0001:0003c315       __chvalidchk_l             1003d315 f i libucrt:atox.obj
 0001:0003c344       __ischartype_l             1003d344 f i libucrt:atox.obj
 0001:0003c383       __wtoi                     1003d383 f   libucrt:atox.obj
 0001:0003c3b1       __wtoi64                   1003d3b1 f   libucrt:atox.obj
 0001:0003c3df       __wtoi64_l                 1003d3df f   libucrt:atox.obj
 0001:0003c40e       __wtoi_l                   1003d40e f   libucrt:atox.obj
 0001:0003c43d       __wtol                     1003d43d f   libucrt:atox.obj
 0001:0003c46b       __wtol_l                   1003d46b f   libucrt:atox.obj
 0001:0003c49a       __wtoll                    1003d49a f   libucrt:atox.obj
 0001:0003c4c8       __wtoll_l                  1003d4c8 f   libucrt:atox.obj
 0001:0003c4f7       _atoi                      1003d4f7 f   libucrt:atox.obj
 0001:0003c525       _atol                      1003d525 f   libucrt:atox.obj
 0001:0003c553       _atoll                     1003d553 f   libucrt:atox.obj
 0001:0003c581       ??$__crt_fast_decode_pointer@P6AXPB_W00II@Z@@YAP6AXPB_W00II@ZQ6AX000II@Z@Z 1003d581 f i libucrt:invalid_parameter.obj
 0001:0003c59c       ??$__crt_fast_encode_pointer@P6AXPB_W00II@Z@@YAP6AXPB_W00II@ZQ6AX000II@Z@Z 1003d59c f i libucrt:invalid_parameter.obj
 0001:0003c5c2       ??$initialize_from_array@$$BY00Q6AXPB_W00II@Z@?$dual_state_global@P6AXPB_W00II@Z@__crt_state_management@@QAAXAAY00Q6AXPB_W00II@Z@Z 1003d5c2 f i libucrt:invalid_parameter.obj
 0001:0003c5d7       ?dangerous_get_state_array@?$dual_state_global@P6AXPB_W00II@Z@__crt_state_management@@QAEPAP6AXPB_W00II@ZXZ 1003d5d7 f i libucrt:invalid_parameter.obj
 0001:0003c5da       ?value@?$dual_state_global@P6AXPB_W00II@Z@__crt_state_management@@QAEAAP6AXPB_W00II@ZXZ 1003d5da f i libucrt:invalid_parameter.obj
 0001:0003c5dd       ___acrt_call_reportfault   1003d5dd f   libucrt:invalid_parameter.obj
 0001:0003c766       ___acrt_initialize_invalid_parameter_handler 1003d766 f   libucrt:invalid_parameter.obj
 0001:0003c778       __get_invalid_parameter_handler 1003d778 f   libucrt:invalid_parameter.obj
 0001:0003c78f       __get_thread_local_invalid_parameter_handler 1003d78f f   libucrt:invalid_parameter.obj
 0001:0003c7a4       __invalid_parameter        1003d7a4 f   libucrt:invalid_parameter.obj
 0001:0003c83d       __invalid_parameter_noinfo 1003d83d f   libucrt:invalid_parameter.obj
 0001:0003c851       __invalid_parameter_noinfo_noreturn 1003d851 f   libucrt:invalid_parameter.obj
 0001:0003c875       __invoke_watson            1003d875 f   libucrt:invalid_parameter.obj
 0001:0003c8b6       __set_invalid_parameter_handler 1003d8b6 f   libucrt:invalid_parameter.obj
 0001:0003c8f2       __set_thread_local_invalid_parameter_handler 1003d8f2 f   libucrt:invalid_parameter.obj
 0001:0003c916       ___acrt_errno_from_os_error 1003d916 f   libucrt:errno.obj
 0001:0003c969       ___acrt_errno_map_os_error 1003d969 f   libucrt:errno.obj
 0001:0003c994       ___doserrno                1003d994 f   libucrt:errno.obj
 0001:0003c9ab       __errno                    1003d9ab f   libucrt:errno.obj
 0001:0003c9c2       __get_doserrno             1003d9c2 f   libucrt:errno.obj
 0001:0003c9f0       __get_errno                1003d9f0 f   libucrt:errno.obj
 0001:0003ca1e       __set_doserrno             1003da1e f   libucrt:errno.obj
 0001:0003ca47       __set_errno                1003da47 f   libucrt:errno.obj
 0001:0003ca80       ??$?B$$A6GHPA_WKJ@Z@__crt_fast_encoded_nullptr_t@@QBEP6GHPA_WKJ@ZXZ 1003da80 f i libucrt:winapi_thunks.obj
 0001:0003cb7a       ??$__crt_fast_decode_pointer@P6GHPA_WKJ@Z@@YAP6GHPA_WKJ@ZQ6GH0KJ@Z@Z 1003db7a f i libucrt:winapi_thunks.obj
 0001:0003cb95       ??$__crt_fast_encode_pointer@P6GHPA_WKJ@Z@@YAP6GHPA_WKJ@ZQ6GH0KJ@Z@Z 1003db95 f i libucrt:winapi_thunks.obj
 0001:0003d3f4       _GetCurrentThreadEffectiveToken 1003e3f4 f i libucrt:winapi_thunks.obj
 0001:0003d3f8       ___acrt_AppPolicyGetProcessTerminationMethodInternal@4 1003e3f8 f   libucrt:winapi_thunks.obj
 0001:0003d464       ___acrt_AppPolicyGetShowDeveloperDiagnosticInternal@4 1003e464 f   libucrt:winapi_thunks.obj
 0001:0003d4d0       ___acrt_AppPolicyGetThreadInitializationTypeInternal@4 1003e4d0 f   libucrt:winapi_thunks.obj
 0001:0003d53c       ___acrt_AppPolicyGetWindowingModelInternal@4 1003e53c f   libucrt:winapi_thunks.obj
 0001:0003d5a8       ___acrt_AreFileApisANSI@0  1003e5a8 f   libucrt:winapi_thunks.obj
 0001:0003d5f0       ___acrt_CompareStringEx@36 1003e5f0 f   libucrt:winapi_thunks.obj
 0001:0003d681       ___acrt_EnumSystemLocalesEx@16 1003e681 f   libucrt:winapi_thunks.obj
 0001:0003d705       ___acrt_FlsAlloc@4         1003e705 f   libucrt:winapi_thunks.obj
 0001:0003d770       ___acrt_FlsFree@4          1003e770 f   libucrt:winapi_thunks.obj
 0001:0003d7db       ___acrt_FlsGetValue@4      1003e7db f   libucrt:winapi_thunks.obj
 0001:0003d846       ___acrt_FlsSetValue@8      1003e846 f   libucrt:winapi_thunks.obj
 0001:0003d8b5       ___acrt_GetDateFormatEx@28 1003e8b5 f   libucrt:winapi_thunks.obj
 0001:0003d93e       ___acrt_GetEnabledXStateFeatures@0 1003e93e f   libucrt:winapi_thunks.obj
 0001:0003d9a0       ___acrt_GetLocaleInfoEx@16 1003e9a0 f   libucrt:winapi_thunks.obj
 0001:0003da0b       ___acrt_GetSystemTimePreciseAsFileTime@4 1003ea0b f   libucrt:winapi_thunks.obj
 0001:0003da76       ___acrt_GetTimeFormatEx@24 1003ea76 f   libucrt:winapi_thunks.obj
 0001:0003dae9       ___acrt_GetUserDefaultLocaleName@8 1003eae9 f   libucrt:winapi_thunks.obj
 0001:0003db50       ___acrt_GetXStateFeaturesMask@8 1003eb50 f   libucrt:winapi_thunks.obj
 0001:0003dbbc       ___acrt_InitializeCriticalSectionEx@12 1003ebbc f   libucrt:winapi_thunks.obj
 0001:0003dc36       ___acrt_IsValidLocaleName@4 1003ec36 f   libucrt:winapi_thunks.obj
 0001:0003dc98       ___acrt_LCIDToLocaleName@16 1003ec98 f   libucrt:winapi_thunks.obj
 0001:0003dd03       ___acrt_LCMapStringEx@36   1003ed03 f   libucrt:winapi_thunks.obj
 0001:0003dd94       ___acrt_LocaleNameToLCID@8 1003ed94 f   libucrt:winapi_thunks.obj
 0001:0003ddee       ___acrt_LocateXStateFeature@12 1003edee f   libucrt:winapi_thunks.obj
 0001:0003de45       ___acrt_MessageBoxA@16     1003ee45 f   libucrt:winapi_thunks.obj
 0001:0003dea0       ___acrt_MessageBoxW@16     1003eea0 f   libucrt:winapi_thunks.obj
 0001:0003defb       ___acrt_RoInitialize@4     1003eefb f   libucrt:winapi_thunks.obj
 0001:0003df61       ___acrt_RoUninitialize@0   1003ef61 f   libucrt:winapi_thunks.obj
 0001:0003dfbc       ___acrt_RtlGenRandom@8     1003efbc f   libucrt:winapi_thunks.obj
 0001:0003e028       ___acrt_SetThreadStackGuarantee@4 1003f028 f   libucrt:winapi_thunks.obj
 0001:0003e08e       ___acrt_can_show_message_box 1003f08e f   libucrt:winapi_thunks.obj
 0001:0003e0be       ___acrt_can_use_vista_locale_apis 1003f0be f   libucrt:winapi_thunks.obj
 0001:0003e0cb       ___acrt_can_use_xstate_apis 1003f0cb f   libucrt:winapi_thunks.obj
 0001:0003e0d8       ___acrt_eagerly_load_locale_apis 1003f0d8 f   libucrt:winapi_thunks.obj
 0001:0003e11c       ___acrt_get_parent_window  1003f11c f   libucrt:winapi_thunks.obj
 0001:0003e1ba       ___acrt_initialize_winapi_thunks 1003f1ba f   libucrt:winapi_thunks.obj
 0001:0003e205       ___acrt_is_interactive     1003f205 f   libucrt:winapi_thunks.obj
 0001:0003e2d4       ___acrt_uninitialize_winapi_thunks 1003f2d4 f   libucrt:winapi_thunks.obj
 0001:0003e317       ??0__crt_stdio_stream@@QAE@QAU__crt_stdio_stream_data@@@Z 1003f317 f i libucrt:closeall.obj
 0001:0003e32b       __fcloseall                1003f32b f   libucrt:closeall.obj
 0001:0003e999       ___acrt_stdio_flush_nolock 1003f999 f   libucrt:fflush.obj
 0001:0003ea14       __fflush_nolock            1003fa14 f   libucrt:fflush.obj
 0001:0003ea6c       __flushall                 1003fa6c f   libucrt:fflush.obj
 0001:0003ea77       _fflush                    1003fa77 f   libucrt:fflush.obj
 0001:0003eae0       ?has_crt_buffer@__crt_stdio_stream@@QBE_NXZ 1003fae0 f i libucrt:_freebuf.obj
 0001:0003eaed       ___acrt_stdio_free_buffer_nolock 1003faed f   libucrt:_freebuf.obj
 0001:0003ed2b       ___acrt_initialize_lowio   1003fd2b f   libucrt:ioinit.obj
 0001:0003ed96       ___acrt_uninitialize_lowio 1003fd96 f   libucrt:ioinit.obj
 0001:0003ede9       ___isascii                 1003fde9 f i libucrt:_ctype.obj
 0001:0003edff       ___iscsym                  1003fdff f i libucrt:_ctype.obj
 0001:0003ee29       ___iscsymf                 1003fe29 f i libucrt:_ctype.obj
 0001:0003ee4f       ___toascii                 1003fe4f f i libucrt:_ctype.obj
 0001:0003ee5f       __isalnum_l                1003fe5f f i libucrt:_ctype.obj
 0001:0003eea8       __isalpha_l                1003fea8 f i libucrt:_ctype.obj
 0001:0003eef1       __isblank_l                1003fef1 f i libucrt:_ctype.obj
 0001:0003ef44       __iscntrl_l                1003ff44 f i libucrt:_ctype.obj
 0001:0003ef8a       __iscsym_l                 1003ff8a f i libucrt:_ctype.obj
 0001:0003efb5       __iscsymf_l                1003ffb5 f i libucrt:_ctype.obj
 0001:0003efe0       __isdigit_l                1003ffe0 f i libucrt:_ctype.obj
 0001:0003f026       __isgraph_l                10040026 f i libucrt:_ctype.obj
 0001:0003f06f       __islower_l                1004006f f i libucrt:_ctype.obj
 0001:0003f0b5       __isprint_l                100400b5 f i libucrt:_ctype.obj
 0001:0003f0fe       __ispunct_l                100400fe f i libucrt:_ctype.obj
 0001:0003f144       __isspace_l                10040144 f i libucrt:_ctype.obj
 0001:0003f18a       __isupper_l                1004018a f i libucrt:_ctype.obj
 0001:0003f1d0       __isxdigit_l               100401d0 f i libucrt:_ctype.obj
 0001:0003f219       _isalnum                   10040219 f i libucrt:_ctype.obj
 0001:0003f255       _isalpha                   10040255 f i libucrt:_ctype.obj
 0001:0003f291       _isblank                   10040291 f i libucrt:_ctype.obj
 0001:0003f2d9       _iscntrl                   100402d9 f i libucrt:_ctype.obj
 0001:0003f312       _isdigit                   10040312 f i libucrt:_ctype.obj
 0001:0003f34b       _isgraph                   1004034b f i libucrt:_ctype.obj
 0001:0003f387       _islower                   10040387 f i libucrt:_ctype.obj
 0001:0003f3c0       _isprint                   100403c0 f i libucrt:_ctype.obj
 0001:0003f3fc       _ispunct                   100403fc f i libucrt:_ctype.obj
 0001:0003f435       _isspace                   10040435 f i libucrt:_ctype.obj
 0001:0003f46e       _isupper                   1004046e f i libucrt:_ctype.obj
 0001:0003f4a7       _isxdigit                  100404a7 f i libucrt:_ctype.obj
 0001:0003f89f       __tolower                  1004089f f   libucrt:tolower_toupper.obj
 0001:0003f8af       __tolower_l                100408af f   libucrt:tolower_toupper.obj
 0001:0003f8cf       __toupper                  100408cf f   libucrt:tolower_toupper.obj
 0001:0003f8df       __toupper_l                100408df f   libucrt:tolower_toupper.obj
 0001:0003f8ff       _tolower                   100408ff f   libucrt:tolower_toupper.obj
 0001:0003f93b       _toupper                   1004093b f   libucrt:tolower_toupper.obj
 0001:0003f977       ??$make_c_string_character_source@DPAPAD@__crt_strtox@@YA?AV?$c_string_character_source@D@0@QBDQAPAD@Z 10040977 f i libucrt:strtox.obj
 0001:0003f998       ??$make_c_string_character_source@_WPAPA_W@__crt_strtox@@YA?AV?$c_string_character_source@_W@0@QB_WQAPA_W@Z 10040998 f i libucrt:strtox.obj
 0001:0003f9b9       ??$parse_integer_from_string@JDPAPAD@__crt_strtox@@YAJQBDQAPADHQAU__crt_locale_pointers@@@Z 100409b9 f i libucrt:strtox.obj
 0001:0003f9f1       ??$parse_integer_from_string@J_WPAPA_W@__crt_strtox@@YAJQB_WQAPA_WHQAU__crt_locale_pointers@@@Z 100409f1 f i libucrt:strtox.obj
 0001:0003fa29       ??$parse_integer_from_string@KDPAPAD@__crt_strtox@@YAKQBDQAPADHQAU__crt_locale_pointers@@@Z 10040a29 f i libucrt:strtox.obj
 0001:0003fa61       ??$parse_integer_from_string@K_WPAPA_W@__crt_strtox@@YAKQB_WQAPA_WHQAU__crt_locale_pointers@@@Z 10040a61 f i libucrt:strtox.obj
 0001:0003fa99       ??$parse_integer_from_string@_JDPAPAD@__crt_strtox@@YA_JQBDQAPADHQAU__crt_locale_pointers@@@Z 10040a99 f i libucrt:strtox.obj
 0001:0003fad1       ??$parse_integer_from_string@_J_WPAPA_W@__crt_strtox@@YA_JQB_WQAPA_WHQAU__crt_locale_pointers@@@Z 10040ad1 f i libucrt:strtox.obj
 0001:0003fb09       ??$parse_integer_from_string@_KDPAPAD@__crt_strtox@@YA_KQBDQAPADHQAU__crt_locale_pointers@@@Z 10040b09 f i libucrt:strtox.obj
 0001:0003fb41       ??$parse_integer_from_string@_K_WPAPA_W@__crt_strtox@@YA_KQB_WQAPA_WHQAU__crt_locale_pointers@@@Z 10040b41 f i libucrt:strtox.obj
 0001:0003fb79       __strtoi64                 10040b79 f   libucrt:strtox.obj
 0001:0003fbb0       __strtoi64_l               10040bb0 f   libucrt:strtox.obj
 0001:0003fbe8       __strtoimax_l              10040be8 f   libucrt:strtox.obj
 0001:0003fc20       __strtol_l                 10040c20 f   libucrt:strtox.obj
 0001:0003fc58       __strtoll_l                10040c58 f   libucrt:strtox.obj
 0001:0003fc90       __strtoui64                10040c90 f   libucrt:strtox.obj
 0001:0003fcc7       __strtoui64_l              10040cc7 f   libucrt:strtox.obj
 0001:0003fcff       __strtoul_l                10040cff f   libucrt:strtox.obj
 0001:0003fd37       __strtoull_l               10040d37 f   libucrt:strtox.obj
 0001:0003fd6f       __strtoumax_l              10040d6f f   libucrt:strtox.obj
 0001:0003fda7       __wcstoi64                 10040da7 f   libucrt:strtox.obj
 0001:0003fdde       __wcstoi64_l               10040dde f   libucrt:strtox.obj
 0001:0003fe16       __wcstoimax_l              10040e16 f   libucrt:strtox.obj
 0001:0003fe4e       __wcstol_l                 10040e4e f   libucrt:strtox.obj
 0001:0003fe86       __wcstoll_l                10040e86 f   libucrt:strtox.obj
 0001:0003febe       __wcstoui64                10040ebe f   libucrt:strtox.obj
 0001:0003fef5       __wcstoui64_l              10040ef5 f   libucrt:strtox.obj
 0001:0003ff2d       __wcstoul_l                10040f2d f   libucrt:strtox.obj
 0001:0003ff65       __wcstoull_l               10040f65 f   libucrt:strtox.obj
 0001:0003ff9d       __wcstoumax_l              10040f9d f   libucrt:strtox.obj
 0001:0003ffd5       _strtoimax                 10040fd5 f   libucrt:strtox.obj
 0001:0004000c       _strtol                    1004100c f   libucrt:strtox.obj
 0001:00040043       _strtoll                   10041043 f   libucrt:strtox.obj
 0001:0004007a       _strtoul                   1004107a f   libucrt:strtox.obj
 0001:000400b1       _strtoull                  100410b1 f   libucrt:strtox.obj
 0001:000400e8       _strtoumax                 100410e8 f   libucrt:strtox.obj
 0001:0004011f       _wcstoimax                 1004111f f   libucrt:strtox.obj
 0001:00040156       _wcstol                    10041156 f   libucrt:strtox.obj
 0001:0004018d       _wcstoll                   1004118d f   libucrt:strtox.obj
 0001:000401c4       _wcstoul                   100411c4 f   libucrt:strtox.obj
 0001:000401fb       _wcstoull                  100411fb f   libucrt:strtox.obj
 0001:00040232       _wcstoumax                 10041232 f   libucrt:strtox.obj
 0001:00040269       __mbtowc_l                 10041269 f   libucrt:mbtowc.obj
 0001:000403fe       _mbtowc                    100413fe f   libucrt:mbtowc.obj
 0001:0004041e       __wctomb_l                 1004141e f   libucrt:wctomb.obj
 0001:00040485       __wctomb_s_l               10041485 f   libucrt:wctomb.obj
 0001:000405f0       _wctomb                    100415f0 f   libucrt:wctomb.obj
 0001:00040631       _wctomb_s                  10041631 f   libucrt:wctomb.obj
 0001:0004104e       ??1?$__crt_simd_cleanup_guard@$00@@QAE@XZ 1004204e f i libucrt:strnlen.obj
 0001:00041052       ??1?$__crt_simd_cleanup_guard@$0A@@@QAE@XZ 10042052 f i libucrt:strnlen.obj
 0001:00041053       ?compare_equals@?$__crt_simd_traits@$00E@@SA?AT__m256i@@T2@0@Z 10042053 f i libucrt:strnlen.obj
 0001:00041058       ?compare_equals@?$__crt_simd_traits@$00G@@SA?AT__m256i@@T2@0@Z 10042058 f i libucrt:strnlen.obj
 0001:0004105d       ?compare_equals@?$__crt_simd_traits@$0A@E@@SA?AT__m128i@@T2@0@Z 1004205d f i libucrt:strnlen.obj
 0001:00041062       ?compare_equals@?$__crt_simd_traits@$0A@G@@SA?AT__m128i@@T2@0@Z 10042062 f i libucrt:strnlen.obj
 0001:00041067       ?compute_byte_mask@?$__crt_simd_pack_traits@$00@@SAHT__m256i@@@Z 10042067 f i libucrt:strnlen.obj
 0001:0004106c       ?compute_byte_mask@?$__crt_simd_pack_traits@$0A@@@SAHT__m128i@@@Z 1004206c f i libucrt:strnlen.obj
 0001:00041071       ?get_zero_pack@?$__crt_simd_pack_traits@$00@@SA?AT__m256i@@XZ 10042071 f i libucrt:strnlen.obj
 0001:00041076       ?get_zero_pack@?$__crt_simd_pack_traits@$0A@@@SA?AT__m128i@@XZ 10042076 f i libucrt:strnlen.obj
 0001:0004107a       _strnlen                   1004207a f   libucrt:strnlen.obj
 0001:000411e4       _wcslen                    100421e4 f   libucrt:strnlen.obj
 0001:00041356       _wcsnlen                   10042356 f   libucrt:strnlen.obj
 0001:00041572       ??$?RU__acrt_ptd@@@__crt_internal_free_policy@@QBEXQBU__acrt_ptd@@@Z 10042572 f i libucrt:per_thread_data.obj
 0001:000418eb       ??0?$__crt_unique_heap_ptr@U__acrt_ptd@@U__crt_internal_free_policy@@@@QAE@QAU__acrt_ptd@@@Z 100428eb f i libucrt:per_thread_data.obj
 0001:000418ff       ??0__crt_scoped_get_last_error_reset@@QAE@XZ 100428ff f i libucrt:per_thread_data.obj
 0001:00041914       ??1?$__crt_unique_heap_ptr@U__acrt_ptd@@U__crt_internal_free_policy@@@@QAE@XZ 10042914 f i libucrt:per_thread_data.obj
 0001:0004192a       ??1__crt_scoped_get_last_error_reset@@QAE@XZ 1004292a f i libucrt:per_thread_data.obj
 0001:00041935       ??B?$__crt_unique_heap_ptr@U__acrt_ptd@@U__crt_internal_free_policy@@@@QBE_NXZ 10042935 f i libucrt:per_thread_data.obj
 0001:00041ad2       ?dangerous_get_state_array@?$dual_state_global@PAU__crt_locale_data@@@__crt_state_management@@QAEPAPAU__crt_locale_data@@XZ 10042ad2 f i libucrt:per_thread_data.obj
 0001:00041c05       ?detach@?$__crt_unique_heap_ptr@U__acrt_ptd@@U__crt_internal_free_policy@@@@QAEPAU__acrt_ptd@@XZ 10042c05 f i libucrt:per_thread_data.obj
 0001:00041c0b       ?get@?$__crt_unique_heap_ptr@U__acrt_ptd@@U__crt_internal_free_policy@@@@QBEPAU__acrt_ptd@@XZ 10042c0b f i libucrt:per_thread_data.obj
 0001:00041c0e       ?get_current_state_index@__crt_state_management@@YAIABV__crt_scoped_get_last_error_reset@@@Z 10042c0e f i libucrt:per_thread_data.obj
 0001:00041d94       ?is_valid@?$__crt_unique_heap_ptr@U__acrt_ptd@@U__crt_internal_free_policy@@@@QBE_NXZ 10042d94 f i libucrt:per_thread_data.obj
 0001:00041d9b       ?release@?$__crt_unique_heap_ptr@U__acrt_ptd@@U__crt_internal_free_policy@@@@QAEXXZ 10042d9b f i libucrt:per_thread_data.obj
 0001:00041e27       ?value@?$dual_state_global@PAU__crt_locale_data@@@__crt_state_management@@QAEAAPAU__crt_locale_data@@XZ 10042e27 f i libucrt:per_thread_data.obj
 0001:00041e2a       ___acrt_freeptd            10042e2a f   libucrt:per_thread_data.obj
 0001:00041e61       ___acrt_getptd             10042e61 f   libucrt:per_thread_data.obj
 0001:00041f45       ___acrt_getptd_head        10042f45 f   libucrt:per_thread_data.obj
 0001:00042005       ___acrt_getptd_noexit      10043005 f   libucrt:per_thread_data.obj
 0001:000420dd       ___acrt_initialize_ptd     100430dd f   libucrt:per_thread_data.obj
 0001:00042114       ___acrt_uninitialize_ptd   10043114 f   libucrt:per_thread_data.obj
 0001:00042134       ___threadhandle            10043134 f   libucrt:per_thread_data.obj
 0001:0004213a       ___threadid                1004313a f   libucrt:per_thread_data.obj
 0001:00042140       ?value@?$dual_state_global@PAU__crt_multibyte_data@@@__crt_state_management@@QAEAAPAU__crt_multibyte_data@@XZ 10043140 f i libucrt:locale_update.obj
 0001:00042143       ___acrt_update_locale_info 10043143 f   libucrt:locale_update.obj
 0001:0004217b       ___acrt_update_multibyte_info 1004317b f   libucrt:locale_update.obj
 0001:000421b3       ?__acrt_fp_classify@@YA?AW4__acrt_fp_class@@ABN@Z 100431b3 f i libucrt:cvt.obj
 0001:0004222d       ?__acrt_fp_is_negative@@YA_NABN@Z 1004322d f i libucrt:cvt.obj
 0001:00042cb2       ?strrchr@@YAPADQADH@Z      10043cb2 f i libucrt:cvt.obj
 0001:00042cbf       ___acrt_fp_format          10043cbf f   libucrt:cvt.obj
 0001:00042e87       __fputwc_nolock            10043e87 f   libucrt:fputwc.obj
 0001:00042ffb       __fputwchar                10043ffb f   libucrt:fputwc.obj
 0001:0004301b       __putwc_nolock             1004401b f   libucrt:fputwc.obj
 0001:00043028       _fputwc                    10044028 f   libucrt:fputwc.obj
 0001:000430b9       _putwc                     100440b9 f   libucrt:fputwc.obj
 0001:000430c6       _putwchar                  100440c6 f   libucrt:fputwc.obj
 0001:000430d3       ?lowio_handle@__crt_stdio_stream@@QBEHXZ 100440d3 f i libucrt:fileno.obj
 0001:000430d9       __fileno                   100440d9 f   libucrt:fileno.obj
 0001:00043108       __fputc_nolock             10044108 f   libucrt:fputc.obj
 0001:0004313b       __fputchar                 1004413b f   libucrt:fputc.obj
 0001:0004315b       __putc_nolock              1004415b f   libucrt:fputc.obj
 0001:00043168       _fputc                     10044168 f   libucrt:fputc.obj
 0001:000432a6       _putc                      100442a6 f   libucrt:fputc.obj
 0001:000432b3       _putchar                   100442b3 f   libucrt:fputc.obj
 0001:000432c0       __get_printf_count_output  100442c0 f   libucrt:printf_count_output.obj
 0001:000432da       __set_printf_count_output  100442da f   libucrt:printf_count_output.obj
 0001:0004330e       ?has_temporary_buffer@__crt_stdio_stream@@QBE_NXZ 1004430e f i libucrt:_sftbuf.obj
 0001:0004331b       ___acrt_stdio_begin_temporary_buffering_nolock 1004431b f   libucrt:_sftbuf.obj
 0001:000433fd       ___acrt_stdio_end_temporary_buffering_nolock 100443fd f   libucrt:_sftbuf.obj
 0001:00043447       ??$?RU__crt_locale_data@@@__crt_internal_free_policy@@QBEXQBU__crt_locale_data@@@Z 10044447 f i libucrt:wsetlocale.obj
 0001:0004345d       ??$?RU__crt_locale_pointers@@@__crt_internal_free_policy@@QBEXQBU__crt_locale_pointers@@@Z 1004445d f i libucrt:wsetlocale.obj
 0001:00043473       ??$?RU__crt_multibyte_data@@@__crt_internal_free_policy@@QBEXQBU__crt_multibyte_data@@@Z 10044473 f i libucrt:wsetlocale.obj
 0001:00043743       ??$__vcrt_va_start_verify_argument_type@H@@YAXXZ 10044743 f i libucrt:wsetlocale.obj
 0001:000438ce       ??0?$__crt_unique_heap_ptr@U__crt_locale_data@@U__crt_internal_free_policy@@@@QAE@QAU__crt_locale_data@@@Z 100448ce f i libucrt:wsetlocale.obj
 0001:000438e2       ??0?$__crt_unique_heap_ptr@U__crt_locale_pointers@@U__crt_internal_free_policy@@@@QAE@QAU__crt_locale_pointers@@@Z 100448e2 f i libucrt:wsetlocale.obj
 0001:000438f6       ??0?$__crt_unique_heap_ptr@U__crt_multibyte_data@@U__crt_internal_free_policy@@@@QAE@QAU__crt_multibyte_data@@@Z 100448f6 f i libucrt:wsetlocale.obj
 0001:0004390a       ??1?$__crt_unique_heap_ptr@U__crt_locale_data@@U__crt_internal_free_policy@@@@QAE@XZ 1004490a f i libucrt:wsetlocale.obj
 0001:00043920       ??1?$__crt_unique_heap_ptr@U__crt_locale_pointers@@U__crt_internal_free_policy@@@@QAE@XZ 10044920 f i libucrt:wsetlocale.obj
 0001:00043936       ??1?$__crt_unique_heap_ptr@U__crt_multibyte_data@@U__crt_internal_free_policy@@@@QAE@XZ 10044936 f i libucrt:wsetlocale.obj
 0001:0004394c       ??B?$__crt_unique_heap_ptr@U__crt_locale_data@@U__crt_internal_free_policy@@@@QBE_NXZ 1004494c f i libucrt:wsetlocale.obj
 0001:00043953       ??B?$__crt_unique_heap_ptr@U__crt_locale_pointers@@U__crt_internal_free_policy@@@@QBE_NXZ 10044953 f i libucrt:wsetlocale.obj
 0001:0004395a       ??B?$__crt_unique_heap_ptr@U__crt_multibyte_data@@U__crt_internal_free_policy@@@@QBE_NXZ 1004495a f i libucrt:wsetlocale.obj
 0001:00043bfc       ?detach@?$__crt_unique_heap_ptr@U__crt_locale_data@@U__crt_internal_free_policy@@@@QAEPAU__crt_locale_data@@XZ 10044bfc f i libucrt:wsetlocale.obj
 0001:00043c02       ?detach@?$__crt_unique_heap_ptr@U__crt_locale_pointers@@U__crt_internal_free_policy@@@@QAEPAU__crt_locale_pointers@@XZ 10044c02 f i libucrt:wsetlocale.obj
 0001:00043c08       ?detach@?$__crt_unique_heap_ptr@U__crt_multibyte_data@@U__crt_internal_free_policy@@@@QAEPAU__crt_multibyte_data@@XZ 10044c08 f i libucrt:wsetlocale.obj
 0001:00043c0e       ?get@?$__crt_unique_heap_ptr@U__crt_locale_data@@U__crt_internal_free_policy@@@@QBEPAU__crt_locale_data@@XZ 10044c0e f i libucrt:wsetlocale.obj
 0001:00043c11       ?get@?$__crt_unique_heap_ptr@U__crt_locale_pointers@@U__crt_internal_free_policy@@@@QBEPAU__crt_locale_pointers@@XZ 10044c11 f i libucrt:wsetlocale.obj
 0001:00043c14       ?get@?$__crt_unique_heap_ptr@U__crt_multibyte_data@@U__crt_internal_free_policy@@@@QBEPAU__crt_multibyte_data@@XZ 10044c14 f i libucrt:wsetlocale.obj
 0001:00043c17       ?is_valid@?$__crt_unique_heap_ptr@U__crt_locale_data@@U__crt_internal_free_policy@@@@QBE_NXZ 10044c17 f i libucrt:wsetlocale.obj
 0001:00043c1e       ?is_valid@?$__crt_unique_heap_ptr@U__crt_locale_pointers@@U__crt_internal_free_policy@@@@QBE_NXZ 10044c1e f i libucrt:wsetlocale.obj
 0001:00043c25       ?is_valid@?$__crt_unique_heap_ptr@U__crt_multibyte_data@@U__crt_internal_free_policy@@@@QBE_NXZ 10044c25 f i libucrt:wsetlocale.obj
 0001:00043c2c       ?release@?$__crt_unique_heap_ptr@U__crt_locale_data@@U__crt_internal_free_policy@@@@QAEXXZ 10044c2c f i libucrt:wsetlocale.obj
 0001:00043c42       ?release@?$__crt_unique_heap_ptr@U__crt_locale_pointers@@U__crt_internal_free_policy@@@@QAEXXZ 10044c42 f i libucrt:wsetlocale.obj
 0001:00043c58       ?release@?$__crt_unique_heap_ptr@U__crt_multibyte_data@@U__crt_internal_free_policy@@@@QAEXXZ 10044c58 f i libucrt:wsetlocale.obj
 0001:00043c6e       ___acrt_copy_locale_name   10044c6e f   libucrt:wsetlocale.obj
 0001:00043ced       ___acrt_set_locale_changed 10044ced f   libucrt:wsetlocale.obj
 0001:00043cfa       ___acrt_uninitialize_locale 10044cfa f   libucrt:wsetlocale.obj
 0001:00043d2d       ___lc_lctowcs              10044d2d f   libucrt:wsetlocale.obj
 0001:00043db9       ___lc_wcstolc              10044db9 f   libucrt:wsetlocale.obj
 0001:00043f59       __configthreadlocale       10044f59 f   libucrt:wsetlocale.obj
 0001:0004400d       __create_locale            1004500d f   libucrt:wsetlocale.obj
 0001:0004408c       __expandlocale             1004508c f   libucrt:wsetlocale.obj
 0001:00044560       __free_locale              10045560 f   libucrt:wsetlocale.obj
 0001:00044646       __get_current_locale       10045646 f   libucrt:wsetlocale.obj
 0001:0004470a       __wcreate_locale           1004570a f   libucrt:wsetlocale.obj
 0001:00044855       __wcscats                  10045855 f   libucrt:wsetlocale.obj
 0001:000448a6       __wsetlocale               100458a6 f   libucrt:wsetlocale.obj
 0001:000453dd       ___p___mb_cur_max          100463dd f   libucrt:nlsdata.obj
 0001:000454d4       ___acrt_report_runtime_error 100464d4 f   libucrt:report_runtime_error.obj
 0001:0004562e       __query_app_type           1004662e f   libucrt:report_runtime_error.obj
 0001:00045634       __set_app_type             10046634 f   libucrt:report_runtime_error.obj
 0001:00045c4b       __i64toa                   10046c4b f   libucrt:xtoa.obj
 0001:00045c9e       __i64toa_s                 10046c9e f   libucrt:xtoa.obj
 0001:00045cef       __i64tow                   10046cef f   libucrt:xtoa.obj
 0001:00045d42       __i64tow_s                 10046d42 f   libucrt:xtoa.obj
 0001:00045d93       __itoa                     10046d93 f   libucrt:xtoa.obj
 0001:00045dd7       __itoa_s                   10046dd7 f   libucrt:xtoa.obj
 0001:00045e19       __itow                     10046e19 f   libucrt:xtoa.obj
 0001:00045e5d       __itow_s                   10046e5d f   libucrt:xtoa.obj
 0001:00045e9f       __ltoa                     10046e9f f   libucrt:xtoa.obj
 0001:00045ee3       __ltoa_s                   10046ee3 f   libucrt:xtoa.obj
 0001:00045f25       __ltow                     10046f25 f   libucrt:xtoa.obj
 0001:00045f69       __ltow_s                   10046f69 f   libucrt:xtoa.obj
 0001:00045fab       __ui64toa                  10046fab f   libucrt:xtoa.obj
 0001:00045fd5       __ui64toa_s                10046fd5 f   libucrt:xtoa.obj
 0001:00045ffd       __ui64tow                  10046ffd f   libucrt:xtoa.obj
 0001:00046027       __ui64tow_s                10047027 f   libucrt:xtoa.obj
 0001:0004604f       __ultoa                    1004704f f   libucrt:xtoa.obj
 0001:00046075       __ultoa_s                  10047075 f   libucrt:xtoa.obj
 0001:00046099       __ultow                    10047099 f   libucrt:xtoa.obj
 0001:000460bf       __ultow_s                  100470bf f   libucrt:xtoa.obj
 0001:000460e3       __set_error_mode           100470e3 f   libucrt:set_error_mode.obj
 0001:000461bf       _wcscat_s                  100471bf f   libucrt:wcscat_s.obj
 0001:000462c9       _wcscpy_s                  100472c9 f   libucrt:wcscpy_s.obj
 0001:00046469       _wcsncat_s                 10047469 f   libucrt:wcsncat_s.obj
 0001:000464f9       _strcat_s                  100474f9 f   libucrt:strcat_s.obj
 0001:00046680       _strncat_s                 10047680 f   libucrt:strncat_s.obj
 0001:0004668d       ___acrt_GetModuleFileNameA 1004768d f   libucrt:getmodulefilenamea.obj
 0001:00046845       ??$message_box@$$TABQBDABQBDK@?$__crt_char_traits@D@@SAH$$QA$$TABQBD1$$QAK@Z 10047845 f i libucrt:crtmbox.obj
 0001:0004686d       ??$message_box@$$TABQB_WABQB_WK@?$__crt_char_traits@_W@@SAH$$QA$$TABQB_W1$$QAK@Z 1004786d f i libucrt:crtmbox.obj
 0001:00046895       ??$message_box@PAUHWND__@@ABQBDABQBDABI@?$__crt_char_traits@D@@SAH$$QAPAUHWND__@@ABQBD1ABI@Z 10047895 f i libucrt:crtmbox.obj
 0001:000468bd       ??$message_box@PAUHWND__@@ABQB_WABQB_WABI@?$__crt_char_traits@_W@@SAH$$QAPAUHWND__@@ABQB_W1ABI@Z 100478bd f i libucrt:crtmbox.obj
 0001:000468e5       ??$output_debug_string@ABQBD@?$__crt_char_traits@D@@SAXABQBD@Z 100478e5 f i libucrt:crtmbox.obj
 0001:000468fa       ??$output_debug_string@ABQB_W@?$__crt_char_traits@_W@@SAXABQB_W@Z 100478fa f i libucrt:crtmbox.obj
 0001:00046910       ___acrt_show_narrow_message_box 10047910 f   libucrt:crtmbox.obj
 0001:0004691d       ___acrt_show_wide_message_box 1004791d f   libucrt:crtmbox.obj
 0001:00046b2c       _setvbuf                   10047b2c f   libucrt:setvbuf.obj
 0001:00046bd1       ??$?B$$A6AXH@Z@__crt_fast_encoded_nullptr_t@@QBEP6AXH@ZXZ 10047bd1 f i libucrt:signal.obj
 0001:00046c91       ??$__crt_fast_decode_pointer@P6AXH@Z@@YAP6AXH@ZQ6AXH@Z@Z 10047c91 f i libucrt:signal.obj
 0001:00046cac       ??$__crt_fast_encode_pointer@P6AXH@Z@@YAP6AXH@ZQ6AXH@Z@Z 10047cac f i libucrt:signal.obj
 0001:00046e56       ?initialize@?$dual_state_global@P6AXH@Z@__crt_state_management@@QAEXQ6AXH@Z@Z 10047e56 f i libucrt:signal.obj
 0001:00046f34       ?value@?$dual_state_global@P6AXH@Z@__crt_state_management@@QAEAAP6AXH@ZXZ 10047f34 f i libucrt:signal.obj
 0001:00046f37       ___acrt_get_sigabrt_handler 10047f37 f   libucrt:signal.obj
 0001:00046f6a       ___acrt_initialize_signal_handlers 10047f6a f   libucrt:signal.obj
 0001:00046f8f       ___fpecode                 10047f8f f   libucrt:signal.obj
 0001:00046f9a       ___pxcptinfoptrs           10047f9a f   libucrt:signal.obj
 0001:00046fa5       _raise                     10047fa5 f   libucrt:signal.obj
 0001:00047227       _signal                    10048227 f   libucrt:signal.obj
 0001:00047444       __realloc_base             10048444 f   libucrt:realloc_base.obj
 0001:000474c7       ___acrt_initialize_locks   100484c7 f   libucrt:locks.obj
 0001:00047518       ___acrt_lock               10048518 f   libucrt:locks.obj
 0001:00047534       ___acrt_uninitialize_locks 10048534 f   libucrt:locks.obj
 0001:00047571       ___acrt_unlock             10048571 f   libucrt:locks.obj
 0001:0004758d       __lock_locales             1004858d f   libucrt:locks.obj
 0001:0004759e       __unlock_locales           1004859e f   libucrt:locks.obj
 0001:000477bc       ___acrt_get_begin_thread_init_policy 100487bc f   libucrt:win_policies.obj
 0001:00047812       ___acrt_get_developer_information_policy 10048812 f   libucrt:win_policies.obj
 0001:00047868       ___acrt_get_process_end_policy 10048868 f   libucrt:win_policies.obj
 0001:000478a7       ___acrt_get_windowing_model_policy 100488a7 f   libucrt:win_policies.obj
 0001:00047b10       __close                    10048b10 f   libucrt:close.obj
 0001:00047bc2       __close_nolock             10048bc2 f   libucrt:close.obj
 0001:00047c85       ??$?RU__crt_stdio_stream_data@@@__crt_internal_free_policy@@QBEXQBU__crt_stdio_stream_data@@@Z 10048c85 f i libucrt:stream.obj
 0001:00047c9b       ??0?$__crt_unique_heap_ptr@U__crt_stdio_stream_data@@U__crt_internal_free_policy@@@@QAE@QAU__crt_stdio_stream_data@@@Z 10048c9b f i libucrt:stream.obj
 0001:00047caf       ??0__crt_stdio_stream@@QAE@XZ 10048caf f i libucrt:stream.obj
 0001:00047cb5       ??1?$__crt_unique_heap_ptr@U__crt_stdio_stream_data@@U__crt_internal_free_policy@@@@QAE@XZ 10048cb5 f i libucrt:stream.obj
 0001:00047ccb       ?__acrt_stdio_allocate_stream@@YA?AV__crt_stdio_stream@@XZ 10048ccb f   libucrt:stream.obj
 0001:00047d41       ?__acrt_stdio_free_stream@@YAXV__crt_stdio_stream@@@Z 10048d41 f   libucrt:stream.obj
 0001:00047d8a       ?deallocate@__crt_stdio_stream@@QAEXXZ 10048d8a f i libucrt:stream.obj
 0001:00047d96       ?detach@?$__crt_unique_heap_ptr@U__crt_stdio_stream_data@@U__crt_internal_free_policy@@@@QAEPAU__crt_stdio_stream_data@@XZ 10048d96 f i libucrt:stream.obj
 0001:00047e8f       ?lock@__crt_stdio_stream@@QBEXXZ 10048e8f f i libucrt:stream.obj
 0001:00047e9a       ?release@?$__crt_unique_heap_ptr@U__crt_stdio_stream_data@@U__crt_internal_free_policy@@@@QAEXXZ 10048e9a f i libucrt:stream.obj
 0001:00047eb0       ?try_allocate@__crt_stdio_stream@@QAE_NXZ 10048eb0 f i libucrt:stream.obj
 0001:00047ed8       ??$__acrt_stdio_parse_mode@D@@YA?AU__acrt_stdio_stream_mode@@QBD@Z 10048ed8 f i libucrt:openfile.obj
 0001:00048192       ??$__acrt_stdio_parse_mode@_W@@YA?AU__acrt_stdio_stream_mode@@QB_W@Z 10049192 f i libucrt:openfile.obj
 0001:000485e7       ??$tcsncmp@AAPBDAAY02$$CBDI@?$__crt_char_traits@D@@SAHAAPBDAAY02$$CBD$$QAI@Z 100495e7 f i libucrt:openfile.obj
 0001:0004860a       ??$tcsncmp@AAPB_WAAY02$$CB_WI@?$__crt_char_traits@_W@@SAHAAPB_WAAY02$$CB_W$$QAI@Z 1004960a f i libucrt:openfile.obj
 0001:0004862d       ??$tcsnicmp@AAPBDAAY04$$CBDI@?$__crt_char_traits@D@@SAHAAPBDAAY04$$CBD$$QAI@Z 1004962d f i libucrt:openfile.obj
 0001:00048650       ??$tcsnicmp@AAPBDAAY06$$CBDI@?$__crt_char_traits@D@@SAHAAPBDAAY06$$CBD$$QAI@Z 10049650 f i libucrt:openfile.obj
 0001:00048673       ??$tcsnicmp@AAPBDAAY07$$CBDI@?$__crt_char_traits@D@@SAHAAPBDAAY07$$CBD$$QAI@Z 10049673 f i libucrt:openfile.obj
 0001:00048696       ??$tcsnicmp@AAPB_WAAY04$$CB_WI@?$__crt_char_traits@_W@@SAHAAPB_WAAY04$$CB_W$$QAI@Z 10049696 f i libucrt:openfile.obj
 0001:000486b9       ??$tcsnicmp@AAPB_WAAY06$$CB_WI@?$__crt_char_traits@_W@@SAHAAPB_WAAY06$$CB_W$$QAI@Z 100496b9 f i libucrt:openfile.obj
 0001:000486dc       ??$tcsnicmp@AAPB_WAAY07$$CB_WI@?$__crt_char_traits@_W@@SAHAAPB_WAAY07$$CB_W$$QAI@Z 100496dc f i libucrt:openfile.obj
 0001:000486ff       ??$tsopen_s@PAHABQBDABHABHH@?$__crt_char_traits@D@@SAH$$QAPAHABQBDABH2$$QAH@Z 100496ff f i libucrt:openfile.obj
 0001:00048731       ??$tsopen_s@PAHABQB_WABHABHH@?$__crt_char_traits@_W@@SAH$$QAPAHABQB_WABH2$$QAH@Z 10049731 f i libucrt:openfile.obj
 0001:00048763       ?__acrt_stdio_parse_mode_D@@YA_NAAU__acrt_stdio_stream_mode@@@Z 10049763 f i libucrt:openfile.obj
 0001:00048784       ?__acrt_stdio_parse_mode_N@@YA_NAAU__acrt_stdio_stream_mode@@@Z 10049784 f i libucrt:openfile.obj
 0001:0004879a       ?__acrt_stdio_parse_mode_R@@YA_NAAU__acrt_stdio_stream_mode@@AA_N@Z 1004979a f i libucrt:openfile.obj
 0001:000487bf       ?__acrt_stdio_parse_mode_S@@YA_NAAU__acrt_stdio_stream_mode@@AA_N@Z 100497bf f i libucrt:openfile.obj
 0001:000487e4       ?__acrt_stdio_parse_mode_T@@YA_NAAU__acrt_stdio_stream_mode@@@Z 100497e4 f i libucrt:openfile.obj
 0001:0004880a       ?__acrt_stdio_parse_mode_b@@YA_NAAU__acrt_stdio_stream_mode@@@Z 1004980a f i libucrt:openfile.obj
 0001:00048832       ?__acrt_stdio_parse_mode_c@@YA_NAAU__acrt_stdio_stream_mode@@AA_N@Z 10049832 f i libucrt:openfile.obj
 0001:0004885c       ?__acrt_stdio_parse_mode_n@@YA_NAAU__acrt_stdio_stream_mode@@AA_N@Z 1004985c f i libucrt:openfile.obj
 0001:00048886       ?__acrt_stdio_parse_mode_plus@@YA_NAAU__acrt_stdio_stream_mode@@AA_N@Z 10049886 f i libucrt:openfile.obj
 0001:000488c8       ?__acrt_stdio_parse_mode_t@@YA_NAAU__acrt_stdio_stream_mode@@@Z 100498c8 f i libucrt:openfile.obj
 0001:000488f0       ?__acrt_stdio_parse_mode_x@@YA_NAAU__acrt_stdio_stream_mode@@@Z 100498f0 f i libucrt:openfile.obj
 0001:00048918       __openfile                 10049918 f   libucrt:openfile.obj
 0001:00048925       __wopenfile                10049925 f   libucrt:openfile.obj
 0001:00048ff8       __read                     10049ff8 f   libucrt:read.obj
 0001:00049144       __read_nolock              1004a144 f   libucrt:read.obj
 0001:000495e2       __utf8_no_of_trailbytes    1004a5e2 f i libucrt:read.obj
 0001:00049b01       ___acrt_stdio_refill_and_read_narrow_nolock 1004ab01 f   libucrt:_filbuf.obj
 0001:00049b0e       ___acrt_stdio_refill_and_read_wide_nolock 1004ab0e f   libucrt:_filbuf.obj
 0001:0004a290       __write                    1004b290 f   libucrt:write.obj
 0001:0004a3b2       __write_nolock             1004b3b2 f   libucrt:write.obj
 0001:0004aaf4       ___acrt_stdio_flush_and_write_narrow_nolock 1004baf4 f   libucrt:_flsbuf.obj
 0001:0004ab01       ___acrt_stdio_flush_and_write_wide_nolock 1004bb01 f   libucrt:_flsbuf.obj
 0001:0004ab90       ___acrt_MultiByteToWideChar 1004bb90 f   libucrt:multibytetowidechar.obj
 0001:0004ac2b       __wremove                  1004bc2b f   libucrt:wunlink.obj
 0001:0004ac5d       __wunlink                  1004bc5d f   libucrt:wunlink.obj
 0001:0004b0ca       __lseek                    1004c0ca f   libucrt:lseek.obj
 0001:0004b0d7       __lseek_nolock             1004c0d7 f   libucrt:lseek.obj
 0001:0004b0e4       __lseeki64                 1004c0e4 f   libucrt:lseek.obj
 0001:0004b105       __lseeki64_nolock          1004c105 f   libucrt:lseek.obj
 0001:0004b126       __chgsign                  1004c126 f   libucrt:ieeemisc.obj
 0001:0004b160       __chgsignf                 1004c160 f   libucrt:ieeemisc.obj
 0001:0004b18b       __copysign                 1004c18b f   libucrt:ieeemisc.obj
 0001:0004b1bf       __copysignf                1004c1bf f   libucrt:ieeemisc.obj
 0001:0004b1e4       __finite                   1004c1e4 f   libucrt:ieeemisc.obj
 0001:0004b204       __fpclass                  1004c204 f   libucrt:ieeemisc.obj
 0001:0004b2d1       __isnan                    1004c2d1 f   libucrt:ieeemisc.obj
 0001:0004b314       __logb                     1004c314 f   libucrt:ieeemisc.obj
 0001:0004b419       __nextafter                1004c419 f   libucrt:ieeemisc.obj
 0001:0004b43f       __scalb                    1004c43f f   libucrt:ieeemisc.obj
 0001:0004b45f       __add_exp                  1004c45f f   libucrt:util.obj
 0001:0004b499       __decomp                   1004c499 f   libucrt:util.obj
 0001:0004b5ae       __get_exp                  1004c5ae f   libucrt:util.obj
 0001:0004b5cc       __set_bexp                 1004c5cc f   libucrt:util.obj
 0001:0004b5ff       __set_exp                  1004c5ff f   libucrt:util.obj
 0001:0004b639       __sptype                   1004c639 f   libucrt:util.obj
 0001:0004b6ae       ___clrfp_sse2              1004c6ae f   libucrt:fpctrl.obj
 0001:0004b6d7       ___ctrlfp_sse2             1004c6d7 f   libucrt:fpctrl.obj
 0001:0004b720       ___fclrf_sse2              1004c720 f   libucrt:fpctrl.obj
 0001:0004b746       ___get_fpsr_sse2           1004c746 f   libucrt:fpctrl.obj
 0001:0004b76b       ___set_fpsr_sse2           1004c76b f   libucrt:fpctrl.obj
 0001:0004b7fe       ___set_statfp_sse2         1004c7fe f   libucrt:fpctrl.obj
 0001:0004b81f       ___statfp_sse2             1004c81f f   libucrt:fpctrl.obj
 0001:0004b839       __clrfp                    1004c839 f   libucrt:fpctrl.obj
 0001:0004b850       __ctrlfp                   1004c850 f   libucrt:fpctrl.obj
 0001:0004b887       __set_statfp               1004c887 f   libucrt:fpctrl.obj
 0001:0004b8f8       __statfp                   1004c8f8 f   libucrt:fpctrl.obj
 0001:0004b90e       ??$__crt_fast_decode_pointer@P6AHPAU_exception@@@Z@@YAP6AHPAU_exception@@@ZQ6AH0@Z@Z 1004c90e f i libucrt:matherr.obj
 0001:0004b929       ??$__crt_fast_encode_pointer@P6AHPAU_exception@@@Z@@YAP6AHPAU_exception@@@ZQ6AH0@Z@Z 1004c929 f i libucrt:matherr.obj
 0001:0004b94f       ?initialize@?$dual_state_global@P6AHPAU_exception@@@Z@__crt_state_management@@QAEXQ6AHPAU_exception@@@Z@Z 1004c94f f i libucrt:matherr.obj
 0001:0004b97e       ?value@?$dual_state_global@P6AHPAU_exception@@@Z@__crt_state_management@@QAEAAP6AHPAU_exception@@@ZXZ 1004c97e f i libucrt:matherr.obj
 0001:0004b981       ___acrt_has_user_matherr   1004c981 f   libucrt:matherr.obj
 0001:0004b99f       ___acrt_initialize_user_matherr 1004c99f f   libucrt:matherr.obj
 0001:0004b9b1       ___acrt_invoke_user_matherr 1004c9b1 f   libucrt:matherr.obj
 0001:0004ba0c       ___setusermatherr          1004ca0c f   libucrt:matherr.obj
 0001:0004c517       ??$find_first_file_ex@ABQADW4_FINDEX_INFO_LEVELS@@PAU_WIN32_FIND_DATAA@@W4_FINDEX_SEARCH_OPS@@$$TH@?$__crt_char_traits@D@@SAPAXABQAD$$QAW4_FINDEX_INFO_LEVELS@@$$QAPAU_WIN32_FIND_DATAA@@$$QAW4_FINDEX_SEARCH_OPS@@$$QA$$T$$QAH@Z 1004d517 f i libucrt:argv_wildcards.obj
 0001:0004c54f       ??$find_first_file_ex@ABQA_WW4_FINDEX_INFO_LEVELS@@PAU_WIN32_FIND_DATAW@@W4_FINDEX_SEARCH_OPS@@$$TH@?$__crt_char_traits@_W@@SAPAXABQA_W$$QAW4_FINDEX_INFO_LEVELS@@$$QAPAU_WIN32_FIND_DATAW@@$$QAW4_FINDEX_SEARCH_OPS@@$$QA$$T$$QAH@Z 1004d54f f i libucrt:argv_wildcards.obj
 0001:0004c584       ??$find_next_file@PAXPAU_WIN32_FIND_DATAA@@@?$__crt_char_traits@D@@SAH$$QAPAX$$QAPAU_WIN32_FIND_DATAA@@@Z 1004d584 f i libucrt:argv_wildcards.obj
 0001:0004c5a2       ??$find_next_file@PAXPAU_WIN32_FIND_DATAW@@@?$__crt_char_traits@_W@@SAH$$QAPAX$$QAPAU_WIN32_FIND_DATAW@@@Z 1004d5a2 f i libucrt:argv_wildcards.obj
 0001:0004c5be       ??$tcsncpy_s@AAPADIAAPADABI@?$__crt_char_traits@D@@SAHAAPAD$$QAI0ABI@Z 1004d5be f i libucrt:argv_wildcards.obj
 0001:0004c5e9       ??$tcsncpy_s@AAPA_WIAAPA_WABI@?$__crt_char_traits@_W@@SAHAAPA_W$$QAI0ABI@Z 1004d5e9 f i libucrt:argv_wildcards.obj
 0001:0004c614       ??$tcsncpy_s@PADABIABQBDABI@?$__crt_char_traits@D@@SAH$$QAPADABIABQBD1@Z 1004d614 f i libucrt:argv_wildcards.obj
 0001:0004c63f       ??$tcsncpy_s@PADIABQBDABI@?$__crt_char_traits@D@@SAH$$QAPAD$$QAIABQBDABI@Z 1004d63f f i libucrt:argv_wildcards.obj
 0001:0004c66a       ??$tcsncpy_s@PA_WABIABQB_WABI@?$__crt_char_traits@_W@@SAH$$QAPA_WABIABQB_W1@Z 1004d66a f i libucrt:argv_wildcards.obj
 0001:0004c695       ??$tcsncpy_s@PA_WIABQB_WABI@?$__crt_char_traits@_W@@SAH$$QAPA_W$$QAIABQB_WABI@Z 1004d695 f i libucrt:argv_wildcards.obj
 0001:0004c6c0       ??$tcspbrk@AAPADAAY02$$CBD@?$__crt_char_traits@D@@SAPADAAPADAAY02$$CBD@Z 1004d6c0 f i libucrt:argv_wildcards.obj
 0001:0004c6db       ??$tcspbrk@AAPA_WAAY02$$CB_W@?$__crt_char_traits@_W@@SAPA_WAAPA_WAAY02$$CB_W@Z 1004d6db f i libucrt:argv_wildcards.obj
 0001:0004c6f6       ??0?$__crt_unique_handle_t@U__crt_findfile_traits@@@@QAE@QAX@Z 1004d6f6 f i libucrt:argv_wildcards.obj
 0001:0004c72a       ??1?$__crt_unique_handle_t@U__crt_findfile_traits@@@@QAE@XZ 1004d72a f i libucrt:argv_wildcards.obj
 0001:0004c8d4       ?close@?$__crt_unique_handle_t@U__crt_findfile_traits@@@@QAEXXZ 1004d8d4 f i libucrt:argv_wildcards.obj
 0001:0004c8f0       ?close@__crt_findfile_traits@@SA_NPAX@Z 1004d8f0 f i libucrt:argv_wildcards.obj
 0001:0004ca62       ?get@?$__crt_unique_handle_t@U__crt_findfile_traits@@@@QBEPAXXZ 1004da62 f i libucrt:argv_wildcards.obj
 0001:0004ca65       ?get_invalid_value@__crt_findfile_traits@@SAPAXXZ 1004da65 f i libucrt:argv_wildcards.obj
 0001:0004ca9c       ?strpbrk@@YAPADQADQBD@Z    1004da9c f i libucrt:argv_wildcards.obj
 0001:0004caa9       ?wcspbrk@@YAPA_WPA_WPB_W@Z 1004daa9 f i libucrt:argv_wildcards.obj
 0001:0004cab6       ___acrt_expand_narrow_argv_wildcards 1004dab6 f   libucrt:argv_wildcards.obj
 0001:0004cac3       ___acrt_expand_wide_argv_wildcards 1004dac3 f   libucrt:argv_wildcards.obj
 0001:0004cb55       ??$initialize_from_array@$$BY10BAA@E@?$dual_state_global@PAE@__crt_state_management@@QAAXAAY10BAA@E@Z 1004db55 f i libucrt:mbctype.obj
 0001:0004cb67       ??$initialize_from_array@$$BY10BAB@E@?$dual_state_global@PAE@__crt_state_management@@QAAXAAY10BAB@E@Z 1004db67 f i libucrt:mbctype.obj
 0001:0004ccc6       ?dangerous_get_state_array@?$dual_state_global@PAE@__crt_state_management@@QAEPAPAEXZ 1004dcc6 f i libucrt:mbctype.obj
 0001:0004ccc9       ?dangerous_get_state_array@?$dual_state_global@PAU__crt_multibyte_data@@@__crt_state_management@@QAEPAPAU__crt_multibyte_data@@XZ 1004dcc9 f i libucrt:mbctype.obj
 0001:0004cd5b       ?initialize@?$dual_state_global@PAU__crt_multibyte_data@@@__crt_state_management@@QAEXQAU__crt_multibyte_data@@@Z 1004dd5b f i libucrt:mbctype.obj
 0001:0004d24a       ?value@?$dual_state_global@PAE@__crt_state_management@@QAEAAPAEXZ 1004e24a f i libucrt:mbctype.obj
 0001:0004d24d       ___acrt_initialize_multibyte 1004e24d f   libucrt:mbctype.obj
 0001:0004d2a7       ___acrt_update_thread_multibyte_data 1004e2a7 f   libucrt:mbctype.obj
 0001:0004d2be       ___p__mbcasemap            1004e2be f   libucrt:mbctype.obj
 0001:0004d2c4       ___p__mbctype              1004e2c4 f   libucrt:mbctype.obj
 0001:0004d2ca       __getmbcp                  1004e2ca f   libucrt:mbctype.obj
 0001:0004d30d       __setmbcp                  1004e30d f   libucrt:mbctype.obj
 0001:0004d333       __setmbcp_nolock           1004e333 f   libucrt:mbctype.obj
 0001:0004d6bc       __ismbbalnum               1004e6bc f   libucrt:ismbbyte.obj
 0001:0004d6dd       __ismbbalnum_l             1004e6dd f   libucrt:ismbbyte.obj
 0001:0004d700       __ismbbalpha               1004e700 f   libucrt:ismbbyte.obj
 0001:0004d721       __ismbbalpha_l             1004e721 f   libucrt:ismbbyte.obj
 0001:0004d744       __ismbbblank               1004e744 f   libucrt:ismbbyte.obj
 0001:0004d76f       __ismbbblank_l             1004e76f f   libucrt:ismbbyte.obj
 0001:0004d79c       __ismbbgraph               1004e79c f   libucrt:ismbbyte.obj
 0001:0004d7bd       __ismbbgraph_l             1004e7bd f   libucrt:ismbbyte.obj
 0001:0004d7e0       __ismbbkalnum              1004e7e0 f   libucrt:ismbbyte.obj
 0001:0004d7fe       __ismbbkalnum_l            1004e7fe f   libucrt:ismbbyte.obj
 0001:0004d81d       __ismbbkana                1004e81d f   libucrt:ismbbyte.obj
 0001:0004d834       __ismbbkana_l              1004e834 f   libucrt:ismbbyte.obj
 0001:0004d899       __ismbbkprint              1004e899 f   libucrt:ismbbyte.obj
 0001:0004d8b7       __ismbbkprint_l            1004e8b7 f   libucrt:ismbbyte.obj
 0001:0004d8d6       __ismbbkpunct              1004e8d6 f   libucrt:ismbbyte.obj
 0001:0004d8f4       __ismbbkpunct_l            1004e8f4 f   libucrt:ismbbyte.obj
 0001:0004d913       __ismbblead                1004e913 f   libucrt:ismbbyte.obj
 0001:0004d931       __ismbblead_l              1004e931 f   libucrt:ismbbyte.obj
 0001:0004d950       __ismbbprint               1004e950 f   libucrt:ismbbyte.obj
 0001:0004d971       __ismbbprint_l             1004e971 f   libucrt:ismbbyte.obj
 0001:0004d994       __ismbbpunct               1004e994 f   libucrt:ismbbyte.obj
 0001:0004d9b2       __ismbbpunct_l             1004e9b2 f   libucrt:ismbbyte.obj
 0001:0004d9d1       __ismbbtrail               1004e9d1 f   libucrt:ismbbyte.obj
 0001:0004d9ef       __ismbbtrail_l             1004e9ef f   libucrt:ismbbyte.obj
 0001:0004da0e       ___acrt_initialize_command_line 1004ea0e f   libucrt:argv_data.obj
 0001:0004da2d       ___acrt_uninitialize_command_line 1004ea2d f   libucrt:argv_data.obj
 0001:0004da30       ___p___argc                1004ea30 f   libucrt:argv_data.obj
 0001:0004da36       ___p___argv                1004ea36 f   libucrt:argv_data.obj
 0001:0004da3c       ___p___wargv               1004ea3c f   libucrt:argv_data.obj
 0001:0004da42       ___p__acmdln               1004ea42 f   libucrt:argv_data.obj
 0001:0004da48       ___p__pgmptr               1004ea48 f   libucrt:argv_data.obj
 0001:0004da4e       ___p__wcmdln               1004ea4e f   libucrt:argv_data.obj
 0001:0004da54       ___p__wpgmptr              1004ea54 f   libucrt:argv_data.obj
 0001:0004da5a       __get_pgmptr               1004ea5a f   libucrt:argv_data.obj
 0001:0004da97       __get_wpgmptr              1004ea97 f   libucrt:argv_data.obj
 0001:0004db52       ___acrt_WideCharToMultiByte 1004eb52 f   libucrt:widechartomultibyte.obj
 0001:0004dce4       ___dcrt_get_narrow_environment_from_os 1004ece4 f   libucrt:get_environment_from_os.obj
 0001:0004dd8b       ___dcrt_get_wide_environment_from_os 1004ed8b f   libucrt:get_environment_from_os.obj
 0001:0004e68f       ??$get_or_create_environment_nolock@$$V@?$__crt_char_traits@D@@SAPAPADXZ 1004f68f f i libucrt:setenv.obj
 0001:0004e694       ??$get_or_create_environment_nolock@$$V@?$__crt_char_traits@_W@@SAPAPA_WXZ 1004f694 f i libucrt:setenv.obj
 0001:0004e699       ??$set_environment_variable@ABQADQAD@?$__crt_char_traits@D@@SAHABQAD$$QBQAD@Z 1004f699 f i libucrt:setenv.obj
 0001:0004e6b7       ??$set_environment_variable@ABQA_WQA_W@?$__crt_char_traits@_W@@SAHABQA_W$$QBQA_W@Z 1004f6b7 f i libucrt:setenv.obj
 0001:0004e6d3       ??$tcschr@ABQADD@?$__crt_char_traits@D@@SAPADABQAD$$QAD@Z 1004f6d3 f i libucrt:setenv.obj
 0001:0004e6f3       ??$tcschr@ABQA_WD@?$__crt_char_traits@_W@@SAPA_WABQA_W$$QAD@Z 1004f6f3 f i libucrt:setenv.obj
 0001:0004e718       ??$tcscpy_s@AAPADABIAAPAD@?$__crt_char_traits@D@@SAHAAPADABI0@Z 1004f718 f i libucrt:setenv.obj
 0001:0004e73d       ??$tcscpy_s@AAPA_WABIAAPA_W@?$__crt_char_traits@_W@@SAHAAPA_WABI0@Z 1004f73d f i libucrt:setenv.obj
 0001:0004e762       ??$tcscpy_s@ABQADABIABQAD@?$__crt_char_traits@D@@SAHABQADABI0@Z 1004f762 f i libucrt:setenv.obj
 0001:0004e787       ??$tcscpy_s@ABQA_WABIABQA_W@?$__crt_char_traits@_W@@SAHABQA_WABI0@Z 1004f787 f i libucrt:setenv.obj
 0001:0004e7ac       ??$tcsnicoll@ABQBDAAPADABI@?$__crt_char_traits@D@@SAHABQBDAAPADABI@Z 1004f7ac f i libucrt:setenv.obj
 0001:0004e7d1       ??$tcsnicoll@ABQB_WAAPA_WABI@?$__crt_char_traits@_W@@SAHABQB_WAAPA_WABI@Z 1004f7d1 f i libucrt:setenv.obj
 0001:0004e81a       ?strchr@@YAPADQADH@Z       1004f81a f i libucrt:setenv.obj
 0001:0004e827       ?wcschr@@YAPA_WPA_W_W@Z    1004f827 f i libucrt:setenv.obj
 0001:0004e834       ___dcrt_set_variable_in_narrow_environment_nolock 1004f834 f   libucrt:setenv.obj
 0001:0004e841       ___dcrt_set_variable_in_wide_environment_nolock 1004f841 f   libucrt:setenv.obj
 0001:0004e84e       __recalloc                 1004f84e f   libucrt:recalloc.obj
 0001:0004e85b       __recalloc_base            1004f85b f   libucrt:recalloc.obj
 0001:0004e8e3       ___acrt_getheap            1004f8e3 f   libucrt:heap_handle.obj
 0001:0004e8e9       ___acrt_initialize_heap    1004f8e9 f   libucrt:heap_handle.obj
 0001:0004e8fe       ___acrt_uninitialize_heap  1004f8fe f   libucrt:heap_handle.obj
 0001:0004e90a       __get_heap_handle          1004f90a f   libucrt:heap_handle.obj
 0001:0004e910       ___acrt_execute_initializers 1004f910 f   libucrt:shared_initialization.obj
 0001:0004e9b3       ___acrt_execute_uninitializers 1004f9b3 f   libucrt:shared_initialization.obj
 0001:0004ea0d       ??$?B$$A6AHI@Z@__crt_fast_encoded_nullptr_t@@QBEP6AHI@ZXZ 1004fa0d f i libucrt:new_handler.obj
 0001:0004ea2b       ??$__crt_fast_decode_pointer@P6AHI@Z@@YAP6AHI@ZQ6AHI@Z@Z 1004fa2b f i libucrt:new_handler.obj
 0001:0004ea46       ??$__crt_fast_encode_pointer@P6AHI@Z@@YAP6AHI@ZQ6AHI@Z@Z 1004fa46 f i libucrt:new_handler.obj
 0001:0004ea6c       ?_set_new_handler@@YAP6AHI@ZH@Z 1004fa6c f   libucrt:new_handler.obj
 0001:0004ea92       ?initialize@?$dual_state_global@P6AHI@Z@__crt_state_management@@QAEXQ6AHI@Z@Z 1004fa92 f i libucrt:new_handler.obj
 0001:0004eac1       ?value@?$dual_state_global@P6AHI@Z@__crt_state_management@@QAEAAP6AHI@ZXZ 1004fac1 f i libucrt:new_handler.obj
 0001:0004eac4       ___acrt_initialize_new_handler 1004fac4 f   libucrt:new_handler.obj
 0001:0004ead6       __callnewh                 1004fad6 f   libucrt:new_handler.obj
 0001:0004eb2b       __query_new_handler        1004fb2b f   libucrt:new_handler.obj
 0001:0004eb91       __set_new_handler          1004fb91 f   libucrt:new_handler.obj
 0001:0004ec09       ?value@?$dual_state_global@J@__crt_state_management@@QAEAAJXZ 1004fc09 f i libucrt:new_mode.obj
 0001:0004ec0c       __query_new_mode           1004fc0c f   libucrt:new_mode.obj
 0001:0004ec12       __set_new_mode             1004fc12 f   libucrt:new_mode.obj
 0001:0004ec4c       ___pctype_func             1004fc4c f   libucrt:ctype.obj
 0001:0004ec7b       ___pwctype_func            1004fc7b f   libucrt:ctype.obj
 0001:0004ec81       __iswctype_l               1004fc81 f   libucrt:iswctype.obj
 0001:0004ec9a       _iswctype                  1004fc9a f   libucrt:iswctype.obj
 0001:0004ed1f       __isctype                  1004fd1f f   libucrt:isctype.obj
 0001:0004ed5d       __isctype_l                1004fd5d f   libucrt:isctype.obj
 0001:0004ee6b       _wcsncmp                   1004fe6b f   libucrt:wcsncmp.obj
 0001:0004f05f       ___acrt_DownlevelLCIDToLocaleName 1005005f f   libucrt:lcidtoname_downlevel.obj
 0001:0004f133       ___acrt_DownlevelLocaleNameToLCID 10050133 f   libucrt:lcidtoname_downlevel.obj
 0001:0004f31a       __commit                   1005031a f   libucrt:commit.obj
 0001:0004f3b8       ??$?RU__crt_lowio_handle_data@@@__crt_internal_free_policy@@QBEXQBU__crt_lowio_handle_data@@@Z 100503b8 f i libucrt:osfinfo.obj
 0001:0004f3ce       ??0?$__crt_unique_heap_ptr@U__crt_lowio_handle_data@@U__crt_internal_free_policy@@@@QAE@QAU__crt_lowio_handle_data@@@Z 100503ce f i libucrt:osfinfo.obj
 0001:0004f3e2       ??1?$__crt_unique_heap_ptr@U__crt_lowio_handle_data@@U__crt_internal_free_policy@@@@QAE@XZ 100503e2 f i libucrt:osfinfo.obj
 0001:0004f3f8       ??B?$__crt_unique_heap_ptr@U__crt_lowio_handle_data@@U__crt_internal_free_policy@@@@QBE_NXZ 100503f8 f i libucrt:osfinfo.obj
 0001:0004f3ff       ?detach@?$__crt_unique_heap_ptr@U__crt_lowio_handle_data@@U__crt_internal_free_policy@@@@QAEPAU__crt_lowio_handle_data@@XZ 100503ff f i libucrt:osfinfo.obj
 0001:0004f405       ?get@?$__crt_unique_heap_ptr@U__crt_lowio_handle_data@@U__crt_internal_free_policy@@@@QBEPAU__crt_lowio_handle_data@@XZ 10050405 f i libucrt:osfinfo.obj
 0001:0004f408       ?is_valid@?$__crt_unique_heap_ptr@U__crt_lowio_handle_data@@U__crt_internal_free_policy@@@@QBE_NXZ 10050408 f i libucrt:osfinfo.obj
 0001:0004f40f       ?release@?$__crt_unique_heap_ptr@U__crt_lowio_handle_data@@U__crt_internal_free_policy@@@@QAEXXZ 1005040f f i libucrt:osfinfo.obj
 0001:0004f425       ___acrt_lowio_create_handle_array 10050425 f   libucrt:osfinfo.obj
 0001:0004f4bd       ___acrt_lowio_destroy_handle_array 100504bd f   libucrt:osfinfo.obj
 0001:0004f4ff       ___acrt_lowio_ensure_fh_exists 100504ff f   libucrt:osfinfo.obj
 0001:0004f5b8       ___acrt_lowio_lock_fh      100505b8 f   libucrt:osfinfo.obj
 0001:0004f5e3       ___acrt_lowio_set_os_handle 100505e3 f   libucrt:osfinfo.obj
 0001:0004f69c       ___acrt_lowio_unlock_fh    1005069c f   libucrt:osfinfo.obj
 0001:0004f6c7       __alloc_osfhnd             100506c7 f   libucrt:osfinfo.obj
 0001:0004f812       __free_osfhnd              10050812 f   libucrt:osfinfo.obj
 0001:0004f8c7       __get_osfhandle            100508c7 f   libucrt:osfinfo.obj
 0001:0004f94b       __open_osfhandle           1005094b f   libucrt:osfinfo.obj
 0001:0004fa9a       ___iswcsym                 10050a9a f i libucrt:_wctype.obj
 0001:0004fac9       ___iswcsymf                10050ac9 f i libucrt:_wctype.obj
 0001:0004faf8       __isleadbyte_l             10050af8 f i libucrt:_wctype.obj
 0001:0004fb3f       __iswalnum_l               10050b3f f i libucrt:_wctype.obj
 0001:0004fb5a       __iswalpha_l               10050b5a f i libucrt:_wctype.obj
 0001:0004fb75       __iswblank_l               10050b75 f i libucrt:_wctype.obj
 0001:0004fb99       __iswcntrl_l               10050b99 f i libucrt:_wctype.obj
 0001:0004fbb0       __iswcsym_l                10050bb0 f i libucrt:_wctype.obj
 0001:0004fbdf       __iswcsymf_l               10050bdf f i libucrt:_wctype.obj
 0001:0004fc0e       __iswdigit_l               10050c0e f i libucrt:_wctype.obj
 0001:0004fc25       __iswgraph_l               10050c25 f i libucrt:_wctype.obj
 0001:0004fc40       __iswlower_l               10050c40 f i libucrt:_wctype.obj
 0001:0004fc57       __iswprint_l               10050c57 f i libucrt:_wctype.obj
 0001:0004fc72       __iswpunct_l               10050c72 f i libucrt:_wctype.obj
 0001:0004fc89       __iswspace_l               10050c89 f i libucrt:_wctype.obj
 0001:0004fca0       __iswupper_l               10050ca0 f i libucrt:_wctype.obj
 0001:0004fcb7       __iswxdigit_l              10050cb7 f i libucrt:_wctype.obj
 0001:0004fcd2       _isleadbyte                10050cd2 f i libucrt:_wctype.obj
 0001:0004fce9       _iswalnum                  10050ce9 f i libucrt:_wctype.obj
 0001:0004fd04       _iswalpha                  10050d04 f i libucrt:_wctype.obj
 0001:0004fd1f       _iswascii                  10050d1f f i libucrt:_wctype.obj
 0001:0004fd38       _iswblank                  10050d38 f i libucrt:_wctype.obj
 0001:0004fd5c       _iswcntrl                  10050d5c f i libucrt:_wctype.obj
 0001:0004fd73       _iswdigit                  10050d73 f i libucrt:_wctype.obj
 0001:0004fd8a       _iswgraph                  10050d8a f i libucrt:_wctype.obj
 0001:0004fda5       _iswlower                  10050da5 f i libucrt:_wctype.obj
 0001:0004fdbc       _iswprint                  10050dbc f i libucrt:_wctype.obj
 0001:0004fdd7       _iswpunct                  10050dd7 f i libucrt:_wctype.obj
 0001:0004fdee       _iswspace                  10050dee f i libucrt:_wctype.obj
 0001:0004fe05       _iswupper                  10050e05 f i libucrt:_wctype.obj
 0001:0004fe1c       _iswxdigit                 10050e1c f i libucrt:_wctype.obj
 0001:0004fe37       ??0?$__crt_scoped_stack_ptr@_W@@QAE@U?$__crt_scoped_stack_ptr_tag@_W@@@Z 10050e37 f i libucrt:lcmapstringa.obj
 0001:0004fe4b       ??0?$__crt_scoped_stack_ptr_tag@_W@@QAE@QA_W@Z 10050e4b f i libucrt:lcmapstringa.obj
 0001:0004fe5f       ??1?$__crt_scoped_stack_ptr@_W@@QAE@XZ 10050e5f f i libucrt:lcmapstringa.obj
 0001:0004fe6a       ??B?$__crt_scoped_stack_ptr@_W@@QBE_NXZ 10050e6a f i libucrt:lcmapstringa.obj
 0001:000500d8       ?get@?$__crt_scoped_stack_ptr@_W@@QBEPA_WXZ 100510d8 f i libucrt:lcmapstringa.obj
 0001:000500db       __MallocaComputeSize       100510db f i libucrt:lcmapstringa.obj
 0001:000500f2       __MarkAllocaS              100510f2 f i libucrt:lcmapstringa.obj
 0001:0005010d       ___acrt_LCMapStringA       1005110d f   libucrt:lcmapstringa.obj
 0001:0005016a       __freea_crt                1005116a f i libucrt:lcmapstringa.obj
 0001:000501c9       ?__mbrtowc_utf8@__crt_mbstring@@YAIPA_WPBDIPAU_Mbstatet@@@Z 100511c9 f   libucrt:mbrtowc.obj
 0001:0005021b       ?__mbsrtowcs_utf8@__crt_mbstring@@YAIPA_WPAPBDIPAU_Mbstatet@@@Z 1005121b f   libucrt:mbrtowc.obj
 0001:00050738       _btowc                     10051738 f   libucrt:mbrtowc.obj
 0001:000507a8       _mbrlen                    100517a8 f   libucrt:mbrtowc.obj
 0001:000507e9       _mbrtowc                   100517e9 f   libucrt:mbrtowc.obj
 0001:00050850       _mbsrtowcs                 10051850 f   libucrt:mbrtowc.obj
 0001:0005085d       _mbsrtowcs_s               1005185d f   libucrt:mbrtowc.obj
 0001:00050928       ??$?RG@__crt_internal_free_policy@@QBEXQBG@Z 10051928 f i libucrt:initctype.obj
 0001:0005093e       ??$?RJ@__crt_internal_free_policy@@QBEXQBJ@Z 1005193e f i libucrt:initctype.obj
 0001:00050954       ??0?$__crt_unique_heap_ptr@GU__crt_internal_free_policy@@@@QAE@QAG@Z 10051954 f i libucrt:initctype.obj
 0001:00050968       ??0?$__crt_unique_heap_ptr@JU__crt_internal_free_policy@@@@QAE@QAJ@Z 10051968 f i libucrt:initctype.obj
 0001:0005097c       ??1?$__crt_unique_heap_ptr@GU__crt_internal_free_policy@@@@QAE@XZ 1005197c f i libucrt:initctype.obj
 0001:00050992       ??1?$__crt_unique_heap_ptr@JU__crt_internal_free_policy@@@@QAE@XZ 10051992 f i libucrt:initctype.obj
 0001:000509a8       ?detach@?$__crt_unique_heap_ptr@GU__crt_internal_free_policy@@@@QAEPAGXZ 100519a8 f i libucrt:initctype.obj
 0001:000509ae       ?detach@?$__crt_unique_heap_ptr@JU__crt_internal_free_policy@@@@QAEPAJXZ 100519ae f i libucrt:initctype.obj
 0001:000509b4       ?release@?$__crt_unique_heap_ptr@GU__crt_internal_free_policy@@@@QAEXXZ 100519b4 f i libucrt:initctype.obj
 0001:000509ca       ?release@?$__crt_unique_heap_ptr@JU__crt_internal_free_policy@@@@QAEXXZ 100519ca f i libucrt:initctype.obj
 0001:000509e0       ____lc_codepage_func       100519e0 f   libucrt:initctype.obj
 0001:00050a10       ____lc_collate_cp_func     10051a10 f   libucrt:initctype.obj
 0001:00050a40       ____lc_locale_name_func    10051a40 f   libucrt:initctype.obj
 0001:00050a73       ____mb_cur_max_func        10051a73 f   libucrt:initctype.obj
 0001:00050aa3       ____mb_cur_max_l_func      10051aa3 f   libucrt:initctype.obj
 0001:00050ac2       ___acrt_locale_initialize_ctype 10051ac2 f   libucrt:initctype.obj
 0001:00051003       ___acrt_add_locale_ref     10052003 f   libucrt:locale_refcounting.obj
 0001:0005109f       ___acrt_free_locale        1005209f f   libucrt:locale_refcounting.obj
 0001:0005123b       ___acrt_locale_add_lc_time_reference 1005223b f   libucrt:locale_refcounting.obj
 0001:0005126e       ___acrt_locale_free_lc_time_if_unreferenced 1005226e f   libucrt:locale_refcounting.obj
 0001:000512aa       ___acrt_locale_release_lc_time_reference 100522aa f   libucrt:locale_refcounting.obj
 0001:000512dd       ___acrt_release_locale_ref 100522dd f   libucrt:locale_refcounting.obj
 0001:0005137e       ___acrt_update_thread_locale_data 1005237e f   libucrt:locale_refcounting.obj
 0001:00051412       __updatetlocinfoEx_nolock  10052412 f   libucrt:locale_refcounting.obj
 0001:00051476       ___acrt_fp_strflt_to_string 10052476 f   libucrt:_fptostr.obj
 0001:00052d90       ??0big_integer@__crt_strtox@@QAE@ABU01@@Z 10053d90 f i libucrt:cfout.obj
 0001:00052dd0       ??0big_integer@__crt_strtox@@QAE@XZ 10053dd0 f i libucrt:cfout.obj
 0001:00052e30       ??4big_integer@__crt_strtox@@QAEAAU01@ABU01@@Z 10053e30 f i libucrt:cfout.obj
 0001:00052e70       ??8__crt_strtox@@YA_NABUbig_integer@0@0@Z 10053e70 f i libucrt:cfout.obj
 0001:00052ec0       ??9__crt_strtox@@YA_NABUbig_integer@0@0@Z 10053ec0 f i libucrt:cfout.obj
 0001:00052f10       ?add_carry@__crt_strtox@@YAIAAIII@Z 10053f10 f i libucrt:cfout.obj
 0001:00052f40       ?add_multiply_carry@__crt_strtox@@YAIAAIIII@Z 10053f40 f i libucrt:cfout.obj
 0001:00052f70       ?bit_scan_reverse@__crt_strtox@@YAII@Z 10053f70 f i libucrt:cfout.obj
 0001:00052fa0       ?count_sequential_high_zeroes@__crt_strtox@@YAII@Z 10053fa0 f i libucrt:cfout.obj
 0001:00052fd0       ?divide@__crt_strtox@@YA_KAAUbig_integer@1@ABU21@@Z 10053fd0 f i libucrt:cfout.obj
 0001:00053580       ?is_zero@__crt_strtox@@YA_NABUbig_integer@1@@Z 10054580 f i libucrt:cfout.obj
 0001:000535a0       ?make_big_integer@__crt_strtox@@YA?AUbig_integer@1@_K@Z 100545a0 f i libucrt:cfout.obj
 0001:000535d0       ?make_big_integer_power_of_two@__crt_strtox@@YA?AUbig_integer@1@I@Z 100545d0 f i libucrt:cfout.obj
 0001:00053630       ?multiply@__crt_strtox@@YA_NAAUbig_integer@1@ABU21@@Z 10054630 f i libucrt:cfout.obj
 0001:00053a40       ?multiply@__crt_strtox@@YA_NAAUbig_integer@1@I@Z 10054a40 f i libucrt:cfout.obj
 0001:00053b40       ?multiply_64_32@__crt_strtox@@YA_K_KI@Z 10054b40 f i libucrt:cfout.obj
 0001:00053b60       ?multiply_by_power_of_ten@__crt_strtox@@YA_NAAUbig_integer@1@I@Z 10054b60 f i libucrt:cfout.obj
 0001:000541d0       ?multiply_core@__crt_strtox@@YAIQAIII@Z 100551d0 f i libucrt:cfout.obj
 0001:00054220       ?shift_left@__crt_strtox@@YA_NAAUbig_integer@1@I@Z 10055220 f i libucrt:cfout.obj
 0001:000543cb       ___acrt_fltout             100553cb f   libucrt:cfout.obj
 0001:00055cb6       __isatty                   10056cb6 f   libucrt:isatty.obj
 0001:00055d21       ??$?RUlconv@@@__crt_internal_free_policy@@QBEXQBUlconv@@@Z 10056d21 f i libucrt:initmon.obj
 0001:00055d37       ??0?$__crt_unique_heap_ptr@Ulconv@@U__crt_internal_free_policy@@@@QAE@QAUlconv@@@Z 10056d37 f i libucrt:initmon.obj
 0001:00055d4b       ??1?$__crt_unique_heap_ptr@Ulconv@@U__crt_internal_free_policy@@@@QAE@XZ 10056d4b f i libucrt:initmon.obj
 0001:00055d61       ?detach@?$__crt_unique_heap_ptr@Ulconv@@U__crt_internal_free_policy@@@@QAEPAUlconv@@XZ 10056d61 f i libucrt:initmon.obj
 0001:00055d67       ?release@?$__crt_unique_heap_ptr@Ulconv@@U__crt_internal_free_policy@@@@QAEXXZ 10056d67 f i libucrt:initmon.obj
 0001:00055d7d       ___acrt_locale_free_monetary 10056d7d f   libucrt:initmon.obj
 0001:00055eba       ___acrt_locale_initialize_monetary 10056eba f   libucrt:initmon.obj
 0001:000563a7       ___acrt_locale_free_numeric 100573a7 f   libucrt:initnum.obj
 0001:0005642a       ___acrt_locale_initialize_numeric 1005742a f   libucrt:initnum.obj
 0001:00056705       ??$?RU__crt_lc_time_data@@@__crt_internal_free_policy@@QBEXQBU__crt_lc_time_data@@@Z 10057705 f i libucrt:inittime.obj
 0001:000567a5       ??0?$__crt_unique_heap_ptr@U__crt_lc_time_data@@U__crt_internal_free_policy@@@@QAE@QAU__crt_lc_time_data@@@Z 100577a5 f i libucrt:inittime.obj
 0001:000567b9       ??1?$__crt_unique_heap_ptr@U__crt_lc_time_data@@U__crt_internal_free_policy@@@@QAE@XZ 100577b9 f i libucrt:inittime.obj
 0001:000567cf       ??B?$__crt_unique_heap_ptr@U__crt_lc_time_data@@U__crt_internal_free_policy@@@@QBE_NXZ 100577cf f i libucrt:inittime.obj
 0001:000567d6       ?detach@?$__crt_unique_heap_ptr@U__crt_lc_time_data@@U__crt_internal_free_policy@@@@QAEPAU__crt_lc_time_data@@XZ 100577d6 f i libucrt:inittime.obj
 0001:00056822       ?get@?$__crt_unique_heap_ptr@U__crt_lc_time_data@@U__crt_internal_free_policy@@@@QBEPAU__crt_lc_time_data@@XZ 10057822 f i libucrt:inittime.obj
 0001:00056bbb       ?is_valid@?$__crt_unique_heap_ptr@U__crt_lc_time_data@@U__crt_internal_free_policy@@@@QBE_NXZ 10057bbb f i libucrt:inittime.obj
 0001:00056bc2       ?release@?$__crt_unique_heap_ptr@U__crt_lc_time_data@@U__crt_internal_free_policy@@@@QAEXXZ 10057bc2 f i libucrt:inittime.obj
 0001:00056bd8       ___acrt_locale_free_time   10057bd8 f   libucrt:inittime.obj
 0001:00056cf5       ___acrt_locale_initialize_time 10057cf5 f   libucrt:inittime.obj
 0001:00056e8d       _wcsncpy_s                 10057e8d f   libucrt:wcsncpy_s.obj
 0001:00056e9a       _wcscspn                   10057e9a f   libucrt:wcscspn.obj
 0001:00056f0b       _wcspbrk                   10057f0b f   libucrt:wcspbrk.obj
 0001:00056f6c       __wcsicmp                  10057f6c f   libucrt:wcsicmp.obj
 0001:0005701d       __wcsicmp_l                1005801d f   libucrt:wcsicmp.obj
 0001:00057131       ___acrt_GetStringTypeA     10058131 f   libucrt:getstringtypea.obj
 0001:00057ba6       ___acrt_get_qualified_locale 10058ba6 f   libucrt:get_qualified_locale.obj
 0001:00058794       ___acrt_get_qualified_locale_downlevel 10059794 f   libucrt:getqloc_downlevel.obj
 0001:00058a08       _localeconv                10059a08 f   libucrt:localeconv.obj
 0001:00058c4a       __mbstowcs_l               10059c4a f   libucrt:mbstowcs.obj
 0001:00058c57       __mbstowcs_s_l             10059c57 f   libucrt:mbstowcs.obj
 0001:00058d71       _mbstowcs                  10059d71 f   libucrt:mbstowcs.obj
 0001:00058da5       _mbstowcs_s                10059da5 f   libucrt:mbstowcs.obj
 0001:00058dcd       ___acrt_OutputDebugStringA@4 10059dcd f   libucrt:outputdebugstringa.obj
 0001:00058e5a       __wcsnicmp                 10059e5a f   libucrt:wcsnicmp.obj
 0001:00058f37       __wcsnicmp_l               10059f37 f   libucrt:wcsnicmp.obj
 0001:00059080       _strncmp                   1005a080 f   libucrt:strncmp.obj
 0001:00059116       __strnicmp                 1005a116 f   libucrt:strnicmp.obj
 0001:0005919e       __strnicmp_l               1005a19e f   libucrt:strnicmp.obj
 0001:00059327       ??$__vcrt_va_start_verify_argument_type@$$CBH@@YAXXZ 1005a327 f i libucrt:open.obj
 0001:00059698       ??$tsopen_nolock@PAHABQAHABQBDABHABHABHABH@?$__crt_char_traits@D@@SAH$$QAPAHABQAHABQBDABH333@Z 1005a698 f i libucrt:open.obj
 0001:000596d6       ??$tsopen_nolock@PAHABQAHABQB_WABHABHABHABH@?$__crt_char_traits@_W@@SAH$$QAPAHABQAHABQB_WABH333@Z 1005a6d6 f i libucrt:open.obj
 0001:00059714       ??$tsopen_nolock@PAHPAHABQBDABHHABHH@?$__crt_char_traits@D@@SAH$$QAPAH0ABQBDABH$$QAH23@Z 1005a714 f i libucrt:open.obj
 0001:00059752       ??$tsopen_nolock@PAHPAHABQB_WABHHABHH@?$__crt_char_traits@_W@@SAH$$QAPAH0ABQB_WABH$$QAH23@Z 1005a752 f i libucrt:open.obj
 0001:00059f44       __open                     1005af44 f   libucrt:open.obj
 0001:00059f62       __sopen                    1005af62 f   libucrt:open.obj
 0001:00059fa4       __sopen_dispatch           1005afa4 f   libucrt:open.obj
 0001:00059fb1       __sopen_nolock             1005afb1 f   libucrt:open.obj
 0001:0005a03d       __sopen_s                  1005b03d f   libucrt:open.obj
 0001:0005a065       __wopen                    1005b065 f   libucrt:open.obj
 0001:0005a083       __wsopen                   1005b083 f   libucrt:open.obj
 0001:0005a0c5       __wsopen_dispatch          1005b0c5 f   libucrt:open.obj
 0001:0005a0d2       __wsopen_nolock            1005b0d2 f   libucrt:open.obj
 0001:0005a4c9       __wsopen_s                 1005b4c9 f   libucrt:open.obj
 0001:0005a4f1       ___p__commode              1005b4f1 f   libucrt:ncommode.obj
 0001:0005a4f7       ___acrt_stdio_allocate_buffer_nolock 1005b4f7 f   libucrt:_getbuf.obj
 0001:0005a673       __putwch                   1005b673 f   libucrt:putwch.obj
 0001:0005a6ad       __putwch_nolock            1005b6ad f   libucrt:putwch.obj
 0001:0005a6ee       _nextafter                 1005b6ee f   libucrt:nextafter.obj
 0001:0005a830       _qsort                     1005b830 f   libucrt:qsort.obj
 0001:0005ae61       _strncpy_s                 1005be61 f   libucrt:strncpy_s.obj
 0001:0005ae70       _strpbrk                   1005be70 f   libucrt:strpbrk.obj
 0001:0005aec0       ??$__acrt_convert_wcs_mbs@D_W$$A6AIPA_WPBDIPAU__crt_locale_pointers@@@ZU__crt_win32_buffer_internal_dynamic_resizing@@@@YAHQBDAAV?$__crt_win32_buffer@_WU__crt_win32_buffer_internal_dynamic_resizing@@@@A6AIPA_WPBDIPAU__crt_locale_pointers@@@Z4@Z 1005bec0 f i libucrt:findfirstfileexa.obj
 0001:0005af89       ??$__acrt_mbs_to_wcs@U__crt_win32_buffer_internal_dynamic_resizing@@@@YAHQBDAAV?$__crt_win32_buffer@_WU__crt_win32_buffer_internal_dynamic_resizing@@@@PAU__crt_locale_pointers@@@Z 1005bf89 f i libucrt:findfirstfileexa.obj
 0001:0005afad       ?set_to_nullptr@?$__crt_win32_buffer@_WU__crt_win32_buffer_internal_dynamic_resizing@@@@QAEXXZ 1005bfad f i libucrt:findfirstfileexa.obj
 0001:0005afc9       ___acrt_FindFirstFileExA   1005bfc9 f   libucrt:findfirstfileexa.obj
 0001:0005b048       ??$?0$0BAE@@?$__crt_win32_buffer@DU__crt_win32_buffer_no_resizing@@@@QAE@AAY0BAE@D@Z 1005c048 f i libucrt:findnextfilea.obj
 0001:0005b077       ??$?0$0O@@?$__crt_win32_buffer@DU__crt_win32_buffer_no_resizing@@@@QAE@AAY0O@D@Z 1005c077 f i libucrt:findnextfilea.obj
 0001:0005b0a4       ??$__acrt_convert_wcs_mbs@_WD$$A6AIPADPB_WIPAU__crt_locale_pointers@@@ZU__crt_win32_buffer_no_resizing@@@@YAHQB_WAAV?$__crt_win32_buffer@DU__crt_win32_buffer_no_resizing@@@@A6AIPADPB_WIPAU__crt_locale_pointers@@@Z4@Z 1005c0a4 f i libucrt:findnextfilea.obj
 0001:0005b16e       ??$__acrt_wcs_to_mbs@U__crt_win32_buffer_no_resizing@@@@YAHQB_WAAV?$__crt_win32_buffer@DU__crt_win32_buffer_no_resizing@@@@PAU__crt_locale_pointers@@@Z 1005c16e f i libucrt:findnextfilea.obj
 0001:0005b192       ??1?$__crt_win32_buffer@DU__crt_win32_buffer_no_resizing@@@@QAE@XZ 1005c192 f i libucrt:findnextfilea.obj
 0001:0005b19f       ?_deallocate@?$__crt_win32_buffer@DU__crt_win32_buffer_no_resizing@@@@AAEXXZ 1005c19f f i libucrt:findnextfilea.obj
 0001:0005b1ac       ?allocate@?$__crt_win32_buffer@DU__crt_win32_buffer_no_resizing@@@@QAEHI@Z 1005c1ac f i libucrt:findnextfilea.obj
 0001:0005b1dc       ?allocate@__crt_win32_buffer_no_resizing@@SAHQAPAXIABV__crt_win32_buffer_empty_debug_info@@@Z 1005c1dc f i libucrt:findnextfilea.obj
 0001:0005b1ec       ?capacity@?$__crt_win32_buffer@DU__crt_win32_buffer_no_resizing@@@@QBEIXZ 1005c1ec f i libucrt:findnextfilea.obj
 0001:0005b1f0       ?data@?$__crt_win32_buffer@DU__crt_win32_buffer_no_resizing@@@@QAEPADXZ 1005c1f0 f i libucrt:findnextfilea.obj
 0001:0005b1f4       ?deallocate@__crt_win32_buffer_no_resizing@@SAXQAXABV__crt_win32_buffer_empty_debug_info@@@Z 1005c1f4 f i libucrt:findnextfilea.obj
 0001:0005b1f5       ?debug_info@?$__crt_win32_buffer@DU__crt_win32_buffer_no_resizing@@@@QBEABV__crt_win32_buffer_empty_debug_info@@XZ 1005c1f5 f i libucrt:findnextfilea.obj
 0001:0005b1f8       ?set_to_nullptr@?$__crt_win32_buffer@DU__crt_win32_buffer_no_resizing@@@@QAEXXZ 1005c1f8 f i libucrt:findnextfilea.obj
 0001:0005b211       ?size@?$__crt_win32_buffer@DU__crt_win32_buffer_no_resizing@@@@QAEXI@Z 1005c211 f i libucrt:findnextfilea.obj
 0001:0005b223       ___acrt_FindNextFileA      1005c223 f   libucrt:findnextfilea.obj
 0001:0005b3b4       __mbsdec                   1005c3b4 f   libucrt:mbsdec.obj
 0001:0005b3d0       __mbsdec_l                 1005c3d0 f   libucrt:mbsdec.obj
 0001:0005b494       __wcsnicoll                1005c494 f   libucrt:wcsnicol.obj
 0001:0005b58c       __wcsnicoll_l              1005c58c f   libucrt:wcsnicol.obj
 0001:0005b6f1       __strnicoll                1005c6f1 f   libucrt:strnicol.obj
 0001:0005b724       __strnicoll_l              1005c724 f   libucrt:strnicol.obj
 0001:0005b820       ___acrt_SetEnvironmentVariableA 1005c820 f   libucrt:setenvironmentvariablea.obj
 0001:0005b8ef       __msize                    1005c8ef f   libucrt:msize.obj
 0001:0005b8fc       __msize_base               1005c8fc f   libucrt:msize.obj
 0001:0005b93b       ___acrt_GetStringTypeW     1005c93b f   libucrt:getstringtypew.obj
 0001:0005b95a       ___strncnt                 1005c95a f   libucrt:strncnt.obj
 0001:0005b97d       ?__mbrtoc32_utf8@__crt_mbstring@@YAIPA_UPBDIPAU_Mbstatet@@@Z 1005c97d f   libucrt:mbrtoc32.obj
 0001:0005bb9e       ?reset_and_return@__crt_mbstring@@YAIIPAU_Mbstatet@@@Z 1005cb9e f i libucrt:mbrtoc32.obj
 0001:0005bbb7       ?return_illegal_sequence@__crt_mbstring@@YAIPAU_Mbstatet@@@Z 1005cbb7 f i libucrt:mbrtoc32.obj
 0001:0005bbdd       _mbrtoc32                  1005cbdd f   libucrt:mbrtoc32.obj
 0001:0005bd03       ___acrt_GetLocaleInfoA     1005cd03 f   libucrt:getlocaleinfoa.obj
 0001:0005bf21       _fegetenv                  1005cf21 f   libucrt:fegetenv.obj
 0001:0005bf45       _fesetenv                  1005cf45 f   libucrt:fesetenv.obj
 0001:0005bfa5       _feholdexcept              1005cfa5 f   libucrt:feholdexcept.obj
 0001:0005c010       __CIlog10                  1005d010 f   libucrt:log10_impl.obj
 0001:0005c04b       __CIlog10_default          1005d04b f   libucrt:log10_impl.obj
 0001:0005c05f       __log10_default            1005d05f     libucrt:log10_impl.obj
 0001:0005c170       _ceil                      1005d170 f   libucrt:ceil_pentium4.obj
 0001:0005c1b0       __ceil_pentium4            1005d1b0 f   libucrt:ceil_pentium4.obj
 0001:0005c2d4       __towlower_l               1005d2d4 f   libucrt:towlower.obj
 0001:0005c3cf       _towlower                  1005d3cf f   libucrt:towlower.obj
 0001:0005c3f0       ___ascii_strnicmp          1005d3f0 f   libucrt:_strnicm.obj
 0001:0005c469       ??$__crt_interlocked_read@H@@YAHPDH@Z 1005d469 f i libucrt:setmode.obj
 0001:0005c478       ?value@?$dual_state_global@H@__crt_state_management@@QAEAAHXZ 1005d478 f i libucrt:setmode.obj
 0001:0005c47b       __get_fmode                1005d47b f   libucrt:setmode.obj
 0001:0005c4b2       __set_fmode                1005d4b2 f   libucrt:setmode.obj
 0001:0005c4fe       __setmode                  1005d4fe f   libucrt:setmode.obj
 0001:0005c646       __setmode_nolock           1005d646 f   libucrt:setmode.obj
 0001:0005c8d7       __chsize                   1005d8d7 f   libucrt:chsize.obj
 0001:0005c8fa       __chsize_nolock            1005d8fa f   libucrt:chsize.obj
 0001:0005caef       __chsize_s                 1005daef f   libucrt:chsize.obj
 0001:0005cbc7       __umask                    1005dbc7 f   libucrt:umask.obj
 0001:0005cbf5       __umask_s                  1005dbf5 f   libucrt:umask.obj
 0001:0005cd18       ___dcrt_lowio_ensure_console_output_initialized 1005dd18 f   libucrt:initcon.obj
 0001:0005cd3e       ___dcrt_terminate_console_output 1005dd3e f   libucrt:initcon.obj
 0001:0005cd5a       ___dcrt_write_console      1005dd5a f   libucrt:initcon.obj
 0001:0005cdc4       _nexttoward                1005ddc4 f   libucrt:nexttoward.obj
 0001:0005d30c       __wcstombs_l               1005e30c f   libucrt:wcstombs.obj
 0001:0005d319       __wcstombs_s_l             1005e319 f   libucrt:wcstombs.obj
 0001:0005d419       _wcstombs                  1005e419 f   libucrt:wcstombs.obj
 0001:0005d439       _wcstombs_s                1005e439 f   libucrt:wcstombs.obj
 0001:0005d461       ___acrt_CompareStringW     1005e461 f   libucrt:comparestringw.obj
 0001:0005d7f8       ___acrt_CompareStringA     1005e7f8 f   libucrt:comparestringa.obj
 0001:0005d852       ??$__acrt_fenv_shift_bits@W4__acrt_fenv_abstract_control@@@@YA?AW4__acrt_fenv_abstract_control@@W40@0I@Z 1005e852 f i libucrt:_fenvutils.obj
 0001:0005d868       ??$__acrt_fenv_shift_bits@W4__acrt_fenv_abstract_status@@@@YA?AW4__acrt_fenv_abstract_status@@W40@0I@Z 1005e868 f i libucrt:_fenvutils.obj
 0001:0005d87e       ??$__acrt_fenv_translate_bit@W4__acrt_fenv_abstract_control@@W4__acrt_fenv_machine_sse_control@@@@YA?AW4__acrt_fenv_abstract_control@@W4__acrt_fenv_machine_sse_control@@0W40@1@Z 1005e87e f i libucrt:_fenvutils.obj
 0001:0005d89c       ??$__acrt_fenv_translate_bit@W4__acrt_fenv_abstract_control@@W4__acrt_fenv_machine_x87_control@@@@YA?AW4__acrt_fenv_abstract_control@@W4__acrt_fenv_machine_x87_control@@0W40@1@Z 1005e89c f i libucrt:_fenvutils.obj
 0001:0005d8ba       ??$__acrt_fenv_translate_bit@W4__acrt_fenv_abstract_status@@W4__acrt_fenv_machine_sse_status@@@@YA?AW4__acrt_fenv_abstract_status@@W4__acrt_fenv_machine_sse_status@@0W40@1@Z 1005e8ba f i libucrt:_fenvutils.obj
 0001:0005d8d4       ??$__acrt_fenv_translate_bit@W4__acrt_fenv_abstract_status@@W4__acrt_fenv_machine_x87_status@@@@YA?AW4__acrt_fenv_abstract_status@@W4__acrt_fenv_machine_x87_status@@0W40@1@Z 1005e8d4 f i libucrt:_fenvutils.obj
 0001:0005d8ee       ??$__acrt_fenv_translate_bit@W4__acrt_fenv_machine_sse_control@@W4__acrt_fenv_abstract_control@@@@YA?AW4__acrt_fenv_machine_sse_control@@W4__acrt_fenv_abstract_control@@0W40@1@Z 1005e8ee f i libucrt:_fenvutils.obj
 0001:0005d90a       ??$__acrt_fenv_translate_bit@W4__acrt_fenv_machine_sse_status@@W4__acrt_fenv_abstract_status@@@@YA?AW4__acrt_fenv_machine_sse_status@@W4__acrt_fenv_abstract_status@@0W40@1@Z 1005e90a f i libucrt:_fenvutils.obj
 0001:0005d924       ??$__acrt_fenv_translate_bit@W4__acrt_fenv_machine_x87_control@@W4__acrt_fenv_abstract_control@@@@YA?AW4__acrt_fenv_machine_x87_control@@W4__acrt_fenv_abstract_control@@0W40@1@Z 1005e924 f i libucrt:_fenvutils.obj
 0001:0005d940       ??$__acrt_fenv_translate_bit@W4__acrt_fenv_machine_x87_status@@W4__acrt_fenv_abstract_status@@@@YA?AW4__acrt_fenv_machine_x87_status@@W4__acrt_fenv_abstract_status@@0W40@1@Z 1005e940 f i libucrt:_fenvutils.obj
 0001:0005d95a       ??$__acrt_fenv_unshift_bits@W4__acrt_fenv_abstract_control@@@@YA?AW4__acrt_fenv_abstract_control@@W40@0I@Z 1005e95a f i libucrt:_fenvutils.obj
 0001:0005d970       ??$__acrt_fenv_unshift_bits@W4__acrt_fenv_abstract_status@@@@YA?AW4__acrt_fenv_abstract_status@@W40@0I@Z 1005e970 f i libucrt:_fenvutils.obj
 0001:0005df9b       ??I@YA?AW4__acrt_fenv_abstract_control@@W40@0@Z 1005ef9b f i libucrt:_fenvutils.obj
 0001:0005dfab       ??I@YA?AW4__acrt_fenv_abstract_status@@W40@0@Z 1005efab f i libucrt:_fenvutils.obj
 0001:0005dfbb       ??I@YA?AW4__acrt_fenv_machine_sse_control@@W40@0@Z 1005efbb f i libucrt:_fenvutils.obj
 0001:0005dfcb       ??I@YA?AW4__acrt_fenv_machine_sse_status@@W40@0@Z 1005efcb f i libucrt:_fenvutils.obj
 0001:0005dfdb       ??I@YA?AW4__acrt_fenv_machine_x87_control@@W40@0@Z 1005efdb f i libucrt:_fenvutils.obj
 0001:0005dfeb       ??I@YA?AW4__acrt_fenv_machine_x87_status@@W40@0@Z 1005efeb f i libucrt:_fenvutils.obj
 0001:0005dffb       ??U@YA?AW4__acrt_fenv_abstract_control@@W40@0@Z 1005effb f i libucrt:_fenvutils.obj
 0001:0005e00b       ??U@YA?AW4__acrt_fenv_abstract_status@@W40@0@Z 1005f00b f i libucrt:_fenvutils.obj
 0001:0005e01b       ??U@YA?AW4__acrt_fenv_machine_sse_control@@W40@0@Z 1005f01b f i libucrt:_fenvutils.obj
 0001:0005e02b       ??U@YA?AW4__acrt_fenv_machine_x87_control@@W40@0@Z 1005f02b f i libucrt:_fenvutils.obj
 0001:0005e03b       ??_5@YAAAW4__acrt_fenv_abstract_control@@AAW40@W40@@Z 1005f03b f i libucrt:_fenvutils.obj
 0001:0005e04d       ??_5@YAAAW4__acrt_fenv_abstract_status@@AAW40@W40@@Z 1005f04d f i libucrt:_fenvutils.obj
 0001:0005e05f       ??_5@YAAAW4__acrt_fenv_machine_sse_control@@AAW40@W40@@Z 1005f05f f i libucrt:_fenvutils.obj
 0001:0005e074       ??_5@YAAAW4__acrt_fenv_machine_sse_status@@AAW40@W40@@Z 1005f074 f i libucrt:_fenvutils.obj
 0001:0005e086       ??_5@YAAAW4__acrt_fenv_machine_x87_control@@AAW40@W40@@Z 1005f086 f i libucrt:_fenvutils.obj
 0001:0005e09b       ??_5@YAAAW4__acrt_fenv_machine_x87_status@@AAW40@W40@@Z 1005f09b f i libucrt:_fenvutils.obj
 0001:0005e0ad       ?__acrt_fenv_shift_abstract_sse_control@@YA?AW4__acrt_fenv_abstract_control@@W41@@Z 1005f0ad f i libucrt:_fenvutils.obj
 0001:0005e0d1       ?__acrt_fenv_shift_abstract_sse_status@@YA?AW4__acrt_fenv_abstract_status@@W41@@Z 1005f0d1 f i libucrt:_fenvutils.obj
 0001:0005e0e5       ?__acrt_fenv_shift_abstract_x87_control@@YA?AW4__acrt_fenv_abstract_control@@W41@@Z 1005f0e5 f i libucrt:_fenvutils.obj
 0001:0005e109       ?__acrt_fenv_shift_abstract_x87_status@@YA?AW4__acrt_fenv_abstract_status@@W41@@Z 1005f109 f i libucrt:_fenvutils.obj
 0001:0005e11d       ?__acrt_fenv_unshift_abstract_sse_control@@YA?AW4__acrt_fenv_abstract_control@@W41@@Z 1005f11d f i libucrt:_fenvutils.obj
 0001:0005e143       ?__acrt_fenv_unshift_abstract_sse_status@@YA?AW4__acrt_fenv_abstract_status@@W41@@Z 1005f143 f i libucrt:_fenvutils.obj
 0001:0005e157       ?__acrt_fenv_unshift_abstract_x87_control@@YA?AW4__acrt_fenv_abstract_control@@W41@@Z 1005f157 f i libucrt:_fenvutils.obj
 0001:0005e17d       ?__acrt_fenv_unshift_abstract_x87_status@@YA?AW4__acrt_fenv_abstract_status@@W41@@Z 1005f17d f i libucrt:_fenvutils.obj
 0001:0005e834       ___acrt_fenv_expand_round_control 1005f834 f   libucrt:_fenvutils.obj
 0001:0005e877       ___acrt_fenv_get_common_round_control 1005f877 f   libucrt:_fenvutils.obj
 0001:0005e8a1       ___acrt_fenv_get_control   1005f8a1 f   libucrt:_fenvutils.obj
 0001:0005e943       ___acrt_fenv_get_fp_status_word_from_exception_mask 1005f943 f   libucrt:_fenvutils.obj
 0001:0005e963       ___acrt_fenv_get_status    1005f963 f   libucrt:_fenvutils.obj
 0001:0005ea55       ___acrt_fenv_set_control   1005fa55 f   libucrt:_fenvutils.obj
 0001:0005ead9       ___acrt_fenv_set_status    1005fad9 f   libucrt:_fenvutils.obj
 0001:0005eda5       ___control87_2             1005fda5 f   libucrt:ieee87.obj
 0001:0005f371       ___fpreset_sse2            10060371 f   libucrt:ieee87.obj
 0001:0005f5ba       __clearfp                  100605ba f   libucrt:ieee87.obj
 0001:0005f6d2       __control87                100606d2 f   libucrt:ieee87.obj
 0001:0005fa90       __controlfp                10060a90 f   libucrt:ieee87.obj
 0001:0005fab0       __fpreset                  10060ab0 f   libucrt:ieee87.obj
 0001:0005fbb3       __set_controlfp            10060bb3 f   libucrt:ieee87.obj
 0001:0005fc49       __statusfp                 10060c49 f   libucrt:ieee87.obj
 0001:0005fd0d       __statusfp2                10060d0d f   libucrt:ieee87.obj
 0001:0005fd8b       ___acrt_initialize_sse2    10060d8b f   libucrt:mathfcns.obj
 0001:0005fd9f       __set_SSE2_enable          10060d9f f   libucrt:mathfcns.obj
 0001:0005fdd0       __CIlog10_pentium4         10060dd0 f   libucrt:log10_pentium4.obj
 0001:0005fde8       __log10_pentium4           10060de8     libucrt:log10_pentium4.obj
 0001:00060130       __fFEXP                    10061130 f   libucrt:87tran.obj
 0001:00060187       __rtinfpopse               10061187     libucrt:87tran.obj
 0001:00060189       __rtinfnpopse              10061189     libucrt:87tran.obj
 0001:00060199       __fFLN                     10061199     libucrt:87tran.obj
 0001:0006024e       __rtinfpop                 1006124e     libucrt:87tran.obj
 0001:00060250       __rtinfnpop                10061250     libucrt:87tran.obj
 0001:00060260       __rtforexpinf              10061260 f   libucrt:87tran.obj
 0001:0006026d       __ffexpm1                  1006126d     libucrt:87tran.obj
 0001:000603a0       __trandisp1                100613a0 f   libucrt:87disp.obj
 0001:00060415       __trandisp2                10061415 f   libucrt:87disp.obj
 0001:000604af       __rttospopde               100614af     libucrt:87disp.obj
 0001:000604b4       __rttospop                 100614b4     libucrt:87disp.obj
 0001:000604c0       __rtnospop                 100614c0 f   libucrt:87disp.obj
 0001:000604d0       __rttosnpop                100614d0 f   libucrt:87disp.obj
 0001:000604d1       __rtnospopde               100614d1     libucrt:87disp.obj
 0001:000604d8       __rtzeropop                100614d8     libucrt:87disp.obj
 0001:000604da       __rtzeronpop               100614da     libucrt:87disp.obj
 0001:000604e0       __rtzerospop               100614e0 f   libucrt:87disp.obj
 0001:000604ed       __rtonepop                 100614ed     libucrt:87disp.obj
 0001:000604f0       __rtonenpop                100614f0 f   libucrt:87disp.obj
 0001:00060500       __tosnan1                  10061500 f   libucrt:87disp.obj
 0001:00060530       __nosnan2                  10061530 f   libucrt:87disp.obj
 0001:00060540       __tosnan2                  10061540 f   libucrt:87disp.obj
 0001:00060570       __nan2                     10061570 f   libucrt:87disp.obj
 0001:000605b0       __rtindfpop                100615b0 f   libucrt:87disp.obj
 0001:000605b2       __rtindfnpop               100615b2     libucrt:87disp.obj
 0001:000605c3       __rttosnpopde              100615c3     libucrt:87disp.obj
 0001:000605d0       __rtatan2inf               100615d0 f   libucrt:87disp.obj
 0001:000605ed       __rtchsifneg               100615ed     libucrt:87disp.obj
 0001:00060689       ___setfflag                10061689 f   libucrt:fp_flags.obj
 0001:000606b0       __twoToTOS                 100616b0 f   libucrt:common.obj
 0001:000606c5       __load_CW                  100616c5 f   libucrt:common.obj
 0001:000606dc       __convertTOStoQNaN         100616dc f   libucrt:common.obj
 0001:000606f5       __fload_withFB             100616f5 f   libucrt:common.obj
 0001:00060738       __checkTOS_withFB          10061738 f   libucrt:common.obj
 0001:0006074e       __fast_exit                1006174e f   libucrt:common.obj
 0001:0006075b       __math_exit                1006175b f   libucrt:common.obj
 0001:00060785       __check_overflow_exit      10061785 f   libucrt:common.obj
 0001:00060799       __check_range_exit         10061799 f   libucrt:common.obj
 0001:000608a0       __startTwoArgErrorHandling 100618a0 f   libucrt:genexcep.obj
 0001:000608b7       __startOneArgErrorHandling 100618b7 f   libucrt:genexcep.obj
 0001:00060907       ___libm_error_support      10061907 f   libucrt:libm_error.obj
 0001:00060ba5       ___libm_setusermatherr     10061ba5 f   libucrt:libm_error.obj
 0001:00060bd5       __ceil_default             10061bd5 f   libucrt:ceil.obj
 0001:00060cbc       ___acrt_LCMapStringW       10061cbc f   libucrt:lcmapstringw.obj
 0001:00060d09       ___p__fmode                10061d09 f   libucrt:txtmode.obj
 0001:00060da5       __d_int                    10061da5 f   libucrt:_test.obj
 0001:00060eef       __dtest                    10061eef f   libucrt:_test.obj
 0001:00060f6c       __fd_int                   10061f6c f   libucrt:_test.obj
 0001:0006106e       __fdtest                   1006206e f   libucrt:_test.obj
 0001:000610cf       __fperrraise               100620cf f   libucrt:_test.obj
 0001:000610fa       __ld_int                   100620fa f   libucrt:_test.obj
 0001:00061107       __ldtest                   10062107 f   libucrt:_test.obj
 0001:00061114       ?__wcsrtombs_utf8@__crt_mbstring@@YAIPADPAPB_WIPAU_Mbstatet@@@Z 10062114 f   libucrt:wcrtomb.obj
 0001:000615be       _wcrtomb                   100625be f   libucrt:wcrtomb.obj
 0001:000615fb       _wcrtomb_s                 100625fb f   libucrt:wcrtomb.obj
 0001:00061692       _wcsrtombs                 10062692 f   libucrt:wcrtomb.obj
 0001:0006169f       _wcsrtombs_s               1006269f f   libucrt:wcrtomb.obj
 0001:0006175e       _wctob                     1006275e f   libucrt:wcrtomb.obj
 0001:000617d2       __controlfp_s              100627d2 f   libucrt:contrlfp.obj
 0001:00061848       __d_inttype                10062848 f   libucrt:powhlp.obj
 0001:000618cc       __powhlp                   100628cc f   libucrt:powhlp.obj
 0001:00061a41       __87except                 10062a41 f   libucrt:87except.obj
 0001:00061b8d       __frnd                     10062b8d f   libucrt:frnd.obj
 0001:00061ba8       ??_4@YAAAW4__acrt_fenv_abstract_status@@AAW40@W40@@Z 10062ba8 f i libucrt:fegetexceptflag.obj
 0001:00061bba       _fegetexceptflag           10062bba f   libucrt:fegetexceptflag.obj
 0001:00061bf7       ??S@YA?AW4__acrt_fenv_abstract_status@@W40@@Z 10062bf7 f i libucrt:fesetexceptflag.obj
 0001:00061c06       _fesetexceptflag           10062c06 f   libucrt:fesetexceptflag.obj
 0001:00061c75       ?__c16rtomb_utf8@__crt_mbstring@@YAIPAD_SPAU_Mbstatet@@@Z 10062c75 f   libucrt:c16rtomb.obj
 0001:00061dcd       _c16rtomb                  10062dcd f   libucrt:c16rtomb.obj
 0001:00061dda       _fetestexcept              10062dda f   libucrt:fetestexcept.obj
 0001:00061e04       ?__c32rtomb_utf8@__crt_mbstring@@YAIPAD_UPAU_Mbstatet@@@Z 10062e04 f   libucrt:c32rtomb.obj
 0001:00061ede       _c32rtomb                  10062ede f   libucrt:c32rtomb.obj
 0001:00061ef0       __FindPESection            10062ef0 f   LIBCMT:pesect.obj
 0001:00061f50       __IsNonwritableInCurrentImage 10062f50 f   LIBCMT:pesect.obj
 0001:00062040       __ValidateImageBase        10063040 f   LIBCMT:pesect.obj
 0001:00062080       __aulldvrm                 10063080 f   LIBCMT:ulldvrm.obj
 0001:0006213a       ??1type_info@@UAE@XZ       1006313a f   LIBCMT:std_type_info_static.obj
 0001:00062141       ??_Gtype_info@@UAEPAXI@Z   10063141 f i LIBCMT:std_type_info_static.obj
 0001:00062141       ??_Etype_info@@UAEPAXI@Z   10063141 f i LIBCMT:std_type_info_static.obj
 0001:00062170       __SEH_prolog4_GS           10063170 f   LIBCMT:_sehprolg4gs_.obj
 0001:000621b9       __SEH_epilog4_GS           100631b9 f   LIBCMT:_sehprolg4gs_.obj
 0001:000621e0       __allmul                   100631e0 f   LIBCMT:llmul.obj
 0001:00062230       __alldvrm                  10063230 f   LIBCMT:lldvrm.obj
 0001:00062350       __aullshr                  10063350 f   LIBCMT:ullshr.obj
 0001:00062380       __alloca_probe             10063380 f   LIBCMT:chkstk.obj
 0001:00062380       __chkstk                   10063380 f   LIBCMT:chkstk.obj
 0001:000623c0       __alloca_probe_16          100633c0 f   LIBCMT:alloca16.obj
 0001:000623d6       __alloca_probe_8           100633d6     LIBCMT:alloca16.obj
 0001:00062400       __allshl                   10063400 f   LIBCMT:llshl.obj
 0001:00062430       __ftol2_sse                10063430 f   LIBCMT:_ftol2_.obj
 0001:00062439       __ftol2_pentium4           10063439 f   LIBCMT:_ftol2_.obj
 0001:0006244c       __ftol2_sse_excpt          1006344c f   LIBCMT:_ftol2_.obj
 0001:00062470       __ftol2                    10063470 f   LIBCMT:_ftol2_.obj
 0001:00062512       __EH_epilog3               10063512 f   LIBCMT:ehprolg3.obj
 0001:0006252c       __EH_epilog3_GS            1006352c f   LIBCMT:ehprolg3.obj
 0001:00062541       __EH_epilog3_catch_GS      10063541 f   LIBCMT:ehprolg3.obj
 0001:00062556       __EH_prolog3               10063556 f   LIBCMT:ehprolg3.obj
 0001:00062597       __EH_prolog3_GS            10063597 f   LIBCMT:ehprolg3.obj
 0001:000625db       __EH_prolog3_catch         100635db f   LIBCMT:ehprolg3.obj
 0001:0006261f       __EH_prolog3_catch_GS      1006361f f   LIBCMT:ehprolg3.obj
 0001:00062667       __initialize_default_precision 10063667 f   LIBCMT:default_precision.obj
 0001:00062690       ??3@YAXPAXI@Z              10063690 f   LIBCMT:delete_scalar_size.obj
 0001:000626a1       ??3@YAXPAX@Z               100636a1 f   LIBCMT:delete_scalar.obj
 0001:000626a6       _InterlockedPushEntrySList@8 100636a6 f   kernel32:KERNEL32.dll
 0001:000626ac       _InterlockedFlushSList@4   100636ac f   kernel32:KERNEL32.dll
 0001:000626b2       _RtlUnwind@16              100636b2 f   kernel32:KERNEL32.dll
 0001:000626b8       _GetLastError@0            100636b8 f   kernel32:KERNEL32.dll
 0001:000626be       _SetLastError@4            100636be f   kernel32:KERNEL32.dll
 0001:000626c4       _EnterCriticalSection@4    100636c4 f   kernel32:KERNEL32.dll
 0001:000626ca       _LeaveCriticalSection@4    100636ca f   kernel32:KERNEL32.dll
 0001:000626d0       _DeleteCriticalSection@4   100636d0 f   kernel32:KERNEL32.dll
 0001:000626d6       _InitializeCriticalSectionAndSpinCount@8 100636d6 f   kernel32:KERNEL32.dll
 0001:000626dc       _TlsAlloc@0                100636dc f   kernel32:KERNEL32.dll
 0001:000626e2       _TlsGetValue@4             100636e2 f   kernel32:KERNEL32.dll
 0001:000626e8       _TlsSetValue@8             100636e8 f   kernel32:KERNEL32.dll
 0001:000626ee       _TlsFree@4                 100636ee f   kernel32:KERNEL32.dll
 0001:000626f4       _FreeLibrary@4             100636f4 f   kernel32:KERNEL32.dll
 0001:000626fa       _LoadLibraryExW@12         100636fa f   kernel32:KERNEL32.dll
 0001:00062700       _GetStdHandle@4            10063700 f   kernel32:KERNEL32.dll
 0001:00062706       _GetFileType@4             10063706 f   kernel32:KERNEL32.dll
 0001:0006270c       _GetModuleFileNameW@12     1006370c f   kernel32:KERNEL32.dll
 0001:00062712       _GetModuleHandleExW@12     10063712 f   kernel32:KERNEL32.dll
 0001:00062718       _WriteConsoleW@20          10063718 f   kernel32:KERNEL32.dll
 0001:0006271e       _ExitProcess@4             1006371e f   kernel32:KERNEL32.dll
 0001:00062724       _RaiseException@16         10063724 f   kernel32:KERNEL32.dll
 0001:0006272a       _HeapFree@12               1006372a f   kernel32:KERNEL32.dll
 0001:00062730       _HeapAlloc@12              10063730 f   kernel32:KERNEL32.dll
 0001:00062736       _GetDateFormatW@24         10063736 f   kernel32:KERNEL32.dll
 0001:0006273c       _GetTimeFormatW@24         1006373c f   kernel32:KERNEL32.dll
 0001:00062742       _CompareStringW@24         10063742 f   kernel32:KERNEL32.dll
 0001:00062748       _LCMapStringW@24           10063748 f   kernel32:KERNEL32.dll
 0001:0006274e       _GetLocaleInfoW@16         1006374e f   kernel32:KERNEL32.dll
 0001:00062754       _IsValidLocale@8           10063754 f   kernel32:KERNEL32.dll
 0001:0006275a       _GetUserDefaultLCID@0      1006375a f   kernel32:KERNEL32.dll
 0001:00062760       _EnumSystemLocalesW@8      10063760 f   kernel32:KERNEL32.dll
 0001:00062766       _GetCurrentThread@0        10063766 f   kernel32:KERNEL32.dll
 0001:0006276c       _WriteFile@20              1006376c f   kernel32:KERNEL32.dll
 0001:00062772       _OutputDebugStringW@4      10063772 f   kernel32:KERNEL32.dll
 0001:00062778       _SetConsoleCtrlHandler@8   10063778 f   kernel32:KERNEL32.dll
 0001:0006277e       _HeapReAlloc@16            1006377e f   kernel32:KERNEL32.dll
 0001:00062784       _CloseHandle@4             10063784 f   kernel32:KERNEL32.dll
 0001:0006278a       _ReadFile@20               1006378a f   kernel32:KERNEL32.dll
 0001:00062790       _GetConsoleMode@8          10063790 f   kernel32:KERNEL32.dll
 0001:00062796       _ReadConsoleW@20           10063796 f   kernel32:KERNEL32.dll
 0001:0006279c       _GetConsoleCP@0            1006379c f   kernel32:KERNEL32.dll
 0001:000627a2       _MultiByteToWideChar@24    100637a2 f   kernel32:KERNEL32.dll
 0001:000627a8       _DeleteFileW@4             100637a8 f   kernel32:KERNEL32.dll
 0001:000627ae       _SetFilePointerEx@20       100637ae f   kernel32:KERNEL32.dll
 0001:000627b4       _FindClose@4               100637b4 f   kernel32:KERNEL32.dll
 0001:000627ba       _FindFirstFileExW@24       100637ba f   kernel32:KERNEL32.dll
 0001:000627c0       _FindNextFileW@8           100637c0 f   kernel32:KERNEL32.dll
 0001:000627c6       _IsValidCodePage@4         100637c6 f   kernel32:KERNEL32.dll
 0001:000627cc       _GetACP@0                  100637cc f   kernel32:KERNEL32.dll
 0001:000627d2       _GetOEMCP@0                100637d2 f   kernel32:KERNEL32.dll
 0001:000627d8       _GetCPInfo@8               100637d8 f   kernel32:KERNEL32.dll
 0001:000627de       _GetCommandLineA@0         100637de f   kernel32:KERNEL32.dll
 0001:000627e4       _GetCommandLineW@0         100637e4 f   kernel32:KERNEL32.dll
 0001:000627ea       _WideCharToMultiByte@32    100637ea f   kernel32:KERNEL32.dll
 0001:000627f0       _GetEnvironmentStringsW@0  100637f0 f   kernel32:KERNEL32.dll
 0001:000627f6       _FreeEnvironmentStringsW@4 100637f6 f   kernel32:KERNEL32.dll
 0001:000627fc       _SetEnvironmentVariableW@8 100637fc f   kernel32:KERNEL32.dll
 0001:00062802       _GetProcessHeap@0          10063802 f   kernel32:KERNEL32.dll
 0001:00062808       _FlushFileBuffers@4        10063808 f   kernel32:KERNEL32.dll
 0001:0006280e       _SetStdHandle@8            1006380e f   kernel32:KERNEL32.dll
 0001:00062814       _GetStringTypeW@16         10063814 f   kernel32:KERNEL32.dll
 0001:0006281a       _CreateFileW@28            1006381a f   kernel32:KERNEL32.dll
 0001:00062820       _HeapSize@12               10063820 f   kernel32:KERNEL32.dll
 0001:00062826       _SetEndOfFile@4            10063826 f   kernel32:KERNEL32.dll
 0001:0006282c       _EncodePointer@4           1006382c f   kernel32:KERNEL32.dll
 0001:00062832       _DecodePointer@4           10063832 f   kernel32:KERNEL32.dll
 0001:00062840       _strrchr                   10063840 f   libvcruntime:strrchr.obj
 0001:00062b27       _memcmp                    10063b27 f   libvcruntime:_memcmp_.obj
 0001:0006660f       _wcschr                    1006760f f   libvcruntime:wcschr.obj
 0001:000666e8       ?_CallCatchBlock2@@YAPAXPAUEHRegistrationNode@@PBU_s_FuncInfo@@PAXHK@Z 100676e8 f   libvcruntime:trnsctrl.obj
 0001:00066760       ?_CallSETranslator@@YAHPAUEHExceptionRecord@@PAUEHRegistrationNode@@PAX2PBU_s_FuncInfo@@H1@Z 10067760 f   libvcruntime:trnsctrl.obj
 0001:00066874       ?_GetRangeOfTrysToCheck@@YAPBU_s_TryBlockMapEntry@@PBU_s_FuncInfo@@HHPAI1@Z 10067874 f   libvcruntime:trnsctrl.obj
 0001:0006690a       ?_JumpToContinuation@@YGXPAXPAUEHRegistrationNode@@@Z 1006790a f   libvcruntime:trnsctrl.obj
 0001:00066948       ?_UnwindNestedFrames@@YGXPAUEHRegistrationNode@@PAUEHExceptionRecord@@@Z 10067948 f   libvcruntime:trnsctrl.obj
 0001:000669b2       __CatchGuardHandler        100679b2 f   libvcruntime:trnsctrl.obj
 0001:000669ef       __CreateFrameInfo          100679ef f   libvcruntime:trnsctrl.obj
 0001:00066a1c       __FindAndUnlinkFrame       10067a1c f   libvcruntime:trnsctrl.obj
 0001:00066a78       __IsExceptionObjectToBeDestroyed 10067a78 f   libvcruntime:trnsctrl.obj
 0001:00066aa7       __TranslatorGuardHandler   10067aa7 f   libvcruntime:trnsctrl.obj
 0001:00066b6d       ___CxxFrameHandler         10067b6d f   libvcruntime:trnsctrl.obj
 0001:00066bb0       ___CxxFrameHandler2        10067bb0 f   libvcruntime:trnsctrl.obj
 0001:00066bf3       ___CxxFrameHandler3        10067bf3 f   libvcruntime:trnsctrl.obj
 0001:00066c36       ___CxxLongjmpUnwind@4      10067c36 f   libvcruntime:trnsctrl.obj
 0001:00066c70       __CallSettingFrame@12      10067c70 f   libvcruntime:lowhelpr.obj
 0001:00066c97       __NLG_Return               10067c97     libvcruntime:lowhelpr.obj
 0001:00066ccf       ___DestructExceptionObject 10067ccf f   libvcruntime:frame.obj
 0001:00066d88       ??0bad_exception@std@@QAE@ABV01@@Z 10067d88 f i libvcruntime:frame.obj
 0001:00066da9       ??0bad_exception@std@@QAE@XZ 10067da9 f i libvcruntime:frame.obj
 0001:00066dc7       ??0exception@std@@QAE@ABV01@@Z 10067dc7 f i libvcruntime:frame.obj
 0001:00066dfe       ??0exception@std@@QAE@QBDH@Z 10067dfe f i libvcruntime:frame.obj
 0001:00066e22       ??1bad_exception@std@@UAE@XZ 10067e22 f i libvcruntime:frame.obj
 0001:00066e37       ??1exception@std@@UAE@XZ   10067e37 f i libvcruntime:frame.obj
 0001:00066e4c       ??8type_info@@QBE_NABV0@@Z 10067e4c f i libvcruntime:frame.obj
 0001:00066e71       ??_Gbad_exception@std@@UAEPAXI@Z 10067e71 f i libvcruntime:frame.obj
 0001:00066e71       ??_Ebad_exception@std@@UAEPAXI@Z 10067e71 f i libvcruntime:frame.obj
 0001:00066ea9       ??_Gexception@std@@UAEPAXI@Z 10067ea9 f i libvcruntime:frame.obj
 0001:00066ea9       ??_Eexception@std@@UAEPAXI@Z 10067ea9 f i libvcruntime:frame.obj
 0001:000678fd       ?_CallMemberFunction0@@YGXQAX0@Z 100688fd f i libvcruntime:frame.obj
 0001:00067904       ?_CallMemberFunction1@@YGXQAX00@Z 10068904 f i libvcruntime:frame.obj
 0001:0006790b       ?_CallMemberFunction2@@YGXQAX00H@Z 1006890b f i libvcruntime:frame.obj
 0001:00067912       ?_ValidateExecute@@YA_NP6GHXZ@Z 10068912 f i libvcruntime:frame.obj
 0001:00067921       ?_ValidateRead@@YA_NPBXI@Z 10068921 f i libvcruntime:frame.obj
 0001:00067930       ?_ValidateWrite@@YA_NPAXI@Z 10068930 f i libvcruntime:frame.obj
 0001:0006793f       ?raw_name@type_info@@QBEPBDXZ 1006893f f i libvcruntime:frame.obj
 0001:00067943       ?what@exception@std@@UBEPBDXZ 10068943 f i libvcruntime:frame.obj
 0001:00067953       __SetWinRTOutOfMemoryExceptionCallback 10068953 f   libvcruntime:frame.obj
 0001:00067963       ___AdjustPointer           10068963 f   libvcruntime:frame.obj
 0001:00067991       ___BuildCatchObject        10068991 f   libvcruntime:frame.obj
 0001:00067a43       ___BuildCatchObjectHelper  10068a43 f   libvcruntime:frame.obj
 0001:00067bbc       ___CxxDetectRethrow        10068bbc f   libvcruntime:frame.obj
 0001:00067c1b       ___CxxExceptionFilter      10068c1b f   libvcruntime:frame.obj
 0001:00067dba       ___CxxQueryExceptionSize   10068dba f   libvcruntime:frame.obj
 0001:00067dbe       ___CxxRegisterExceptionObject 10068dbe f   libvcruntime:frame.obj
 0001:00067e88       ___CxxUnregisterExceptionObject 10068e88 f   libvcruntime:frame.obj
 0001:00067fdc       ___FrameUnwindFilter       10068fdc f   libvcruntime:frame.obj
 0001:00068032       ___FrameUnwindToState      10069032 f   libvcruntime:frame.obj
 0001:0006812c       ___GetPlatformExceptionInfo 1006912c f   libvcruntime:frame.obj
 0001:0006818d       ___InternalCxxFrameHandler 1006918d f   libvcruntime:frame.obj
 0001:000682c8       ___TypeMatch               100692c8 f   libvcruntime:frame.obj
 0001:00068379       ___current_exception       10069379 f   libvcruntime:frame.obj
 0001:00068384       ___current_exception_context 10069384 f   libvcruntime:frame.obj
 0001:0006838f       ___processing_throw        1006938f f   libvcruntime:frame.obj
 0001:0006839a       ___std_terminate           1006939a f   libvcruntime:frame.obj
 0001:0006839f       ___uncaught_exception      1006939f f   libvcruntime:frame.obj
 0001:000683af       ___uncaught_exceptions     100693af f   libvcruntime:frame.obj
 0001:000683ba       __is_exception_typeof      100693ba f   libvcruntime:frame.obj
 0001:000684a0       __get_unexpected           100694a0 f   libvcruntime:unexpected.obj
 0001:000684b6       _set_unexpected            100694b6 f   libvcruntime:unexpected.obj
 0001:000684db       _unexpected                100694db f   libvcruntime:unexpected.obj
 0001:000684fe       ??$?RD@__crt_public_free_policy@@QBEXQBD@Z 100694fe f i libvcruntime:std_exception.obj
 0001:00068512       ??0?$__crt_unique_heap_ptr@DU__crt_public_free_policy@@@@QAE@QAD@Z 10069512 f i libvcruntime:std_exception.obj
 0001:00068523       ??1?$__crt_unique_heap_ptr@DU__crt_public_free_policy@@@@QAE@XZ 10069523 f i libvcruntime:std_exception.obj
 0001:00068537       ??B?$__crt_unique_heap_ptr@DU__crt_public_free_policy@@@@QBE_NXZ 10069537 f i libvcruntime:std_exception.obj
 0001:0006853e       ?detach@?$__crt_unique_heap_ptr@DU__crt_public_free_policy@@@@QAEPADXZ 1006953e f i libvcruntime:std_exception.obj
 0001:00068544       ?get@?$__crt_unique_heap_ptr@DU__crt_public_free_policy@@@@QBEPADXZ 10069544 f i libvcruntime:std_exception.obj
 0001:00068547       ?is_valid@?$__crt_unique_heap_ptr@DU__crt_public_free_policy@@@@QBE_NXZ 10069547 f i libvcruntime:std_exception.obj
 0001:0006854e       ?release@?$__crt_unique_heap_ptr@DU__crt_public_free_policy@@@@QAEXXZ 1006954e f i libvcruntime:std_exception.obj
 0001:00068562       ___std_exception_copy      10069562 f   libvcruntime:std_exception.obj
 0001:000685dd       ___std_exception_destroy   100695dd f   libvcruntime:std_exception.obj
 0001:00068603       __CxxThrowException@8      10069603 f   libvcruntime:throw.obj
 0002:00000000       ___xc_a                    1006b000     LIBCMT:initializers.obj
 0002:00000104       ___xc_z                    1006b104     LIBCMT:initializers.obj
 0002:00000208       ___xi_a                    1006b208     LIBCMT:initializers.obj
 0002:0000030c       ___acrt_stdio_initializer  1006b30c     libucrt:stdio_initializer.obj
 0002:00000310       ___acrt_multibyte_initializer 1006b310     libucrt:multibyte_initializer.obj
 0002:00000314       ___acrt_tran_sse2_initializer 1006b314     libucrt:sse2_initializer.obj
 0002:0000041c       ___xi_z                    1006b41c     LIBCMT:initializers.obj
 0002:00000520       ___xp_a                    1006b520     LIBCMT:initializers.obj
 0002:00000624       ___acrt_locale_terminator  1006b624     libucrt:locale_initializer.obj
 0002:00000628       ___dcrt_console_output_terminator 1006b628     libucrt:console_output_initializer.obj
 0002:00000730       ___acrt_stdio_terminator   1006b730     libucrt:stdio_initializer.obj
 0002:00000834       ___xp_z                    1006b834     LIBCMT:initializers.obj
 0002:00000938       ___xt_a                    1006b938     LIBCMT:initializers.obj
 0002:00000a3c       ___xt_z                    1006ba3c     LIBCMT:initializers.obj
 0002:00000b40       _new_analog_loopback_q4_p4_M 1006bb40     new_analog_loopback_q4_p4.obj
 0002:00000b44       ??_C@_00CNPNBAHC@?$AA@     1006bb44     new_analog_loopback_q4_p4.obj
 0002:00000b48       ??_C@_0BP@BHHBOICG@new_analog_loopback_q4_p4?1Out2?$AA@ 1006bb48     new_analog_loopback_q4_p4.obj
 0002:00000b70       ??_C@_0BI@PFNCELAG@Error?5creating?5scope?52?6?$AA@ 1006bb70     new_analog_loopback_q4_p4.obj
 0002:00000b8c       ??_C@_07MMCOFBGL@Q4?5Enc?5?$AA@ 1006bb8c     new_analog_loopback_q4_p4.obj
 0002:00000b98       ??_C@_06KFNFIEK@?$CF15?46f?$AA@ 1006bb98     new_analog_loopback_q4_p4.obj
 0002:00000ba0       ??_C@_0BI@PHJEPFFP@Error?5creating?5scope?51?6?$AA@ 1006bba0     new_analog_loopback_q4_p4.obj
 0002:00000bbc       ??_C@_0BC@OJJPBDHH@FixedStepDiscrete?$AA@ 1006bbbc     new_analog_loopback_q4_p4.obj
 0002:00000bd4       ??_C@_04EPKDLPPB@tout?$AA@ 1006bbd4     new_analog_loopback_q4_p4.obj
 0002:00000bdc       ??_C@_03HBFGMJOD@rt_?$AA@  1006bbdc     new_analog_loopback_q4_p4.obj
 0002:00000be0       ??_C@_04LHDDHLEA@yout?$AA@ 1006bbe0     new_analog_loopback_q4_p4.obj
 0002:00000be8       ??_C@_0CC@NOCJPIAK@new_analog_loopback_q4_p4?1Q4?5Enc@ 1006bbe8     new_analog_loopback_q4_p4.obj
 0002:00000c10       __real@3f50624dd2f1a9fc    1006bc10     new_analog_loopback_q4_p4.obj
 0002:00000c20       __real@3ff0000000000000    1006bc20     new_analog_loopback_q4_p4.obj
 0002:00000c30       __real@4008000000000000    1006bc30     new_analog_loopback_q4_p4.obj
 0002:00000c40       __real@4059000000000000    1006bc40     new_analog_loopback_q4_p4.obj
 0002:00000c50       __real@41f0000000000000    1006bc50     new_analog_loopback_q4_p4.obj
 0002:00000c60       __real@bff0000000000000    1006bc60     new_analog_loopback_q4_p4.obj
 0002:00000c70       __xmm@00000000000000003f50624dd2f1a9fc 1006bc70     new_analog_loopback_q4_p4.obj
 0002:00000c90       __xmm@00000024000000010000000400000001 1006bc90     new_analog_loopback_q4_p4.obj
 0002:00000cb0       __xmm@41f00000000000000000000000000000 1006bcb0     new_analog_loopback_q4_p4.obj
 0002:00000cc8       __real@3cb0000000000000    1006bcc8     rt_matrx.obj
 0002:00000cd8       __real@3fe0000000000000    1006bcd8     rt_matrx.obj
 0002:00000ef4       ??_C@_02KKFPAPOP@P1?$AA@   1006bef4     new_analog_loopback_q4_p4_capi.obj
 0002:00000ef8       ??_C@_02IBHCFMCM@P2?$AA@   1006bef8     new_analog_loopback_q4_p4_capi.obj
 0002:00000efc       ??_C@_02JIGJGNGN@P3?$AA@   1006befc     new_analog_loopback_q4_p4_capi.obj
 0002:00000f00       ??_C@_02NHCIPLKK@P4?$AA@   1006bf00     new_analog_loopback_q4_p4_capi.obj
 0002:00000f04       ??_C@_02MODDMKOL@P5?$AA@   1006bf04     new_analog_loopback_q4_p4_capi.obj
 0002:00000f08       ??_C@_02OFBOJJCI@P6?$AA@   1006bf08     new_analog_loopback_q4_p4_capi.obj
 0002:00000f0c       ??_C@_02PMAFKIGJ@P7?$AA@   1006bf0c     new_analog_loopback_q4_p4_capi.obj
 0002:00000f10       ??_C@_02HLJNLEKG@P8?$AA@   1006bf10     new_analog_loopback_q4_p4_capi.obj
 0002:00000f14       ??_C@_02GCIGIFOH@P9?$AA@   1006bf14     new_analog_loopback_q4_p4_capi.obj
 0002:00000f18       ??_C@_03OPFJJGBF@P10?$AA@  1006bf18     new_analog_loopback_q4_p4_capi.obj
 0002:00000f1c       ??_C@_03PGECKHFE@P11?$AA@  1006bf1c     new_analog_loopback_q4_p4_capi.obj
 0002:00000f20       ??_C@_03NNGPPEJH@P12?$AA@  1006bf20     new_analog_loopback_q4_p4_capi.obj
 0002:00000f24       ??_C@_06BNJCAIGJ@double?$AA@ 1006bf24     new_analog_loopback_q4_p4_capi.obj
 0002:00000f2c       ??_C@_06CNMIJIPB@real_T?$AA@ 1006bf2c     new_analog_loopback_q4_p4_capi.obj
 0002:00000f34       ??_C@_05KNFBNCOH@float?$AA@ 1006bf34     new_analog_loopback_q4_p4_capi.obj
 0002:00000f3c       _serialfifoground          1006bf3c     xpc_datatype_ground.obj
 0002:00000f48       _bcmsg1553ground           1006bf48     xpc_datatype_ground.obj
 0002:00000f58       _bcstatground              1006bf58     xpc_datatype_ground.obj
 0002:00000f70       _bmmsg1553ground           1006bf70     xpc_datatype_ground.obj
 0002:00000fac       ??_C@_0BI@INNPNFJN@Memory?5Allocation?5Error?$AA@ 1006bfac     rtw_modelmap_utils.obj
 0002:00000fc8       ??_C@_1HC@IFMGIDHA@?$AAC?$AA?3?$AA?2?$AAP?$AAR?$AAO?$AAG?$AAR?$AAA?$AA?$HO?$AA1?$AA?2?$AAM?$AAA?$AAT?$AAL?$AAA?$AAB?$AA?2?$AAR?$AA2?$AA0?$AA1?$AA7?$AAa?$AA?2?$AAr?$AAt?$AAw?$AA?2?$AAc?$AA?2@ 1006bfc8     rtw_modelmap_utils.obj
 0002:00001050       ??_C@_1CI@OEAJCJND@?$AAj?$AA?5?$AA?$DN?$AA?$DN?$AA?5?$AAe?$AAn?$AAc?$AAo?$AAd?$AAe?$AAd?$AAP?$AAa?$AAt?$AAh?$AAL?$AAe?$AAn?$AA?$AA@ 1006c050     rtw_modelmap_utils.obj
 0002:00001080       ??_C@_1DC@NFAOIFKB@?$AAe?$AAn?$AAc?$AAo?$AAd?$AAe?$AAd?$AAP?$AAa?$AAt?$AAh?$AA?$FL?$AAj?$AA?9?$AA1?$AA?$FN?$AA?5?$AA?$DN?$AA?$DN?$AA?5?$AA?8?$AA?2?$AA0?$AA?8?$AA?$AA@ 1006c080     rtw_modelmap_utils.obj
 0002:000010bc       ??_C@_1DI@FLNJGPEE@?$AAs?$AAi?$AAg?$AAC?$AAo?$AAm?$AAp?$AAl?$AAe?$AAx?$AAi?$AAt?$AAy?$AA?$FL?$AA?$CK?$AAs?$AAi?$AAg?$AAI?$AAd?$AAx?$AA?$FN?$AA?5?$AA?$CB?$AA?$DN?$AA?5?$AA1?$AA?$AA@ 1006c0bc     rtw_modelmap_utils.obj
 0002:00001100       ??_C@_1KI@OFELMGBG@?$AA?$CI?$AA?$CI?$AA?$CI?$AAd?$AAa?$AAt?$AAa?$AAT?$AAy?$AAp?$AAe?$AAM?$AAa?$AAp?$AA?$CJ?$AA?$FL?$AA?$CI?$AA?$CI?$AA?$CI?$AAs?$AAt?$AAa?$AAt?$AAe?$AAs?$AA?$CJ?$AA?$FL?$AA?$CI?$AAi?$AA?$CJ?$AA?$FN?$AA?4@ 1006c100     rtw_modelmap_utils.obj
 0002:000011cc       ??_C@_1DA@ILCMPHNE@?$AAf?$AAu?$AAl?$AAl?$AAP?$AAa?$AAt?$AAh?$AA?5?$AA?$CB?$AA?$DN?$AA?5?$AA?$CI?$AA?$CI?$AAv?$AAo?$AAi?$AAd?$AA?5?$AA?$CK?$AA?$CJ?$AA0?$AA?$CJ?$AA?$AA@ 1006c1cc     rtw_modelmap_utils.obj
 0002:00001208       ??_C@_1CI@OEPPFCCA@?$AAp?$AAa?$AAt?$AAh?$AA?5?$AA?$CB?$AA?$DN?$AA?5?$AA?$CI?$AA?$CI?$AAv?$AAo?$AAi?$AAd?$AA?5?$AA?$CK?$AA?$CJ?$AA0?$AA?$CJ?$AA?$AA@ 1006c208     rtw_modelmap_utils.obj
 0002:00001238       ??_C@_1FK@GLJIMFHB@?$AA?$CI?$AA?$CI?$AAm?$AAm?$AAi?$AA?$CJ?$AA?9?$AA?$DO?$AAI?$AAn?$AAs?$AAt?$AAa?$AAn?$AAc?$AAe?$AAM?$AAa?$AAp?$AA?4?$AAf?$AAu?$AAl?$AAl?$AAP?$AAa?$AAt?$AAh?$AA?$CJ?$AA?5?$AA?$DN?$AA?$DN@ 1006c238     rtw_modelmap_utils.obj
 0002:000012a4       ??_C@_1DG@HPCJGNCE@?$AAm?$AAm?$AAi?$AAP?$AAa?$AAt?$AAh?$AA?$FL?$AAp?$AAa?$AAt?$AAh?$AAL?$AAe?$AAn?$AA?9?$AA1?$AA?$FN?$AA?5?$AA?$DN?$AA?$DN?$AA?5?$AA?8?$AA?2?$AA0?$AA?8?$AA?$AA@ 1006c2a4     rtw_modelmap_utils.obj
 0002:000012e4       ??_C@_1DM@DBAOGGOO@?$AAm?$AAm?$AAi?$AAP?$AAa?$AAt?$AAh?$AA?$FL?$AAm?$AAm?$AAi?$AAP?$AAa?$AAt?$AAh?$AAL?$AAe?$AAn?$AA?9?$AA1?$AA?$FN?$AA?5?$AA?$DN?$AA?$DN?$AA?5?$AA?8?$AA?2?$AA0?$AA?8?$AA?$AA@ 1006c2e4     rtw_modelmap_utils.obj
 0002:0000132c       ??_C@_1DC@LHIAKAFE@?$AAb?$AAl?$AAo?$AAc?$AAk?$AAP?$AAa?$AAt?$AAh?$AA?5?$AA?$CB?$AA?$DN?$AA?5?$AA?$CI?$AA?$CI?$AAv?$AAo?$AAi?$AAd?$AA?5?$AA?$CK?$AA?$CJ?$AA0?$AA?$CJ?$AA?$AA@ 1006c32c     rtw_modelmap_utils.obj
 0002:00001368       ??_C@_1GI@KIEJKPGC@?$AAf?$AAu?$AAl?$AAl?$AAS?$AAt?$AAa?$AAt?$AAe?$AAB?$AAl?$AAo?$AAc?$AAk?$AAP?$AAa?$AAt?$AAh?$AA?$FL?$AAf?$AAu?$AAl?$AAl?$AAS?$AAt?$AAa?$AAt?$AAe?$AAB?$AAl?$AAo?$AAc@ 1006c368     rtw_modelmap_utils.obj
 0002:000013e8       ??_C@_1EE@DNPIBJHC@?$AA?$CI?$AA?$CI?$AAd?$AAi?$AAm?$AAM?$AAa?$AAp?$AA?$CJ?$AA?$FL?$AA?$CI?$AAm?$AAa?$AAp?$AAI?$AAd?$AAx?$AA?$CJ?$AA?$FN?$AA?4?$AAn?$AAu?$AAm?$AAD?$AAi?$AAm?$AAs?$AA?$CJ?$AA?5?$AA?$DN?$AA?$DN?$AA?5@ 1006c3e8     rtw_modelmap_utils.obj
 0002:0000143c       ??_C@_06JFOKFOED@CSTATE?$AA@ 1006c43c     rtw_modelmap_utils.obj
 0002:00001444       ??_C@_06FAENGAMN@DSTATE?$AA@ 1006c444     rtw_modelmap_utils.obj
 0002:0000144c       ??_C@_1BI@LEBJNOGG@?$AAc?$AAs?$AAv?$AAI?$AAd?$AAx?$AA?5?$AA?$DO?$AA?$DN?$AA?5?$AA0?$AA?$AA@ 1006c44c     rtw_modelmap_utils.obj
 0002:00001468       ??_C@_1BA@KDMGHCHP@?$AAT?$AAI?$AAD?$AA?$DN?$AA?$DN?$AA?9?$AA1?$AA?$AA@ 1006c468     rtw_modelmap_utils.obj
 0002:0000147c       ??_C@_1DM@DHGKBPCE@?$AAs?$AAi?$AAg?$AAP?$AAa?$AAt?$AAh?$AA?$FL?$AAs?$AAi?$AAg?$AAP?$AAa?$AAt?$AAh?$AAL?$AAe?$AAn?$AA?9?$AA1?$AA?$FN?$AA?5?$AA?$DN?$AA?$DN?$AA?5?$AA?8?$AA?2?$AA0?$AA?8?$AA?$AA@ 1006c47c     rtw_modelmap_utils.obj
 0002:00001d28       ??_C@_0DJ@FHKINPLE@Unexpected?5itemKind?5?$DN?5DATA_ITEM?5@ 1006cd28     rt_logging.obj
 0002:00001d6c       ??_C@_0DA@IEHFPFCJ@Unexpected?5itemKind?$DN?$CFd?5in?5rt_Pro@ 1006cd6c     rt_logging.obj
 0002:00001da8       ??_C@_0DA@IFLHJPBO@Unexpected?5itemKind?$DN?$CFd?5in?5rt_Pro@ 1006cda8     rt_logging.obj
 0002:00001de4       ??_C@_0DA@IAPIIJJL@Unexpected?5itemKind?$DN?$CFd?5in?5rt_Pro@ 1006cde4     rt_logging.obj
 0002:00001e20       ??_C@_0BE@LCIGPJIG@MATLAB?55?40?5MAT?9file?$AA@ 1006ce20     rt_logging.obj
 0002:00001e38       ??_C@_0FB@PCJEAJIB@?$CK?$CK?$CK?5Log?5variable?5?$CFs?5has?5wrapped?5@ 1006ce38     rt_logging.obj
 0002:00001ea0       ??_C@_0MG@NKMLMOGF@?$CK?$CK?$CK?5To?5avoid?5wrapping?0?5explicitl@ 1006cea0     rt_logging.obj
 0002:00001f90       ??_C@_0N@IPAEOLLP@_rtw_tmw?4tmw?$AA@ 1006cf90     rt_logging.obj
 0002:00001fa0       ??_C@_04HDOCAJNK@?$CFs?$CFs?$AA@ 1006cfa0     rt_logging.obj
 0002:00001fa8       ??_C@_03ELIABIOC@w?$CLb?$AA@ 1006cfa8     rt_logging.obj
 0002:00001fac       ??_C@_0BF@JPILDDFA@?$CK?$CK?$CK?5Error?5opening?5?$CFs?$AA@ 1006cfac     rt_logging.obj
 0002:00001fc8       ??_C@_0BK@EEMDELA@unable?5to?5open?5data?5file?6?$AA@ 1006cfc8     rt_logging.obj
 0002:00001fe8       ??_C@_04CGFJFPFD@none?$AA@ 1006cfe8     rt_logging.obj
 0002:00001ff0       ??_C@_0EE@LCGFPNON@?$CK?$CK?$CK?5Error?5creating?5signals?5struc@ 1006cff0     rt_logging.obj
 0002:00002044       ??_C@_0CE@NHECEDMK@?$CK?$CK?$CK?5Error?5creating?5log?5variable?5@ 1006d044     rt_logging.obj
 0002:00002070       ??_C@_0DB@IOCGKAGH@?$CK?$CK?$CK?5Errors?5occurred?5when?5startin@ 1006d070     rt_logging.obj
 0002:000020ac       ??_C@_0BO@BBLOGEBK@?$CK?$CK?$CK?5Memory?5allocation?5error?4?6?$AA@ 1006d0ac     rt_logging.obj
 0002:000020d0       ??_C@_0N@LGFBAGEL@?5?$CIreal?5part?$CJ?$AA@ 1006d0d0     rt_logging.obj
 0002:000020e0       ??_C@_0KH@CGNMHNFE@?5?5?5?5varName?5?5?5?5?5?5?5?5?5?5?$DN?5?$CFs?$CFs?6?5?5?5?5@ 1006d0e0     rt_logging.obj
 0002:000021a8       ??_C@_0LE@OALKKEFM@?5?5?5?5varName?5?5?5?5?5?5?5?5?5?5?$DN?5?$CFs?5?$CIcompl@ 1006d1a8     rt_logging.obj
 0002:00002280       ??_C@_0KF@JDDLEOKO@?5?5?5?5varName?5?5?5?5?5?5?5?5?5?5?$DN?5?$CFs?6?5?5?5?5nR@ 1006d280     rt_logging.obj
 0002:00002348       ??_C@_0DP@HPDMIOFM@?$CK?$CK?$CK?5Using?5a?5default?5buffer?5of?5si@ 1006d348     rt_logging.obj
 0002:00002398       ??_C@_0KE@JEFOLKNF@?6?$CK?$CK?$CK?5Memory?5required?5to?5log?5vari@ 1006d398     rt_logging.obj
 0002:00002460       ??_C@_0JP@DKLMHCBI@?$CK?$CK?$CK?5Details?3?6?5?5?5?5?5?5?5varName?5?5?5?5?5@ 1006d460     rt_logging.obj
 0002:00002520       ??_C@_0CM@CAMILBED@?$CK?$CK?$CK?5Error?5allocating?5memory?5for?5@ 1006d520     rt_logging.obj
 0002:00002554       ??_C@_0DF@BBCNMOPM@?$CK?$CK?$CK?5Error?5allocating?5memory?5for?5@ 1006d554     rt_logging.obj
 0002:00002598       ??_C@_0JP@DBCLPCCI@?$CK?$CK?$CK?5Details?3?6?5?5?5?5?5?5?5varName?5?5?5?5?5@ 1006d598     rt_logging.obj
 0002:00002658       ??_C@_0FK@DPGAOBGA@?$CK?$CK?$CK?5Error?5allocating?5memory?5for?5@ 1006d658     rt_logging.obj
 0002:000026c4       ??_C@_0BI@GGDNPHLJ@?$CK?$CK?$CK?5Error?5writing?5to?5?$CFs?$AA@ 1006d6c4     rt_logging.obj
 0002:000026e0       ??_C@_0CB@IBGJGELG@?$CK?$CK?$CK?5Error?5writing?5?$CFs?5due?5to?3?5?$CFs?6@ 1006d6e0     rt_logging.obj
 0002:00002708       ??_C@_0CN@FLMCHCPB@?$CK?$CK?$CK?5Error?5writing?5log?5variable?5?$CF@ 1006d708     rt_logging.obj
 0002:00002740       ??_C@_0DH@GAJCNOJP@?$CK?$CK?$CK?5Error?5writing?5structure?5log?5@ 1006d740     rt_logging.obj
 0002:00002784       ??_C@_0BD@POEALECL@?$CK?$CK?5created?5?$CFs?5?$CK?$CK?6?6?$AA@ 1006d784     rt_logging.obj
 0002:000027a0       __real@0000000000000000    1006d7a0     rt_logging.obj
 0002:000027b0       __real@4020000000000000    1006d7b0     rt_logging.obj
 0002:000027c0       __real@41dfffffffc00000    1006d7c0     rt_logging.obj
 0002:000027d0       __real@41efffffffe00000    1006d7d0     rt_logging.obj
 0002:000027e0       __real@4330000000000000    1006d7e0     rt_logging.obj
 0002:000027f0       __real@8000000000000000    1006d7f0     rt_logging.obj
 0002:00002800       __real@bfbf9add3afd2773    1006d800     rt_logging.obj
 0002:00002810       __real@c000000000000000    1006d810     rt_logging.obj
 0002:00002820       __xmm@20202020202020202020202020202020 1006d820     rt_logging.obj
 0002:00002834       ??_C@_0BK@NDBILMNO@new_analog_loopback_q4_p4?$AA@ 1006d834     xpctarget.obj
 0002:00002854       _ptsetfilename             1006d854     xpctarget.obj
 0002:00002858       _xmlfile                   1006d858     xpctarget.obj
 0002:00002860       ??_C@_0L@CHBJKKFC@xpceSetVar?$AA@ 1006d860     xpctarget.obj
 0002:00002870       ??_C@_03LADEHNAB@6?46?$AA@ 1006d870     xpctarget.obj
 0002:00002878       __real@3fb999999999999a    1006d878     xpctarget.obj
 0002:00002888       __real@408f400000000000    1006d888     xpctarget.obj
 0002:00002898       _new_analog_loopback_q4_p4_BIOMAP 1006d898     appmappingData.obj
 0002:000028b0       _new_analog_loopback_q4_p4_LBLMAP 1006d8b0     appmappingData.obj
 0002:000028c8       _new_analog_loopback_q4_p4_SIDMAP 1006d8c8     appmappingData.obj
 0002:000028e0       _new_analog_loopback_q4_p4_SBIO 1006d8e0     appmappingData.obj
 0002:000028e8       _new_analog_loopback_q4_p4_SLBL 1006d8e8     appmappingData.obj
 0002:000028f0       _new_analog_loopback_q4_p4_PTIDSMAP 1006d8f0     appmappingData.obj
 0002:00002958       _new_analog_loopback_q4_p4_PTNAMESMAP 1006d958     appmappingData.obj
 0002:000029c0       _new_analog_loopback_q4_p4_SPTMAP 1006d9c0     appmappingData.obj
 0002:000029f4       _new_analog_loopback_q4_p4_dtmap 1006d9f4     appmappingData.obj
 0002:00002a00       _appInfo                   1006da00     appmappingData.obj
 0002:00002aa4       ??_C@_0CC@FIFFDAB@?$CFd?5input?5args?5expected?0?5?$CFd?5passe@ 1006daa4     encquanserq8.obj
 0002:00002acc       ??_C@_0L@GPCJJFPH@Quanser?5Q8?$AA@ 1006dacc     encquanserq8.obj
 0002:00002adc       ??_C@_0L@MDJMNKPL@Quanser?5Q4?$AA@ 1006dadc     encquanserq8.obj
 0002:00002aec       ??_C@_0BI@IHCNPKCM@No?5?$CFs?5at?5bus?5?$CFd?5slot?5?$CFd?$AA@ 1006daec     encquanserq8.obj
 0002:00002b08       ??_C@_0BL@NBOIGMKP@Q8?1Q4?5encoder?5error?5?$CFx?5?$CFx?6?$AA@ 1006db08     encquanserq8.obj
 0002:00002b28       ??_C@_0CC@DMFKNLL@VendorId?5?$DN?50x?$CFx?0?5DeviceId?5?$DN?50x?$CFx@ 1006db28     xpcruntime:xpcimports.obj
 0002:00002b50       ??_C@_0DH@OHCBLNMG@Subsystem?5Device?5ID?5?$DN?50x?$CFx?6Subsy@ 1006db50     xpcruntime:xpcimports.obj
 0002:00002b94       ??_C@_0BD@MMMMEFCM@Class?5Code?5?$DN?50x?$CFx?6?$AA@ 1006db94     xpcruntime:xpcimports.obj
 0002:00002bac       ??_C@_0BE@OLDDDNHM@InterruptLine?5?$DN?5?$CFd?6?$AA@ 1006dbac     xpcruntime:xpcimports.obj
 0002:00002bc4       ??_C@_0BF@OLKLEKBD@bus?5?$DN?5?$CFd?0?5slot?5?$DN?5?$CFd?6?$AA@ 1006dbc4     xpcruntime:xpcimports.obj
 0002:00002be0       ??_C@_0CE@DGLLGDFH@?5?5?5?5Phys?5?5?5Virtual?5?5?5Length?5IO?1M@ 1006dbe0     xpcruntime:xpcimports.obj
 0002:00002c0c       ??_C@_0BI@FEOPLEMG@?$CF08x?5?$CF08x?5?$CF08x?5?5?5?5?5?5?$CFc?6?$AA@ 1006dc0c     xpcruntime:xpcimports.obj
 0002:00002c28       ??_C@_0BB@BNNCEDPC@rl32eScopeExists?$AA@ 1006dc28     xpcruntime:xpcimports.obj
 0002:00002c3c       ??_C@_0BM@FJBFEGFG@rl32eScopeExists?5not?5found?6?$AA@ 1006dc3c     xpcruntime:xpcimports.obj
 0002:00002c60       ??_C@_0O@BNNGKJEA@rl32eDefScope?$AA@ 1006dc60     xpcruntime:xpcimports.obj
 0002:00002c70       ??_C@_0BJ@CDNOENKA@rl32eDefScope?5not?5found?6?$AA@ 1006dc70     xpcruntime:xpcimports.obj
 0002:00002c90       ??_C@_0P@CKNKILDP@rl32eAddSignal?$AA@ 1006dc90     xpcruntime:xpcimports.obj
 0002:00002ca4       ??_C@_0BK@GMJAJBAI@rl32eAddSignal?5not?5found?6?$AA@ 1006dca4     xpcruntime:xpcimports.obj
 0002:00002cc4       ??_C@_0BB@LDMIHGCE@rl32eGetSignalNo?$AA@ 1006dcc4     xpcruntime:xpcimports.obj
 0002:00002cd8       ??_C@_0BM@LGAMBAID@rl32eGetSignalNo?5not?5found?6?$AA@ 1006dcd8     xpcruntime:xpcimports.obj
 0002:00002cfc       ??_C@_0O@CFDGALBP@rl32eSetScope?$AA@ 1006dcfc     xpcruntime:xpcimports.obj
 0002:00002d0c       ??_C@_0BJ@JCLHHIN@rl32eSetScope?5not?5found?6?$AA@ 1006dd0c     xpcruntime:xpcimports.obj
 0002:00002d2c       ??_C@_0P@IKMCBMHH@xpceFSScopeSet?$AA@ 1006dd2c     xpcruntime:xpcimports.obj
 0002:00002d40       ??_C@_0BK@JODJPNNH@xpceFSScopeSet?5not?5found?6?$AA@ 1006dd40     xpcruntime:xpcimports.obj
 0002:00002d60       ??_C@_0BE@DLACEEJM@rl32eSetTargetScope?$AA@ 1006dd60     xpcruntime:xpcimports.obj
 0002:00002d78       ??_C@_0BP@JCHFMKPJ@rl32eSetTargetScope?5not?5found?6?$AA@ 1006dd78     xpcruntime:xpcimports.obj
 0002:00002da0       ??_C@_0BJ@LIDLNDHC@rl32eSetTargetScopeSigFt?$AA@ 1006dda0     xpcruntime:xpcimports.obj
 0002:00002dc0       ??_C@_0CE@JLGHCFHI@rl32eSetTargetScopeSigFt?5not?5fou@ 1006ddc0     xpcruntime:xpcimports.obj
 0002:00002dec       ??_C@_0BI@JAPOIDNG@rl32eRestartAcquisition?$AA@ 1006ddec     xpcruntime:xpcimports.obj
 0002:00002e08       ??_C@_0CD@LLBEFFBO@rl32eRestartAcquisition?5not?5foun@ 1006de08     xpcruntime:xpcimports.obj
 0002:00002e34       ??_C@_0P@IEIIADJB@xpceScopeAcqOK?$AA@ 1006de34     xpcruntime:xpcimports.obj
 0002:00002e48       ??_C@_0BK@NJCKNFPN@xpceScopeAcqOK?5not?5found?6?$AA@ 1006de48     xpcruntime:xpcimports.obj
 0002:00002e68       ??_C@_0BA@IJINKAHF@xpceRegisterISR?$AA@ 1006de68     xpcruntime:xpcimports.obj
 0002:00002e7c       ??_C@_0BL@NNDLOEJE@xpceRegisterISR?5not?5found?6?$AA@ 1006de7c     xpcruntime:xpcimports.obj
 0002:00002e9c       ??_C@_0BC@NLBADGKF@xpceDeRegisterISR?$AA@ 1006de9c     xpcruntime:xpcimports.obj
 0002:00002eb4       ??_C@_0BN@DCAIKFFD@xpceDeRegisterISR?5not?5found?6?$AA@ 1006deb4     xpcruntime:xpcimports.obj
 0002:00002ed8       ??_C@_07JPMEPILD@xpcInpB?$AA@ 1006ded8     xpcruntime:xpcimports.obj
 0002:00002ee4       ??_C@_0BD@PGABEJOL@xpcInpB?5not?5found?6?$AA@ 1006dee4     xpcruntime:xpcimports.obj
 0002:00002efc       ??_C@_07KIHBBOKH@xpcInpW?$AA@ 1006defc     xpcruntime:xpcimports.obj
 0002:00002f08       ??_C@_0BD@FPCJFMCC@xpcInpW?5not?5found?6?$AA@ 1006df08     xpcruntime:xpcimports.obj
 0002:00002f20       ??_C@_08KDIAJBOP@xpcInpDW?$AA@ 1006df20     xpcruntime:xpcimports.obj
 0002:00002f2c       ??_C@_0BE@PIELDNIL@xpcInpDW?5not?5found?6?$AA@ 1006df2c     xpcruntime:xpcimports.obj
 0002:00002f44       ??_C@_08PJFMOIGO@xpcOutpB?$AA@ 1006df44     xpcruntime:xpcimports.obj
 0002:00002f50       ??_C@_0BE@HCKNCEKF@xpcOutpB?5not?5found?6?$AA@ 1006df50     xpcruntime:xpcimports.obj
 0002:00002f68       ??_C@_08MOOJAOHK@xpcOutpW?$AA@ 1006df68     xpcruntime:xpcimports.obj
 0002:00002f74       ??_C@_0BE@NLIFDBGM@xpcOutpW?5not?5found?6?$AA@ 1006df74     xpcruntime:xpcimports.obj
 0002:00002f8c       ??_C@_09FLIEKHJG@xpcOutpDW?$AA@ 1006df8c     xpcruntime:xpcimports.obj
 0002:00002f98       ??_C@_0BF@GJKLPNHB@xpcOutpDW?5not?5found?6?$AA@ 1006df98     xpcruntime:xpcimports.obj
 0002:00002fb4       ??_C@_0BH@EHOLELHH@xpcReserveMemoryRegion?$AA@ 1006dfb4     xpcruntime:xpcimports.obj
 0002:00002fd0       ??_C@_0CC@KAAAGPI@xpcReserveMemoryRegion?5not?5found@ 1006dfd0     xpcruntime:xpcimports.obj
 0002:00002ff8       ??_C@_0BA@JGPMHGAF@rl32eShowPCIDev?$AA@ 1006dff8     xpcruntime:xpcimports.obj
 0002:0000300c       ??_C@_0BL@DDFFLNHI@rl32eShowPCIDev?5not?5found?6?$AA@ 1006e00c     xpcruntime:xpcimports.obj
 0002:0000302c       ??_C@_0BB@KBCOJPFB@rl32eShowPCIInfo?$AA@ 1006e02c     xpcruntime:xpcimports.obj
 0002:00003040       ??_C@_0BM@IFDMAGLO@rl32eShowPCIInfo?5not?5found?6?$AA@ 1006e040     xpcruntime:xpcimports.obj
 0002:00003064       ??_C@_0BA@BGPAADB@rl32eGetPCIInfo?$AA@ 1006e064     xpcruntime:xpcimports.obj
 0002:00003078       ??_C@_0BL@IGOMLDCK@rl32eGetPCIInfo?5not?5found?6?$AA@ 1006e078     xpcruntime:xpcimports.obj
 0002:00003098       ??_C@_0BG@NJPFKFDP@rl32eGetPCIInfoAtSlot?$AA@ 1006e098     xpcruntime:xpcimports.obj
 0002:000030b4       ??_C@_0CB@BBKIPMLA@rl32eGetPCIInfoAtSlot?5not?5found?6@ 1006e0b4     xpcruntime:xpcimports.obj
 0002:000030dc       ??_C@_0BH@OKBOPNFG@xpceAssignPCIInterrupt?$AA@ 1006e0dc     xpcruntime:xpcimports.obj
 0002:000030f8       ??_C@_0CC@CDNDNJBJ@xpceAssignPCIInterrupt?5not?5found@ 1006e0f8     xpcruntime:xpcimports.obj
 0002:00003120       ??_C@_0BD@PCKOKHO@xpceGetSignalValue?$AA@ 1006e120     xpcruntime:xpcimports.obj
 0002:00003138       ??_C@_0BO@GCBDJHMB@xpceGetSignalValue?5not?5found?6?$AA@ 1006e138     xpcruntime:xpcimports.obj
 0002:0000315c       ??_C@_0BB@BJONJAGA@xpceSetParameter?$AA@ 1006e15c     xpcruntime:xpcimports.obj
 0002:00003170       ??_C@_0BM@BJIKDLHA@xpceSetParameter?5not?5found?6?$AA@ 1006e170     xpcruntime:xpcimports.obj
 0002:00003194       ??_C@_0BB@GNFDFMCM@xpceGetParameter?$AA@ 1006e194     xpcruntime:xpcimports.obj
 0002:000031a8       ??_C@_0BM@POHNKBC@xpceGetParameter?5not?5found?6?$AA@ 1006e1a8     xpcruntime:xpcimports.obj
 0002:000031cc       ??_C@_0BB@CEIJLFCD@xpceGetParamDims?$AA@ 1006e1cc     xpcruntime:xpcimports.obj
 0002:000031e0       ??_C@_0BM@OABDBKAO@xpceGetParamDims?5not?5found?6?$AA@ 1006e1e0     xpcruntime:xpcimports.obj
 0002:00003204       ??_C@_0L@OCBLLHBM@xpceGetTET?$AA@ 1006e204     xpcruntime:xpcimports.obj
 0002:00003214       ??_C@_0BG@HNOFBOB@xpceGetTET?5not?5found?6?$AA@ 1006e214     xpcruntime:xpcimports.obj
 0002:00003230       ??_C@_0P@OKGNGAGH@xpcIsModelInit?$AA@ 1006e230     xpcruntime:xpcimports.obj
 0002:00003244       ??_C@_0BK@DHEMLBIM@xpcIsModelInit?5not?5found?6?$AA@ 1006e244     xpcruntime:xpcimports.obj
 0002:00003264       ??_C@_0BH@KJJLCAOJ@xpcAllocPhysicalMemory?$AA@ 1006e264     xpcruntime:xpcimports.obj
 0002:00003280       ??_C@_0CC@MOJPNHKL@xpcAllocPhysicalMemory?5not?5found@ 1006e280     xpcruntime:xpcimports.obj
 0002:000032a8       ??_C@_0BG@CBNPGAEL@xpcFreePhysicalMemory?$AA@ 1006e2a8     xpcruntime:xpcimports.obj
 0002:000032c4       ??_C@_0CB@PKJEBPOG@xpcFreePhysicalMemory?5not?5found?6@ 1006e2c4     xpcruntime:xpcimports.obj
 0002:000032ec       ??_C@_0BC@JGKNLICL@xpcGetElapsedTime?$AA@ 1006e2ec     xpcruntime:xpcimports.obj
 0002:00003304       ??_C@_0BN@OEOAHCIO@xpcGetElapsedTime?5not?5found?6?$AA@ 1006e304     xpcruntime:xpcimports.obj
 0002:00003328       ??_C@_0M@ICBLMODA@xpcBusyWait?$AA@ 1006e328     xpcruntime:xpcimports.obj
 0002:00003338       ??_C@_0BH@FBOPECBI@xpcBusyWait?5not?5found?6?$AA@ 1006e338     xpcruntime:xpcimports.obj
 0002:00003354       ??_C@_0N@LKKJEKKA@TBCreateSpin?$AA@ 1006e354     xpcruntime:xpcimports.obj
 0002:00003364       ??_C@_0BI@FHKMLKOE@TBCreateSpin?5not?5found?6?$AA@ 1006e364     xpcruntime:xpcimports.obj
 0002:00003380       ??_C@_0N@HOAJHNBD@TBDeleteSpin?$AA@ 1006e380     xpcruntime:xpcimports.obj
 0002:00003390       ??_C@_0BI@BKCPAAG@TBDeleteSpin?5not?5found?6?$AA@ 1006e390     xpcruntime:xpcimports.obj
 0002:000033ac       ??_C@_0P@DAHDDBJG@TBTakeSpinFast?$AA@ 1006e3ac     xpcruntime:xpcimports.obj
 0002:000033c0       ??_C@_0BK@NKAIBHGB@TBTakeSpinFast?5not?5found?6?$AA@ 1006e3c0     xpcruntime:xpcimports.obj
 0002:000033e0       ??_C@_0P@FKNAAELA@TBGiveSpinFast?$AA@ 1006e3e0     xpcruntime:xpcimports.obj
 0002:000033f4       ??_C@_0BK@KGPJBJND@TBGiveSpinFast?5not?5found?6?$AA@ 1006e3f4     xpcruntime:xpcimports.obj
 0002:00003414       ??_C@_0BE@IIGBFDHK@xpceCreateSemaphore?$AA@ 1006e414     xpcruntime:xpcimports.obj
 0002:0000342c       ??_C@_0BP@KFBAFFKJ@xpceCreateSemaphore?5not?5found?6?$AA@ 1006e42c     xpcruntime:xpcimports.obj
 0002:00003454       ??_C@_0BC@IFNIONKJ@xpceWaitSemaphore?$AA@ 1006e454     xpcruntime:xpcimports.obj
 0002:0000346c       ??_C@_0BN@NMFAADIO@xpceWaitSemaphore?5not?5found?6?$AA@ 1006e46c     xpcruntime:xpcimports.obj
 0002:00003490       ??_C@_0BE@NNDIOBKE@xpceSignalSemaphore?$AA@ 1006e490     xpcruntime:xpcimports.obj
 0002:000034a8       ??_C@_0BP@LBANMHJP@xpceSignalSemaphore?5not?5found?6?$AA@ 1006e4a8     xpcruntime:xpcimports.obj
 0002:000034d0       ??_C@_0BE@MEBEKOIM@xpceDeleteSemaphore?$AA@ 1006e4d0     xpcruntime:xpcimports.obj
 0002:000034e8       ??_C@_0BP@OFNCKOJH@xpceDeleteSemaphore?5not?5found?6?$AA@ 1006e4e8     xpcruntime:xpcimports.obj
 0002:00003510       ??_C@_0BD@MFNDMBOF@FindUsbVideoDevice?$AA@ 1006e510     xpcruntime:xpcimports.obj
 0002:00003528       ??_C@_0BO@POKLDHMI@FindUsbVideoDevice?5not?5found?6?$AA@ 1006e528     xpcruntime:xpcimports.obj
 0002:0000354c       ??_C@_0BA@PLPAPNAB@GetVideoConfigs?$AA@ 1006e54c     xpcruntime:xpcimports.obj
 0002:00003560       ??_C@_0BL@DALDHKHC@GetVideoConfigs?5not?5found?6?$AA@ 1006e560     xpcruntime:xpcimports.obj
 0002:00003580       ??_C@_0L@GBAEMHMH@StartVideo?$AA@ 1006e580     xpcruntime:xpcimports.obj
 0002:00003590       ??_C@_0BG@HDCELEBP@StartVideo?5not?5found?6?$AA@ 1006e590     xpcruntime:xpcimports.obj
 0002:000035ac       ??_C@_0BA@FDNPOCLN@ReadFrameBuffer?$AA@ 1006e5ac     xpcruntime:xpcimports.obj
 0002:000035c0       ??_C@_0BL@JHGHPNBI@ReadFrameBuffer?5not?5found?6?$AA@ 1006e5c0     xpcruntime:xpcimports.obj
 0002:000035e0       ??_C@_09FAHCLKAG@StopVideo?$AA@ 1006e5e0     xpcruntime:xpcimports.obj
 0002:000035ec       ??_C@_0BF@NKGKKADL@StopVideo?5not?5found?6?$AA@ 1006e5ec     xpcruntime:xpcimports.obj
 0002:00003608       ??_C@_0O@MCPKDLLL@ConvertUImage?$AA@ 1006e608     xpcruntime:xpcimports.obj
 0002:00003618       ??_C@_0BJ@PHJKOAFL@ConvertUImage?5not?5found?6?$AA@ 1006e618     xpcruntime:xpcimports.obj
 0002:00003638       ??_C@_0BD@NKCBPBJJ@CreateVideoDisplay?$AA@ 1006e638     xpcruntime:xpcimports.obj
 0002:00003650       ??_C@_0BO@HPPLLNFP@CreateVideoDisplay?5not?5found?6?$AA@ 1006e650     xpcruntime:xpcimports.obj
 0002:00003674       ??_C@_0BE@KJCKGPHA@DestroyVideoDisplay?$AA@ 1006e674     xpcruntime:xpcimports.obj
 0002:0000368c       ??_C@_0BP@FMGLJAIJ@DestroyVideoDisplay?5not?5found?6?$AA@ 1006e68c     xpcruntime:xpcimports.obj
 0002:000036b4       ??_C@_0BC@HCMIMIDN@StartVideoDisplay?$AA@ 1006e6b4     xpcruntime:xpcimports.obj
 0002:000036cc       ??_C@_0BN@EFIEBGOO@StartVideoDisplay?5not?5found?6?$AA@ 1006e6cc     xpcruntime:xpcimports.obj
 0002:000036f0       ??_C@_0BB@JBBLMILG@StopVideoDisplay?$AA@ 1006e6f0     xpcruntime:xpcimports.obj
 0002:00003704       ??_C@_0BM@DBJBPLEL@StopVideoDisplay?5not?5found?6?$AA@ 1006e704     xpcruntime:xpcimports.obj
 0002:00003728       ??_C@_0M@MFJEGMHC@StreamVideo?$AA@ 1006e728     xpcruntime:xpcimports.obj
 0002:00003738       ??_C@_0BH@OINCDMLA@StreamVideo?5not?5found?6?$AA@ 1006e738     xpcruntime:xpcimports.obj
 0002:00003754       ??_C@_0N@IGGLCIGE@xpceaddEvent?$AA@ 1006e754     xpcruntime:xpcimports.obj
 0002:00003764       ??_C@_0BI@NHJNFMKH@xpceaddEvent?5not?5found?6?$AA@ 1006e764     xpcruntime:xpcimports.obj
 0002:00003780       ??_C@_0BB@HDPOIJAB@xpceDAQPostEvent?$AA@ 1006e780     xpcruntime:xpcimports.obj
 0002:00003794       ??_C@_0BM@IHANBKGN@xpceDAQPostEvent?5not?5found?6?$AA@ 1006e794     xpcruntime:xpcimports.obj
 0002:000037b8       ??_C@_0BH@MBACMOD@xpceDAQUpdateTimeStamp?$AA@ 1006e7b8     xpcruntime:xpcimports.obj
 0002:000037d4       ??_C@_0CC@DAKBBINL@xpceDAQUpdateTimeStamp?5not?5found@ 1006e7d4     xpcruntime:xpcimports.obj
 0002:000037fc       ??_C@_0BN@HJOHIFOM@xpceGetIntTimerGranularityNS?$AA@ 1006e7fc     xpcruntime:xpcimports.obj
 0002:00003820       ??_C@_0CI@OADDPMKB@xpceGetIntTimerGranularityNS?5not@ 1006e820     xpcruntime:xpcimports.obj
 0002:00003850       ??_C@_0BG@CCHICKPN@slrteSetStepSizeDelta?$AA@ 1006e850     xpcruntime:xpcimports.obj
 0002:0000386c       ??_C@_0CB@MKHINEIJ@slrteSetStepSizeDelta?5not?5found?6@ 1006e86c     xpcruntime:xpcimports.obj
 0002:00003894       ??_C@_0BI@CLNBLDKJ@slrteGetCurrentStepSize?$AA@ 1006e894     xpcruntime:xpcimports.obj
 0002:000038b0       ??_C@_0CD@GIOJPGJA@slrteGetCurrentStepSize?5not?5foun@ 1006e8b0     xpcruntime:xpcimports.obj
 0002:000038dc       ??_C@_0BE@FCLCBOC@registerPTPTimeRead?$AA@ 1006e8dc     xpcruntime:xpcimports.obj
 0002:000038f4       ??_C@_0BP@LHPKAJIP@registerPTPTimeRead?5not?5found?6?$AA@ 1006e8f4     xpcruntime:xpcimports.obj
 0002:0000391c       ??_C@_0BG@KIGCDDJI@unRegisterPTPTimeRead?$AA@ 1006e91c     xpcruntime:xpcimports.obj
 0002:00003938       ??_C@_0CB@MLFFBFCM@unRegisterPTPTimeRead?5not?5found?6@ 1006e938     xpcruntime:xpcimports.obj
 0002:00003960       ??_C@_0BB@IPMDDBHK@slTestInitialize?$AA@ 1006e960     xpcruntime:xpcimports.obj
 0002:00003974       ??_C@_0BM@LAJFCCJH@slTestInitialize?5not?5found?6?$AA@ 1006e974     xpcruntime:xpcimports.obj
 0002:00003998       ??_C@_0BF@OOMPMEBC@slTestLogAssessments?$AA@ 1006e998     xpcruntime:xpcimports.obj
 0002:000039b4       ??_C@_0CA@FGJCEBAG@slTestLogAssessments?5not?5found?6?$AA@ 1006e9b4     xpcruntime:xpcimports.obj
 0002:000039dc       ??_C@_0BB@HJHKONHO@slTestEvalOnFail?$AA@ 1006e9dc     xpcruntime:xpcimports.obj
 0002:000039f0       ??_C@_0BM@JIKCFFNJ@slTestEvalOnFail?5not?5found?6?$AA@ 1006e9f0     xpcruntime:xpcimports.obj
 0002:00003a14       ??_C@_0BA@LBHLABFP@slTestTerminate?$AA@ 1006ea14     xpcruntime:xpcimports.obj
 0002:00003a28       ??_C@_0BL@EMFGKAPA@slTestTerminate?5not?5found?6?$AA@ 1006ea28     xpcruntime:xpcimports.obj
 0002:00003a48       ??_C@_0BE@JPNPBBEO@slTestRegAssessment?$AA@ 1006ea48     xpcruntime:xpcimports.obj
 0002:00003a60       ??_C@_0BP@FBDEJJJH@slTestRegAssessment?5not?5found?6?$AA@ 1006ea60     xpcruntime:xpcimports.obj
 0002:00003a88       ??_C@_0O@NCLGDNIB@slrteSetupMSI?$AA@ 1006ea88     xpcruntime:xpcimports.obj
 0002:00003a98       ??_C@_0BJ@HEFMECLM@slrteSetupMSI?5not?5found?6?$AA@ 1006ea98     xpcruntime:xpcimports.obj
 0002:00003ab8       ??_C@_0BH@BPOLALHD@slrtGetCRBScratchSpace?$AA@ 1006eab8     xpcruntime:xpcimports.obj
 0002:00003ad4       ??_C@_0CC@KCKAJKKJ@slrtGetCRBScratchSpace?5not?5found@ 1006ead4     xpcruntime:xpcimports.obj
 0002:00003afc       ??_C@_0BC@MKFDAKOL@slrtGetSgCRBSpace?$AA@ 1006eafc     xpcruntime:xpcimports.obj
 0002:00003b14       ??_C@_0BN@JDPHPLHL@slrtGetSgCRBSpace?5not?5found?6?$AA@ 1006eb14     xpcruntime:xpcimports.obj
 0002:00003b38       ??_C@_0P@EPAPKLIF@slrtfsOpenFile?$AA@ 1006eb38     xpcruntime:xpcimports.obj
 0002:00003b4c       ??_C@_0BK@FIHCBOHG@slrtfsOpenFile?5not?5found?6?$AA@ 1006eb4c     xpcruntime:xpcimports.obj
 0002:00003b6c       ??_C@_0BA@LILAFDDL@slrtfsCloseFile?$AA@ 1006eb6c     xpcruntime:xpcimports.obj
 0002:00003b80       ??_C@_0BL@DEGHJFIB@slrtfsCloseFile?5not?5found?6?$AA@ 1006eb80     xpcruntime:xpcimports.obj
 0002:00003ba0       ??_C@_0BC@OKMJDIEH@slrtfsWriteToFile?$AA@ 1006eba0     xpcruntime:xpcimports.obj
 0002:00003bb8       ??_C@_0BN@KCFLCLAH@slrtfsWriteToFile?5not?5found?6?$AA@ 1006ebb8     xpcruntime:xpcimports.obj
 0002:00003bdc       ??_C@_0BK@GIPNFFFF@slrtfsGetFileErrorMessage?$AA@ 1006ebdc     xpcruntime:xpcimports.obj
 0002:00003bfc       ??_C@_0CF@BCBLMKLE@slrtfsGetFileErrorMessage?5not?5fo@ 1006ebfc     xpcruntime:xpcimports.obj
 0002:00003c28       ??_C@_0BD@ICBOKMK@slrtfsGetFileError?$AA@ 1006ec28     xpcruntime:xpcimports.obj
 0002:00003c40       ??_C@_0BO@FNBANAE@slrtfsGetFileError?5not?5found?6?$AA@ 1006ec40     xpcruntime:xpcimports.obj
 0002:00003c64       ??_C@_0BE@PPAJMHJP@slrtfsOpenFileAsync?$AA@ 1006ec64     xpcruntime:xpcimports.obj
 0002:00003c7c       ??_C@_0BP@HKBMMJOK@slrtfsOpenFileAsync?5not?5found?6?$AA@ 1006ec7c     xpcruntime:xpcimports.obj
 0002:00003ca4       ??_C@_0BF@IGNDIBPF@slrtfsCloseFileAsync?$AA@ 1006eca4     xpcruntime:xpcimports.obj
 0002:00003cc0       ??_C@_0CA@GJPFDBKN@slrtfsCloseFileAsync?5not?5found?6?$AA@ 1006ecc0     xpcruntime:xpcimports.obj
 0002:00003ce8       ??_C@_0BE@IOLEBNB@slrtfsGetFileStatus?$AA@ 1006ece8     xpcruntime:xpcimports.obj
 0002:00003d00       ??_C@_0BP@PEFHDGHL@slrtfsGetFileStatus?5not?5found?6?$AA@ 1006ed00     xpcruntime:xpcimports.obj
 0002:00003d28       ??_C@_0M@HKIJIMG@slrtfsFread?$AA@ 1006ed28     xpcruntime:xpcimports.obj
 0002:00003d38       ??_C@_0BH@OOKBGONO@slrtfsFread?5not?5found?6?$AA@ 1006ed38     xpcruntime:xpcimports.obj
 0002:00003d54       ??_C@_0BE@OGCMPLAP@slrtGetDefaultDrive?$AA@ 1006ed54     xpcruntime:xpcimports.obj
 0002:00003d6c       ??_C@_0BP@HKFGLHOE@slrtGetDefaultDrive?5not?5found?6?$AA@ 1006ed6c     xpcruntime:xpcimports.obj
 0002:00003d94       ??_C@_0N@NAJIKFFI@slrtLogEvent?$AA@ 1006ed94     xpcruntime:xpcimports.obj
 0002:00003da4       ??_C@_0BI@NKCEACND@slrtLogEvent?5not?5found?6?$AA@ 1006eda4     xpcruntime:xpcimports.obj
 0002:00003dc0       ??_C@_0N@IDKFJOHI@getlasterror?$AA@ 1006edc0     xpcruntime:xpcimports.obj
 0002:00003dd0       ??_C@_0BI@MIHMCHGL@getlasterror?5not?5found?6?$AA@ 1006edd0     xpcruntime:xpcimports.obj
 0002:00003dec       ??_C@_0P@OKHGKJKN@geterrorstring?$AA@ 1006edec     xpcruntime:xpcimports.obj
 0002:00003e00       ??_C@_0BK@NOHFDMLP@geterrorstring?5not?5found?6?$AA@ 1006ee00     xpcruntime:xpcimports.obj
 0002:00003e20       ??_C@_0BD@HNFFKMGJ@slrtGetCPUTCelsius?$AA@ 1006ee20     xpcruntime:xpcimports.obj
 0002:00003e38       ??_C@_0BO@LHBFKLIH@slrtGetCPUTCelsius?5not?5found?6?$AA@ 1006ee38     xpcruntime:xpcimports.obj
 0002:00003e5c       ??_C@_0M@OONCNCLM@slrtWarning?$AA@ 1006ee5c     xpcruntime:xpcimports.obj
 0002:00003e6c       ??_C@_0BH@ICKGIEMB@slrtWarning?5not?5found?6?$AA@ 1006ee6c     xpcruntime:xpcimports.obj
 0002:00003e88       ??_C@_0N@EAAOMIIE@isUsedByRTIP?$AA@ 1006ee88     xpcruntime:xpcimports.obj
 0002:00003e98       ??_C@_0BI@GNHHHICK@isUsedByRTIP?5not?5found?6?$AA@ 1006ee98     xpcruntime:xpcimports.obj
 0002:00003eb4       ??_C@_0BC@HLDKJAG@SetIPTASKPriority?$AA@ 1006eeb4     xpcruntime:xpcimports.obj
 0002:00003ecc       ??_C@_0BN@OGKMHHAE@SetIPTASKPriority?5not?5found?6?$AA@ 1006eecc     xpcruntime:xpcimports.obj
 0002:00003ef0       ??_C@_0O@LHENMBDD@OpenInterface?$AA@ 1006eef0     xpcruntime:xpcimports.obj
 0002:00003f00       ??_C@_0BJ@PFGDBKHB@OpenInterface?5not?5found?6?$AA@ 1006ef00     xpcruntime:xpcimports.obj
 0002:00003f20       ??_C@_0P@IINFELKD@CloseInterface?$AA@ 1006ef20     xpcruntime:xpcimports.obj
 0002:00003f34       ??_C@_0BK@PAPDNDBK@CloseInterface?5not?5found?6?$AA@ 1006ef34     xpcruntime:xpcimports.obj
 0002:00003f54       ??_C@_05LEFIAAOI@SetIP?$AA@ 1006ef54     xpcruntime:xpcimports.obj
 0002:00003f5c       ??_C@_0BB@CGLIBAMM@SetIP?5not?5found?6?$AA@ 1006ef5c     xpcruntime:xpcimports.obj
 0002:00003f70       ??_C@_0BA@HIJJHHMD@AddGatewayRoute?$AA@ 1006ef70     xpcruntime:xpcimports.obj
 0002:00003f84       ??_C@_0BL@BFCFMDMN@AddGatewayRoute?5not?5found?6?$AA@ 1006ef84     xpcruntime:xpcimports.obj
 0002:00003fa4       ??_C@_0M@PHMABFPI@DeleteRoute?$AA@ 1006efa4     xpcruntime:xpcimports.obj
 0002:00003fb4       ??_C@_0BH@JPJGLLID@DeleteRoute?5not?5found?6?$AA@ 1006efb4     xpcruntime:xpcimports.obj
 0002:00003fd0       ??_C@_0BA@FCDIMKIJ@GetHostTarIPAdd?$AA@ 1006efd0     xpcruntime:xpcimports.obj
 0002:00003fe4       ??_C@_0BL@MBKDGKBO@GetHostTarIPAdd?5not?5found?6?$AA@ 1006efe4     xpcruntime:xpcimports.obj
 0002:00004004       ??_C@_0M@HPMIPIBI@GetDCUUsage?$AA@ 1006f004     xpcruntime:xpcimports.obj
 0002:00004014       ??_C@_0BH@EBLJKCJC@GetDCUUsage?5not?5found?6?$AA@ 1006f014     xpcruntime:xpcimports.obj
 0002:00004030       ??_C@_06MPKMECK@accept?$AA@ 1006f030     xpcruntime:xpcimports.obj
 0002:00004038       ??_C@_0BC@GBGIEMNO@accept?5not?5found?6?$AA@ 1006f038     xpcruntime:xpcimports.obj
 0002:00004050       ??_C@_04NPNJNMMP@bind?$AA@ 1006f050     xpcruntime:xpcimports.obj
 0002:00004058       ??_C@_0BA@DAJNENLO@bind?5not?5found?6?$AA@ 1006f058     xpcruntime:xpcimports.obj
 0002:0000406c       ??_C@_0L@CKHNIFCM@setsockopt?$AA@ 1006f06c     xpcruntime:xpcimports.obj
 0002:0000407c       ??_C@_0BG@MFIIOMFE@setsockopt?5not?5found?6?$AA@ 1006f07c     xpcruntime:xpcimports.obj
 0002:00004098       ??_C@_0M@ODDJDCDK@closesocket?$AA@ 1006f098     xpcruntime:xpcimports.obj
 0002:000040a8       ??_C@_0BH@JHGHMIL@closesocket?5not?5found?6?$AA@ 1006f0a8     xpcruntime:xpcimports.obj
 0002:000040c4       ??_C@_07KAIBNCHO@connect?$AA@ 1006f0c4     xpcruntime:xpcimports.obj
 0002:000040d0       ??_C@_0BD@MKLLMBM@connect?5not?5found?6?$AA@ 1006f0d0     xpcruntime:xpcimports.obj
 0002:000040e8       ??_C@_0M@PBPOCKDG@ioctlsocket?$AA@ 1006f0e8     xpcruntime:xpcimports.obj
 0002:000040f8       ??_C@_0BH@NFCNHHIH@ioctlsocket?5not?5found?6?$AA@ 1006f0f8     xpcruntime:xpcimports.obj
 0002:00004114       ??_C@_06OODDLKLE@listen?$AA@ 1006f114     xpcruntime:xpcimports.obj
 0002:0000411c       ??_C@_0BC@NHBILEKI@listen?5not?5found?6?$AA@ 1006f11c     xpcruntime:xpcimports.obj
 0002:00004134       ??_C@_08HMBBGFHE@recvfrom?$AA@ 1006f134     xpcruntime:xpcimports.obj
 0002:00004140       ??_C@_0BE@BJAJFFLF@recvfrom?5not?5found?6?$AA@ 1006f140     xpcruntime:xpcimports.obj
 0002:00004158       ??_C@_06MEPBGKEC@sendto?$AA@ 1006f158     xpcruntime:xpcimports.obj
 0002:00004160       ??_C@_0BC@BHPIMDJO@sendto?5not?5found?6?$AA@ 1006f160     xpcruntime:xpcimports.obj
 0002:00004178       ??_C@_09JKBDEEOB@inet_addr?$AA@ 1006f178     xpcruntime:xpcimports.obj
 0002:00004184       ??_C@_0BF@HKJPGECN@inet_addr?5not?5found?6?$AA@ 1006f184     xpcruntime:xpcimports.obj
 0002:000041a0       ??_C@_06HBELJPBO@socket?$AA@ 1006f1a0     xpcruntime:xpcimports.obj
 0002:000041a8       ??_C@_0BC@NAGFFJGA@socket?5not?5found?6?$AA@ 1006f1a8     xpcruntime:xpcimports.obj
 0002:000041c0       ??_C@_09ICJIFGNC@GetSocket?$AA@ 1006f1c0     xpcruntime:xpcimports.obj
 0002:000041cc       ??_C@_0BF@KDBCKMOJ@GetSocket?5not?5found?6?$AA@ 1006f1cc     xpcruntime:xpcimports.obj
 0002:000041e8       ??_C@_0P@KJEGJMJI@GetSocketState?$AA@ 1006f1e8     xpcruntime:xpcimports.obj
 0002:000041fc       ??_C@_0BK@IALBJHEB@GetSocketState?5not?5found?6?$AA@ 1006f1fc     xpcruntime:xpcimports.obj
 0002:0000421c       ??_C@_0L@MEAJHNHB@SocketSend?$AA@ 1006f21c     xpcruntime:xpcimports.obj
 0002:0000422c       ??_C@_0BG@EOCMBFJA@SocketSend?5not?5found?6?$AA@ 1006f22c     xpcruntime:xpcimports.obj
 0002:00004248       ??_C@_0O@PFPCLEMF@SocketReceive?$AA@ 1006f248     xpcruntime:xpcimports.obj
 0002:00004258       ??_C@_0BJ@HIBADDFO@SocketReceive?5not?5found?6?$AA@ 1006f258     xpcruntime:xpcimports.obj
 0002:00004278       ??_C@_0BD@OOGFNAIK@CreateServerSocket?$AA@ 1006f278     xpcruntime:xpcimports.obj
 0002:00004290       ??_C@_0BO@GKIJHIPH@CreateServerSocket?5not?5found?6?$AA@ 1006f290     xpcruntime:xpcimports.obj
 0002:000042b4       ??_C@_0BB@KGHJGFFO@OpenServerListen?$AA@ 1006f2b4     xpcruntime:xpcimports.obj
 0002:000042c8       ??_C@_0BM@NFMMLIO@OpenServerListen?5not?5found?6?$AA@ 1006f2c8     xpcruntime:xpcimports.obj
 0002:000042ec       ??_C@_0BE@BAJLDJAH@ConnectServerSocket?$AA@ 1006f2ec     xpcruntime:xpcimports.obj
 0002:00004304       ??_C@_0BP@KJNODIKE@ConnectServerSocket?5not?5found?6?$AA@ 1006f304     xpcruntime:xpcimports.obj
 0002:0000432c       ??_C@_0BC@PLKKJDIM@CloseServerSocket?$AA@ 1006f32c     xpcruntime:xpcimports.obj
 0002:00004344       ??_C@_0BN@KEJEPNMB@CloseServerSocket?5not?5found?6?$AA@ 1006f344     xpcruntime:xpcimports.obj
 0002:00004368       ??_C@_0BD@MCLPKCPP@CreateClientSocket?$AA@ 1006f368     xpcruntime:xpcimports.obj
 0002:00004380       ??_C@_0BO@DILAGPFN@CreateClientSocket?5not?5found?6?$AA@ 1006f380     xpcruntime:xpcimports.obj
 0002:000043a4       ??_C@_0BB@DAPKNNLG@BindClientSocket?$AA@ 1006f3a4     xpcruntime:xpcimports.obj
 0002:000043b8       ??_C@_0BM@LLLMMDFN@BindClientSocket?5not?5found?6?$AA@ 1006f3b8     xpcruntime:xpcimports.obj
 0002:000043dc       ??_C@_0BE@DMEBELHC@ConnectClientSocket?$AA@ 1006f3dc     xpcruntime:xpcimports.obj
 0002:000043f4       ??_C@_0BP@PLOHCPAO@ConnectClientSocket?5not?5found?6?$AA@ 1006f3f4     xpcruntime:xpcimports.obj
 0002:0000441c       ??_C@_0BC@NHHAOBPJ@CloseClientSocket?$AA@ 1006f41c     xpcruntime:xpcimports.obj
 0002:00004434       ??_C@_0BN@PGKNOKGL@CloseClientSocket?5not?5found?6?$AA@ 1006f434     xpcruntime:xpcimports.obj
 0002:00004508       __pDefaultRawDllMain       1006f508     LIBCMT:dll_dllmain.obj
 0002:00004508       __pRawDllMain              1006f508     LIBCMT:dll_dllmain.obj
 0002:00004520       ??_C@_1BC@DNHGCMLG@?$AAa?$AAd?$AAv?$AAa?$AAp?$AAi?$AA3?$AA2?$AA?$AA@ 1006f520     libvcruntime:winapi_downlevel.obj
 0002:00004538       ??_C@_1DM@KHCHBNEB@?$AAa?$AAp?$AAi?$AA?9?$AAm?$AAs?$AA?9?$AAw?$AAi?$AAn?$AA?9?$AAc?$AAo?$AAr?$AAe?$AA?9?$AAf?$AAi?$AAb?$AAe?$AAr?$AAs?$AA?9?$AAl?$AA1?$AA?9?$AA1?$AA?9?$AA1?$AA?$AA@ 1006f538     libvcruntime:winapi_downlevel.obj
 0002:00004580       ??_C@_1DK@LPPGFMPP@?$AAa?$AAp?$AAi?$AA?9?$AAm?$AAs?$AA?9?$AAw?$AAi?$AAn?$AA?9?$AAc?$AAo?$AAr?$AAe?$AA?9?$AAs?$AAy?$AAn?$AAc?$AAh?$AA?9?$AAl?$AA1?$AA?9?$AA2?$AA?9?$AA0?$AA?$AA@ 1006f580     libvcruntime:winapi_downlevel.obj
 0002:000045c8       ??_C@_1BC@GDMECMAK@?$AAk?$AAe?$AAr?$AAn?$AAe?$AAl?$AA3?$AA2?$AA?$AA@ 1006f5c8     libvcruntime:winapi_downlevel.obj
 0002:000045e4       ??_C@_0O@BAMBGLIE@EventRegister?$AA@ 1006f5e4     libvcruntime:winapi_downlevel.obj
 0002:000045f8       ??_C@_0BE@BJEEGHGK@EventSetInformation?$AA@ 1006f5f8     libvcruntime:winapi_downlevel.obj
 0002:00004614       ??_C@_0BA@FAKLIPIC@EventUnregister?$AA@ 1006f614     libvcruntime:winapi_downlevel.obj
 0002:0000462c       ??_C@_0BD@PKLHJPHD@EventWriteTransfer?$AA@ 1006f62c     libvcruntime:winapi_downlevel.obj
 0002:00004650       ??_C@_08KNHFBNJ@FlsAlloc?$AA@ 1006f650     libvcruntime:winapi_downlevel.obj
 0002:00004668       ??_C@_07PEJMOBNF@FlsFree?$AA@ 1006f668     libvcruntime:winapi_downlevel.obj
 0002:00004680       ??_C@_0M@GDNOONDI@FlsGetValue?$AA@ 1006f680     libvcruntime:winapi_downlevel.obj
 0002:0000469c       ??_C@_0M@JCPCPOEF@FlsSetValue?$AA@ 1006f69c     libvcruntime:winapi_downlevel.obj
 0002:000046b8       ??_C@_0BM@HCFOFFN@InitializeCriticalSectionEx?$AA@ 1006f6b8     libvcruntime:winapi_downlevel.obj
 0002:000048c0       ??_C@_08EHJDFFNH@__based?$CI?$AA@ 1006f8c0     libvcruntime:undname.obj
 0002:000048cc       ??_C@_07KOLFKCDI@__cdecl?$AA@ 1006f8cc     libvcruntime:undname.obj
 0002:000048d8       ??_C@_08GHMPAG@__pascal?$AA@ 1006f8d8     libvcruntime:undname.obj
 0002:000048e4       ??_C@_09IFJBGAPI@__stdcall?$AA@ 1006f8e4     libvcruntime:undname.obj
 0002:000048f0       ??_C@_0L@NPHFGOKO@__thiscall?$AA@ 1006f8f0     libvcruntime:undname.obj
 0002:00004900       ??_C@_0L@JMKHOMEK@__fastcall?$AA@ 1006f900     libvcruntime:undname.obj
 0002:00004910       ??_C@_0N@BCKKPABJ@__vectorcall?$AA@ 1006f910     libvcruntime:undname.obj
 0002:00004920       ??_C@_09HIJEGCPM@__clrcall?$AA@ 1006f920     libvcruntime:undname.obj
 0002:0000492c       ??_C@_06GHPCKEAG@__eabi?$AA@ 1006f92c     libvcruntime:undname.obj
 0002:00004934       ??_C@_07JOMMBBKO@__ptr64?$AA@ 1006f934     libvcruntime:undname.obj
 0002:00004940       ??_C@_0L@PILCLIHE@__restrict?$AA@ 1006f940     libvcruntime:undname.obj
 0002:00004950       ??_C@_0M@GFIIJFMG@__unaligned?$AA@ 1006f950     libvcruntime:undname.obj
 0002:00004960       ??_C@_09DHDLOLLB@restrict?$CI?$AA@ 1006f960     libvcruntime:undname.obj
 0002:0000496c       ??_C@_04NIHEBCM@?5new?$AA@ 1006f96c     libvcruntime:undname.obj
 0002:00004974       ??_C@_07FPCDHGMM@?5delete?$AA@ 1006f974     libvcruntime:undname.obj
 0002:00004980       ??_C@_01NEMOKFLO@?$DN?$AA@ 1006f980     libvcruntime:undname.obj
 0002:00004984       ??_C@_02GPIOPFAK@?$DO?$DO?$AA@ 1006f984     libvcruntime:undname.obj
 0002:00004988       ??_C@_02FODMEDOG@?$DM?$DM?$AA@ 1006f988     libvcruntime:undname.obj
 0002:0000498c       ??_C@_01DCLJPIOD@?$CB?$AA@ 1006f98c     libvcruntime:undname.obj
 0002:00004990       ??_C@_02EGOFBIJA@?$DN?$DN?$AA@ 1006f990     libvcruntime:undname.obj
 0002:00004994       ??_C@_02FDNJECIE@?$CB?$DN?$AA@ 1006f994     libvcruntime:undname.obj
 0002:00004998       ??_C@_02GPECMEKF@?$FL?$FN?$AA@ 1006f998     libvcruntime:undname.obj
 0002:0000499c       ??_C@_08LHJFAFGD@operator?$AA@ 1006f99c     libvcruntime:undname.obj
 0002:000049a8       ??_C@_02HBOOOICD@?9?$DO?$AA@ 1006f9a8     libvcruntime:undname.obj
 0002:000049ac       ??_C@_01NBENCBCI@?$CK?$AA@ 1006f9ac     libvcruntime:undname.obj
 0002:000049b0       ??_C@_02ECNGHCIF@?$CL?$CL?$AA@ 1006f9b0     libvcruntime:undname.obj
 0002:000049b4       ??_C@_02BAABKJLB@?9?9?$AA@ 1006f9b4     libvcruntime:undname.obj
 0002:000049b8       ??_C@_01JOAMLHOP@?9?$AA@   1006f9b8     libvcruntime:undname.obj
 0002:000049bc       ??_C@_01MIFGBAGJ@?$CL?$AA@ 1006f9bc     libvcruntime:undname.obj
 0002:000049c0       ??_C@_01HNPIGOCE@?$CG?$AA@ 1006f9c0     libvcruntime:undname.obj
 0002:000049c4       ??_C@_03MNHNFDLC@?9?$DO?$CK?$AA@ 1006f9c4     libvcruntime:undname.obj
 0002:000049c8       ??_C@_01KMDKNFGN@?1?$AA@   1006f9c8     libvcruntime:undname.obj
 0002:000049cc       ??_C@_01FGNFDNOH@?$CF?$AA@ 1006f9cc     libvcruntime:undname.obj
 0002:000049d0       ??_C@_01MNNFJEPP@?$DM?$AA@ 1006f9d0     libvcruntime:undname.obj
 0002:000049d4       ??_C@_02EHCHHCKH@?$DM?$DN?$AA@ 1006f9d4     libvcruntime:undname.obj
 0002:000049d8       ??_C@_01PPODPGHN@?$DO?$AA@ 1006f9d8     libvcruntime:undname.obj
 0002:000049dc       ??_C@_02EEKDKGMJ@?$DO?$DN?$AA@ 1006f9dc     libvcruntime:undname.obj
 0002:000049e0       ??_C@_01IHBHIGKO@?0?$AA@   1006f9e0     libvcruntime:undname.obj
 0002:000049e4       ??_C@_02HCKGKOFO@?$CI?$CJ?$AA@ 1006f9e4     libvcruntime:undname.obj
 0002:000049e8       ??_C@_01PJKLJHI@?$HO?$AA@  1006f9e8     libvcruntime:undname.obj
 0002:000049ec       ??_C@_01JKBOJNNK@?$FO?$AA@ 1006f9ec     libvcruntime:undname.obj
 0002:000049f0       ??_C@_01DNKMNLPK@?$HM?$AA@ 1006f9f0     libvcruntime:undname.obj
 0002:000049f4       ??_C@_02PPKAJPJL@?$CG?$CG?$AA@ 1006f9f4     libvcruntime:undname.obj
 0002:000049f8       ??_C@_02NONPIBCD@?$HM?$HM?$AA@ 1006f9f8     libvcruntime:undname.obj
 0002:000049fc       ??_C@_02FPIMKNGF@?$CK?$DN?$AA@ 1006f9fc     libvcruntime:undname.obj
 0002:00004a00       ??_C@_02FOEOMHFC@?$CL?$DN?$AA@ 1006fa00     libvcruntime:undname.obj
 0002:00004a04       ??_C@_02FKMDLLOA@?9?$DN?$AA@ 1006fa04     libvcruntime:undname.obj
 0002:00004a08       ??_C@_02FJEHGPIO@?1?$DN?$AA@ 1006fa08     libvcruntime:undname.obj
 0002:00004a0c       ??_C@_02FENAOKFI@?$CF?$DN?$AA@ 1006fa0c     libvcruntime:undname.obj
 0002:00004a10       ??_C@_03IKFCCPFF@?$DO?$DO?$DN?$AA@ 1006fa10     libvcruntime:undname.obj
 0002:00004a14       ??_C@_03CDNPDDLA@?$DM?$DM?$DN?$AA@ 1006fa14     libvcruntime:undname.obj
 0002:00004a18       ??_C@_02FGJGFEAB@?$CG?$DN?$AA@ 1006fa18     libvcruntime:undname.obj
 0002:00004a1c       ??_C@_02DHLNPPGH@?$HM?$DN?$AA@ 1006fa1c     libvcruntime:undname.obj
 0002:00004a20       ??_C@_02MHEGNOJ@?$FO?$DN?$AA@ 1006fa20     libvcruntime:undname.obj
 0002:00004a24       ??_C@_09IFPLHPGF@?$GAvftable?8?$AA@ 1006fa24     libvcruntime:undname.obj
 0002:00004a30       ??_C@_09BLBHBJP@?$GAvbtable?8?$AA@ 1006fa30     libvcruntime:undname.obj
 0002:00004a3c       ??_C@_07FEEIOKP@?$GAvcall?8?$AA@ 1006fa3c     libvcruntime:undname.obj
 0002:00004a48       ??_C@_08LLFFHHDJ@?$GAtypeof?8?$AA@ 1006fa48     libvcruntime:undname.obj
 0002:00004a54       ??_C@_0BF@KDPPACIK@?$GAlocal?5static?5guard?8?$AA@ 1006fa54     libvcruntime:undname.obj
 0002:00004a70       ??_C@_08OBABFOLI@?$GAstring?8?$AA@ 1006fa70     libvcruntime:undname.obj
 0002:00004a7c       ??_C@_0BD@JDLKDPAB@?$GAvbase?5destructor?8?$AA@ 1006fa7c     libvcruntime:undname.obj
 0002:00004a94       ??_C@_0BN@DEGPLNFK@?$GAvector?5deleting?5destructor?8?$AA@ 1006fa94     libvcruntime:undname.obj
 0002:00004ab8       ??_C@_0BO@OBMKPJIG@?$GAdefault?5constructor?5closure?8?$AA@ 1006fab8     libvcruntime:undname.obj
 0002:00004adc       ??_C@_0BN@IMDCHIKM@?$GAscalar?5deleting?5destructor?8?$AA@ 1006fadc     libvcruntime:undname.obj
 0002:00004b00       ??_C@_0BO@PFGOCPJJ@?$GAvector?5constructor?5iterator?8?$AA@ 1006fb00     libvcruntime:undname.obj
 0002:00004b24       ??_C@_0BN@LFPFMEDL@?$GAvector?5destructor?5iterator?8?$AA@ 1006fb24     libvcruntime:undname.obj
 0002:00004b48       ??_C@_0CE@IKBNEHA@?$GAvector?5vbase?5constructor?5iterat@ 1006fb48     libvcruntime:undname.obj
 0002:00004b74       ??_C@_0BL@NILFHHPC@?$GAvirtual?5displacement?5map?8?$AA@ 1006fb74     libvcruntime:undname.obj
 0002:00004b94       ??_C@_0CB@JONCMFFK@?$GAeh?5vector?5constructor?5iterator?8@ 1006fb94     libvcruntime:undname.obj
 0002:00004bbc       ??_C@_0CA@GCEOPDGL@?$GAeh?5vector?5destructor?5iterator?8?$AA@ 1006fbbc     libvcruntime:undname.obj
 0002:00004be4       ??_C@_0CH@OOJPLCPH@?$GAeh?5vector?5vbase?5constructor?5ite@ 1006fbe4     libvcruntime:undname.obj
 0002:00004c14       ??_C@_0BL@LLKPOHJI@?$GAcopy?5constructor?5closure?8?$AA@ 1006fc14     libvcruntime:undname.obj
 0002:00004c34       ??_C@_0BA@KBCDOMBN@?$GAudt?5returning?8?$AA@ 1006fc34     libvcruntime:undname.obj
 0002:00004c48       ??_C@_03KLGMFNMG@?$GAEH?$AA@ 1006fc48     libvcruntime:undname.obj
 0002:00004c4c       ??_C@_05KHLCHHI@?$GARTTI?$AA@ 1006fc4c     libvcruntime:undname.obj
 0002:00004c54       ??_C@_0BA@KKLDJDLB@?$GAlocal?5vftable?8?$AA@ 1006fc54     libvcruntime:undname.obj
 0002:00004c68       ??_C@_0CE@IIHCMGGL@?$GAlocal?5vftable?5constructor?5closu@ 1006fc68     libvcruntime:undname.obj
 0002:00004c94       ??_C@_06FHBGPFGH@?5new?$FL?$FN?$AA@ 1006fc94     libvcruntime:undname.obj
 0002:00004c9c       ??_C@_09LBNFPBCA@?5delete?$FL?$FN?$AA@ 1006fc9c     libvcruntime:undname.obj
 0002:00004ca8       ??_C@_0P@HJKNJFNN@?$GAomni?5callsig?8?$AA@ 1006fca8     libvcruntime:undname.obj
 0002:00004cbc       ??_C@_0BL@CNOONJFP@?$GAplacement?5delete?5closure?8?$AA@ 1006fcbc     libvcruntime:undname.obj
 0002:00004cdc       ??_C@_0BN@CKNJLHMB@?$GAplacement?5delete?$FL?$FN?5closure?8?$AA@ 1006fcdc     libvcruntime:undname.obj
 0002:00004d00       ??_C@_0CG@CFDHKGGD@?$GAmanaged?5vector?5constructor?5iter@ 1006fd00     libvcruntime:undname.obj
 0002:00004d30       ??_C@_0CF@IMGKMJNO@?$GAmanaged?5vector?5destructor?5itera@ 1006fd30     libvcruntime:undname.obj
 0002:00004d5c       ??_C@_0CG@HLDDJMAG@?$GAeh?5vector?5copy?5constructor?5iter@ 1006fd5c     libvcruntime:undname.obj
 0002:00004d8c       ??_C@_0CM@FCBBDIGB@?$GAeh?5vector?5vbase?5copy?5constructo@ 1006fd8c     libvcruntime:undname.obj
 0002:00004dc0       ??_C@_0BL@CLIPGLGB@?$GAdynamic?5initializer?5for?5?8?$AA@ 1006fdc0     libvcruntime:undname.obj
 0002:00004de0       ??_C@_0CB@PDBIFEP@?$GAdynamic?5atexit?5destructor?5for?5?8@ 1006fde0     libvcruntime:undname.obj
 0002:00004e08       ??_C@_0CD@CGAJBKEJ@?$GAvector?5copy?5constructor?5iterato@ 1006fe08     libvcruntime:undname.obj
 0002:00004e34       ??_C@_0CJ@GJELGAMM@?$GAvector?5vbase?5copy?5constructor?5i@ 1006fe34     libvcruntime:undname.obj
 0002:00004e68       ??_C@_0CL@FGIJHLCE@?$GAmanaged?5vector?5copy?5constructor@ 1006fe68     libvcruntime:undname.obj
 0002:00004e9c       ??_C@_0BM@PMGGMLDN@?$GAlocal?5static?5thread?5guard?8?$AA@ 1006fe9c     libvcruntime:undname.obj
 0002:00004ec0       ??_C@_0N@BDNMDMOL@operator?5?$CC?$CC?5?$AA@ 1006fec0     libvcruntime:undname.obj
 0002:00004ed0       ??_C@_0BC@DAFEJGAK@?5Type?5Descriptor?8?$AA@ 1006fed0     libvcruntime:undname.obj
 0002:00004ee8       ??_C@_0BM@LDKODKLH@?5Base?5Class?5Descriptor?5at?5?$CI?$AA@ 1006fee8     libvcruntime:undname.obj
 0002:00004f0c       ??_C@_0BD@LGICGFMM@?5Base?5Class?5Array?8?$AA@ 1006ff0c     libvcruntime:undname.obj
 0002:00004f24       ??_C@_0BN@MECKDCOJ@?5Class?5Hierarchy?5Descriptor?8?$AA@ 1006ff24     libvcruntime:undname.obj
 0002:00004f48       ??_C@_0BK@CFCOFLF@?5Complete?5Object?5Locator?8?$AA@ 1006ff48     libvcruntime:undname.obj
 0002:00004f68       ??_C@_04HEJADOOB@CV?3?5?$AA@ 1006ff68     libvcruntime:undname.obj
 0002:00004f70       ??_C@_02MOLJINC@?3?3?$AA@  1006ff70     libvcruntime:undname.obj
 0002:00004f74       ??_C@_0BE@JAEOCHPE@template?9parameter?9?$AA@ 1006ff74     libvcruntime:undname.obj
 0002:00004f8c       ??_C@_0O@KHGCOMHP@generic?9type?9?$AA@ 1006ff8c     libvcruntime:undname.obj
 0002:00004f9c       ??_C@_01NLNLIGKH@?$GA?$AA@ 1006ff9c     libvcruntime:undname.obj
 0002:00004fa0       ??_C@_01GEODFPGF@?8?$AA@   1006ffa0     libvcruntime:undname.obj
 0002:00004fa4       ??_C@_0BG@JNJLAMPM@?$GAanonymous?5namespace?8?$AA@ 1006ffa4     libvcruntime:undname.obj
 0002:00004fc0       ??_C@_02OHHJMEON@?8?8?$AA@ 1006ffc0     libvcruntime:undname.obj
 0002:00004fc4       ??_C@_0BN@IBLMMFAP@?$GAnon?9type?9template?9parameter?$AA@ 1006ffc4     libvcruntime:undname.obj
 0002:00004fe8       ??_C@_04GKJNKENE@void?$AA@ 1006ffe8     libvcruntime:undname.obj
 0002:00004ff0       ??_C@_0BE@EODMJLIF@?$GAtemplate?9parameter?$AA@ 1006fff0     libvcruntime:undname.obj
 0002:00005008       ??_C@_03KHICJKCI@?4?4?4?$AA@ 10070008     libvcruntime:undname.obj
 0002:0000500c       ??_C@_04HIBGFPH@NULL?$AA@  1007000c     libvcruntime:undname.obj
 0002:00005014       ??_C@_02DPKJAMEF@?$CFd?$AA@ 10070014     libvcruntime:undname.obj
 0002:00005018       ??_C@_0BK@IHCCFNEL@?$GAtemplate?9type?9parameter?9?$AA@ 10070018     libvcruntime:undname.obj
 0002:00005038       ??_C@_0BK@OFCNNNKO@?$GAgeneric?9class?9parameter?9?$AA@ 10070038     libvcruntime:undname.obj
 0002:00005058       ??_C@_0BL@NGJBLFIL@?$GAgeneric?9method?9parameter?9?$AA@ 10070058     libvcruntime:undname.obj
 0002:00005078       ??_C@_03OPGICMGF@?$HN?8?5?$AA@ 10070078     libvcruntime:undname.obj
 0002:0000507c       ??_C@_02IGFCGPIL@?$HN?8?$AA@ 1007007c     libvcruntime:undname.obj
 0002:00005080       ??_C@_01CLKCMJKC@?5?$AA@   10070080     libvcruntime:undname.obj
 0002:00005084       ??_C@_0N@CBHHHENL@?$GAvtordispex?$HL?$AA@ 10070084     libvcruntime:undname.obj
 0002:00005094       ??_C@_0L@GHPFDFH@?$GAvtordisp?$HL?$AA@ 10070094     libvcruntime:undname.obj
 0002:000050a4       ??_C@_0L@HNGCOGAE@?$GAadjustor?$HL?$AA@ 100700a4     libvcruntime:undname.obj
 0002:000050b4       ??_C@_0CB@KJDOOODE@?$GAlocal?5static?5destructor?5helper?8@ 100700b4     libvcruntime:undname.obj
 0002:000050dc       ??_C@_0DB@ILEFOCIJ@?$GAtemplate?5static?5data?5member?5con@ 100700dc     libvcruntime:undname.obj
 0002:00005118       ??_C@_0DA@HGFJFBBE@?$GAtemplate?5static?5data?5member?5des@ 10070118     libvcruntime:undname.obj
 0002:00005154       ??_C@_07PGOEDBHP@static?5?$AA@ 10070154     libvcruntime:undname.obj
 0002:00005160       ??_C@_08NIEOINHE@virtual?5?$AA@ 10070160     libvcruntime:undname.obj
 0002:0000516c       ??_C@_09LAPHOOG@private?3?5?$AA@ 1007016c     libvcruntime:undname.obj
 0002:00005178       ??_C@_0M@GAIFPFIP@protected?3?5?$AA@ 10070178     libvcruntime:undname.obj
 0002:00005188       ??_C@_08GPDDCMKI@public?3?5?$AA@ 10070188     libvcruntime:undname.obj
 0002:00005194       ??_C@_08KJLFOPNE@?$FLthunk?$FN?3?$AA@ 10070194     libvcruntime:undname.obj
 0002:000051a0       ??_C@_0M@DHNBOJMP@extern?5?$CCC?$CC?5?$AA@ 100701a0     libvcruntime:undname.obj
 0002:000051b0       ??_C@_02KCKGHPCA@?$CJ?5?$AA@ 100701b0     libvcruntime:undname.obj
 0002:000051b4       ??_C@_05CIHEBHNO@char?5?$AA@ 100701b4     libvcruntime:undname.obj
 0002:000051bc       ??_C@_06EHJMALKF@short?5?$AA@ 100701bc     libvcruntime:undname.obj
 0002:000051c4       ??_C@_04LAHKHJMA@int?5?$AA@ 100701c4     libvcruntime:undname.obj
 0002:000051cc       ??_C@_05CJIMAING@long?5?$AA@ 100701cc     libvcruntime:undname.obj
 0002:000051d4       ??_C@_09EBBEKKIH@unsigned?5?$AA@ 100701d4     libvcruntime:undname.obj
 0002:000051e0       ??_C@_05BEFAKPML@void?5?$AA@ 100701e0     libvcruntime:undname.obj
 0002:000051e8       ??_C@_08PABEKFH@volatile?$AA@ 100701e8     libvcruntime:undname.obj
 0002:000051f4       ??_C@_0BA@LKIJLKPP@std?3?3nullptr_t?5?$AA@ 100701f4     libvcruntime:undname.obj
 0002:00005208       ??_C@_0P@GCOCNKDM@std?3?3nullptr_t?$AA@ 10070208     libvcruntime:undname.obj
 0002:0000521c       ??_C@_0L@EGPHHEKN@?$DMellipsis?$DO?$AA@ 1007021c     libvcruntime:undname.obj
 0002:0000522c       ??_C@_04EENFHACM@?0?4?4?4?$AA@ 1007022c     libvcruntime:undname.obj
 0002:00005234       ??_C@_0M@ELJOJFFH@?0?$DMellipsis?$DO?$AA@ 10070234     libvcruntime:undname.obj
 0002:00005244       ??_C@_07HDJPLPEK@?5throw?$CI?$AA@ 10070244     libvcruntime:undname.obj
 0002:00005250       ??_C@_03PBJBJNON@cpu?$AA@  10070250     libvcruntime:undname.obj
 0002:00005254       ??_C@_03DCBBJBAA@amp?$AA@  10070254     libvcruntime:undname.obj
 0002:00005258       ??_C@_02KEGNLNML@?0?5?$AA@ 10070258     libvcruntime:undname.obj
 0002:0000525c       ??_C@_04ENMBGAPA@char?$AA@ 1007025c     libvcruntime:undname.obj
 0002:00005264       ??_C@_05BFKKPKCG@short?$AA@ 10070264     libvcruntime:undname.obj
 0002:0000526c       ??_C@_03JBIPMCLC@int?$AA@  1007026c     libvcruntime:undname.obj
 0002:00005270       ??_C@_04GOKPGOLB@long?$AA@ 10070270     libvcruntime:undname.obj
 0002:00005278       ??_C@_04DDKJGDCM@bool?$AA@ 10070278     libvcruntime:undname.obj
 0002:00005280       ??_C@_06EBGKOKIG@__int8?$AA@ 10070280     libvcruntime:undname.obj
 0002:00005288       ??_C@_07ICFHOGAF@__int16?$AA@ 10070288     libvcruntime:undname.obj
 0002:00005294       ??_C@_07OFLPPHGP@__int32?$AA@ 10070294     libvcruntime:undname.obj
 0002:000052a0       ??_C@_07LFCOJCAC@__int64?$AA@ 100702a0     libvcruntime:undname.obj
 0002:000052ac       ??_C@_08GAHOLHEO@__int128?$AA@ 100702ac     libvcruntime:undname.obj
 0002:000052b8       ??_C@_09EEKGDCPH@?$DMunknown?$DO?$AA@ 100702b8     libvcruntime:undname.obj
 0002:000052c4       ??_C@_08HBIPOFJB@char16_t?$AA@ 100702c4     libvcruntime:undname.obj
 0002:000052d0       ??_C@_08IECNCBKG@char32_t?$AA@ 100702d0     libvcruntime:undname.obj
 0002:000052dc       ??_C@_07CLGGIAMF@wchar_t?$AA@ 100702dc     libvcruntime:undname.obj
 0002:000052e8       ??_C@_06GCICPBLB@__w64?5?$AA@ 100702e8     libvcruntime:undname.obj
 0002:000052f0       ??_C@_07NFANNNEC@UNKNOWN?$AA@ 100702f0     libvcruntime:undname.obj
 0002:000052fc       ??_C@_07EDHNAJHC@signed?5?$AA@ 100702fc     libvcruntime:undname.obj
 0002:00005308       ??_C@_05BNCCCJPP@const?$AA@ 10070308     libvcruntime:undname.obj
 0002:00005310       ??_C@_09EFNPDFFP@?5volatile?$AA@ 10070310     libvcruntime:undname.obj
 0002:0000531c       ??_C@_0P@GCIFDJCJ@?$GAunknown?5ecsu?8?$AA@ 1007031c     libvcruntime:undname.obj
 0002:00005330       ??_C@_06MOJHIBMG@union?5?$AA@ 10070330     libvcruntime:undname.obj
 0002:00005338       ??_C@_07DIBCDNGL@struct?5?$AA@ 10070338     libvcruntime:undname.obj
 0002:00005344       ??_C@_06LJBABKPM@class?5?$AA@ 10070344     libvcruntime:undname.obj
 0002:0000534c       ??_C@_08KOFANOFK@coclass?5?$AA@ 1007034c     libvcruntime:undname.obj
 0002:00005358       ??_C@_0N@DLIEFKNA@cointerface?5?$AA@ 10070358     libvcruntime:undname.obj
 0002:00005368       ??_C@_05LJGMCFOG@enum?5?$AA@ 10070368     libvcruntime:undname.obj
 0002:00005370       ??_C@_09GAIEOBLP@volatile?5?$AA@ 10070370     libvcruntime:undname.obj
 0002:0000537c       ??_C@_06LIJLOJAG@const?5?$AA@ 1007037c     libvcruntime:undname.obj
 0002:00005384       ??_C@_02KJPKDIBN@?$CG?5?$AA@ 10070384     libvcruntime:undname.obj
 0002:00005388       ??_C@_03PCKGMOPB@?$CG?$CG?5?$AA@ 10070388     libvcruntime:undname.obj
 0002:0000538c       ??_C@_0M@EALIELKG@cli?3?3array?$DM?$AA@ 1007038c     libvcruntime:undname.obj
 0002:0000539c       ??_C@_0O@GKABPPIF@cli?3?3pin_ptr?$DM?$AA@ 1007039c     libvcruntime:undname.obj
 0002:000053ac       ??_C@_02GOGNNPBN@?$CJ?$FL?$AA@ 100703ac     libvcruntime:undname.obj
 0002:000053b0       ??_C@_06EEGAIFAK@?$HLflat?$HN?$AA@ 100703b0     libvcruntime:undname.obj
 0002:000053b8       ??_C@_05JIBOFOHK@?$HLfor?5?$AA@ 100703b8     libvcruntime:undname.obj
 0002:000053c0       ??_C@_02MDINNEEG@s?5?$AA@  100703c0     libvcruntime:undname.obj
 0002:000053c8       ??_7DNameNode@@6B@         100703c8     libvcruntime:undname.obj
 0002:000053dc       ??_7charNode@@6B@          100703dc     libvcruntime:undname.obj
 0002:000053f0       ??_7pcharNode@@6B@         100703f0     libvcruntime:undname.obj
 0002:00005404       ??_7pDNameNode@@6B@        10070404     libvcruntime:undname.obj
 0002:00005418       ??_7DNameStatusNode@@6B@   10070418     libvcruntime:undname.obj
 0002:0000542c       ??_7pairNode@@6B@          1007042c     libvcruntime:undname.obj
 0002:0000543c       ??_C@_04OKOHEJBO@?5?$DP?$DP?5?$AA@ 1007043c     libvcruntime:undname.obj
 0002:00005448       _standard_lookup_table     10070448     libucrt:output.obj
 0002:000054b8       _format_validation_lookup_table 100704b8     libucrt:output.obj
 0002:00005528       ??_C@_1O@CEDCILHN@?$AA?$CI?$AAn?$AAu?$AAl?$AAl?$AA?$CJ?$AA?$AA@ 10070528     libucrt:output.obj
 0002:00005538       ??_C@_06OJHGLDPL@?$CInull?$CJ?$AA@ 10070538     libucrt:output.obj
 0002:00005540       ??_C@_0CK@CFPGFGGO@Assertion?5failed?3?5?$CFTs?0?5file?5?$CFTs?0@ 10070540     libucrt:assert.obj
 0002:00005578       ??_C@_1FE@LHBLIKM@?$AAA?$AAs?$AAs?$AAe?$AAr?$AAt?$AAi?$AAo?$AAn?$AA?5?$AAf?$AAa?$AAi?$AAl?$AAe?$AAd?$AA?3?$AA?5?$AA?$CF?$AAT?$AAs?$AA?0?$AA?5?$AAf?$AAi?$AAl?$AAe?$AA?5?$AA?$CF?$AAT?$AAs?$AA?0@ 10070578     libucrt:assert.obj
 0002:000055dc       ??_C@_0CF@GOGNBNAK@Microsoft?5Visual?5C?$CL?$CL?5Runtime?5Lib@ 100705dc     libucrt:assert.obj
 0002:00005608       ??_C@_1EK@MBDPDCGA@?$AAM?$AAi?$AAc?$AAr?$AAo?$AAs?$AAo?$AAf?$AAt?$AA?5?$AAV?$AAi?$AAs?$AAu?$AAa?$AAl?$AA?5?$AAC?$AA?$CL?$AA?$CL?$AA?5?$AAR?$AAu?$AAn?$AAt?$AAi?$AAm?$AAe?$AA?5?$AAL?$AAi?$AAb@ 10070608     libucrt:assert.obj
 0002:00005660       ??_C@_0BC@LAIDCHCH@Assertion?5failed?$CB?$AA@ 10070660     libucrt:assert.obj
 0002:00005678       ??_C@_1CE@OJBNHDMO@?$AAA?$AAs?$AAs?$AAe?$AAr?$AAt?$AAi?$AAo?$AAn?$AA?5?$AAf?$AAa?$AAi?$AAl?$AAe?$AAd?$AA?$CB?$AA?$AA@ 10070678     libucrt:assert.obj
 0002:000056a4       ??_C@_09KLGCKDOD@Program?3?5?$AA@ 100706a4     libucrt:assert.obj
 0002:000056b0       ??_C@_1BE@PHKBBGE@?$AAP?$AAr?$AAo?$AAg?$AAr?$AAa?$AAm?$AA?3?$AA?5?$AA?$AA@ 100706b0     libucrt:assert.obj
 0002:000056c8       ??_C@_06IGPBOHMJ@File?3?5?$AA@ 100706c8     libucrt:assert.obj
 0002:000056d0       ??_C@_1O@HEMHKNDC@?$AAF?$AAi?$AAl?$AAe?$AA?3?$AA?5?$AA?$AA@ 100706d0     libucrt:assert.obj
 0002:000056e0       ??_C@_06FIEBOLOH@Line?3?5?$AA@ 100706e0     libucrt:assert.obj
 0002:000056e8       ??_C@_1O@KCAFKHJE@?$AAL?$AAi?$AAn?$AAe?$AA?3?$AA?5?$AA?$AA@ 100706e8     libucrt:assert.obj
 0002:000056f8       ??_C@_0N@MEECIJGN@Expression?3?5?$AA@ 100706f8     libucrt:assert.obj
 0002:00005708       ??_C@_1BK@PEDCIPMA@?$AAE?$AAx?$AAp?$AAr?$AAe?$AAs?$AAs?$AAi?$AAo?$AAn?$AA?3?$AA?5?$AA?$AA@ 10070708     libucrt:assert.obj
 0002:00005728       ??_C@_0HA@OJHAGA@For?5information?5on?5how?5your?5prog@ 10070728     libucrt:assert.obj
 0002:000057b0       ??_C@_1OA@EGMLFBHJ@?$AAF?$AAo?$AAr?$AA?5?$AAi?$AAn?$AAf?$AAo?$AAr?$AAm?$AAa?$AAt?$AAi?$AAo?$AAn?$AA?5?$AAo?$AAn?$AA?5?$AAh?$AAo?$AAw?$AA?5?$AAy?$AAo?$AAu?$AAr?$AA?5?$AAp?$AAr?$AAo?$AAg@ 100707b0     libucrt:assert.obj
 0002:000058bc       ??_C@_0DN@EBBNMLME@?$CIPress?5Retry?5to?5debug?5the?5applic@ 100708bc     libucrt:assert.obj
 0002:00005908       ??_C@_1HK@POCJMFGK@?$AA?$CI?$AAP?$AAr?$AAe?$AAs?$AAs?$AA?5?$AAR?$AAe?$AAt?$AAr?$AAy?$AA?5?$AAt?$AAo?$AA?5?$AAd?$AAe?$AAb?$AAu?$AAg?$AA?5?$AAt?$AAh?$AAe?$AA?5?$AAa?$AAp?$AAp?$AAl?$AAi?$AAc@ 10070908     libucrt:assert.obj
 0002:0000599c       ??_C@_17LGKOMLJ@?$AA?4?$AA?4?$AA?4?$AA?$AA@ 1007099c     libucrt:assert.obj
 0002:000059a8       ??_C@_01EEMJAFIK@?6?$AA@   100709a8     libucrt:assert.obj
 0002:000059ac       ??_C@_13LBAGMAIH@?$AA?6?$AA?$AA@ 100709ac     libucrt:assert.obj
 0002:000059b0       ??_C@_02PHMGELLB@?6?6?$AA@ 100709b0     libucrt:assert.obj
 0002:000059b4       ??_C@_15IABLJNFO@?$AA?6?$AA?6?$AA?$AA@ 100709b4     libucrt:assert.obj
 0002:000059bc       ??_C@_0BH@DNAGHKFM@?$DMprogram?5name?5unknown?$DO?$AA@ 100709bc     libucrt:assert.obj
 0002:000059d8       ??_C@_1CO@EAEJAADC@?$AA?$DM?$AAp?$AAr?$AAo?$AAg?$AAr?$AAa?$AAm?$AA?5?$AAn?$AAa?$AAm?$AAe?$AA?5?$AAu?$AAn?$AAk?$AAn?$AAo?$AAw?$AAn?$AA?$DO?$AA?$AA@ 100709d8     libucrt:assert.obj
 0002:00005a10       _RtlNtPathSeperatorString  10070a10     libucrt:exit.obj
 0002:00005a1c       ??_C@_13FPGAJAPJ@?$AA?2?$AA?$AA@ 10070a1c     libucrt:exit.obj
 0002:00005a20       _RtlDosPathSeperatorsString 10070a20     libucrt:exit.obj
 0002:00005a2c       ??_C@_15MNCACJLI@?$AA?2?$AA?1?$AA?$AA@ 10070a2c     libucrt:exit.obj
 0002:00005a34       _RtlAlternateDosPathSeperatorString 10070a34     libucrt:exit.obj
 0002:00005a40       ??_C@_13CGOKJPIL@?$AA?1?$AA?$AA@ 10070a40     libucrt:exit.obj
 0002:00005a44       ??_C@_1BI@BGOHAHKC@?$AAm?$AAs?$AAc?$AAo?$AAr?$AAe?$AAe?$AA?4?$AAd?$AAl?$AAl?$AA?$AA@ 10070a44     libucrt:exit.obj
 0002:00005a60       ??_C@_0P@MIGLKIOC@CorExitProcess?$AA@ 10070a60     libucrt:exit.obj
 0002:00005b90       ??_C@_03KHJOGHMM@exp?$AA@  10070b90     libucrt:fpexcept.obj
 0002:00005b94       ??_C@_03JGHBODFD@pow?$AA@  10070b94     libucrt:fpexcept.obj
 0002:00005b98       ??_C@_03MGHMBJCF@log?$AA@  10070b98     libucrt:fpexcept.obj
 0002:00005b9c       ??_C@_05HGHHAHAP@log10?$AA@ 10070b9c     libucrt:fpexcept.obj
 0002:00005ba4       ??_C@_04COOMCNPB@sinh?$AA@ 10070ba4     libucrt:fpexcept.obj
 0002:00005bac       ??_C@_04HPJJNFIM@cosh?$AA@ 10070bac     libucrt:fpexcept.obj
 0002:00005bb4       ??_C@_04FJHINJAO@tanh?$AA@ 10070bb4     libucrt:fpexcept.obj
 0002:00005bbc       ??_C@_04FIHNOPOL@asin?$AA@ 10070bbc     libucrt:fpexcept.obj
 0002:00005bc4       ??_C@_04PDIFKINK@acos?$AA@ 10070bc4     libucrt:fpexcept.obj
 0002:00005bcc       ??_C@_04MLLJIGOK@atan?$AA@ 10070bcc     libucrt:fpexcept.obj
 0002:00005bd4       ??_C@_05KNGEOGJB@atan2?$AA@ 10070bd4     libucrt:fpexcept.obj
 0002:00005bdc       ??_C@_04EIAKFFMI@sqrt?$AA@ 10070bdc     libucrt:fpexcept.obj
 0002:00005be4       ??_C@_03BLEJJJBH@sin?$AA@  10070be4     libucrt:fpexcept.obj
 0002:00005be8       ??_C@_03LALBNOCG@cos?$AA@  10070be8     libucrt:fpexcept.obj
 0002:00005bec       ??_C@_03IIINPABG@tan?$AA@  10070bec     libucrt:fpexcept.obj
 0002:00005bf0       ??_C@_04GFPJNGEK@ceil?$AA@ 10070bf0     libucrt:fpexcept.obj
 0002:00005bf8       ??_C@_05PBJFFIGL@floor?$AA@ 10070bf8     libucrt:fpexcept.obj
 0002:00005c00       ??_C@_04ODHECPBC@fabs?$AA@ 10070c00     libucrt:fpexcept.obj
 0002:00005c08       ??_C@_04EHEDPDJG@modf?$AA@ 10070c08     libucrt:fpexcept.obj
 0002:00005c10       ??_C@_05CEJMAHNP@ldexp?$AA@ 10070c10     libucrt:fpexcept.obj
 0002:00005c18       ??_C@_05KBKMEMPO@_cabs?$AA@ 10070c18     libucrt:fpexcept.obj
 0002:00005c20       ??_C@_06MEIMCGCF@_hypot?$AA@ 10070c20     libucrt:fpexcept.obj
 0002:00005c28       ??_C@_04KEPJIHGP@fmod?$AA@ 10070c28     libucrt:fpexcept.obj
 0002:00005c30       ??_C@_05GKKHEGJL@frexp?$AA@ 10070c30     libucrt:fpexcept.obj
 0002:00005c38       ??_C@_03MJLDFKDL@_y0?$AA@  10070c38     libucrt:fpexcept.obj
 0002:00005c3c       ??_C@_03NAKIGLHK@_y1?$AA@  10070c3c     libucrt:fpexcept.obj
 0002:00005c40       ??_C@_03ONILCKOB@_yn?$AA@  10070c40     libucrt:fpexcept.obj
 0002:00005c44       ??_C@_05JGDBENOH@_logb?$AA@ 10070c44     libucrt:fpexcept.obj
 0002:00005c4c       ??_C@_0L@KDOEJCKC@_nextafter?$AA@ 10070c4c     libucrt:fpexcept.obj
 0002:00005c60       ___acrt_exception_action_table 10070c60     libucrt:exception_filter.obj
 0002:00005d0c       ___acrt_signal_action_table_count 10070d0c     libucrt:exception_filter.obj
 0002:00005d10       ___acrt_signal_action_table_size 10070d10     libucrt:exception_filter.obj
 0002:00005d14       ___acrt_signal_action_first_fpe_index 10070d14     libucrt:exception_filter.obj
 0002:00005d18       ___acrt_signal_action_fpe_count 10070d18     libucrt:exception_filter.obj
 0002:00005dbc       __Fenv1                    10070dbc     libucrt:atox.obj
 0002:00005fd0       ??_C@_1EA@JGEFHKEI@?$AAa?$AAp?$AAi?$AA?9?$AAm?$AAs?$AA?9?$AAw?$AAi?$AAn?$AA?9?$AAc?$AAo?$AAr?$AAe?$AA?9?$AAd?$AAa?$AAt?$AAe?$AAt?$AAi?$AAm?$AAe?$AA?9?$AAl?$AA1?$AA?9?$AA1?$AA?9?$AA1?$AA?$AA@ 10070fd0     libucrt:winapi_thunks.obj
 0002:0000601c       ??_C@_1DI@IJCEHOCB@?$AAa?$AAp?$AAi?$AA?9?$AAm?$AAs?$AA?9?$AAw?$AAi?$AAn?$AA?9?$AAc?$AAo?$AAr?$AAe?$AA?9?$AAf?$AAi?$AAl?$AAe?$AA?9?$AAl?$AA1?$AA?9?$AA2?$AA?9?$AA2?$AA?$AA@ 1007101c     libucrt:winapi_thunks.obj
 0002:00006060       ??_C@_1EI@MPIAOHOC@?$AAa?$AAp?$AAi?$AA?9?$AAm?$AAs?$AA?9?$AAw?$AAi?$AAn?$AA?9?$AAc?$AAo?$AAr?$AAe?$AA?9?$AAl?$AAo?$AAc?$AAa?$AAl?$AAi?$AAz?$AAa?$AAt?$AAi?$AAo?$AAn?$AA?9?$AAl?$AA1?$AA?9@ 10071060     libucrt:winapi_thunks.obj
 0002:000060b8       ??_C@_1FK@FPHCKFIE@?$AAa?$AAp?$AAi?$AA?9?$AAm?$AAs?$AA?9?$AAw?$AAi?$AAn?$AA?9?$AAc?$AAo?$AAr?$AAe?$AA?9?$AAl?$AAo?$AAc?$AAa?$AAl?$AAi?$AAz?$AAa?$AAt?$AAi?$AAo?$AAn?$AA?9?$AAo?$AAb?$AAs@ 100710b8     libucrt:winapi_thunks.obj
 0002:00006128       ??_C@_1EM@DILCGIIO@?$AAa?$AAp?$AAi?$AA?9?$AAm?$AAs?$AA?9?$AAw?$AAi?$AAn?$AA?9?$AAc?$AAo?$AAr?$AAe?$AA?9?$AAp?$AAr?$AAo?$AAc?$AAe?$AAs?$AAs?$AAt?$AAh?$AAr?$AAe?$AAa?$AAd?$AAs?$AA?9?$AAl@ 10071128     libucrt:winapi_thunks.obj
 0002:00006184       ??_C@_1DM@LNCGDDPN@?$AAa?$AAp?$AAi?$AA?9?$AAm?$AAs?$AA?9?$AAw?$AAi?$AAn?$AA?9?$AAc?$AAo?$AAr?$AAe?$AA?9?$AAs?$AAt?$AAr?$AAi?$AAn?$AAg?$AA?9?$AAl?$AA1?$AA?9?$AA1?$AA?9?$AA0?$AA?$AA@ 10071184     libucrt:winapi_thunks.obj
 0002:000061cc       ??_C@_1DO@FPAPJEMD@?$AAa?$AAp?$AAi?$AA?9?$AAm?$AAs?$AA?9?$AAw?$AAi?$AAn?$AA?9?$AAc?$AAo?$AAr?$AAe?$AA?9?$AAs?$AAy?$AAs?$AAi?$AAn?$AAf?$AAo?$AA?9?$AAl?$AA1?$AA?9?$AA2?$AA?9?$AA1?$AA?$AA@ 100711cc     libucrt:winapi_thunks.obj
 0002:00006218       ??_C@_1DK@NDHNAHIO@?$AAa?$AAp?$AAi?$AA?9?$AAm?$AAs?$AA?9?$AAw?$AAi?$AAn?$AA?9?$AAc?$AAo?$AAr?$AAe?$AA?9?$AAw?$AAi?$AAn?$AAr?$AAt?$AA?9?$AAl?$AA1?$AA?9?$AA1?$AA?9?$AA0?$AA?$AA@ 10071218     libucrt:winapi_thunks.obj
 0002:00006260       ??_C@_1DM@KGHDGBCM@?$AAa?$AAp?$AAi?$AA?9?$AAm?$AAs?$AA?9?$AAw?$AAi?$AAn?$AA?9?$AAc?$AAo?$AAr?$AAe?$AA?9?$AAx?$AAs?$AAt?$AAa?$AAt?$AAe?$AA?9?$AAl?$AA2?$AA?9?$AA1?$AA?9?$AA0?$AA?$AA@ 10071260     libucrt:winapi_thunks.obj
 0002:000062a8       ??_C@_1EO@IJIOEFOH@?$AAa?$AAp?$AAi?$AA?9?$AAm?$AAs?$AA?9?$AAw?$AAi?$AAn?$AA?9?$AAr?$AAt?$AAc?$AAo?$AAr?$AAe?$AA?9?$AAn?$AAt?$AAu?$AAs?$AAe?$AAr?$AA?9?$AAw?$AAi?$AAn?$AAd?$AAo?$AAw?$AA?9@ 100712a8     libucrt:winapi_thunks.obj
 0002:00006308       ??_C@_1FG@HHGEKANL@?$AAa?$AAp?$AAi?$AA?9?$AAm?$AAs?$AA?9?$AAw?$AAi?$AAn?$AA?9?$AAs?$AAe?$AAc?$AAu?$AAr?$AAi?$AAt?$AAy?$AA?9?$AAs?$AAy?$AAs?$AAt?$AAe?$AAm?$AAf?$AAu?$AAn?$AAc?$AAt?$AAi@ 10071308     libucrt:winapi_thunks.obj
 0002:00006370       ??_C@_1EG@DBIOJECG@?$AAe?$AAx?$AAt?$AA?9?$AAm?$AAs?$AA?9?$AAw?$AAi?$AAn?$AA?9?$AAn?$AAt?$AAu?$AAs?$AAe?$AAr?$AA?9?$AAd?$AAi?$AAa?$AAl?$AAo?$AAg?$AAb?$AAo?$AAx?$AA?9?$AAl?$AA1?$AA?9?$AA1@ 10071370     libucrt:winapi_thunks.obj
 0002:000063c8       ??_C@_1EO@FIHMJCLF@?$AAe?$AAx?$AAt?$AA?9?$AAm?$AAs?$AA?9?$AAw?$AAi?$AAn?$AA?9?$AAn?$AAt?$AAu?$AAs?$AAe?$AAr?$AA?9?$AAw?$AAi?$AAn?$AAd?$AAo?$AAw?$AAs?$AAt?$AAa?$AAt?$AAi?$AAo?$AAn?$AA?9@ 100713c8     libucrt:winapi_thunks.obj
 0002:00006428       ??_C@_1M@OAIMIKLP@?$AAn?$AAt?$AAd?$AAl?$AAl?$AA?$AA@ 10071428     libucrt:winapi_thunks.obj
 0002:00006438       ??_C@_1EG@DPGNFKGC@?$AAa?$AAp?$AAi?$AA?9?$AAm?$AAs?$AA?9?$AAw?$AAi?$AAn?$AA?9?$AAa?$AAp?$AAp?$AAm?$AAo?$AAd?$AAe?$AAl?$AA?9?$AAr?$AAu?$AAn?$AAt?$AAi?$AAm?$AAe?$AA?9?$AAl?$AA1?$AA?9?$AA1@ 10071438     libucrt:winapi_thunks.obj
 0002:0000648c       ??_C@_1O@BCCLBEOE@?$AAu?$AAs?$AAe?$AAr?$AA3?$AA2?$AA?$AA@ 1007148c     libucrt:winapi_thunks.obj
 0002:0000649c       ??_C@_1BA@PFFKHIOG@?$AAa?$AAp?$AAi?$AA?9?$AAm?$AAs?$AA?9?$AA?$AA@ 1007149c     libucrt:winapi_thunks.obj
 0002:000064b0       ??_C@_1BA@IAIFMGEF@?$AAe?$AAx?$AAt?$AA?9?$AAm?$AAs?$AA?9?$AA?$AA@ 100714b0     libucrt:winapi_thunks.obj
 0002:000064c8       ??_C@_0BA@FHFNEAED@AreFileApisANSI?$AA@ 100714c8     libucrt:winapi_thunks.obj
 0002:000064e8       ??_C@_0BA@IHGNDAEB@CompareStringEx?$AA@ 100714e8     libucrt:winapi_thunks.obj
 0002:00006508       ??_C@_0BE@LJANKFHF@EnumSystemLocalesEx?$AA@ 10071508     libucrt:winapi_thunks.obj
 0002:0000655c       ??_C@_0BA@HNOPNCHB@GetActiveWindow?$AA@ 1007155c     libucrt:winapi_thunks.obj
 0002:0000657c       ??_C@_0BA@EPCJIIPD@GetDateFormatEx?$AA@ 1007157c     libucrt:winapi_thunks.obj
 0002:0000659c       ??_C@_0BJ@DIBIJBHA@GetEnabledXStateFeatures?$AA@ 1007159c     libucrt:winapi_thunks.obj
 0002:000065c8       ??_C@_0BD@HHGDFDBJ@GetLastActivePopup?$AA@ 100715c8     libucrt:winapi_thunks.obj
 0002:000065ec       ??_C@_0BA@ONOKGCMP@GetLocaleInfoEx?$AA@ 100715ec     libucrt:winapi_thunks.obj
 0002:0000660c       ??_C@_0BI@DFKBFLJE@GetProcessWindowStation?$AA@ 1007160c     libucrt:winapi_thunks.obj
 0002:0000662c       ??_C@_0BP@FPNJPEJC@GetSystemTimePreciseAsFileTime?$AA@ 1007162c     libucrt:winapi_thunks.obj
 0002:00006660       ??_C@_0BA@CIJJKCJJ@GetTimeFormatEx?$AA@ 10071660     libucrt:winapi_thunks.obj
 0002:00006680       ??_C@_0BJ@PBCCBIPI@GetUserDefaultLocaleName?$AA@ 10071680     libucrt:winapi_thunks.obj
 0002:000066ac       ??_C@_0BK@DEKFELLI@GetUserObjectInformationW?$AA@ 100716ac     libucrt:winapi_thunks.obj
 0002:000066d8       ??_C@_0BG@IKLDMBLM@GetXStateFeaturesMask?$AA@ 100716d8     libucrt:winapi_thunks.obj
 0002:0000670c       ??_C@_0BC@CELBKLLA@IsValidLocaleName?$AA@ 1007170c     libucrt:winapi_thunks.obj
 0002:00006730       ??_C@_0O@KKBNKAPF@LCMapStringEx?$AA@ 10071730     libucrt:winapi_thunks.obj
 0002:0000674c       ??_C@_0BB@CDHDDLLP@LCIDToLocaleName?$AA@ 1007174c     libucrt:winapi_thunks.obj
 0002:0000676c       ??_C@_0BB@HBDEELFH@LocaleNameToLCID?$AA@ 1007176c     libucrt:winapi_thunks.obj
 0002:0000678c       ??_C@_0BE@KINNKFDA@LocateXStateFeature?$AA@ 1007178c     libucrt:winapi_thunks.obj
 0002:000067b0       ??_C@_0M@CHKKJDAI@MessageBoxA?$AA@ 100717b0     libucrt:winapi_thunks.obj
 0002:000067cc       ??_C@_0M@DLDCCGNP@MessageBoxW?$AA@ 100717cc     libucrt:winapi_thunks.obj
 0002:000067e0       ??_C@_0N@PPOMPGGK@RoInitialize?$AA@ 100717e0     libucrt:winapi_thunks.obj
 0002:000067f4       ??_C@_0P@LLFHBIJD@RoUninitialize?$AA@ 100717f4     libucrt:winapi_thunks.obj
 0002:0000680c       ??_C@_0CF@OJOFEIGO@AppPolicyGetProcessTerminationMe@ 1007180c     libucrt:winapi_thunks.obj
 0002:0000683c       ??_C@_0CF@NNDFDCOC@AppPolicyGetThreadInitialization@ 1007183c     libucrt:winapi_thunks.obj
 0002:0000686c       ??_C@_0CE@OICFMIKE@AppPolicyGetShowDeveloperDiagnos@ 1007186c     libucrt:winapi_thunks.obj
 0002:0000689c       ??_C@_0BL@ODDJNEDA@AppPolicyGetWindowingModel?$AA@ 1007189c     libucrt:winapi_thunks.obj
 0002:000068c8       ??_C@_0BI@BKLFFAPO@SetThreadStackGuarantee?$AA@ 100718c8     libucrt:winapi_thunks.obj
 0002:000068f0       ??_C@_0BC@JEAENNKH@SystemFunction036?$AA@ 100718f0     libucrt:winapi_thunks.obj
 0002:00006908       ??_C@_03OEIAHPBN@INF?$AA@  10071908     libucrt:cvt.obj
 0002:0000690c       ??_C@_03OJHLLCGB@inf?$AA@  1007190c     libucrt:cvt.obj
 0002:00006910       ??_C@_03LKNCIKJB@NAN?$AA@  10071910     libucrt:cvt.obj
 0002:00006914       ??_C@_03LHCJEHON@nan?$AA@  10071914     libucrt:cvt.obj
 0002:00006918       ??_C@_09OFJJIMPC@NAN?$CISNAN?$CJ?$AA@ 10071918     libucrt:cvt.obj
 0002:00006924       ??_C@_09IPFBKMDL@nan?$CIsnan?$CJ?$AA@ 10071924     libucrt:cvt.obj
 0002:00006930       ??_C@_08IKHNHAJ@NAN?$CIIND?$CJ?$AA@ 10071930     libucrt:cvt.obj
 0002:0000693c       ??_C@_08OFCDMILK@nan?$CIind?$CJ?$AA@ 1007193c     libucrt:cvt.obj
 0002:00006948       ??_C@_05KLBDPFGC@e?$CL000?$AA@ 10071948     libucrt:cvt.obj
 0002:000069e8       ___lc_category             100719e8     libucrt:wsetlocale.obj
 0002:00006a40       ??_C@_1O@GIFLHMA@?$AAL?$AAC?$AA_?$AAA?$AAL?$AAL?$AA?$AA@ 10071a40     libucrt:wsetlocale.obj
 0002:00006a50       ??_C@_1BG@PPOMIBNJ@?$AAL?$AAC?$AA_?$AAC?$AAO?$AAL?$AAL?$AAA?$AAT?$AAE?$AA?$AA@ 10071a50     libucrt:wsetlocale.obj
 0002:00006a6c       ??_C@_1BC@FFJGAPJM@?$AAL?$AAC?$AA_?$AAC?$AAT?$AAY?$AAP?$AAE?$AA?$AA@ 10071a6c     libucrt:wsetlocale.obj
 0002:00006a84       ??_C@_1BI@PCKFNJFB@?$AAL?$AAC?$AA_?$AAM?$AAO?$AAN?$AAE?$AAT?$AAA?$AAR?$AAY?$AA?$AA@ 10071a84     libucrt:wsetlocale.obj
 0002:00006aa0       ??_C@_1BG@ENIEDKID@?$AAL?$AAC?$AA_?$AAN?$AAU?$AAM?$AAE?$AAR?$AAI?$AAC?$AA?$AA@ 10071aa0     libucrt:wsetlocale.obj
 0002:00006abc       ??_C@_1BA@HAAOMIIG@?$AAL?$AAC?$AA_?$AAT?$AAI?$AAM?$AAE?$AA?$AA@ 10071abc     libucrt:wsetlocale.obj
 0002:00006ad0       ??_C@_15NBPDDFIP@?$AA?$DN?$AA?$DL?$AA?$AA@ 10071ad0     libucrt:wsetlocale.obj
 0002:00006ad8       ??_C@_13PJJBFPED@?$AA?$DL?$AA?$AA@ 10071ad8     libucrt:wsetlocale.obj
 0002:00006adc       ??_C@_13NMPKAAJP@?$AA?$DN?$AA?$AA@ 10071adc     libucrt:wsetlocale.obj
 0002:00006ae0       ??_C@_13FHBKNHDA@?$AAC?$AA?$AA@ 10071ae0     libucrt:wsetlocale.obj
 0002:00006ae4       ??_C@_19MPDNHKDG@?$AAu?$AAt?$AAf?$AA8?$AA?$AA@ 10071ae4     libucrt:wsetlocale.obj
 0002:00006af0       ??_C@_1M@FPEIIFAM@?$AAu?$AAt?$AAf?$AA?9?$AA8?$AA?$AA@ 10071af0     libucrt:wsetlocale.obj
 0002:00006b00       ??_C@_17MBJJLFDM@?$AA_?$AA?4?$AA?0?$AA?$AA@ 10071b00     libucrt:wsetlocale.obj
 0002:00006b0c       ??_C@_13ENNFDPBH@?$AA_?$AA?$AA@ 10071b0c     libucrt:wsetlocale.obj
 0002:00006b10       ??_C@_13JOFGPIOO@?$AA?4?$AA?$AA@ 10071b10     libucrt:wsetlocale.obj
 0002:00006b18       ___lc_time_c               10071b18     libucrt:nlsdata.obj
 0002:00006cc4       ??_C@_03KOEHGMDN@Sun?$AA@  10071cc4     libucrt:nlsdata.obj
 0002:00006cc8       ??_C@_03PDAGKDH@Mon?$AA@   10071cc8     libucrt:nlsdata.obj
 0002:00006ccc       ??_C@_03NAGEINEP@Tue?$AA@  10071ccc     libucrt:nlsdata.obj
 0002:00006cd0       ??_C@_03MHOMLAJA@Wed?$AA@  10071cd0     libucrt:nlsdata.obj
 0002:00006cd4       ??_C@_03IOFIKPDN@Thu?$AA@  10071cd4     libucrt:nlsdata.obj
 0002:00006cd8       ??_C@_03IDIOELNC@Fri?$AA@  10071cd8     libucrt:nlsdata.obj
 0002:00006cdc       ??_C@_03FEFJNEK@Sat?$AA@   10071cdc     libucrt:nlsdata.obj
 0002:00006ce0       ??_C@_06OOPIFAJ@Sunday?$AA@ 10071ce0     libucrt:nlsdata.obj
 0002:00006ce8       ??_C@_06JLEDEDGH@Monday?$AA@ 10071ce8     libucrt:nlsdata.obj
 0002:00006cf0       ??_C@_07BAAGCFCM@Tuesday?$AA@ 10071cf0     libucrt:nlsdata.obj
 0002:00006cfc       ??_C@_09DLIGFAKA@Wednesday?$AA@ 10071cfc     libucrt:nlsdata.obj
 0002:00006d08       ??_C@_08HACCIKIA@Thursday?$AA@ 10071d08     libucrt:nlsdata.obj
 0002:00006d14       ??_C@_06JECMNKMI@Friday?$AA@ 10071d14     libucrt:nlsdata.obj
 0002:00006d1c       ??_C@_08INBOOONO@Saturday?$AA@ 10071d1c     libucrt:nlsdata.obj
 0002:00006d28       ??_C@_03JIHJHPIE@Jan?$AA@  10071d28     libucrt:nlsdata.obj
 0002:00006d2c       ??_C@_03HJBDCHOM@Feb?$AA@  10071d2c     libucrt:nlsdata.obj
 0002:00006d30       ??_C@_03ODNJBKGA@Mar?$AA@  10071d30     libucrt:nlsdata.obj
 0002:00006d34       ??_C@_03LEOLGMJP@Apr?$AA@  10071d34     libucrt:nlsdata.obj
 0002:00006d38       ??_C@_03CNMDKL@May?$AA@    10071d38     libucrt:nlsdata.obj
 0002:00006d3c       ??_C@_03IDFGHECI@Jun?$AA@  10071d3c     libucrt:nlsdata.obj
 0002:00006d40       ??_C@_03LBGABGKK@Jul?$AA@  10071d40     libucrt:nlsdata.obj
 0002:00006d44       ??_C@_03IFJFEIGA@Aug?$AA@  10071d44     libucrt:nlsdata.obj
 0002:00006d48       ??_C@_03GGCAPAJC@Sep?$AA@  10071d48     libucrt:nlsdata.obj
 0002:00006d4c       ??_C@_03BMAOKBAD@Oct?$AA@  10071d4c     libucrt:nlsdata.obj
 0002:00006d50       ??_C@_03JPJOFNIA@Nov?$AA@  10071d50     libucrt:nlsdata.obj
 0002:00006d54       ??_C@_03MKABNOCG@Dec?$AA@  10071d54     libucrt:nlsdata.obj
 0002:00006d58       ??_C@_07CGJPFGJA@January?$AA@ 10071d58     libucrt:nlsdata.obj
 0002:00006d64       ??_C@_08GNJGEPFN@February?$AA@ 10071d64     libucrt:nlsdata.obj
 0002:00006d70       ??_C@_05HPCKOFNC@March?$AA@ 10071d70     libucrt:nlsdata.obj
 0002:00006d78       ??_C@_05DMJDNLEJ@April?$AA@ 10071d78     libucrt:nlsdata.obj
 0002:00006d80       ??_C@_04CNLMGBGM@June?$AA@ 10071d80     libucrt:nlsdata.obj
 0002:00006d88       ??_C@_04MIEPOIFP@July?$AA@ 10071d88     libucrt:nlsdata.obj
 0002:00006d90       ??_C@_06LBBHFDDG@August?$AA@ 10071d90     libucrt:nlsdata.obj
 0002:00006d98       ??_C@_09BHHEALKD@September?$AA@ 10071d98     libucrt:nlsdata.obj
 0002:00006da4       ??_C@_07JJNFCEND@October?$AA@ 10071da4     libucrt:nlsdata.obj
 0002:00006db0       ??_C@_08HCHEGEOA@November?$AA@ 10071db0     libucrt:nlsdata.obj
 0002:00006dbc       ??_C@_08EDHMEBNP@December?$AA@ 10071dbc     libucrt:nlsdata.obj
 0002:00006dc8       ??_C@_02DEDBPAFC@AM?$AA@   10071dc8     libucrt:nlsdata.obj
 0002:00006dcc       ??_C@_02CJNFDJBF@PM?$AA@   10071dcc     libucrt:nlsdata.obj
 0002:00006dd0       ??_C@_08BPBNCDIB@MM?1dd?1yy?$AA@ 10071dd0     libucrt:nlsdata.obj
 0002:00006ddc       ??_C@_0BE@CKGJFCPC@dddd?0?5MMMM?5dd?0?5yyyy?$AA@ 10071ddc     libucrt:nlsdata.obj
 0002:00006df4       ??_C@_08JCCMCCIL@HH?3mm?3ss?$AA@ 10071df4     libucrt:nlsdata.obj
 0002:00006e00       ??_C@_17MBGCMIPB@?$AAS?$AAu?$AAn?$AA?$AA@ 10071e00     libucrt:nlsdata.obj
 0002:00006e0c       ??_C@_17KBOMKBF@?$AAM?$AAo?$AAn?$AA?$AA@ 10071e0c     libucrt:nlsdata.obj
 0002:00006e18       ??_C@_17BMKGEGOJ@?$AAT?$AAu?$AAe?$AA?$AA@ 10071e18     libucrt:nlsdata.obj
 0002:00006e24       ??_C@_17CJEDCEPE@?$AAW?$AAe?$AAd?$AA?$AA@ 10071e24     libucrt:nlsdata.obj
 0002:00006e30       ??_C@_17PDPHAADD@?$AAT?$AAh?$AAu?$AA?$AA@ 10071e30     libucrt:nlsdata.obj
 0002:00006e3c       ??_C@_17HFOLPPLP@?$AAF?$AAr?$AAi?$AA?$AA@ 10071e3c     libucrt:nlsdata.obj
 0002:00006e48       ??_C@_17GGIBDPIH@?$AAS?$AAa?$AAt?$AA?$AA@ 10071e48     libucrt:nlsdata.obj
 0002:00006e54       ??_C@_1O@IHNHDHPB@?$AAS?$AAu?$AAn?$AAd?$AAa?$AAy?$AA?$AA@ 10071e54     libucrt:nlsdata.obj
 0002:00006e64       ??_C@_1O@MMNBFLIA@?$AAM?$AAo?$AAn?$AAd?$AAa?$AAy?$AA?$AA@ 10071e64     libucrt:nlsdata.obj
 0002:00006e74       ??_C@_1BA@ENFBFFEK@?$AAT?$AAu?$AAe?$AAs?$AAd?$AAa?$AAy?$AA?$AA@ 10071e74     libucrt:nlsdata.obj
 0002:00006e88       ??_C@_1BE@EBOGMDOH@?$AAW?$AAe?$AAd?$AAn?$AAe?$AAs?$AAd?$AAa?$AAy?$AA?$AA@ 10071e88     libucrt:nlsdata.obj
 0002:00006ea0       ??_C@_1BC@HHMNLIHE@?$AAT?$AAh?$AAu?$AAr?$AAs?$AAd?$AAa?$AAy?$AA?$AA@ 10071ea0     libucrt:nlsdata.obj
 0002:00006eb8       ??_C@_1O@PDICJHAG@?$AAF?$AAr?$AAi?$AAd?$AAa?$AAy?$AA?$AA@ 10071eb8     libucrt:nlsdata.obj
 0002:00006ec8       ??_C@_1BC@ENMNNPAJ@?$AAS?$AAa?$AAt?$AAu?$AAr?$AAd?$AAa?$AAy?$AA?$AA@ 10071ec8     libucrt:nlsdata.obj
 0002:00006ee0       ??_C@_17DKNBKCHM@?$AAJ?$AAa?$AAn?$AA?$AA@ 10071ee0     libucrt:nlsdata.obj
 0002:00006eec       ??_C@_17LMDJEKJN@?$AAF?$AAe?$AAb?$AA?$AA@ 10071eec     libucrt:nlsdata.obj
 0002:00006ef8       ??_C@_17CKNLEDEC@?$AAM?$AAa?$AAr?$AA?$AA@ 10071ef8     libucrt:nlsdata.obj
 0002:00006f04       ??_C@_17LFPOIHDD@?$AAA?$AAp?$AAr?$AA?$AA@ 10071f04     libucrt:nlsdata.obj
 0002:00006f10       ??_C@_17PNNKMEED@?$AAM?$AAa?$AAy?$AA?$AA@ 10071f10     libucrt:nlsdata.obj
 0002:00006f1c       ??_C@_17KCJGOCPB@?$AAJ?$AAu?$AAn?$AA?$AA@ 10071f1c     libucrt:nlsdata.obj
 0002:00006f28       ??_C@_17IJPCKHK@?$AAJ?$AAu?$AAl?$AA?$AA@ 10071f28     libucrt:nlsdata.obj
 0002:00006f34       ??_C@_17ICPELBCN@?$AAA?$AAu?$AAg?$AA?$AA@ 10071f34     libucrt:nlsdata.obj
 0002:00006f40       ??_C@_17HCHCOKMG@?$AAS?$AAe?$AAp?$AA?$AA@ 10071f40     libucrt:nlsdata.obj
 0002:00006f4c       ??_C@_17FNLKOI@?$AAO?$AAc?$AAt?$AA?$AA@ 10071f4c     libucrt:nlsdata.obj
 0002:00006f58       ??_C@_17BBDMLCIG@?$AAN?$AAo?$AAv?$AA?$AA@ 10071f58     libucrt:nlsdata.obj
 0002:00006f64       ??_C@_17EGKACKIF@?$AAD?$AAe?$AAc?$AA?$AA@ 10071f64     libucrt:nlsdata.obj
 0002:00006f70       ??_C@_1BA@EFMEIEBA@?$AAJ?$AAa?$AAn?$AAu?$AAa?$AAr?$AAy?$AA?$AA@ 10071f70     libucrt:nlsdata.obj
 0002:00006f84       ??_C@_1BC@JGDDFFAM@?$AAF?$AAe?$AAb?$AAr?$AAu?$AAa?$AAr?$AAy?$AA?$AA@ 10071f84     libucrt:nlsdata.obj
 0002:00006f9c       ??_C@_1M@IKEENEDF@?$AAM?$AAa?$AAr?$AAc?$AAh?$AA?$AA@ 10071f9c     libucrt:nlsdata.obj
 0002:00006fac       ??_C@_1M@GJNLMHFD@?$AAA?$AAp?$AAr?$AAi?$AAl?$AA?$AA@ 10071fac     libucrt:nlsdata.obj
 0002:00006fbc       ??_C@_19EPFLPGAP@?$AAJ?$AAu?$AAn?$AAe?$AA?$AA@ 10071fbc     libucrt:nlsdata.obj
 0002:00006fc8       ??_C@_19BIFMLPCD@?$AAJ?$AAu?$AAl?$AAy?$AA?$AA@ 10071fc8     libucrt:nlsdata.obj
 0002:00006fd4       ??_C@_1O@PAHLKOAC@?$AAA?$AAu?$AAg?$AAu?$AAs?$AAt?$AA?$AA@ 10071fd4     libucrt:nlsdata.obj
 0002:00006fe4       ??_C@_1BE@DKAAMBJL@?$AAS?$AAe?$AAp?$AAt?$AAe?$AAm?$AAb?$AAe?$AAr?$AA?$AA@ 10071fe4     libucrt:nlsdata.obj
 0002:00006ffc       ??_C@_1BA@EPANDLNG@?$AAO?$AAc?$AAt?$AAo?$AAb?$AAe?$AAr?$AA?$AA@ 10071ffc     libucrt:nlsdata.obj
 0002:00007010       ??_C@_1BC@BGLIFPF@?$AAN?$AAo?$AAv?$AAe?$AAm?$AAb?$AAe?$AAr?$AA?$AA@ 10072010     libucrt:nlsdata.obj
 0002:00007028       ??_C@_1BC@FEMKIFH@?$AAD?$AAe?$AAc?$AAe?$AAm?$AAb?$AAe?$AAr?$AA?$AA@ 10072028     libucrt:nlsdata.obj
 0002:00007040       ??_C@_15ODEHAHHF@?$AAA?$AAM?$AA?$AA@ 10072040     libucrt:nlsdata.obj
 0002:00007048       ??_C@_15CLMNNGEL@?$AAP?$AAM?$AA?$AA@ 10072048     libucrt:nlsdata.obj
 0002:00007050       ??_C@_1BC@IEBCMHCM@?$AAM?$AAM?$AA?1?$AAd?$AAd?$AA?1?$AAy?$AAy?$AA?$AA@ 10072050     libucrt:nlsdata.obj
 0002:00007068       ??_C@_1CI@KNAKOEBC@?$AAd?$AAd?$AAd?$AAd?$AA?0?$AA?5?$AAM?$AAM?$AAM?$AAM?$AA?5?$AAd?$AAd?$AA?0?$AA?5?$AAy?$AAy?$AAy?$AAy?$AA?$AA@ 10072068     libucrt:nlsdata.obj
 0002:00007098       ??_C@_1BC@GDGBMEMK@?$AAH?$AAH?$AA?3?$AAm?$AAm?$AA?3?$AAs?$AAs?$AA?$AA@ 10072098     libucrt:nlsdata.obj
 0002:000070b0       ??_C@_1M@BMHNFIME@?$AAe?$AAn?$AA?9?$AAU?$AAS?$AA?$AA@ 100720b0     libucrt:nlsdata.obj
 0002:000070c0       ??_C@_1DE@JNGNBFGO@?$AAR?$AAu?$AAn?$AAt?$AAi?$AAm?$AAe?$AA?5?$AAE?$AAr?$AAr?$AAo?$AAr?$AA?$CB?$AA?6?$AA?6?$AAP?$AAr?$AAo?$AAg?$AAr?$AAa?$AAm?$AA?3?$AA?5?$AA?$AA@ 100720c0     libucrt:report_runtime_error.obj
 0002:00007100       ?ccs@?1???$__acrt_stdio_parse_mode@D@@YA?AU__acrt_stdio_stream_mode@@QBD@Z@4QBDB 10072100     libucrt:openfile.obj
 0002:00007104       ?utf8_encoding@?1???$__acrt_stdio_parse_mode@D@@YA?AU__acrt_stdio_stream_mode@@QBD@Z@4QBDB 10072104     libucrt:openfile.obj
 0002:0000710c       ?utf16_encoding@?1???$__acrt_stdio_parse_mode@D@@YA?AU__acrt_stdio_stream_mode@@QBD@Z@4QBDB 1007210c     libucrt:openfile.obj
 0002:00007118       ?unicode_encoding@?1???$__acrt_stdio_parse_mode@D@@YA?AU__acrt_stdio_stream_mode@@QBD@Z@4QBDB 10072118     libucrt:openfile.obj
 0002:00007120       ?ccs@?1???$__acrt_stdio_parse_mode@_W@@YA?AU__acrt_stdio_stream_mode@@QB_W@Z@4QB_WB 10072120     libucrt:openfile.obj
 0002:00007128       ?utf8_encoding@?1???$__acrt_stdio_parse_mode@_W@@YA?AU__acrt_stdio_stream_mode@@QB_W@Z@4QB_WB 10072128     libucrt:openfile.obj
 0002:00007134       ?utf16_encoding@?1???$__acrt_stdio_parse_mode@_W@@YA?AU__acrt_stdio_stream_mode@@QB_W@Z@4QB_WB 10072134     libucrt:openfile.obj
 0002:00007148       ?unicode_encoding@?1???$__acrt_stdio_parse_mode@_W@@YA?AU__acrt_stdio_stream_mode@@QB_W@Z@4QB_WB 10072148     libucrt:openfile.obj
 0002:00007158       __d_inf                    10072158     libucrt:util.obj
 0002:00007168       __d_ind                    10072168     libucrt:util.obj
 0002:00007178       __d_max                    10072178     libucrt:util.obj
 0002:00007188       __d_min                    10072188     libucrt:util.obj
 0002:00007198       __d_mzero                  10072198     libucrt:util.obj
 0002:000071d8       ??_C@_1M@HPNHIDJI@?$AAj?$AAa?$AA?9?$AAJ?$AAP?$AA?$AA@ 100721d8     libucrt:mbctype.obj
 0002:000071e8       ??_C@_1M@BIBDDEMK@?$AAz?$AAh?$AA?9?$AAC?$AAN?$AA?$AA@ 100721e8     libucrt:mbctype.obj
 0002:000071f8       ??_C@_1M@JLOOOEGK@?$AAk?$AAo?$AA?9?$AAK?$AAR?$AA?$AA@ 100721f8     libucrt:mbctype.obj
 0002:00007208       ??_C@_1M@CLNBBOPM@?$AAz?$AAh?$AA?9?$AAT?$AAW?$AA?$AA@ 10072208     libucrt:mbctype.obj
 0002:00007218       ___newctype                10072218     libucrt:ctype.obj
 0002:000075b8       ___newclmap                100725b8     libucrt:ctype.obj
 0002:00007788       ___newcumap                10072788     libucrt:ctype.obj
 0002:00007958       __wctype                   10072958     libucrt:ctype.obj
 0002:00008454       ??_C@_15EMKDOKLE@?$AAa?$AAr?$AA?$AA@ 10073454     libucrt:lcidtoname_downlevel.obj
 0002:0000845c       ??_C@_15KNPADPLH@?$AAb?$AAg?$AA?$AA@ 1007345c     libucrt:lcidtoname_downlevel.obj
 0002:00008464       ??_C@_15EDMHLDMO@?$AAc?$AAa?$AA?$AA@ 10073464     libucrt:lcidtoname_downlevel.obj
 0002:0000846c       ??_C@_1O@BPEAJADD@?$AAz?$AAh?$AA?9?$AAC?$AAH?$AAS?$AA?$AA@ 1007346c     libucrt:lcidtoname_downlevel.obj
 0002:0000847c       ??_C@_15LJNHCMNK@?$AAc?$AAs?$AA?$AA@ 1007347c     libucrt:lcidtoname_downlevel.obj
 0002:00008484       ??_C@_15FOMCIDHG@?$AAd?$AAa?$AA?$AA@ 10073484     libucrt:lcidtoname_downlevel.obj
 0002:0000848c       ??_C@_15NBKABECB@?$AAd?$AAe?$AA?$AA@ 1007348c     libucrt:lcidtoname_downlevel.obj
 0002:00008494       ??_C@_15GHPEIIAO@?$AAe?$AAl?$AA?$AA@ 10073494     libucrt:lcidtoname_downlevel.obj
 0002:0000849c       ??_C@_15MNPNEAIF@?$AAe?$AAn?$AA?$AA@ 1007349c     libucrt:lcidtoname_downlevel.obj
 0002:000084a4       ??_C@_15GPIOMPMH@?$AAe?$AAs?$AA?$AA@ 100734a4     libucrt:lcidtoname_downlevel.obj
 0002:000084ac       ??_C@_15NGLOAKJC@?$AAf?$AAi?$AA?$AA@ 100734ac     libucrt:lcidtoname_downlevel.obj
 0002:000084b4       ??_C@_15FBKGNKAM@?$AAf?$AAr?$AA?$AA@ 100734b4     libucrt:lcidtoname_downlevel.obj
 0002:000084bc       ??_C@_15KGGCNEFK@?$AAh?$AAe?$AA?$AA@ 100734bc     libucrt:lcidtoname_downlevel.obj
 0002:000084c4       ??_C@_15PGHLIDMF@?$AAh?$AAu?$AA?$AA@ 100734c4     libucrt:lcidtoname_downlevel.obj
 0002:000084cc       ??_C@_15BIEMAPLM@?$AAi?$AAs?$AA?$AA@ 100734cc     libucrt:lcidtoname_downlevel.obj
 0002:000084d4       ??_C@_15IFJLDHAF@?$AAi?$AAt?$AA?$AA@ 100734d4     libucrt:lcidtoname_downlevel.obj
 0002:000084dc       ??_C@_15GEMIOCAG@?$AAj?$AAa?$AA?$AA@ 100734dc     libucrt:lcidtoname_downlevel.obj
 0002:000084e4       ??_C@_15EPELEGJA@?$AAk?$AAo?$AA?$AA@ 100734e4     libucrt:lcidtoname_downlevel.obj
 0002:000084ec       ??_C@_15NDDHIMN@?$AAn?$AAl?$AA?$AA@ 100734ec     libucrt:lcidtoname_downlevel.obj
 0002:000084f4       ??_C@_15BPIGNHCD@?$AAn?$AAo?$AA?$AA@ 100734f4     libucrt:lcidtoname_downlevel.obj
 0002:000084fc       ??_C@_15DEOPBLCG@?$AAp?$AAl?$AA?$AA@ 100734fc     libucrt:lcidtoname_downlevel.obj
 0002:00008504       ??_C@_15KBECGEFG@?$AAp?$AAt?$AA?$AA@ 10073504     libucrt:lcidtoname_downlevel.obj
 0002:0000850c       ??_C@_15GLJCBFMD@?$AAr?$AAo?$AA?$AA@ 1007350c     libucrt:lcidtoname_downlevel.obj
 0002:00008514       ??_C@_15FEDGKCDI@?$AAr?$AAu?$AA?$AA@ 10073514     libucrt:lcidtoname_downlevel.obj
 0002:0000851c       ??_C@_15GLKMLLHM@?$AAh?$AAr?$AA?$AA@ 1007351c     libucrt:lcidtoname_downlevel.obj
 0002:00008524       ??_C@_15CPKMFBDB@?$AAs?$AAk?$AA?$AA@ 10073524     libucrt:lcidtoname_downlevel.obj
 0002:0000852c       ??_C@_15BAAIOGMK@?$AAs?$AAq?$AA?$AA@ 1007352c     libucrt:lcidtoname_downlevel.obj
 0002:00008534       ??_C@_15INNPNOHD@?$AAs?$AAv?$AA?$AA@ 10073534     libucrt:lcidtoname_downlevel.obj
 0002:0000853c       ??_C@_15CABMMOGH@?$AAt?$AAh?$AA?$AA@ 1007353c     libucrt:lcidtoname_downlevel.obj
 0002:00008544       ??_C@_15BPLIHJJM@?$AAt?$AAr?$AA?$AA@ 10073544     libucrt:lcidtoname_downlevel.obj
 0002:0000854c       ??_C@_15NEOEKKDJ@?$AAu?$AAr?$AA?$AA@ 1007354c     libucrt:lcidtoname_downlevel.obj
 0002:00008554       ??_C@_15NFICGAJK@?$AAi?$AAd?$AA?$AA@ 10073554     libucrt:lcidtoname_downlevel.obj
 0002:0000855c       ??_C@_15PJPFLCCM@?$AAu?$AAk?$AA?$AA@ 1007355c     libucrt:lcidtoname_downlevel.obj
 0002:00008564       ??_C@_15HPJPHDM@?$AAb?$AAe?$AA?$AA@ 10073564     libucrt:lcidtoname_downlevel.obj
 0002:0000856c       ??_C@_15LCHLGJII@?$AAs?$AAl?$AA?$AA@ 1007356c     libucrt:lcidtoname_downlevel.obj
 0002:00008574       ??_C@_15PCFJPHHO@?$AAe?$AAt?$AA?$AA@ 10073574     libucrt:lcidtoname_downlevel.obj
 0002:0000857c       ??_C@_15HPFPGODN@?$AAl?$AAv?$AA?$AA@ 1007357c     libucrt:lcidtoname_downlevel.obj
 0002:00008584       ??_C@_15NFFGKGLG@?$AAl?$AAt?$AA?$AA@ 10073584     libucrt:lcidtoname_downlevel.obj
 0002:0000858c       ??_C@_15BDAKCCHN@?$AAf?$AAa?$AA?$AA@ 1007358c     libucrt:lcidtoname_downlevel.obj
 0002:00008594       ??_C@_15NFGIAIAJ@?$AAv?$AAi?$AA?$AA@ 10073594     libucrt:lcidtoname_downlevel.obj
 0002:0000859c       ??_C@_15LMKNDMHN@?$AAh?$AAy?$AA?$AA@ 1007359c     libucrt:lcidtoname_downlevel.obj
 0002:000085a4       ??_C@_15IJBHMCFL@?$AAa?$AAz?$AA?$AA@ 100735a4     libucrt:lcidtoname_downlevel.obj
 0002:000085ac       ??_C@_15EKOFJABL@?$AAe?$AAu?$AA?$AA@ 100735ac     libucrt:lcidtoname_downlevel.obj
 0002:000085b4       ??_C@_15BGHADCNK@?$AAm?$AAk?$AA?$AA@ 100735b4     libucrt:lcidtoname_downlevel.obj
 0002:000085bc       ??_C@_15JDNICKHM@?$AAa?$AAf?$AA?$AA@ 100735bc     libucrt:lcidtoname_downlevel.obj
 0002:000085c4       ??_C@_15KPJEDBKD@?$AAk?$AAa?$AA?$AA@ 100735c4     libucrt:lcidtoname_downlevel.obj
 0002:000085cc       ??_C@_15PDNFFFEO@?$AAf?$AAo?$AA?$AA@ 100735cc     libucrt:lcidtoname_downlevel.obj
 0002:000085d4       ??_C@_15OMLEGLOC@?$AAh?$AAi?$AA?$AA@ 100735d4     libucrt:lcidtoname_downlevel.obj
 0002:000085dc       ??_C@_15IDNNENKK@?$AAm?$AAs?$AA?$AA@ 100735dc     libucrt:lcidtoname_downlevel.obj
 0002:000085e4       ??_C@_15MACJNBMH@?$AAk?$AAk?$AA?$AA@ 100735e4     libucrt:lcidtoname_downlevel.obj
 0002:000085ec       ??_C@_15DKDJEOND@?$AAk?$AAy?$AA?$AA@ 100735ec     libucrt:lcidtoname_downlevel.obj
 0002:000085f4       ??_C@_15DFGDLJBG@?$AAs?$AAw?$AA?$AA@ 100735f4     libucrt:lcidtoname_downlevel.obj
 0002:000085fc       ??_C@_15BBFAICNG@?$AAu?$AAz?$AA?$AA@ 100735fc     libucrt:lcidtoname_downlevel.obj
 0002:00008604       ??_C@_15DKNDCGEA@?$AAt?$AAt?$AA?$AA@ 10073604     libucrt:lcidtoname_downlevel.obj
 0002:0000860c       ??_C@_15MGIFMDPL@?$AAp?$AAa?$AA?$AA@ 1007360c     libucrt:lcidtoname_downlevel.obj
 0002:00008614       ??_C@_15HCNDBBA@?$AAg?$AAu?$AA?$AA@ 10073614     libucrt:lcidtoname_downlevel.obj
 0002:0000861c       ??_C@_15FNBEIBON@?$AAt?$AAa?$AA?$AA@ 1007361c     libucrt:lcidtoname_downlevel.obj
 0002:00008624       ??_C@_15NCHGBGLK@?$AAt?$AAe?$AA?$AA@ 10073624     libucrt:lcidtoname_downlevel.obj
 0002:0000862c       ??_C@_15PHPHCBPF@?$AAk?$AAn?$AA?$AA@ 1007362c     libucrt:lcidtoname_downlevel.obj
 0002:00008634       ??_C@_15DLGBCKMP@?$AAm?$AAr?$AA?$AA@ 10073634     libucrt:lcidtoname_downlevel.obj
 0002:0000863c       ??_C@_15EABBLBFF@?$AAs?$AAa?$AA?$AA@ 1007363c     libucrt:lcidtoname_downlevel.obj
 0002:00008644       ??_C@_15CBKOMCOI@?$AAm?$AAn?$AA?$AA@ 10073644     libucrt:lcidtoname_downlevel.obj
 0002:0000864c       ??_C@_15CKDMCJAF@?$AAg?$AAl?$AA?$AA@ 1007364c     libucrt:lcidtoname_downlevel.obj
 0002:00008654       ??_C@_17CNJFBPG@?$AAk?$AAo?$AAk?$AA?$AA@ 10073654     libucrt:lcidtoname_downlevel.obj
 0002:00008660       ??_C@_17FFBJICPL@?$AAs?$AAy?$AAr?$AA?$AA@ 10073660     libucrt:lcidtoname_downlevel.obj
 0002:0000866c       ??_C@_17KPNDCPAF@?$AAd?$AAi?$AAv?$AA?$AA@ 1007366c     libucrt:lcidtoname_downlevel.obj
 0002:00008678       ??_C@_11LOCGONAA@?$AA?$AA@ 10073678     libucrt:lcidtoname_downlevel.obj
 0002:0000867c       ??_C@_1M@OKAHONE@?$AAa?$AAr?$AA?9?$AAS?$AAA?$AA?$AA@ 1007367c     libucrt:lcidtoname_downlevel.obj
 0002:0000868c       ??_C@_1M@FFFIGIGK@?$AAb?$AAg?$AA?9?$AAB?$AAG?$AA?$AA@ 1007368c     libucrt:lcidtoname_downlevel.obj
 0002:0000869c       ??_C@_1M@BJNKEDC@?$AAc?$AAa?$AA?9?$AAE?$AAS?$AA?$AA@ 1007369c     libucrt:lcidtoname_downlevel.obj
 0002:000086ac       ??_C@_1M@IJJHFJHA@?$AAc?$AAs?$AA?9?$AAC?$AAZ?$AA?$AA@ 100736ac     libucrt:lcidtoname_downlevel.obj
 0002:000086bc       ??_C@_1M@CLPEOBGI@?$AAd?$AAa?$AA?9?$AAD?$AAK?$AA?$AA@ 100736bc     libucrt:lcidtoname_downlevel.obj
 0002:000086cc       ??_C@_1M@MCMADGCB@?$AAd?$AAe?$AA?9?$AAD?$AAE?$AA?$AA@ 100736cc     libucrt:lcidtoname_downlevel.obj
 0002:000086dc       ??_C@_1M@OOCKEMAM@?$AAe?$AAl?$AA?9?$AAG?$AAR?$AA?$AA@ 100736dc     libucrt:lcidtoname_downlevel.obj
 0002:000086ec       ??_C@_1M@DDNJFGID@?$AAf?$AAi?$AA?9?$AAF?$AAI?$AA?$AA@ 100736ec     libucrt:lcidtoname_downlevel.obj
 0002:000086fc       ??_C@_1M@GLIPPMAC@?$AAf?$AAr?$AA?9?$AAF?$AAR?$AA?$AA@ 100736fc     libucrt:lcidtoname_downlevel.obj
 0002:0000870c       ??_C@_1M@GFMCHPE@?$AAh?$AAe?$AA?9?$AAI?$AAL?$AA?$AA@ 1007370c     libucrt:lcidtoname_downlevel.obj
 0002:0000871c       ??_C@_1M@MHLPGNKM@?$AAh?$AAu?$AA?9?$AAH?$AAU?$AA?$AA@ 1007371c     libucrt:lcidtoname_downlevel.obj
 0002:0000872c       ??_C@_1M@LPDDNNPN@?$AAi?$AAs?$AA?9?$AAI?$AAS?$AA?$AA@ 1007372c     libucrt:lcidtoname_downlevel.obj
 0002:0000873c       ??_C@_1M@MADIPODN@?$AAi?$AAt?$AA?9?$AAI?$AAT?$AA?$AA@ 1007373c     libucrt:lcidtoname_downlevel.obj
 0002:0000874c       ??_C@_1M@IHBJJGG@?$AAn?$AAl?$AA?9?$AAN?$AAL?$AA?$AA@ 1007374c     libucrt:lcidtoname_downlevel.obj
 0002:0000875c       ??_C@_1M@EANAGDL@?$AAn?$AAb?$AA?9?$AAN?$AAO?$AA?$AA@ 1007375c     libucrt:lcidtoname_downlevel.obj
 0002:0000876c       ??_C@_1M@NEIEMEGP@?$AAp?$AAl?$AA?9?$AAP?$AAL?$AA?$AA@ 1007376c     libucrt:lcidtoname_downlevel.obj
 0002:0000877c       ??_C@_1M@BOCFIGEP@?$AAp?$AAt?$AA?9?$AAB?$AAR?$AA?$AA@ 1007377c     libucrt:lcidtoname_downlevel.obj
 0002:0000878c       ??_C@_1M@IMPFOPBG@?$AAr?$AAo?$AA?9?$AAR?$AAO?$AA?$AA@ 1007378c     libucrt:lcidtoname_downlevel.obj
 0002:0000879c       ??_C@_1M@IDNNEJMM@?$AAr?$AAu?$AA?9?$AAR?$AAU?$AA?$AA@ 1007379c     libucrt:lcidtoname_downlevel.obj
 0002:000087ac       ??_C@_1M@LILEEOGM@?$AAh?$AAr?$AA?9?$AAH?$AAR?$AA?$AA@ 100737ac     libucrt:lcidtoname_downlevel.obj
 0002:000087bc       ??_C@_1M@FKIFEHPB@?$AAs?$AAk?$AA?9?$AAS?$AAK?$AA?$AA@ 100737bc     libucrt:lcidtoname_downlevel.obj
 0002:000087cc       ??_C@_1M@LJMAMNPJ@?$AAs?$AAq?$AA?9?$AAA?$AAL?$AA?$AA@ 100737cc     libucrt:lcidtoname_downlevel.obj
 0002:000087dc       ??_C@_1M@GIAKDKJK@?$AAs?$AAv?$AA?9?$AAS?$AAE?$AA?$AA@ 100737dc     libucrt:lcidtoname_downlevel.obj
 0002:000087ec       ??_C@_1M@MKJKIKCL@?$AAt?$AAh?$AA?9?$AAT?$AAH?$AA?$AA@ 100737ec     libucrt:lcidtoname_downlevel.obj
 0002:000087fc       ??_C@_1M@MFLCCMPB@?$AAt?$AAr?$AA?9?$AAT?$AAR?$AA?$AA@ 100737fc     libucrt:lcidtoname_downlevel.obj
 0002:0000880c       ??_C@_1M@OIJHDKJN@?$AAu?$AAr?$AA?9?$AAP?$AAK?$AA?$AA@ 1007380c     libucrt:lcidtoname_downlevel.obj
 0002:0000881c       ??_C@_1M@LHIPCIEK@?$AAi?$AAd?$AA?9?$AAI?$AAD?$AA?$AA@ 1007381c     libucrt:lcidtoname_downlevel.obj
 0002:0000882c       ??_C@_1M@MFMOBGI@?$AAu?$AAk?$AA?9?$AAU?$AAA?$AA?$AA@ 1007382c     libucrt:lcidtoname_downlevel.obj
 0002:0000883c       ??_C@_1M@OBGLJIPL@?$AAb?$AAe?$AA?9?$AAB?$AAY?$AA?$AA@ 1007383c     libucrt:lcidtoname_downlevel.obj
 0002:0000884c       ??_C@_1M@BCFAJEAD@?$AAs?$AAl?$AA?9?$AAS?$AAI?$AA?$AA@ 1007384c     libucrt:lcidtoname_downlevel.obj
 0002:0000885c       ??_C@_1M@FKFFEDDN@?$AAe?$AAt?$AA?9?$AAE?$AAE?$AA?$AA@ 1007385c     libucrt:lcidtoname_downlevel.obj
 0002:0000886c       ??_C@_1M@KGKKAACI@?$AAl?$AAv?$AA?9?$AAL?$AAV?$AA?$AA@ 1007386c     libucrt:lcidtoname_downlevel.obj
 0002:0000887c       ??_C@_1M@IFGBIJO@?$AAl?$AAt?$AA?9?$AAL?$AAT?$AA?$AA@ 1007387c     libucrt:lcidtoname_downlevel.obj
 0002:0000888c       ??_C@_1M@FGEAHEDM@?$AAf?$AAa?$AA?9?$AAI?$AAR?$AA?$AA@ 1007388c     libucrt:lcidtoname_downlevel.obj
 0002:0000889c       ??_C@_1M@KBMAIBFN@?$AAv?$AAi?$AA?9?$AAV?$AAN?$AA?$AA@ 1007389c     libucrt:lcidtoname_downlevel.obj
 0002:000088ac       ??_C@_1M@GPCBKDJK@?$AAh?$AAy?$AA?9?$AAA?$AAM?$AA?$AA@ 100738ac     libucrt:lcidtoname_downlevel.obj
 0002:000088bc       ??_C@_1BG@BECMDDJB@?$AAa?$AAz?$AA?9?$AAA?$AAZ?$AA?9?$AAL?$AAa?$AAt?$AAn?$AA?$AA@ 100738bc     libucrt:lcidtoname_downlevel.obj
 0002:000088d8       ??_C@_1M@MAOFCAEA@?$AAe?$AAu?$AA?9?$AAE?$AAS?$AA?$AA@ 100738d8     libucrt:lcidtoname_downlevel.obj
 0002:000088e8       ??_C@_1M@IGHABKPI@?$AAm?$AAk?$AA?9?$AAM?$AAK?$AA?$AA@ 100738e8     libucrt:lcidtoname_downlevel.obj
 0002:000088f8       ??_C@_1M@IAIGNEJG@?$AAt?$AAn?$AA?9?$AAZ?$AAA?$AA?$AA@ 100738f8     libucrt:lcidtoname_downlevel.obj
 0002:00008908       ??_C@_1M@IIJCOJFA@?$AAx?$AAh?$AA?9?$AAZ?$AAA?$AA?$AA@ 10073908     libucrt:lcidtoname_downlevel.obj
 0002:00008918       ??_C@_1M@LGPJHNJH@?$AAz?$AAu?$AA?9?$AAZ?$AAA?$AA?$AA@ 10073918     libucrt:lcidtoname_downlevel.obj
 0002:00008928       ??_C@_1M@HOKAOIO@?$AAa?$AAf?$AA?9?$AAZ?$AAA?$AA?$AA@ 10073928     libucrt:lcidtoname_downlevel.obj
 0002:00008938       ??_C@_1M@DPCLHLIE@?$AAk?$AAa?$AA?9?$AAG?$AAE?$AA?$AA@ 10073938     libucrt:lcidtoname_downlevel.obj
 0002:00008948       ??_C@_1M@BLKMHJBI@?$AAf?$AAo?$AA?9?$AAF?$AAO?$AA?$AA@ 10073948     libucrt:lcidtoname_downlevel.obj
 0002:00008958       ??_C@_1M@LGGJAPPB@?$AAh?$AAi?$AA?9?$AAI?$AAN?$AA?$AA@ 10073958     libucrt:lcidtoname_downlevel.obj
 0002:00008968       ??_C@_1M@FIKPIHFE@?$AAm?$AAt?$AA?9?$AAM?$AAT?$AA?$AA@ 10073968     libucrt:lcidtoname_downlevel.obj
 0002:00008978       ??_C@_1M@HEGGPBFA@?$AAs?$AAe?$AA?9?$AAN?$AAO?$AA?$AA@ 10073978     libucrt:lcidtoname_downlevel.obj
 0002:00008988       ??_C@_1M@EIBJEEPA@?$AAm?$AAs?$AA?9?$AAM?$AAY?$AA?$AA@ 10073988     libucrt:lcidtoname_downlevel.obj
 0002:00008998       ??_C@_1M@FHLBGMPP@?$AAk?$AAk?$AA?9?$AAK?$AAZ?$AA?$AA@ 10073998     libucrt:lcidtoname_downlevel.obj
 0002:000089a8       ??_C@_1M@NGJJLCGI@?$AAk?$AAy?$AA?9?$AAK?$AAG?$AA?$AA@ 100739a8     libucrt:lcidtoname_downlevel.obj
 0002:000089b8       ??_C@_1M@GIENNBFC@?$AAs?$AAw?$AA?9?$AAK?$AAE?$AA?$AA@ 100739b8     libucrt:lcidtoname_downlevel.obj
 0002:000089c8       ??_C@_1BG@NDGMJIMJ@?$AAu?$AAz?$AA?9?$AAU?$AAZ?$AA?9?$AAL?$AAa?$AAt?$AAn?$AA?$AA@ 100739c8     libucrt:lcidtoname_downlevel.obj
 0002:000089e4       ??_C@_1M@IDCCIHBC@?$AAt?$AAt?$AA?9?$AAR?$AAU?$AA?$AA@ 100739e4     libucrt:lcidtoname_downlevel.obj
 0002:000089f4       ??_C@_1M@LOICPMOJ@?$AAb?$AAn?$AA?9?$AAI?$AAN?$AA?$AA@ 100739f4     libucrt:lcidtoname_downlevel.obj
 0002:00008a04       ??_C@_1M@KPKKNEAH@?$AAp?$AAa?$AA?9?$AAI?$AAN?$AA?$AA@ 10073a04     libucrt:lcidtoname_downlevel.obj
 0002:00008a14       ??_C@_1M@PJGPPBOG@?$AAg?$AAu?$AA?9?$AAI?$AAN?$AA?$AA@ 10073a14     libucrt:lcidtoname_downlevel.obj
 0002:00008a24       ??_C@_1M@KMKMOPHI@?$AAt?$AAa?$AA?9?$AAI?$AAN?$AA?$AA@ 10073a24     libucrt:lcidtoname_downlevel.obj
 0002:00008a34       ??_C@_1M@KFEHEPAC@?$AAt?$AAe?$AA?9?$AAI?$AAN?$AA?$AA@ 10073a34     libucrt:lcidtoname_downlevel.obj
 0002:00008a44       ??_C@_1M@CDCLMGHI@?$AAk?$AAn?$AA?9?$AAI?$AAN?$AA?$AA@ 10073a44     libucrt:lcidtoname_downlevel.obj
 0002:00008a54       ??_C@_1M@MIODLDKF@?$AAm?$AAl?$AA?9?$AAI?$AAN?$AA?$AA@ 10073a54     libucrt:lcidtoname_downlevel.obj
 0002:00008a64       ??_C@_1M@PBIEACPO@?$AAm?$AAr?$AA?9?$AAI?$AAN?$AA?$AA@ 10073a64     libucrt:lcidtoname_downlevel.obj
 0002:00008a74       ??_C@_1M@NIDEAGPH@?$AAs?$AAa?$AA?9?$AAI?$AAN?$AA?$AA@ 10073a74     libucrt:lcidtoname_downlevel.obj
 0002:00008a84       ??_C@_1M@FHIHCBIO@?$AAm?$AAn?$AA?9?$AAM?$AAN?$AA?$AA@ 10073a84     libucrt:lcidtoname_downlevel.obj
 0002:00008a94       ??_C@_1M@JAIJPENP@?$AAc?$AAy?$AA?9?$AAG?$AAB?$AA?$AA@ 10073a94     libucrt:lcidtoname_downlevel.obj
 0002:00008aa4       ??_C@_1M@PHGFBEPN@?$AAg?$AAl?$AA?9?$AAE?$AAS?$AA?$AA@ 10073aa4     libucrt:lcidtoname_downlevel.obj
 0002:00008ab4       ??_C@_1O@KPIPDNCP@?$AAk?$AAo?$AAk?$AA?9?$AAI?$AAN?$AA?$AA@ 10073ab4     libucrt:lcidtoname_downlevel.obj
 0002:00008ac4       ??_C@_1O@KNHJLDJA@?$AAs?$AAy?$AAr?$AA?9?$AAS?$AAY?$AA?$AA@ 10073ac4     libucrt:lcidtoname_downlevel.obj
 0002:00008ad4       ??_C@_1O@MKEKBLAH@?$AAd?$AAi?$AAv?$AA?9?$AAM?$AAV?$AA?$AA@ 10073ad4     libucrt:lcidtoname_downlevel.obj
 0002:00008ae4       ??_C@_1O@OHDCKDDF@?$AAq?$AAu?$AAz?$AA?9?$AAB?$AAO?$AA?$AA@ 10073ae4     libucrt:lcidtoname_downlevel.obj
 0002:00008af4       ??_C@_1M@LEPJNLFD@?$AAn?$AAs?$AA?9?$AAZ?$AAA?$AA?$AA@ 10073af4     libucrt:lcidtoname_downlevel.obj
 0002:00008b04       ??_C@_1M@OMLEIIJB@?$AAm?$AAi?$AA?9?$AAN?$AAZ?$AA?$AA@ 10073b04     libucrt:lcidtoname_downlevel.obj
 0002:00008b14       ??_C@_1M@PMPEAILG@?$AAa?$AAr?$AA?9?$AAI?$AAQ?$AA?$AA@ 10073b14     libucrt:lcidtoname_downlevel.obj
 0002:00008b24       ??_C@_1M@CNKPNOEE@?$AAd?$AAe?$AA?9?$AAC?$AAH?$AA?$AA@ 10073b24     libucrt:lcidtoname_downlevel.obj
 0002:00008b34       ??_C@_1M@LKMGMLKO@?$AAe?$AAn?$AA?9?$AAG?$AAB?$AA?$AA@ 10073b34     libucrt:lcidtoname_downlevel.obj
 0002:00008b44       ??_C@_1M@PGKJFFGL@?$AAe?$AAs?$AA?9?$AAM?$AAX?$AA?$AA@ 10073b44     libucrt:lcidtoname_downlevel.obj
 0002:00008b54       ??_C@_1M@DNNANBDC@?$AAf?$AAr?$AA?9?$AAB?$AAE?$AA?$AA@ 10073b54     libucrt:lcidtoname_downlevel.obj
 0002:00008b64       ??_C@_1M@HLGMDFHM@?$AAi?$AAt?$AA?9?$AAC?$AAH?$AA?$AA@ 10073b64     libucrt:lcidtoname_downlevel.obj
 0002:00008b74       ??_C@_1M@CLLBGJH@?$AAn?$AAl?$AA?9?$AAB?$AAE?$AA?$AA@ 10073b74     libucrt:lcidtoname_downlevel.obj
 0002:00008b84       ??_C@_1M@BODBOGLF@?$AAn?$AAn?$AA?9?$AAN?$AAO?$AA?$AA@ 10073b84     libucrt:lcidtoname_downlevel.obj
 0002:00008b94       ??_C@_1M@HFFAHKAD@?$AAp?$AAt?$AA?9?$AAP?$AAT?$AA?$AA@ 10073b94     libucrt:lcidtoname_downlevel.obj
 0002:00008ba4       ??_C@_1BG@LNOAKHIE@?$AAs?$AAr?$AA?9?$AAS?$AAP?$AA?9?$AAL?$AAa?$AAt?$AAn?$AA?$AA@ 10073ba4     libucrt:lcidtoname_downlevel.obj
 0002:00008bc0       ??_C@_1M@HBMHBGAK@?$AAs?$AAv?$AA?9?$AAF?$AAI?$AA?$AA@ 10073bc0     libucrt:lcidtoname_downlevel.obj
 0002:00008bd0       ??_C@_1BG@DGCJGJBE@?$AAa?$AAz?$AA?9?$AAA?$AAZ?$AA?9?$AAC?$AAy?$AAr?$AAl?$AA?$AA@ 10073bd0     libucrt:lcidtoname_downlevel.obj
 0002:00008bec       ??_C@_1M@KEJDAAHB@?$AAs?$AAe?$AA?9?$AAS?$AAE?$AA?$AA@ 10073bec     libucrt:lcidtoname_downlevel.obj
 0002:00008bfc       ??_C@_1M@HEIBJJAD@?$AAm?$AAs?$AA?9?$AAB?$AAN?$AA?$AA@ 10073bfc     libucrt:lcidtoname_downlevel.obj
 0002:00008c0c       ??_C@_1BG@PBGJMCEM@?$AAu?$AAz?$AA?9?$AAU?$AAZ?$AA?9?$AAC?$AAy?$AAr?$AAl?$AA?$AA@ 10073c0c     libucrt:lcidtoname_downlevel.obj
 0002:00008c28       ??_C@_1O@LAOBCMDF@?$AAq?$AAu?$AAz?$AA?9?$AAE?$AAC?$AA?$AA@ 10073c28     libucrt:lcidtoname_downlevel.obj
 0002:00008c38       ??_C@_1M@POEEMAIO@?$AAa?$AAr?$AA?9?$AAE?$AAG?$AA?$AA@ 10073c38     libucrt:lcidtoname_downlevel.obj
 0002:00008c48       ??_C@_1M@EFAKDEDL@?$AAz?$AAh?$AA?9?$AAH?$AAK?$AA?$AA@ 10073c48     libucrt:lcidtoname_downlevel.obj
 0002:00008c58       ??_C@_1M@HKKIJHGI@?$AAd?$AAe?$AA?9?$AAA?$AAT?$AA?$AA@ 10073c58     libucrt:lcidtoname_downlevel.obj
 0002:00008c68       ??_C@_1M@KBFBEHJF@?$AAe?$AAn?$AA?9?$AAA?$AAU?$AA?$AA@ 10073c68     libucrt:lcidtoname_downlevel.obj
 0002:00008c78       ??_C@_1M@MNPLFAAH@?$AAe?$AAs?$AA?9?$AAE?$AAS?$AA?$AA@ 10073c78     libucrt:lcidtoname_downlevel.obj
 0002:00008c88       ??_C@_1M@HJOOJFMA@?$AAf?$AAr?$AA?9?$AAC?$AAA?$AA?$AA@ 10073c88     libucrt:lcidtoname_downlevel.obj
 0002:00008c98       ??_C@_1BG@JPOFPNAB@?$AAs?$AAr?$AA?9?$AAS?$AAP?$AA?9?$AAC?$AAy?$AAr?$AAl?$AA?$AA@ 10073c98     libucrt:lcidtoname_downlevel.obj
 0002:00008cb4       ??_C@_1M@LNFOCMOB@?$AAs?$AAe?$AA?9?$AAF?$AAI?$AA?$AA@ 10073cb4     libucrt:lcidtoname_downlevel.obj
 0002:00008cc4       ??_C@_1O@MGJBOAMB@?$AAq?$AAu?$AAz?$AA?9?$AAP?$AAE?$AA?$AA@ 10073cc4     libucrt:lcidtoname_downlevel.obj
 0002:00008cd4       ??_C@_1M@GJINLBOK@?$AAa?$AAr?$AA?9?$AAL?$AAY?$AA?$AA@ 10073cd4     libucrt:lcidtoname_downlevel.obj
 0002:00008ce4       ??_C@_1M@GGMNHJNL@?$AAz?$AAh?$AA?9?$AAS?$AAG?$AA?$AA@ 10073ce4     libucrt:lcidtoname_downlevel.obj
 0002:00008cf4       ??_C@_1M@HOIKODND@?$AAd?$AAe?$AA?9?$AAL?$AAU?$AA?$AA@ 10073cf4     libucrt:lcidtoname_downlevel.obj
 0002:00008d04       ??_C@_1M@DDOCCGFG@?$AAe?$AAn?$AA?9?$AAC?$AAA?$AA?$AA@ 10073d04     libucrt:lcidtoname_downlevel.obj
 0002:00008d14       ??_C@_1M@BNOEMJLF@?$AAe?$AAs?$AA?9?$AAG?$AAT?$AA?$AA@ 10073d14     libucrt:lcidtoname_downlevel.obj
 0002:00008d24       ??_C@_1M@EOGNKEK@?$AAf?$AAr?$AA?9?$AAC?$AAH?$AA?$AA@ 10073d24     libucrt:lcidtoname_downlevel.obj
 0002:00008d34       ??_C@_1M@FLIDJFHL@?$AAh?$AAr?$AA?9?$AAB?$AAA?$AA?$AA@ 10073d34     libucrt:lcidtoname_downlevel.obj
 0002:00008d44       ??_C@_1O@FMCELNAJ@?$AAs?$AAm?$AAj?$AA?9?$AAN?$AAO?$AA?$AA@ 10073d44     libucrt:lcidtoname_downlevel.obj
 0002:00008d54       ??_C@_1M@JHGLJMGJ@?$AAa?$AAr?$AA?9?$AAD?$AAZ?$AA?$AA@ 10073d54     libucrt:lcidtoname_downlevel.obj
 0002:00008d64       ??_C@_1M@JKKFDCNP@?$AAz?$AAh?$AA?9?$AAM?$AAO?$AA?$AA@ 10073d64     libucrt:lcidtoname_downlevel.obj
 0002:00008d74       ??_C@_1M@GEEFALPE@?$AAd?$AAe?$AA?9?$AAL?$AAI?$AA?$AA@ 10073d74     libucrt:lcidtoname_downlevel.obj
 0002:00008d84       ??_C@_1M@IGEOFBG@?$AAe?$AAn?$AA?9?$AAN?$AAZ?$AA?$AA@ 10073d84     libucrt:lcidtoname_downlevel.obj
 0002:00008d94       ??_C@_1M@KDBONEHP@?$AAe?$AAs?$AA?9?$AAC?$AAR?$AA?$AA@ 10073d94     libucrt:lcidtoname_downlevel.obj
 0002:00008da4       ??_C@_1M@FHMDOHNN@?$AAf?$AAr?$AA?9?$AAL?$AAU?$AA?$AA@ 10073da4     libucrt:lcidtoname_downlevel.obj
 0002:00008db4       ??_C@_1BG@NFKKMAFG@?$AAb?$AAs?$AA?9?$AAB?$AAA?$AA?9?$AAL?$AAa?$AAt?$AAn?$AA?$AA@ 10073db4     libucrt:lcidtoname_downlevel.obj
 0002:00008dd0       ??_C@_1O@IMNBEMCI@?$AAs?$AAm?$AAj?$AA?9?$AAS?$AAE?$AA?$AA@ 10073dd0     libucrt:lcidtoname_downlevel.obj
 0002:00008de0       ??_C@_1M@DHHMBNDP@?$AAa?$AAr?$AA?9?$AAM?$AAA?$AA?$AA@ 10073de0     libucrt:lcidtoname_downlevel.obj
 0002:00008df0       ??_C@_1M@BNBLJCGH@?$AAe?$AAn?$AA?9?$AAI?$AAE?$AA?$AA@ 10073df0     libucrt:lcidtoname_downlevel.obj
 0002:00008e00       ??_C@_1M@GEPAFMDL@?$AAe?$AAs?$AA?9?$AAP?$AAA?$AA?$AA@ 10073e00     libucrt:lcidtoname_downlevel.obj
 0002:00008e10       ??_C@_1M@OJONDMDL@?$AAf?$AAr?$AA?9?$AAM?$AAC?$AA?$AA@ 10073e10     libucrt:lcidtoname_downlevel.obj
 0002:00008e20       ??_C@_1BG@OBCNFJB@?$AAs?$AAr?$AA?9?$AAB?$AAA?$AA?9?$AAL?$AAa?$AAt?$AAn?$AA?$AA@ 10073e20     libucrt:lcidtoname_downlevel.obj
 0002:00008e3c       ??_C@_1O@KEMEEGPO@?$AAs?$AAm?$AAa?$AA?9?$AAN?$AAO?$AA?$AA@ 10073e3c     libucrt:lcidtoname_downlevel.obj
 0002:00008e4c       ??_C@_1M@ELMGFODK@?$AAa?$AAr?$AA?9?$AAT?$AAN?$AA?$AA@ 10073e4c     libucrt:lcidtoname_downlevel.obj
 0002:00008e5c       ??_C@_1M@BHDLHFAF@?$AAe?$AAn?$AA?9?$AAZ?$AAA?$AA?$AA@ 10073e5c     libucrt:lcidtoname_downlevel.obj
 0002:00008e6c       ??_C@_1M@BMGIGLIF@?$AAe?$AAs?$AA?9?$AAD?$AAO?$AA?$AA@ 10073e6c     libucrt:lcidtoname_downlevel.obj
 0002:00008e7c       ??_C@_1BG@CMBHIPBE@?$AAs?$AAr?$AA?9?$AAB?$AAA?$AA?9?$AAC?$AAy?$AAr?$AAl?$AA?$AA@ 10073e7c     libucrt:lcidtoname_downlevel.obj
 0002:00008e98       ??_C@_1O@HEDBLHNP@?$AAs?$AAm?$AAa?$AA?9?$AAS?$AAE?$AA?$AA@ 10073e98     libucrt:lcidtoname_downlevel.obj
 0002:00008ea8       ??_C@_1M@DAGCADIM@?$AAa?$AAr?$AA?9?$AAO?$AAM?$AA?$AA@ 10073ea8     libucrt:lcidtoname_downlevel.obj
 0002:00008eb8       ??_C@_1M@FODLMICG@?$AAe?$AAn?$AA?9?$AAJ?$AAM?$AA?$AA@ 10073eb8     libucrt:lcidtoname_downlevel.obj
 0002:00008ec8       ??_C@_1M@DNMLCIHB@?$AAe?$AAs?$AA?9?$AAV?$AAE?$AA?$AA@ 10073ec8     libucrt:lcidtoname_downlevel.obj
 0002:00008ed8       ??_C@_1O@EOKHMKJK@?$AAs?$AAm?$AAs?$AA?9?$AAF?$AAI?$AA?$AA@ 10073ed8     libucrt:lcidtoname_downlevel.obj
 0002:00008ee8       ??_C@_1M@CAFJMKOF@?$AAa?$AAr?$AA?9?$AAY?$AAE?$AA?$AA@ 10073ee8     libucrt:lcidtoname_downlevel.obj
 0002:00008ef8       ??_C@_1M@CBFHIJLI@?$AAe?$AAn?$AA?9?$AAC?$AAB?$AA?$AA@ 10073ef8     libucrt:lcidtoname_downlevel.obj
 0002:00008f08       ??_C@_1M@BGNFLDN@?$AAe?$AAs?$AA?9?$AAC?$AAO?$AA?$AA@ 10073f08     libucrt:lcidtoname_downlevel.obj
 0002:00008f18       ??_C@_1O@JMPHMAMC@?$AAs?$AAm?$AAn?$AA?9?$AAF?$AAI?$AA?$AA@ 10073f18     libucrt:lcidtoname_downlevel.obj
 0002:00008f28       ??_C@_1M@JLANABKE@?$AAa?$AAr?$AA?9?$AAS?$AAY?$AA?$AA@ 10073f28     libucrt:lcidtoname_downlevel.obj
 0002:00008f38       ??_C@_1M@HPKGCFGN@?$AAe?$AAn?$AA?9?$AAB?$AAZ?$AA?$AA@ 10073f38     libucrt:lcidtoname_downlevel.obj
 0002:00008f48       ??_C@_1M@OLJCMLGM@?$AAe?$AAs?$AA?9?$AAP?$AAE?$AA?$AA@ 10073f48     libucrt:lcidtoname_downlevel.obj
 0002:00008f58       ??_C@_1M@MKKGFKLE@?$AAa?$AAr?$AA?9?$AAJ?$AAO?$AA?$AA@ 10073f58     libucrt:lcidtoname_downlevel.obj
 0002:00008f68       ??_C@_1M@EKPGLDNI@?$AAe?$AAn?$AA?9?$AAT?$AAT?$AA?$AA@ 10073f68     libucrt:lcidtoname_downlevel.obj
 0002:00008f78       ??_C@_1M@OONGHFHE@?$AAe?$AAs?$AA?9?$AAA?$AAR?$AA?$AA@ 10073f78     libucrt:lcidtoname_downlevel.obj
 0002:00008f88       ??_C@_1M@OOJFGBHE@?$AAa?$AAr?$AA?9?$AAL?$AAB?$AA?$AA@ 10073f88     libucrt:lcidtoname_downlevel.obj
 0002:00008f98       ??_C@_1M@GCEJHNEG@?$AAe?$AAn?$AA?9?$AAZ?$AAW?$AA?$AA@ 10073f98     libucrt:lcidtoname_downlevel.obj
 0002:00008fa8       ??_C@_1M@JNOCAHJI@?$AAe?$AAs?$AA?9?$AAE?$AAC?$AA?$AA@ 10073fa8     libucrt:lcidtoname_downlevel.obj
 0002:00008fb8       ??_C@_1M@JEFHPGGB@?$AAa?$AAr?$AA?9?$AAK?$AAW?$AA?$AA@ 10073fb8     libucrt:lcidtoname_downlevel.obj
 0002:00008fc8       ??_C@_1M@MLKIBJOJ@?$AAe?$AAn?$AA?9?$AAP?$AAH?$AA?$AA@ 10073fc8     libucrt:lcidtoname_downlevel.obj
 0002:00008fd8       ??_C@_1M@BDNIPEND@?$AAe?$AAs?$AA?9?$AAC?$AAL?$AA?$AA@ 10073fd8     libucrt:lcidtoname_downlevel.obj
 0002:00008fe8       ??_C@_1M@MPNMEKBD@?$AAa?$AAr?$AA?9?$AAA?$AAE?$AA?$AA@ 10073fe8     libucrt:lcidtoname_downlevel.obj
 0002:00008ff8       ??_C@_1M@KBJALCPI@?$AAe?$AAs?$AA?9?$AAU?$AAY?$AA?$AA@ 10073ff8     libucrt:lcidtoname_downlevel.obj
 0002:00009008       ??_C@_1M@LLCCOAGA@?$AAa?$AAr?$AA?9?$AAB?$AAH?$AA?$AA@ 10074008     libucrt:lcidtoname_downlevel.obj
 0002:00009018       ??_C@_1M@PBFNCDEL@?$AAe?$AAs?$AA?9?$AAP?$AAY?$AA?$AA@ 10074018     libucrt:lcidtoname_downlevel.obj
 0002:00009028       ??_C@_1M@EDGINPNP@?$AAa?$AAr?$AA?9?$AAQ?$AAA?$AA?$AA@ 10074028     libucrt:lcidtoname_downlevel.obj
 0002:00009038       ??_C@_1M@MKDBIIJI@?$AAe?$AAs?$AA?9?$AAB?$AAO?$AA?$AA@ 10074038     libucrt:lcidtoname_downlevel.obj
 0002:00009048       ??_C@_1M@CPKKEBLD@?$AAe?$AAs?$AA?9?$AAS?$AAV?$AA?$AA@ 10074048     libucrt:lcidtoname_downlevel.obj
 0002:00009058       ??_C@_1M@NDBGMMJL@?$AAe?$AAs?$AA?9?$AAH?$AAN?$AA?$AA@ 10074058     libucrt:lcidtoname_downlevel.obj
 0002:00009068       ??_C@_1M@JIJIBHDP@?$AAe?$AAs?$AA?9?$AAN?$AAI?$AA?$AA@ 10074068     libucrt:lcidtoname_downlevel.obj
 0002:00009078       ??_C@_1M@CGFMKEEK@?$AAe?$AAs?$AA?9?$AAP?$AAR?$AA?$AA@ 10074078     libucrt:lcidtoname_downlevel.obj
 0002:00009088       ??_C@_1O@ICJHKIIK@?$AAz?$AAh?$AA?9?$AAC?$AAH?$AAT?$AA?$AA@ 10074088     libucrt:lcidtoname_downlevel.obj
 0002:00009098       ??_C@_15CLNEJCE@?$AAs?$AAr?$AA?$AA@ 10074098     libucrt:lcidtoname_downlevel.obj
 0002:0000992c       ??_C@_1M@KAHEKEIG@?$AAa?$AAf?$AA?9?$AAz?$AAa?$AA?$AA@ 1007492c     libucrt:lcidtoname_downlevel.obj
 0002:0000993c       ??_C@_1M@GIECOABL@?$AAa?$AAr?$AA?9?$AAa?$AAe?$AA?$AA@ 1007493c     libucrt:lcidtoname_downlevel.obj
 0002:0000994c       ??_C@_1M@BMLMEKGI@?$AAa?$AAr?$AA?9?$AAb?$AAh?$AA?$AA@ 1007494c     libucrt:lcidtoname_downlevel.obj
 0002:0000995c       ??_C@_1M@DAPFDGGB@?$AAa?$AAr?$AA?9?$AAd?$AAz?$AA?$AA@ 1007495c     libucrt:lcidtoname_downlevel.obj
 0002:0000996c       ??_C@_1M@FJNKGKIG@?$AAa?$AAr?$AA?9?$AAe?$AAg?$AA?$AA@ 1007496c     libucrt:lcidtoname_downlevel.obj
 0002:0000997c       ??_C@_1M@FLGKKCLO@?$AAa?$AAr?$AA?9?$AAi?$AAq?$AA?$AA@ 1007497c     libucrt:lcidtoname_downlevel.obj
 0002:0000998c       ??_C@_1M@GNDIPALM@?$AAa?$AAr?$AA?9?$AAj?$AAo?$AA?$AA@ 1007498c     libucrt:lcidtoname_downlevel.obj
 0002:0000999c       ??_C@_1M@DDMJFMGJ@?$AAa?$AAr?$AA?9?$AAk?$AAw?$AA?$AA@ 1007499c     libucrt:lcidtoname_downlevel.obj
 0002:000099ac       ??_C@_1M@EJALMLHM@?$AAa?$AAr?$AA?9?$AAl?$AAb?$AA?$AA@ 100749ac     libucrt:lcidtoname_downlevel.obj
 0002:000099bc       ??_C@_1M@MOBDBLOC@?$AAa?$AAr?$AA?9?$AAl?$AAy?$AA?$AA@ 100749bc     libucrt:lcidtoname_downlevel.obj
 0002:000099cc       ??_C@_1M@JAOCLHDH@?$AAa?$AAr?$AA?9?$AAm?$AAa?$AA?$AA@ 100749cc     libucrt:lcidtoname_downlevel.obj
 0002:000099dc       ??_C@_1M@JHPMKJIE@?$AAa?$AAr?$AA?9?$AAo?$AAm?$AA?$AA@ 100749dc     libucrt:lcidtoname_downlevel.obj
 0002:000099ec       ??_C@_1M@OEPGHFNH@?$AAa?$AAr?$AA?9?$AAq?$AAa?$AA?$AA@ 100749ec     libucrt:lcidtoname_downlevel.obj
 0002:000099fc       ??_C@_1M@KJDONENM@?$AAa?$AAr?$AA?9?$AAs?$AAa?$AA?$AA@ 100749fc     libucrt:lcidtoname_downlevel.obj
 0002:00009a0c       ??_C@_1M@DMJDKLKM@?$AAa?$AAr?$AA?9?$AAs?$AAy?$AA?$AA@ 10074a0c     libucrt:lcidtoname_downlevel.obj
 0002:00009a1c       ??_C@_1M@OMFIPEDC@?$AAa?$AAr?$AA?9?$AAt?$AAn?$AA?$AA@ 10074a1c     libucrt:lcidtoname_downlevel.obj
 0002:00009a2c       ??_C@_1M@IHMHGAON@?$AAa?$AAr?$AA?9?$AAy?$AAe?$AA?$AA@ 10074a2c     libucrt:lcidtoname_downlevel.obj
 0002:00009a3c       ??_C@_1BG@KDCPGJGB@?$AAa?$AAz?$AA?9?$AAa?$AAz?$AA?9?$AAc?$AAy?$AAr?$AAl?$AA?$AA@ 10074a3c     libucrt:lcidtoname_downlevel.obj
 0002:00009a58       ??_C@_1BG@IBCKDDOE@?$AAa?$AAz?$AA?9?$AAa?$AAz?$AA?9?$AAl?$AAa?$AAt?$AAn?$AA?$AA@ 10074a58     libucrt:lcidtoname_downlevel.obj
 0002:00009a74       ??_C@_1M@EGPFDCPD@?$AAb?$AAe?$AA?9?$AAb?$AAy?$AA?$AA@ 10074a74     libucrt:lcidtoname_downlevel.obj
 0002:00009a84       ??_C@_1M@PCMGMCGC@?$AAb?$AAg?$AA?9?$AAb?$AAg?$AA?$AA@ 10074a84     libucrt:lcidtoname_downlevel.obj
 0002:00009a94       ??_C@_1M@BJBMFGOB@?$AAb?$AAn?$AA?9?$AAi?$AAn?$AA?$AA@ 10074a94     libucrt:lcidtoname_downlevel.obj
 0002:00009aa4       ??_C@_1BG@EAKMMACD@?$AAb?$AAs?$AA?9?$AAb?$AAa?$AA?9?$AAl?$AAa?$AAt?$AAn?$AA?$AA@ 10074aa4     libucrt:lcidtoname_downlevel.obj
 0002:00009ac0       ??_C@_1M@KGADAODK@?$AAc?$AAa?$AA?9?$AAe?$AAs?$AA?$AA@ 10074ac0     libucrt:lcidtoname_downlevel.obj
 0002:00009ad0       ??_C@_1M@COAJPDHI@?$AAc?$AAs?$AA?9?$AAc?$AAz?$AA?$AA@ 10074ad0     libucrt:lcidtoname_downlevel.obj
 0002:00009ae0       ??_C@_1M@DHBHFONH@?$AAc?$AAy?$AA?9?$AAg?$AAb?$AA?$AA@ 10074ae0     libucrt:lcidtoname_downlevel.obj
 0002:00009af0       ??_C@_1M@IMGKELGA@?$AAd?$AAa?$AA?9?$AAd?$AAk?$AA?$AA@ 10074af0     libucrt:lcidtoname_downlevel.obj
 0002:00009b00       ??_C@_1M@NNDGDNGA@?$AAd?$AAe?$AA?9?$AAa?$AAt?$AA?$AA@ 10074b00     libucrt:lcidtoname_downlevel.obj
 0002:00009b10       ??_C@_1M@IKDBHEEM@?$AAd?$AAe?$AA?9?$AAc?$AAh?$AA?$AA@ 10074b10     libucrt:lcidtoname_downlevel.obj
 0002:00009b20       ??_C@_1M@GFFOJMCJ@?$AAd?$AAe?$AA?9?$AAd?$AAe?$AA?$AA@ 10074b20     libucrt:lcidtoname_downlevel.obj
 0002:00009b30       ??_C@_1M@MDNLKBPM@?$AAd?$AAe?$AA?9?$AAl?$AAi?$AA?$AA@ 10074b30     libucrt:lcidtoname_downlevel.obj
 0002:00009b40       ??_C@_1M@NJBEEJNL@?$AAd?$AAe?$AA?9?$AAl?$AAu?$AA?$AA@ 10074b40     libucrt:lcidtoname_downlevel.obj
 0002:00009b50       ??_C@_1O@GNNELBAP@?$AAd?$AAi?$AAv?$AA?9?$AAm?$AAv?$AA?$AA@ 10074b50     libucrt:lcidtoname_downlevel.obj
 0002:00009b60       ??_C@_1M@EJLEOGAE@?$AAe?$AAl?$AA?9?$AAg?$AAr?$AA?$AA@ 10074b60     libucrt:lcidtoname_downlevel.obj
 0002:00009b70       ??_C@_1M@GMPONJN@?$AAe?$AAn?$AA?9?$AAa?$AAu?$AA?$AA@ 10074b70     libucrt:lcidtoname_downlevel.obj
 0002:00009b80       ??_C@_1M@NIDIIPGF@?$AAe?$AAn?$AA?9?$AAb?$AAz?$AA?$AA@ 10074b80     libucrt:lcidtoname_downlevel.obj
 0002:00009b90       ??_C@_1M@JEHMIMFO@?$AAe?$AAn?$AA?9?$AAc?$AAa?$AA?$AA@ 10074b90     libucrt:lcidtoname_downlevel.obj
 0002:00009ba0       ??_C@_1M@IGMJCDLA@?$AAe?$AAn?$AA?9?$AAc?$AAb?$AA?$AA@ 10074ba0     libucrt:lcidtoname_downlevel.obj
 0002:00009bb0       ??_C@_1M@BNFIGBKG@?$AAe?$AAn?$AA?9?$AAg?$AAb?$AA?$AA@ 10074bb0     libucrt:lcidtoname_downlevel.obj
 0002:00009bc0       ??_C@_1M@LKIFDIGP@?$AAe?$AAn?$AA?9?$AAi?$AAe?$AA?$AA@ 10074bc0     libucrt:lcidtoname_downlevel.obj
 0002:00009bd0       ??_C@_1M@PJKFGCCO@?$AAe?$AAn?$AA?9?$AAj?$AAm?$AA?$AA@ 10074bd0     libucrt:lcidtoname_downlevel.obj
 0002:00009be0       ??_C@_1M@KPPKEPBO@?$AAe?$AAn?$AA?9?$AAn?$AAz?$AA?$AA@ 10074be0     libucrt:lcidtoname_downlevel.obj
 0002:00009bf0       ??_C@_1M@GMDGLDOB@?$AAe?$AAn?$AA?9?$AAp?$AAh?$AA?$AA@ 10074bf0     libucrt:lcidtoname_downlevel.obj
 0002:00009c00       ??_C@_1M@ONGIBJNA@?$AAe?$AAn?$AA?9?$AAt?$AAt?$AA?$AA@ 10074c00     libucrt:lcidtoname_downlevel.obj
 0002:00009c10       ??_C@_1M@LLODPCMM@?$AAe?$AAn?$AA?9?$AAu?$AAs?$AA?$AA@ 10074c10     libucrt:lcidtoname_downlevel.obj
 0002:00009c20       ??_C@_1M@LAKFNPAN@?$AAe?$AAn?$AA?9?$AAz?$AAa?$AA?$AA@ 10074c20     libucrt:lcidtoname_downlevel.obj
 0002:00009c30       ??_C@_1M@MFNHNHEO@?$AAe?$AAn?$AA?9?$AAz?$AAw?$AA?$AA@ 10074c30     libucrt:lcidtoname_downlevel.obj
 0002:00009c40       ??_C@_1M@EJEINPHM@?$AAe?$AAs?$AA?9?$AAa?$AAr?$AA?$AA@ 10074c40     libucrt:lcidtoname_downlevel.obj
 0002:00009c50       ??_C@_1M@GNKPCCJA@?$AAe?$AAs?$AA?9?$AAb?$AAo?$AA?$AA@ 10074c50     libucrt:lcidtoname_downlevel.obj
 0002:00009c60       ??_C@_1M@LEEGFONL@?$AAe?$AAs?$AA?9?$AAc?$AAl?$AA?$AA@ 10074c60     libucrt:lcidtoname_downlevel.obj
 0002:00009c70       ??_C@_1M@KGPDPBDF@?$AAe?$AAs?$AA?9?$AAc?$AAo?$AA?$AA@ 10074c70     libucrt:lcidtoname_downlevel.obj
 0002:00009c80       ??_C@_1M@EIAHOHH@?$AAe?$AAs?$AA?9?$AAc?$AAr?$AA?$AA@ 10074c80     libucrt:lcidtoname_downlevel.obj
 0002:00009c90       ??_C@_1M@LLPGMBIN@?$AAe?$AAs?$AA?9?$AAd?$AAo?$AA?$AA@ 10074c90     libucrt:lcidtoname_downlevel.obj
 0002:00009ca0       ??_C@_1M@DKHMKNJA@?$AAe?$AAs?$AA?9?$AAe?$AAc?$AA?$AA@ 10074ca0     libucrt:lcidtoname_downlevel.obj
 0002:00009cb0       ??_C@_1M@GKGFPKAP@?$AAe?$AAs?$AA?9?$AAe?$AAs?$AA?$AA@ 10074cb0     libucrt:lcidtoname_downlevel.obj
 0002:00009cc0       ??_C@_1M@LKHKGDLN@?$AAe?$AAs?$AA?9?$AAg?$AAt?$AA?$AA@ 10074cc0     libucrt:lcidtoname_downlevel.obj
 0002:00009cd0       ??_C@_1M@HEIIGGJD@?$AAe?$AAs?$AA?9?$AAh?$AAn?$AA?$AA@ 10074cd0     libucrt:lcidtoname_downlevel.obj
 0002:00009ce0       ??_C@_1M@FBDHPPGD@?$AAe?$AAs?$AA?9?$AAm?$AAx?$AA?$AA@ 10074ce0     libucrt:lcidtoname_downlevel.obj
 0002:00009cf0       ??_C@_1M@DPAGLNDH@?$AAe?$AAs?$AA?9?$AAn?$AAi?$AA?$AA@ 10074cf0     libucrt:lcidtoname_downlevel.obj
 0002:00009d00       ??_C@_1M@MDGOPGDD@?$AAe?$AAs?$AA?9?$AAp?$AAa?$AA?$AA@ 10074d00     libucrt:lcidtoname_downlevel.obj
 0002:00009d10       ??_C@_1M@EMAMGBGE@?$AAe?$AAs?$AA?9?$AAp?$AAe?$AA?$AA@ 10074d10     libucrt:lcidtoname_downlevel.obj
 0002:00009d20       ??_C@_1M@IBMCAOEC@?$AAe?$AAs?$AA?9?$AAp?$AAr?$AA?$AA@ 10074d20     libucrt:lcidtoname_downlevel.obj
 0002:00009d30       ??_C@_1M@FGMDIJED@?$AAe?$AAs?$AA?9?$AAp?$AAy?$AA?$AA@ 10074d30     libucrt:lcidtoname_downlevel.obj
 0002:00009d40       ??_C@_1M@IIDEOLLL@?$AAe?$AAs?$AA?9?$AAs?$AAv?$AA?$AA@ 10074d40     libucrt:lcidtoname_downlevel.obj
 0002:00009d50       ??_C@_1M@GAOBIPA@?$AAe?$AAs?$AA?9?$AAu?$AAy?$AA?$AA@ 10074d50     libucrt:lcidtoname_downlevel.obj
 0002:00009d60       ??_C@_1M@JKFFICHJ@?$AAe?$AAs?$AA?9?$AAv?$AAe?$AA?$AA@ 10074d60     libucrt:lcidtoname_downlevel.obj
 0002:00009d70       ??_C@_1M@PNMLOJDF@?$AAe?$AAt?$AA?9?$AAe?$AAe?$AA?$AA@ 10074d70     libucrt:lcidtoname_downlevel.obj
 0002:00009d80       ??_C@_1M@GHHLIKEI@?$AAe?$AAu?$AA?9?$AAe?$AAs?$AA?$AA@ 10074d80     libucrt:lcidtoname_downlevel.obj
 0002:00009d90       ??_C@_1M@PBNONODE@?$AAf?$AAa?$AA?9?$AAi?$AAr?$AA?$AA@ 10074d90     libucrt:lcidtoname_downlevel.obj
 0002:00009da0       ??_C@_1M@JEEHPMIL@?$AAf?$AAi?$AA?9?$AAf?$AAi?$AA?$AA@ 10074da0     libucrt:lcidtoname_downlevel.obj
 0002:00009db0       ??_C@_1M@LMDCNDBA@?$AAf?$AAo?$AA?9?$AAf?$AAo?$AA?$AA@ 10074db0     libucrt:lcidtoname_downlevel.obj
 0002:00009dc0       ??_C@_1M@JKEOHLDK@?$AAf?$AAr?$AA?9?$AAb?$AAe?$AA?$AA@ 10074dc0     libucrt:lcidtoname_downlevel.obj
 0002:00009dd0       ??_C@_1M@NOHADPMI@?$AAf?$AAr?$AA?9?$AAc?$AAa?$AA?$AA@ 10074dd0     libucrt:lcidtoname_downlevel.obj
 0002:00009de0       ??_C@_1M@KDHIHAEC@?$AAf?$AAr?$AA?9?$AAc?$AAh?$AA?$AA@ 10074de0     libucrt:lcidtoname_downlevel.obj
 0002:00009df0       ??_C@_1M@MMBBFGAK@?$AAf?$AAr?$AA?9?$AAf?$AAr?$AA?$AA@ 10074df0     libucrt:lcidtoname_downlevel.obj
 0002:00009e00       ??_C@_1M@PAFNENNF@?$AAf?$AAr?$AA?9?$AAl?$AAu?$AA?$AA@ 10074e00     libucrt:lcidtoname_downlevel.obj
 0002:00009e10       ??_C@_1M@EOHDJGDD@?$AAf?$AAr?$AA?9?$AAm?$AAc?$AA?$AA@ 10074e10     libucrt:lcidtoname_downlevel.obj
 0002:00009e20       ??_C@_1M@FAPLLOPF@?$AAg?$AAl?$AA?9?$AAe?$AAs?$AA?$AA@ 10074e20     libucrt:lcidtoname_downlevel.obj
 0002:00009e30       ??_C@_1M@FOPBFLOO@?$AAg?$AAu?$AA?9?$AAi?$AAn?$AA?$AA@ 10074e30     libucrt:lcidtoname_downlevel.obj
 0002:00009e40       ??_C@_1M@KBMCINPM@?$AAh?$AAe?$AA?9?$AAi?$AAl?$AA?$AA@ 10074e40     libucrt:lcidtoname_downlevel.obj
 0002:00009e50       ??_C@_1M@BBPHKFPJ@?$AAh?$AAi?$AA?9?$AAi?$AAn?$AA?$AA@ 10074e50     libucrt:lcidtoname_downlevel.obj
 0002:00009e60       ??_C@_1M@PMBNDPHD@?$AAh?$AAr?$AA?9?$AAb?$AAa?$AA?$AA@ 10074e60     libucrt:lcidtoname_downlevel.obj
 0002:00009e70       ??_C@_1M@BPCKOEGE@?$AAh?$AAr?$AA?9?$AAh?$AAr?$AA?$AA@ 10074e70     libucrt:lcidtoname_downlevel.obj
 0002:00009e80       ??_C@_1M@GACBMHKE@?$AAh?$AAu?$AA?9?$AAh?$AAu?$AA?$AA@ 10074e80     libucrt:lcidtoname_downlevel.obj
 0002:00009e90       ??_C@_1M@MILPAJJC@?$AAh?$AAy?$AA?9?$AAa?$AAm?$AA?$AA@ 10074e90     libucrt:lcidtoname_downlevel.obj
 0002:00009ea0       ??_C@_1M@BABBICEC@?$AAi?$AAd?$AA?9?$AAi?$AAd?$AA?$AA@ 10074ea0     libucrt:lcidtoname_downlevel.obj
 0002:00009eb0       ??_C@_1M@BIKNHHPF@?$AAi?$AAs?$AA?9?$AAi?$AAs?$AA?$AA@ 10074eb0     libucrt:lcidtoname_downlevel.obj
 0002:00009ec0       ??_C@_1M@NMPCJPHE@?$AAi?$AAt?$AA?9?$AAc?$AAh?$AA?$AA@ 10074ec0     libucrt:lcidtoname_downlevel.obj
 0002:00009ed0       ??_C@_1M@GHKGFEDF@?$AAi?$AAt?$AA?9?$AAi?$AAt?$AA?$AA@ 10074ed0     libucrt:lcidtoname_downlevel.obj
 0002:00009ee0       ??_C@_1M@NIEJCJJA@?$AAj?$AAa?$AA?9?$AAj?$AAp?$AA?$AA@ 10074ee0     libucrt:lcidtoname_downlevel.obj
 0002:00009ef0       ??_C@_1M@JILFNBIM@?$AAk?$AAa?$AA?9?$AAg?$AAe?$AA?$AA@ 10074ef0     libucrt:lcidtoname_downlevel.obj
 0002:00009f00       ??_C@_1M@PACPMGPH@?$AAk?$AAk?$AA?9?$AAk?$AAz?$AA?$AA@ 10074f00     libucrt:lcidtoname_downlevel.obj
 0002:00009f10       ??_C@_1M@IELFGMHA@?$AAk?$AAn?$AA?9?$AAi?$AAn?$AA?$AA@ 10074f10     libucrt:lcidtoname_downlevel.obj
 0002:00009f20       ??_C@_1O@IBBJHCH@?$AAk?$AAo?$AAk?$AA?9?$AAi?$AAn?$AA?$AA@ 10074f20     libucrt:lcidtoname_downlevel.obj
 0002:00009f30       ??_C@_1M@DMHAEOGC@?$AAk?$AAo?$AA?9?$AAk?$AAr?$AA?$AA@ 10074f30     libucrt:lcidtoname_downlevel.obj
 0002:00009f40       ??_C@_1M@HBAHBIGA@?$AAk?$AAy?$AA?9?$AAk?$AAg?$AA?$AA@ 10074f40     libucrt:lcidtoname_downlevel.obj
 0002:00009f50       ??_C@_1M@KPMILCJG@?$AAl?$AAt?$AA?9?$AAl?$AAt?$AA?$AA@ 10074f50     libucrt:lcidtoname_downlevel.obj
 0002:00009f60       ??_C@_1M@BDEKKCA@?$AAl?$AAv?$AA?9?$AAl?$AAv?$AA?$AA@ 10074f60     libucrt:lcidtoname_downlevel.obj
 0002:00009f70       ??_C@_1M@ELCKCCJJ@?$AAm?$AAi?$AA?9?$AAn?$AAz?$AA?$AA@ 10074f70     libucrt:lcidtoname_downlevel.obj
 0002:00009f80       ??_C@_1M@CBOOLAPA@?$AAm?$AAk?$AA?9?$AAm?$AAk?$AA?$AA@ 10074f80     libucrt:lcidtoname_downlevel.obj
 0002:00009f90       ??_C@_1M@GPHNBJKN@?$AAm?$AAl?$AA?9?$AAi?$AAn?$AA?$AA@ 10074f90     libucrt:lcidtoname_downlevel.obj
 0002:00009fa0       ??_C@_1M@PABJILIG@?$AAm?$AAn?$AA?9?$AAm?$AAn?$AA?$AA@ 10074fa0     libucrt:lcidtoname_downlevel.obj
 0002:00009fb0       ??_C@_1M@FGBKKIPG@?$AAm?$AAr?$AA?9?$AAi?$AAn?$AA?$AA@ 10074fb0     libucrt:lcidtoname_downlevel.obj
 0002:00009fc0       ??_C@_1M@NDBPDDAL@?$AAm?$AAs?$AA?9?$AAb?$AAn?$AA?$AA@ 10074fc0     libucrt:lcidtoname_downlevel.obj
 0002:00009fd0       ??_C@_1M@OPIHOOPI@?$AAm?$AAs?$AA?9?$AAm?$AAy?$AA?$AA@ 10074fd0     libucrt:lcidtoname_downlevel.obj
 0002:00009fe0       ??_C@_1M@PPDBCNFM@?$AAm?$AAt?$AA?9?$AAm?$AAt?$AA?$AA@ 10074fe0     libucrt:lcidtoname_downlevel.obj
 0002:00009ff0       ??_C@_1M@KDJDKMDD@?$AAn?$AAb?$AA?9?$AAn?$AAo?$AA?$AA@ 10074ff0     libucrt:lcidtoname_downlevel.obj
 0002:0000a000       ??_C@_1M@KFCFLMJP@?$AAn?$AAl?$AA?9?$AAb?$AAe?$AA?$AA@ 10075000     libucrt:lcidtoname_downlevel.obj
 0002:0000a010       ??_C@_1M@KPOPDDGO@?$AAn?$AAl?$AA?9?$AAn?$AAl?$AA?$AA@ 10075010     libucrt:lcidtoname_downlevel.obj
 0002:0000a020       ??_C@_1M@LJKPEMLN@?$AAn?$AAn?$AA?9?$AAn?$AAo?$AA?$AA@ 10075020     libucrt:lcidtoname_downlevel.obj
 0002:0000a030       ??_C@_1M@BDGHHBFL@?$AAn?$AAs?$AA?9?$AAz?$AAa?$AA?$AA@ 10075030     libucrt:lcidtoname_downlevel.obj
 0002:0000a040       ??_C@_1M@IDEHOAP@?$AAp?$AAa?$AA?9?$AAi?$AAn?$AA?$AA@ 10075040     libucrt:lcidtoname_downlevel.obj
 0002:0000a050       ??_C@_1M@HDBKGOGH@?$AAp?$AAl?$AA?9?$AAp?$AAl?$AA?$AA@ 10075050     libucrt:lcidtoname_downlevel.obj
 0002:0000a060       ??_C@_1M@LJLLCMEH@?$AAp?$AAt?$AA?9?$AAb?$AAr?$AA?$AA@ 10075060     libucrt:lcidtoname_downlevel.obj
 0002:0000a070       ??_C@_1M@NCMONAAL@?$AAp?$AAt?$AA?9?$AAp?$AAt?$AA?$AA@ 10075070     libucrt:lcidtoname_downlevel.obj
 0002:0000a080       ??_C@_1O@EAKMAJDN@?$AAq?$AAu?$AAz?$AA?9?$AAb?$AAo?$AA?$AA@ 10075080     libucrt:lcidtoname_downlevel.obj
 0002:0000a090       ??_C@_1O@BHHPIGDN@?$AAq?$AAu?$AAz?$AA?9?$AAe?$AAc?$AA?$AA@ 10075090     libucrt:lcidtoname_downlevel.obj
 0002:0000a0a0       ??_C@_1O@GBAPEKMJ@?$AAq?$AAu?$AAz?$AA?9?$AAp?$AAe?$AA?$AA@ 100750a0     libucrt:lcidtoname_downlevel.obj
 0002:0000a0b0       ??_C@_1M@CLGLEFBO@?$AAr?$AAo?$AA?9?$AAr?$AAo?$AA?$AA@ 100750b0     libucrt:lcidtoname_downlevel.obj
 0002:0000a0c0       ??_C@_1M@CEEDODME@?$AAr?$AAu?$AA?9?$AAr?$AAu?$AA?$AA@ 100750c0     libucrt:lcidtoname_downlevel.obj
 0002:0000a0d0       ??_C@_1M@HPKKKMPP@?$AAs?$AAa?$AA?9?$AAi?$AAn?$AA?$AA@ 100750d0     libucrt:lcidtoname_downlevel.obj
 0002:0000a0e0       ??_C@_1M@BKMAIGOJ@?$AAs?$AAe?$AA?9?$AAf?$AAi?$AA?$AA@ 100750e0     libucrt:lcidtoname_downlevel.obj
 0002:0000a0f0       ??_C@_1M@NDPIFLFI@?$AAs?$AAe?$AA?9?$AAn?$AAo?$AA?$AA@ 100750f0     libucrt:lcidtoname_downlevel.obj
 0002:0000a100       ??_C@_1M@DANKKHJ@?$AAs?$AAe?$AA?9?$AAs?$AAe?$AA?$AA@ 10075100     libucrt:lcidtoname_downlevel.obj
 0002:0000a110       ??_C@_1M@PNBLONPJ@?$AAs?$AAk?$AA?9?$AAs?$AAk?$AA?$AA@ 10075110     libucrt:lcidtoname_downlevel.obj
 0002:0000a120       ??_C@_1M@LFMODOAL@?$AAs?$AAl?$AA?9?$AAs?$AAi?$AA?$AA@ 10075120     libucrt:lcidtoname_downlevel.obj
 0002:0000a130       ??_C@_1O@DFKOMPG@?$AAs?$AAm?$AAa?$AA?9?$AAn?$AAo?$AA?$AA@ 10075130     libucrt:lcidtoname_downlevel.obj
 0002:0000a140       ??_C@_1O@NDKPBNNH@?$AAs?$AAm?$AAa?$AA?9?$AAs?$AAe?$AA?$AA@ 10075140     libucrt:lcidtoname_downlevel.obj
 0002:0000a150       ??_C@_1O@PLLKBHAB@?$AAs?$AAm?$AAj?$AA?9?$AAn?$AAo?$AA?$AA@ 10075150     libucrt:lcidtoname_downlevel.obj
 0002:0000a160       ??_C@_1O@CLEPOGCA@?$AAs?$AAm?$AAj?$AA?9?$AAs?$AAe?$AA?$AA@ 10075160     libucrt:lcidtoname_downlevel.obj
 0002:0000a170       ??_C@_1O@DLGJGKMK@?$AAs?$AAm?$AAn?$AA?9?$AAf?$AAi?$AA?$AA@ 10075170     libucrt:lcidtoname_downlevel.obj
 0002:0000a180       ??_C@_1O@OJDJGAJC@?$AAs?$AAm?$AAs?$AA?9?$AAf?$AAi?$AA?$AA@ 10075180     libucrt:lcidtoname_downlevel.obj
 0002:0000a190       ??_C@_1M@BOFOGHPB@?$AAs?$AAq?$AA?9?$AAa?$AAl?$AA?$AA@ 10075190     libucrt:lcidtoname_downlevel.obj
 0002:0000a1a0       ??_C@_1BG@LJBBIPGB@?$AAs?$AAr?$AA?9?$AAb?$AAa?$AA?9?$AAc?$AAy?$AAr?$AAl?$AA?$AA@ 100751a0     libucrt:lcidtoname_downlevel.obj
 0002:0000a1bc       ??_C@_1BG@JLBENFOE@?$AAs?$AAr?$AA?9?$AAb?$AAa?$AA?9?$AAl?$AAa?$AAt?$AAn?$AA?$AA@ 100751bc     libucrt:lcidtoname_downlevel.obj
 0002:0000a1d8       ??_C@_1BG@KODPNHE@?$AAs?$AAr?$AA?9?$AAs?$AAp?$AA?9?$AAc?$AAy?$AAr?$AAl?$AA?$AA@ 100751d8     libucrt:lcidtoname_downlevel.obj
 0002:0000a1f4       ??_C@_1BG@CIOGKHPB@?$AAs?$AAr?$AA?9?$AAs?$AAp?$AA?9?$AAl?$AAa?$AAt?$AAn?$AA?$AA@ 100751f4     libucrt:lcidtoname_downlevel.obj
 0002:0000a210       ??_C@_1M@NGFJLMAC@?$AAs?$AAv?$AA?9?$AAf?$AAi?$AA?$AA@ 10075210     libucrt:lcidtoname_downlevel.obj
 0002:0000a220       ??_C@_1M@MPJEJAJC@?$AAs?$AAv?$AA?9?$AAs?$AAe?$AA?$AA@ 10075220     libucrt:lcidtoname_downlevel.obj
 0002:0000a230       ??_C@_1M@MPNDHLFK@?$AAs?$AAw?$AA?9?$AAk?$AAe?$AA?$AA@ 10075230     libucrt:lcidtoname_downlevel.obj
 0002:0000a240       ??_C@_1O@KOHBJJI@?$AAs?$AAy?$AAr?$AA?9?$AAs?$AAy?$AA?$AA@ 10075240     libucrt:lcidtoname_downlevel.obj
 0002:0000a250       ??_C@_1M@LDCEFHA@?$AAt?$AAa?$AA?9?$AAi?$AAn?$AA?$AA@ 10075250     libucrt:lcidtoname_downlevel.obj
 0002:0000a260       ??_C@_1M@CNJOFAK@?$AAt?$AAe?$AA?9?$AAi?$AAn?$AA?$AA@ 10075260     libucrt:lcidtoname_downlevel.obj
 0002:0000a270       ??_C@_1M@GNAECACD@?$AAt?$AAh?$AA?9?$AAt?$AAh?$AA?$AA@ 10075270     libucrt:lcidtoname_downlevel.obj
 0002:0000a280       ??_C@_1M@CHBIHOJO@?$AAt?$AAn?$AA?9?$AAz?$AAa?$AA?$AA@ 10075280     libucrt:lcidtoname_downlevel.obj
 0002:0000a290       ??_C@_1M@GCCMIGPJ@?$AAt?$AAr?$AA?9?$AAt?$AAr?$AA?$AA@ 10075290     libucrt:lcidtoname_downlevel.obj
 0002:0000a2a0       ??_C@_1M@CELMCNBK@?$AAt?$AAt?$AA?9?$AAr?$AAu?$AA?$AA@ 100752a0     libucrt:lcidtoname_downlevel.obj
 0002:0000a2b0       ??_C@_1M@KLMCELGA@?$AAu?$AAk?$AA?9?$AAu?$AAa?$AA?$AA@ 100752b0     libucrt:lcidtoname_downlevel.obj
 0002:0000a2c0       ??_C@_1M@EPAJJAJF@?$AAu?$AAr?$AA?9?$AAp?$AAk?$AA?$AA@ 100752c0     libucrt:lcidtoname_downlevel.obj
 0002:0000a2d0       ??_C@_1BG@GEGPMCDJ@?$AAu?$AAz?$AA?9?$AAu?$AAz?$AA?9?$AAc?$AAy?$AAr?$AAl?$AA?$AA@ 100752d0     libucrt:lcidtoname_downlevel.obj
 0002:0000a2ec       ??_C@_1BG@EGGKJILM@?$AAu?$AAz?$AA?9?$AAu?$AAz?$AA?9?$AAl?$AAa?$AAt?$AAn?$AA?$AA@ 100752ec     libucrt:lcidtoname_downlevel.obj
 0002:0000a308       ??_C@_1M@GFOCLFF@?$AAv?$AAi?$AA?9?$AAv?$AAn?$AA?$AA@ 10075308     libucrt:lcidtoname_downlevel.obj
 0002:0000a318       ??_C@_1M@CPAMEDFI@?$AAx?$AAh?$AA?9?$AAz?$AAa?$AA?$AA@ 10075318     libucrt:lcidtoname_downlevel.obj
 0002:0000a328       ??_C@_1O@EBKIFIGN@?$AAz?$AAh?$AA?9?$AAc?$AAh?$AAs?$AA?$AA@ 10075328     libucrt:lcidtoname_downlevel.obj
 0002:0000a338       ??_C@_1O@NMHPGANE@?$AAz?$AAh?$AA?9?$AAc?$AAh?$AAt?$AA?$AA@ 10075338     libucrt:lcidtoname_downlevel.obj
 0002:0000a348       ??_C@_1M@LPINJOMC@?$AAz?$AAh?$AA?9?$AAc?$AAn?$AA?$AA@ 10075348     libucrt:lcidtoname_downlevel.obj
 0002:0000a358       ??_C@_1M@OCJEJODD@?$AAz?$AAh?$AA?9?$AAh?$AAk?$AA?$AA@ 10075358     libucrt:lcidtoname_downlevel.obj
 0002:0000a368       ??_C@_1M@DNDLJINH@?$AAz?$AAh?$AA?9?$AAm?$AAo?$AA?$AA@ 10075368     libucrt:lcidtoname_downlevel.obj
 0002:0000a378       ??_C@_1M@MBFDNDND@?$AAz?$AAh?$AA?9?$AAs?$AAg?$AA?$AA@ 10075378     libucrt:lcidtoname_downlevel.obj
 0002:0000a388       ??_C@_1M@IMEPLEPE@?$AAz?$AAh?$AA?9?$AAt?$AAw?$AA?$AA@ 10075388     libucrt:lcidtoname_downlevel.obj
 0002:0000a398       ??_C@_1M@BBGHNHJP@?$AAz?$AAu?$AA?9?$AAz?$AAa?$AA?$AA@ 10075398     libucrt:lcidtoname_downlevel.obj
 0002:0000a3a8       ?large_power_data@?1??multiply_by_power_of_ten@__crt_strtox@@YA_NAAUbig_integer@2@I@Z@4QBIB 100753a8     libucrt:cfout.obj
 0002:0000ae80       ?large_power_indices@?1??multiply_by_power_of_ten@__crt_strtox@@YA_NAAUbig_integer@2@I@Z@4QBUunpack_index@?1??12@YA_N0I@Z@B 10075e80     libucrt:cfout.obj
 0002:0000af38       ?small_powers_of_ten@?1??multiply_by_power_of_ten@__crt_strtox@@YA_NAAUbig_integer@2@I@Z@4QBIB 10075f38     libucrt:cfout.obj
 0002:0000af64       ??_C@_01GBGANLPD@0?$AA@    10075f64     libucrt:cfout.obj
 0002:0000af68       ??_C@_05DNEBIAHO@1?$CDINF?$AA@ 10075f68     libucrt:cfout.obj
 0002:0000af70       ??_C@_06IMKFLFPG@1?$CDQNAN?$AA@ 10075f70     libucrt:cfout.obj
 0002:0000af78       ??_C@_06PGGFOGJG@1?$CDSNAN?$AA@ 10075f78     libucrt:cfout.obj
 0002:0000af80       ??_C@_05PHHOCPM@1?$CDIND?$AA@ 10075f80     libucrt:cfout.obj
 0002:0000af88       ___acrt_rg_language        10075f88     libucrt:get_qualified_locale.obj
 0002:0000b330       ___acrt_rg_language_count  10076330     libucrt:get_qualified_locale.obj
 0002:0000b338       ___acrt_rg_country         10076338     libucrt:get_qualified_locale.obj
 0002:0000b484       ___acrt_rg_country_count   10076484     libucrt:get_qualified_locale.obj
 0002:0000b488       ??_C@_1BC@LLOKLNP@?$AAa?$AAm?$AAe?$AAr?$AAi?$AAc?$AAa?$AAn?$AA?$AA@ 10076488     libucrt:get_qualified_locale.obj
 0002:0000b4a0       ??_C@_1CC@HEIGCDGG@?$AAa?$AAm?$AAe?$AAr?$AAi?$AAc?$AAa?$AAn?$AA?5?$AAe?$AAn?$AAg?$AAl?$AAi?$AAs?$AAh?$AA?$AA@ 100764a0     libucrt:get_qualified_locale.obj
 0002:0000b4c8       ??_C@_1CC@IHCNOMIN@?$AAa?$AAm?$AAe?$AAr?$AAi?$AAc?$AAa?$AAn?$AA?9?$AAe?$AAn?$AAg?$AAl?$AAi?$AAs?$AAh?$AA?$AA@ 100764c8     libucrt:get_qualified_locale.obj
 0002:0000b4f0       ??_C@_1BG@GKAGPCGG@?$AAa?$AAu?$AAs?$AAt?$AAr?$AAa?$AAl?$AAi?$AAa?$AAn?$AA?$AA@ 100764f0     libucrt:get_qualified_locale.obj
 0002:0000b50c       ??_C@_1BA@GMENCENF@?$AAb?$AAe?$AAl?$AAg?$AAi?$AAa?$AAn?$AA?$AA@ 1007650c     libucrt:get_qualified_locale.obj
 0002:0000b520       ??_C@_1BC@PJMIIAAN@?$AAc?$AAa?$AAn?$AAa?$AAd?$AAi?$AAa?$AAn?$AA?$AA@ 10076520     libucrt:get_qualified_locale.obj
 0002:0000b538       ??_C@_17NOIMNFBF@?$AAc?$AAh?$AAh?$AA?$AA@ 10076538     libucrt:get_qualified_locale.obj
 0002:0000b544       ??_C@_17GGDALCHA@?$AAc?$AAh?$AAi?$AA?$AA@ 10076544     libucrt:get_qualified_locale.obj
 0002:0000b550       ??_C@_1BA@NPNJKIBL@?$AAc?$AAh?$AAi?$AAn?$AAe?$AAs?$AAe?$AA?$AA@ 10076550     libucrt:get_qualified_locale.obj
 0002:0000b564       ??_C@_1CC@DINBAMMJ@?$AAc?$AAh?$AAi?$AAn?$AAe?$AAs?$AAe?$AA?9?$AAh?$AAo?$AAn?$AAg?$AAk?$AAo?$AAn?$AAg?$AA?$AA@ 10076564     libucrt:get_qualified_locale.obj
