 modified_motor_slrt

 Timestamp is 5e6af63e (Thu Mar 12 22:55:58 2020)

 Preferred load address is 10000000

 Start         Length     Name                   Class
 0001:00000000 0006c19cH .text$mn                CODE
 0001:0006c19c 0000105aH .text$x                 CODE
 0002:00000000 00000104H .CRT$XCA                DATA
 0002:00000104 00000104H .CRT$XCZ                DATA
 0002:00000208 00000104H .CRT$XIA                DATA
 0002:0000030c 00000110H .CRT$XIC                DATA
 0002:0000041c 00000104H .CRT$XIZ                DATA
 0002:00000520 00000104H .CRT$XPA                DATA
 0002:00000624 0000010cH .CRT$XPX                DATA
 0002:00000730 00000104H .CRT$XPXA               DATA
 0002:00000834 00000104H .CRT$XPZ                DATA
 0002:00000938 00000104H .CRT$XTA                DATA
 0002:00000a3c 00000104H .CRT$XTZ                DATA
 0002:00000b40 0000f924H .rdata                  DATA
 0002:00010464 0000044cH .rdata$r                DATA
 0002:000108b0 00000124H .rdata$sxdata           DATA
 0002:000109d4 000001b8H .rdata$zzzdbg           DATA
 0002:00010b8c 00000104H .rtc$IAA                DATA
 0002:00010c90 00000104H .rtc$IZZ                DATA
 0002:00010d94 00000104H .rtc$TAA                DATA
 0002:00010e98 00000108H .rtc$TZZ                DATA
 0002:00010fa0 00000cd0H .xdata$x                DATA
 0002:00011c70 000001e8H .edata                  DATA
 0003:00000000 000012f0H .data                   DATA
 0003:000012f0 00000250H .data$r                 DATA
 0003:00001540 00015604H .bss                    DATA
 0004:00000000 000001b4H .idata$5                DATA
 0004:000001b4 00000014H .idata$2                DATA
 0004:000001c8 00000014H .idata$3                DATA
 0004:000001dc 000001b4H .idata$4                DATA
 0004:00000390 000007a2H .idata$6                DATA
 0005:00000000 00000311H .gfids$y                DATA
 0006:00000000 00000104H .00cfg                  DATA

  Address         Publics by Value              Rva+Base       Lib:Object

 0000:00000000       ___guard_longjmp_table     00000000     <absolute>
 0000:00000000       __except_list              00000000     <absolute>
 0000:00000000       ___dynamic_value_reloc_table 00000000     <absolute>
 0000:00000000       ___guard_iat_table         00000000     <absolute>
 0000:00000000       ___guard_fids_count        00000000     <absolute>
 0000:00000000       ___guard_iat_count         00000000     <absolute>
 0000:00000000       ___guard_longjmp_count     00000000     <absolute>
 0000:00000000       ___guard_fids_table        00000000     <absolute>
 0000:00000007       ___safe_se_handler_count   00000007     <absolute>
 0000:00000100       ___guard_flags             00000100     <absolute>
 0000:00000000       ___ImageBase               10000000     <linker-defined>
 0001:00006370       _MdlInitialize             10007370 f   modified_motor.obj
 0001:00006380       _MdlInitializeSampleTimes  10007380 f   modified_motor.obj
 0001:00006390       _MdlInitializeSizes        10007390 f   modified_motor.obj
 0001:000063a0       _MdlOutputs                100073a0 f   modified_motor.obj
 0001:000063d0       _MdlStart                  100073d0 f   modified_motor.obj
 0001:000063e0       _MdlTerminate              100073e0 f   modified_motor.obj
 0001:00006410       _MdlUpdate                 10007410 f   modified_motor.obj
 0001:00006440       ___local_stdio_printf_options 10007440 f i modified_motor.obj
 0001:00006450       __vfprintf_l               10007450 f i modified_motor.obj
 0001:00006680       _modified_motor            10007680 f   modified_motor.obj
 0001:00007120       _modified_motor_derivatives 10008120 f   modified_motor.obj
 0001:00007170       _modified_motor_initialize 10008170 f   modified_motor.obj
 0001:00007de0       _modified_motor_output     10008de0 f   modified_motor.obj
 0001:00007e10       _modified_motor_output0    10008e10 f   modified_motor.obj
 0001:00008a00       _modified_motor_output2    10009a00 f   modified_motor.obj
 0001:000095b0       _modified_motor_terminate  1000a5b0 f   modified_motor.obj
 0001:000095e0       _modified_motor_update     1000a5e0 f   modified_motor.obj
 0001:00009610       _modified_motor_update0    1000a610 f   modified_motor.obj
 0001:00009760       _modified_motor_update2    1000a760 f   modified_motor.obj
 0001:00009810       _printf                    1000a810 f i modified_motor.obj
 0001:000098b0       _rt_ODECreateIntegrationData 1000a8b0 f   modified_motor.obj
 0001:000098c0       _rt_ODEDestroyIntegrationData 1000a8c0 f   modified_motor.obj
 0001:000098d0       _rt_ODEUpdateContinuousStates 1000a8d0 f   modified_motor.obj
 0001:000098e0       _rt_SimUpdateDiscreteEvents 1000a8e0 f   modified_motor.obj
 0001:00009d30       _rt_mxCreateCharMatrixFromStrings 1000ad30 f   rt_matrx.obj
 0001:00009e90       _rt_mxCreateDoubleMatrix   1000ae90 f   rt_matrx.obj
 0001:00009ef0       _rt_mxCreateNumericArray   1000aef0 f   rt_matrx.obj
 0001:00009f70       _rt_mxCreateString         1000af70 f   rt_matrx.obj
 0001:0000a000       _rt_mxDuplicateArray       1000b000 f   rt_matrx.obj
 0001:0000a060       _rt_mxGetDimensions        1000b060 f   rt_matrx.obj
 0001:0000a0a0       _rt_mxGetEps               1000b0a0 f   rt_matrx.obj
 0001:0000a0b0       _rt_mxGetString            1000b0b0 f   rt_matrx.obj
 0001:0000a130       _rtPrintfNoOp              1000b130 f   rt_printf.obj
 0001:0000a140       _modified_motor_GetCAPIStaticMap 1000b140 f   modified_motor_capi.obj
 0001:0000a150       _modified_motor_InitializeDataMapInfo 1000b150 f   modified_motor_capi.obj
 0001:0000a1e0       _rtGetInf                  1000b1e0 f   rtGetInf.obj
 0001:0000a210       _rtGetInfF                 1000b210 f   rtGetInf.obj
 0001:0000a230       _rtGetMinusInf             1000b230 f   rtGetInf.obj
 0001:0000a260       _rtGetMinusInfF            1000b260 f   rtGetInf.obj
 0001:0000a280       _rtGetNaN                  1000b280 f   rtGetNaN.obj
 0001:0000a2b0       _rtGetNaNF                 1000b2b0 f   rtGetNaN.obj
 0001:0000a2d0       _rtIsInf                   1000b2d0 f   rt_nonfinite.obj
 0001:0000a310       _rtIsInfF                  1000b310 f   rt_nonfinite.obj
 0001:0000a350       _rtIsNaN                   1000b350 f   rt_nonfinite.obj
 0001:0000a370       _rtIsNaNF                  1000b370 f   rt_nonfinite.obj
 0001:0000a390       _rt_InitInfAndNaN          1000b390 f   rt_nonfinite.obj
 0001:0000a3f0       _rt_ZCFcn                  1000b3f0 f   rt_zcfcn.obj
 0001:0000a4b0       _rt_CleanUpForStateLogWithMMI 1000b4b0 f   rt_logging_mmi.obj
 0001:0000a5c0       _rt_FillStateSigInfoFromMMI 1000b5c0 f   rt_logging_mmi.obj
 0001:0000a960       _rtwCAPI_CountSysRan       1000b960 f   rtw_modelmap_utils.obj
 0001:0000aa00       _rtwCAPI_EncodePath        1000ba00 f   rtw_modelmap_utils.obj
 0001:0000ab00       _rtwCAPI_FillSysRan        1000bb00 f   rtw_modelmap_utils.obj
 0001:0000abf0       _rtwCAPI_FreeFullPaths     1000bbf0 f   rtw_modelmap_utils.obj
 0001:0000ac80       _rtwCAPI_GetFullStateBlockPath 1000bc80 f   rtw_modelmap_utils.obj
 0001:0000ae30       _rtwCAPI_GetNumContStateRecords 1000be30 f   rtw_modelmap_utils.obj
 0001:0000aef0       _rtwCAPI_GetNumSigLogRecords 1000bef0 f   rtw_modelmap_utils.obj
 0001:0000af40       _rtwCAPI_GetNumSigLogRecordsForRTWLogging 1000bf40 f   rtw_modelmap_utils.obj
 0001:0000afe0       _rtwCAPI_GetNumStateRecords 1000bfe0 f   rtw_modelmap_utils.obj
 0001:0000b030       _rtwCAPI_GetNumStateRecordsForRTWLogging 1000c030 f   rtw_modelmap_utils.obj
 0001:0000b0d0       _rtwCAPI_GetSigAddrFromMap 1000c0d0 f   rtw_modelmap_utils.obj
 0001:0000b190       _rtwCAPI_GetSigLogRecordInfo 1000c190 f   rtw_modelmap_utils.obj
 0001:0000b5c0       _rtwCAPI_GetStateRecordInfo 1000c5c0 f   rtw_modelmap_utils.obj
 0001:0000ba70       _rtwCAPI_GetStateWidth     1000ca70 f   rtw_modelmap_utils.obj
 0001:0000bad0       _rtwCAPI_HasStates         1000cad0 f   rtw_modelmap_utils.obj
 0001:0000bb40       _rtwCAPI_UpdateFullPaths   1000cb40 f   rtw_modelmap_utils.obj
 0001:0000bd20       __vsnprintf_l              1000cd20 f i rt_logging.obj
 0001:0000bd60       __vsprintf_l               1000cd60 f i rt_logging.obj
 0001:0000bda0       _fprintf                   1000cda0 f i rt_logging.obj
 0001:0000c6b0       _rt_CreateLogVar           1000d6b0 f   rt_logging.obj
 0001:0000c740       _rt_CreateLogVarWithConvert 1000d740 f   rt_logging.obj
 0001:0000d0c0       _rt_CreateStructLogVar     1000e0c0 f   rt_logging.obj
 0001:0000de20       _rt_GetMxIdFromDTypeId     1000ee20 f   rt_logging.obj
 0001:0000de50       _rt_GetMxIdFromDTypeIdForRSim 1000ee50 f   rt_logging.obj
 0001:00010720       _rt_StartDataLogging       10011720 f   rt_logging.obj
 0001:00010be0       _rt_StartDataLoggingWithStartTime 10011be0 f   rt_logging.obj
 0001:00011540       _rt_StopDataLogging        10012540 f   rt_logging.obj
 0001:00011560       _rt_StopDataLoggingImpl    10012560 f   rt_logging.obj
 0001:00011890       _rt_UpdateLogVar           10012890 f   rt_logging.obj
 0001:000129b0       _rt_UpdateStructLogVar     100139b0 f   rt_logging.obj
 0001:00012a40       _rt_UpdateTXXFYLogVars     10013a40 f   rt_logging.obj
 0001:00012d70       _rt_UpdateTXYLogVars       10013d70 f   rt_logging.obj
 0001:00012fc0       _sprintf                   10013fc0 f i rt_logging.obj
 0001:00013000       _DllMain@12                10014000 f   xpctarget.obj
 0001:00013010       _SLRTSetErrorStatus        10014010 f   xpctarget.obj
 0001:00013030       _changeStepSize            10014030 f   xpctarget.obj
 0001:000130b0       _getDLMVersion             100140b0 f   xpctarget.obj
 0001:000130c0       _getRefMdlPath             100140c0 f   xpctarget.obj
 0001:00013140       _getRefMdlSignalNumber     10014140 f   xpctarget.obj
 0001:000131f0       _getrlmdlinfo              100141f0 f   xpctarget.obj
 0001:000133d0       _modified_motor_ChangeStepSize 100143d0 f   xpctarget.obj
 0001:00013450       _updateDiscreteEvents      10014450 f   xpctarget.obj
 0001:000134b0       _getNumRef                 100144b0 f   appmappingData.obj
 0001:000134c0       _vprintf                   100144c0 f i legacy_stdio.obj
 0001:00013500       _daquanserq8               10014500 f   daquanserq8.obj
 0001:00013e70       _encquanserq8              10014e70 f   encquanserq8.obj
 0001:000149b0       _GetPCIDeviceFull          100159b0 f   xpcruntime:xpcimports.obj
 0001:000149f0       _ShowPCIDevice             100159f0 f   xpcruntime:xpcimports.obj
 0001:000151b0       _xpcGetPciConfigAtSlot     100161b0 f   xpcruntime:xpcimports.obj
 0001:000154c0       _xpcInitProcs              100164c0 f   xpcruntime:xpcimports.obj
 0001:00016820       _xpceuploadevent           10017820 f   xpcruntime:xpcimports.obj
 0001:00016821       @__security_check_cookie@4 10017821 f   LIBCMT:_secchk_.obj
 0001:00016840       __ftoui3                   10017840 f   LIBCMT:_ftol3_.obj
 0001:0001684f       __ftoul3                   1001784f f   LIBCMT:_ftol3_.obj
 0001:0001685e       __ftol3                    1001785e f   LIBCMT:_ftol3_.obj
 0001:0001686b       __ftol3_NaN                1001786b f   LIBCMT:_ftol3_.obj
 0001:00016883       __ftol3_work               10017883 f   LIBCMT:_ftol3_.obj
 0001:00016909       __ftol3_common             10017909 f   LIBCMT:_ftol3_.obj
 0001:000169cb       __ftol3_arg_error          100179cb f   LIBCMT:_ftol3_.obj
 0001:000169dd       __ftol3_except             100179dd f   LIBCMT:_ftol3_.obj
 0001:00016a21       __dtoui3                   10017a21 f   LIBCMT:_ftol3_.obj
 0001:00016a30       __dtoul3                   10017a30 f   LIBCMT:_ftol3_.obj
 0001:00016a3f       __dtol3                    10017a3f f   LIBCMT:_ftol3_.obj
 0001:00016a4c       __dtol3_NaN                10017a4c f   LIBCMT:_ftol3_.obj
 0001:00016a69       __dtol3_work               10017a69 f   LIBCMT:_ftol3_.obj
 0001:00016b50       __ultod3                   10017b50 f   LIBCMT:_ftol3_.obj
 0001:00016b90       __ltod3                    10017b90 f   LIBCMT:_ftol3_.obj
 0001:00016c94       ___raise_securityfailure   10017c94 f   LIBCMT:gs_report.obj
 0001:00016cc6       ___report_gsfailure        10017cc6 f   LIBCMT:gs_report.obj
 0001:00016dff       ___report_rangecheckfailure 10017dff f   LIBCMT:gs_report.obj
 0001:00016e0e       ___report_securityfailure  10017e0e f   LIBCMT:gs_report.obj
 0001:00016f12       ___report_securityfailureEx 10017f12 f   LIBCMT:gs_report.obj
 0001:0001706d       ___isa_available_init      1001806d f   LIBCMT:_cpu_disp_.obj
 0001:00017635       __CRT_INIT@12              10018635 f   LIBCMT:dll_dllmain.obj
 0001:00017640       __DllMainCRTStartup@12     10018640 f   LIBCMT:dll_dllmain.obj
 0001:0001766b       ??$__crt_fast_decode_pointer@PAP6AXXZ@@YAPAP6AXXZQAP6AXXZ@Z 1001866b f i LIBCMT:utility.obj
 0001:00017684       ??$__crt_fast_encode_pointer@PAP6AXXZ@@YAPAP6AXXZQAP6AXXZ@Z 10018684 f i LIBCMT:utility.obj
 0001:000176a8       ?__crt_rotate_pointer_value@@YAIIH@Z 100186a8 f i LIBCMT:utility.obj
 0001:000176b8       ?configure_argv@__scrt_narrow_argv_policy@@SAHXZ 100186b8 f i LIBCMT:utility.obj
 0001:0001775c       _NtCurrentTeb              1001875c f i LIBCMT:utility.obj
 0001:00017763       ___scrt_acquire_startup_lock 10018763 f   LIBCMT:utility.obj
 0001:000177a5       ___scrt_dllmain_after_initialize_c 100187a5 f   LIBCMT:utility.obj
 0001:000177da       ___scrt_dllmain_before_initialize_c 100187da f   LIBCMT:utility.obj
 0001:000177eb       ___scrt_dllmain_crt_thread_attach 100187eb f   LIBCMT:utility.obj
 0001:00017811       ___scrt_dllmain_crt_thread_detach 10018811 f   LIBCMT:utility.obj
 0001:00017821       ___scrt_dllmain_exception_filter 10018821 f   LIBCMT:utility.obj
 0001:00017860       ___scrt_dllmain_uninitialize_c 10018860 f   LIBCMT:utility.obj
 0001:0001788b       ___scrt_dllmain_uninitialize_critical 1001888b f   LIBCMT:utility.obj
 0001:0001789b       ___scrt_initialize_crt     1001889b f   LIBCMT:utility.obj
 0001:000178e2       ___scrt_initialize_onexit_tables 100188e2 f   LIBCMT:utility.obj
 0001:0001799e       ___scrt_is_nonwritable_in_current_image 1001899e f   LIBCMT:utility.obj
 0001:00017a4a       ___scrt_release_startup_lock 10018a4a f   LIBCMT:utility.obj
 0001:00017a6e       ___scrt_uninitialize_crt   10018a6e f   LIBCMT:utility.obj
 0001:00017aa0       __onexit                   10018aa0 f   LIBCMT:utility.obj
 0001:00017ae9       _at_quick_exit             10018ae9 f   LIBCMT:utility.obj
 0001:00017b26       _atexit                    10018b26 f   LIBCMT:utility.obj
 0001:00017b40       ___security_init_cookie    10018b40 f   LIBCMT:gs_support.obj
 0001:00017c03       ?__scrt_initialize_type_info@@YAXXZ 10018c03 f   LIBCMT:tncleanup.obj
 0001:00017c12       ?__scrt_uninitialize_type_info@@YAXXZ 10018c12 f   LIBCMT:tncleanup.obj
 0001:00017c21       ___local_stdio_scanf_options 10018c21 f i LIBCMT:default_local_stdio_options.obj
 0001:00017c27       ___scrt_initialize_default_local_stdio_options 10018c27 f   LIBCMT:default_local_stdio_options.obj
 0001:00017c4b       ___scrt_get_dyn_tls_init_callback 10018c4b f   LIBCMT:dyn_tls_init.obj
 0001:00017c51       ___scrt_fastfail           10018c51 f   LIBCMT:utility_desktop.obj
 0001:00017db2       ___scrt_get_show_window_mode 10018db2 f   LIBCMT:utility_desktop.obj
 0001:00017df1       ___scrt_initialize_winrt   10018df1 f   LIBCMT:utility_desktop.obj
 0001:00017df4       ___scrt_is_managed_app     10018df4 f   LIBCMT:utility_desktop.obj
 0001:00017e49       ___scrt_set_unhandled_exception_filter 10018e49 f   LIBCMT:utility_desktop.obj
 0001:00017e58       ___scrt_unhandled_exception_filter@4 10018e58 f   LIBCMT:utility_desktop.obj
 0001:00017ea9       __crt_debugger_hook        10018ea9 f   LIBCMT:utility_desktop.obj
 0001:00017eb3       __RTC_Initialize           10018eb3 f   LIBCMT:_initsect_.obj
 0001:00017ee8       __RTC_Terminate            10018ee8 f   LIBCMT:_initsect_.obj
 0001:00017f1d       @_guard_check_icall@4      10018f1d f i LIBCMT:checkcfg.obj
 0001:00017f30       __SEH_prolog4              10018f30 f   LIBCMT:_sehprolg4_.obj
 0001:00017f76       __SEH_epilog4              10018f76 f   LIBCMT:_sehprolg4_.obj
 0001:00017fa1       __get_startup_argv_mode    10018fa1 f   LIBCMT:argv_mode.obj
 0001:00017fa5       ___scrt_is_ucrt_dll_in_use 10018fa5 f   LIBCMT:ucrt_detection.obj
 0001:00017fb4       @_guard_check_icall_nop@4  10018fb4 f i LIBCMT:guard_support.obj
 0001:00017fb5       __guard_icall_checks_enforced 10018fb5 f i LIBCMT:guard_support.obj
 0001:00017fcc       _GetModuleHandleA@4        10018fcc f   kernel32:KERNEL32.dll
 0001:00017fd2       _GetProcAddress@8          10018fd2 f   kernel32:KERNEL32.dll
 0001:00017fd8       _UnhandledExceptionFilter@4 10018fd8 f   kernel32:KERNEL32.dll
 0001:00017fde       _SetUnhandledExceptionFilter@4 10018fde f   kernel32:KERNEL32.dll
 0001:00017fe4       _GetCurrentProcess@0       10018fe4 f   kernel32:KERNEL32.dll
 0001:00017fea       _TerminateProcess@8        10018fea f   kernel32:KERNEL32.dll
 0001:00017ff0       _IsProcessorFeaturePresent@4 10018ff0 f   kernel32:KERNEL32.dll
 0001:00017ff6       _QueryPerformanceCounter@4 10018ff6 f   kernel32:KERNEL32.dll
 0001:00017ffc       _GetCurrentProcessId@0     10018ffc f   kernel32:KERNEL32.dll
 0001:00018002       _GetCurrentThreadId@0      10019002 f   kernel32:KERNEL32.dll
 0001:00018008       _GetSystemTimeAsFileTime@4 10019008 f   kernel32:KERNEL32.dll
 0001:0001800e       _InitializeSListHead@4     1001900e f   kernel32:KERNEL32.dll
 0001:00018014       _IsDebuggerPresent@0       10019014 f   kernel32:KERNEL32.dll
 0001:0001801a       _GetStartupInfoW@4         1001901a f   kernel32:KERNEL32.dll
 0001:00018020       _GetModuleHandleW@4        10019020 f   kernel32:KERNEL32.dll
 0001:00018030       _memcpy                    10019030 f   libvcruntime:memcpy.obj
 0001:00018710       _memset                    10019710 f   libvcruntime:memset.obj
 0001:000188c0       _memmove                   100198c0 f   libvcruntime:memmove.obj
 0001:00018fa0       _strchr                    10019fa0 f   libvcruntime:strchr.obj
 0001:0001900e       ___from_strstr_to_strchr   1001a00e     libvcruntime:strchr.obj
 0001:00019160       __except_handler4          1001a160 f   libvcruntime:_chandler4_.obj
 0001:0001931f       ___vcrt_initialize         1001a31f f   libvcruntime:initialization.obj
 0001:00019352       ___vcrt_thread_attach      1001a352 f   libvcruntime:initialization.obj
 0001:0001935f       ___vcrt_thread_detach      1001a35f f   libvcruntime:initialization.obj
 0001:0001936c       ___vcrt_uninitialize       1001a36c f   libvcruntime:initialization.obj
 0001:00019392       ___vcrt_uninitialize_critical 1001a392 f   libvcruntime:initialization.obj
 0001:000193ad       ??$?RD@__crt_internal_free_policy@@QBEXQBD@Z 1001a3ad f i libvcruntime:std_type_info.obj
 0001:000193c1       ??$?RX@__crt_internal_free_policy@@QBEXQBX@Z 1001a3c1 f i libvcruntime:std_type_info.obj
 0001:000193d5       ??$__crt_interlocked_compare_exchange_pointer@$$CBD$$T$$T@@YAPBDPDSBD$$T1@Z 1001a3d5 f i libvcruntime:std_type_info.obj
 0001:000193eb       ??$__crt_interlocked_compare_exchange_pointer@$$CBDPAD$$T@@YAPBDPDSBDQAD$$T@Z 1001a3eb f i libvcruntime:std_type_info.obj
 0001:00019401       ??$__crt_interlocked_read_pointer@$$CBD@@YAPBDPDSBD@Z 1001a401 f i libvcruntime:std_type_info.obj
 0001:00019415       ??0?$__crt_unique_heap_ptr@DU__crt_internal_free_policy@@@@QAE@QAD@Z 1001a415 f i libvcruntime:std_type_info.obj
 0001:00019426       ??0?$__crt_unique_heap_ptr@XU__crt_internal_free_policy@@@@QAE@QAX@Z 1001a426 f i libvcruntime:std_type_info.obj
 0001:00019437       ??1?$__crt_unique_heap_ptr@DU__crt_internal_free_policy@@@@QAE@XZ 1001a437 f i libvcruntime:std_type_info.obj
 0001:0001944b       ??1?$__crt_unique_heap_ptr@XU__crt_internal_free_policy@@@@QAE@XZ 1001a44b f i libvcruntime:std_type_info.obj
 0001:0001946b       ??B?$__crt_unique_heap_ptr@DU__crt_internal_free_policy@@@@QBE_NXZ 1001a46b f i libvcruntime:std_type_info.obj
 0001:00019472       ??B?$__crt_unique_heap_ptr@XU__crt_internal_free_policy@@@@QBE_NXZ 1001a472 f i libvcruntime:std_type_info.obj
 0001:000194a1       ?detach@?$__crt_unique_heap_ptr@XU__crt_internal_free_policy@@@@QAEPAXXZ 1001a4a1 f i libvcruntime:std_type_info.obj
 0001:000194a7       ?get@?$__crt_unique_heap_ptr@DU__crt_internal_free_policy@@@@QBEPADXZ 1001a4a7 f i libvcruntime:std_type_info.obj
 0001:000194aa       ?get@?$__crt_unique_heap_ptr@XU__crt_internal_free_policy@@@@QBEPAXXZ 1001a4aa f i libvcruntime:std_type_info.obj
 0001:000194ad       ?is_valid@?$__crt_unique_heap_ptr@DU__crt_internal_free_policy@@@@QBE_NXZ 1001a4ad f i libvcruntime:std_type_info.obj
 0001:000194b4       ?is_valid@?$__crt_unique_heap_ptr@XU__crt_internal_free_policy@@@@QBE_NXZ 1001a4b4 f i libvcruntime:std_type_info.obj
 0001:000194bb       ?release@?$__crt_unique_heap_ptr@DU__crt_internal_free_policy@@@@QAEXXZ 1001a4bb f i libvcruntime:std_type_info.obj
 0001:000194cf       ?release@?$__crt_unique_heap_ptr@XU__crt_internal_free_policy@@@@QAEXXZ 1001a4cf f i libvcruntime:std_type_info.obj
 0001:000194e3       ___std_type_info_compare   1001a4e3 f   libvcruntime:std_type_info.obj
 0001:0001952e       ___std_type_info_destroy_list 1001a52e f   libvcruntime:std_type_info.obj
 0001:00019559       ___std_type_info_hash      1001a559 f   libvcruntime:std_type_info.obj
 0001:00019588       ___std_type_info_name      1001a588 f   libvcruntime:std_type_info.obj
 0001:00019690       __local_unwind4            1001a690 f   libvcruntime:_exsup4_.obj
 0001:00019766       __seh_longjmp_unwind4@4    1001a766 f   libvcruntime:_exsup4_.obj
 0001:0001978e       @_EH4_CallFilterFunc@8     1001a78e f   libvcruntime:_exsup4_.obj
 0001:000197a5       @_EH4_TransferToHandler@8  1001a7a5 f   libvcruntime:_exsup4_.obj
 0001:000197be       @_EH4_GlobalUnwind2@8      1001a7be f   libvcruntime:_exsup4_.obj
 0001:000197d7       @_EH4_LocalUnwind@16       1001a7d7 f   libvcruntime:_exsup4_.obj
 0001:00019845       ___except_validate_context_record 1001a845 f   libvcruntime:jbcxrval.obj
 0001:00019846       ___except_validate_jump_buffer 1001a846 f   libvcruntime:jbcxrval.obj
 0001:00019847       ??$?RU__vcrt_ptd@@@__crt_internal_free_policy@@QBEXQBU__vcrt_ptd@@@Z 1001a847 f i libvcruntime:per_thread_data.obj
 0001:0001985b       ??0?$__crt_unique_heap_ptr@U__vcrt_ptd@@U__crt_internal_free_policy@@@@QAE@QAU__vcrt_ptd@@@Z 1001a85b f i libvcruntime:per_thread_data.obj
 0001:0001987e       ??1?$__crt_unique_heap_ptr@U__vcrt_ptd@@U__crt_internal_free_policy@@@@QAE@XZ 1001a87e f i libvcruntime:per_thread_data.obj
 0001:0001989d       ??B?$__crt_unique_heap_ptr@U__vcrt_ptd@@U__crt_internal_free_policy@@@@QBE_NXZ 1001a89d f i libvcruntime:per_thread_data.obj
 0001:000198a4       ?detach@?$__crt_unique_heap_ptr@U__vcrt_ptd@@U__crt_internal_free_policy@@@@QAEPAU__vcrt_ptd@@XZ 1001a8a4 f i libvcruntime:per_thread_data.obj
 0001:000198aa       ?get@?$__crt_unique_heap_ptr@U__vcrt_ptd@@U__crt_internal_free_policy@@@@QBEPAU__vcrt_ptd@@XZ 1001a8aa f i libvcruntime:per_thread_data.obj
 0001:000198ad       ?is_valid@?$__crt_unique_heap_ptr@U__vcrt_ptd@@U__crt_internal_free_policy@@@@QBE_NXZ 1001a8ad f i libvcruntime:per_thread_data.obj
 0001:000198b4       ?release@?$__crt_unique_heap_ptr@U__vcrt_ptd@@U__crt_internal_free_policy@@@@QAEXXZ 1001a8b4 f i libvcruntime:per_thread_data.obj
 0001:000198e8       ___vcrt_freefls@4          1001a8e8 f   libvcruntime:per_thread_data.obj
 0001:0001990b       ___vcrt_freeptd            1001a90b f   libvcruntime:per_thread_data.obj
 0001:0001994e       ___vcrt_getptd             1001a94e f   libvcruntime:per_thread_data.obj
 0001:0001995f       ___vcrt_getptd_noexit      1001a95f f   libvcruntime:per_thread_data.obj
 0001:00019a15       ___vcrt_initialize_ptd     1001aa15 f   libvcruntime:per_thread_data.obj
 0001:00019a54       ___vcrt_uninitialize_ptd   1001aa54 f   libvcruntime:per_thread_data.obj
 0001:00019a75       ___vcrt_initialize_locks   1001aa75 f   libvcruntime:locks.obj
 0001:00019ac0       ___vcrt_lock               1001aac0 f   libvcruntime:locks.obj
 0001:00019ada       ___vcrt_uninitialize_locks 1001aada f   libvcruntime:locks.obj
 0001:00019b14       ___vcrt_unlock             1001ab14 f   libvcruntime:locks.obj
 0001:00019b2e       ??$?BX@__crt_fast_encoded_nullptr_t@@QBEPAXXZ 1001ab2e f i libvcruntime:winapi_downlevel.obj
 0001:00019b4c       ??$__crt_fast_decode_pointer@PAX@@YAPAXQAX@Z 1001ab4c f i libvcruntime:winapi_downlevel.obj
 0001:00019b65       ??$__crt_fast_encode_pointer@PAX@@YAPAXQAX@Z 1001ab65 f i libvcruntime:winapi_downlevel.obj
 0001:00019b89       ??$__crt_interlocked_compare_exchange_pointer@UHINSTANCE__@@$$T$$T@@YAPAUHINSTANCE__@@PDSAU0@$$T1@Z 1001ab89 f i libvcruntime:winapi_downlevel.obj
 0001:00019b9f       ??$__crt_interlocked_compare_exchange_pointer@X$$T$$T@@YAPAXPDSAX$$T1@Z 1001ab9f f i libvcruntime:winapi_downlevel.obj
 0001:00019bb5       ??$__crt_interlocked_exchange_pointer@UHINSTANCE__@@PAU1@@@YAPAUHINSTANCE__@@PDSAU0@QAU0@@Z 1001abb5 f i libvcruntime:winapi_downlevel.obj
 0001:00019bc5       ??$__crt_interlocked_exchange_pointer@UHINSTANCE__@@PAX@@YAPAUHINSTANCE__@@PDSAU0@QAX@Z 1001abc5 f i libvcruntime:winapi_downlevel.obj
 0001:00019bd5       ??$__crt_interlocked_exchange_pointer@XPAX@@YAPAXPDSAXQAX@Z 1001abd5 f i libvcruntime:winapi_downlevel.obj
 0001:00019be5       ??$__crt_interlocked_read_pointer@UHINSTANCE__@@@@YAPAUHINSTANCE__@@PDSAU0@@Z 1001abe5 f i libvcruntime:winapi_downlevel.obj
 0001:00019bf9       ??$__crt_interlocked_read_pointer@X@@YAPAXPDSAX@Z 1001abf9 f i libvcruntime:winapi_downlevel.obj
 0001:00019c0d       ?__crt_fast_encode_pointer@@YA?AU__crt_fast_encoded_nullptr_t@@$$T@Z 1001ac0d f i libvcruntime:winapi_downlevel.obj
 0001:00019f51       ___vcrt_EventRegister      1001af51 f   libvcruntime:winapi_downlevel.obj
 0001:00019fa1       ___vcrt_EventSetInformation 1001afa1 f   libvcruntime:winapi_downlevel.obj
 0001:00019ff4       ___vcrt_EventUnregister    1001aff4 f   libvcruntime:winapi_downlevel.obj
 0001:0001a03c       ___vcrt_EventWriteTransfer 1001b03c f   libvcruntime:winapi_downlevel.obj
 0001:0001a097       ___vcrt_FlsAlloc           1001b097 f   libvcruntime:winapi_downlevel.obj
 0001:0001a0df       ___vcrt_FlsFree            1001b0df f   libvcruntime:winapi_downlevel.obj
 0001:0001a127       ___vcrt_FlsGetValue        1001b127 f   libvcruntime:winapi_downlevel.obj
 0001:0001a16f       ___vcrt_FlsSetValue        1001b16f f   libvcruntime:winapi_downlevel.obj
 0001:0001a1bb       ___vcrt_InitializeCriticalSectionEx 1001b1bb f   libvcruntime:winapi_downlevel.obj
 0001:0001a212       ___vcrt_initialize_winapi_thunks 1001b212 f   libvcruntime:winapi_downlevel.obj
 0001:0001a25a       ___vcrt_uninitialize_winapi_thunks 1001b25a f   libvcruntime:winapi_downlevel.obj
 0001:0001a298       ??$?B$$A6AXXZ@__crt_fast_encoded_nullptr_t@@QBEP6AXXZXZ 1001b298 f i libvcruntime:purevirt_data.obj
 0001:0001a2b6       ??$__crt_fast_encode_pointer@P6AXXZ@@YAP6AXXZQ6AXXZ@Z 1001b2b6 f i libvcruntime:purevirt_data.obj
 0001:0001a2da       ___vcrt_initialize_pure_virtual_call_handler 1001b2da f   libvcruntime:purevirt_data.obj
 0001:0001a2fe       ??$__vcrt_va_start_verify_argument_type@QBD@@YAXXZ 1001b2fe f i libvcruntime:undname.obj
 0001:0001a2ff       ??0Block@_HeapManager@@QAE@XZ 1001b2ff f i libvcruntime:undname.obj
 0001:0001a305       ??0DName@@QAE@AAPBDD@Z     1001b305 f   libvcruntime:undname.obj
 0001:0001a3ec       ??0DName@@QAE@ABV0@@Z      1001b3ec f i libvcruntime:undname.obj
 0001:0001a407       ??0DName@@QAE@D@Z          1001b407 f   libvcruntime:undname.obj
 0001:0001a43e       ??0DName@@QAE@PAV0@@Z      1001b43e f   libvcruntime:undname.obj
 0001:0001a49e       ??0DName@@QAE@PBD@Z        1001b49e f   libvcruntime:undname.obj
 0001:0001a4e6       ??0DName@@QAE@W4DNameStatus@@@Z 1001b4e6 f   libvcruntime:undname.obj
 0001:0001a539       ??0DName@@QAE@XZ           1001b539 f i libvcruntime:undname.obj
 0001:0001a54e       ??0DName@@QAE@_J@Z         1001b54e f   libvcruntime:undname.obj
 0001:0001a608       ??0DName@@QAE@_K@Z         1001b608 f   libvcruntime:undname.obj
 0001:0001a692       ??0DNameNode@@IAE@XZ       1001b692 f   libvcruntime:undname.obj
 0001:0001a69d       ??0DNameStatusNode@@AAE@W4DNameStatus@@@Z 1001b69d f   libvcruntime:undname.obj
 0001:0001a6c8       ??0Replicator@@QAE@XZ      1001b6c8 f i libvcruntime:undname.obj
 0001:0001a6ce       ??0UnDecorator@@QAE@PADPBDHP6APADJ@ZK@Z 1001b6ce f i libvcruntime:undname.obj
 0001:0001a751       ??0charNode@@QAE@D@Z       1001b751 f   libvcruntime:undname.obj
 0001:0001a76b       ??0pDNameNode@@QAE@PAVDName@@@Z 1001b76b f   libvcruntime:undname.obj
 0001:0001a79d       ??0pairNode@@QAE@PAVDNameNode@@0@Z 1001b79d f   libvcruntime:undname.obj
 0001:0001a7c3       ??0pcharNode@@QAE@PBDH@Z   1001b7c3 f   libvcruntime:undname.obj
 0001:0001a832       ??2@YAPAXIAAV_HeapManager@@H@Z 1001b832 f i libvcruntime:undname.obj
 0001:0001a84c       ??4DName@@QAEAAV0@ABV0@@Z  1001b84c f   libvcruntime:undname.obj
 0001:0001a867       ??4DName@@QAEAAV0@D@Z      1001b867 f i libvcruntime:undname.obj
 0001:0001a89e       ??4DName@@QAEAAV0@PAV0@@Z  1001b89e f   libvcruntime:undname.obj
 0001:0001a8f9       ??4DName@@QAEAAV0@PBD@Z    1001b8f9 f   libvcruntime:undname.obj
 0001:0001a937       ??4DName@@QAEAAV0@W4DNameStatus@@@Z 1001b937 f   libvcruntime:undname.obj
 0001:0001a979       ??AReplicator@@QBE?AVDName@@H@Z 1001b979 f   libvcruntime:undname.obj
 0001:0001a9c4       ??BUnDecorator@@QAEPADXZ   1001b9c4 f i libvcruntime:undname.obj
 0001:0001ab9b       ??H@YA?AVDName@@DABV0@@Z   1001bb9b f i libvcruntime:undname.obj
 0001:0001abc8       ??H@YA?AVDName@@PBDABV0@@Z 1001bbc8 f i libvcruntime:undname.obj
 0001:0001abf5       ??H@YA?AVDName@@W4DNameStatus@@ABV0@@Z 1001bbf5 f i libvcruntime:undname.obj
 0001:0001ac22       ??HDName@@QBE?AV0@ABV0@@Z  1001bc22 f   libvcruntime:undname.obj
 0001:0001ac4c       ??HDName@@QBE?AV0@D@Z      1001bc4c f   libvcruntime:undname.obj
 0001:0001ac76       ??HDName@@QBE?AV0@PAV0@@Z  1001bc76 f   libvcruntime:undname.obj
 0001:0001aca0       ??HDName@@QBE?AV0@PBD@Z    1001bca0 f   libvcruntime:undname.obj
 0001:0001acca       ??HDName@@QBE?AV0@W4DNameStatus@@@Z 1001bcca f   libvcruntime:undname.obj
 0001:0001acf4       ??YDName@@QAEAAV0@ABV0@@Z  1001bcf4 f   libvcruntime:undname.obj
 0001:0001ad47       ??YDName@@QAEAAV0@D@Z      1001bd47 f   libvcruntime:undname.obj
 0001:0001adab       ??YDName@@QAEAAV0@PAV0@@Z  1001bdab f   libvcruntime:undname.obj
 0001:0001ae29       ??YDName@@QAEAAV0@PBD@Z    1001be29 f   libvcruntime:undname.obj
 0001:0001aea2       ??YDName@@QAEAAV0@W4DNameStatus@@@Z 1001bea2 f   libvcruntime:undname.obj
 0001:0001aef2       ??YReplicator@@QAEAAV0@ABVDName@@@Z 1001bef2 f   libvcruntime:undname.obj
 0001:0001af4e       ??_5DName@@QAEAAV0@ABV0@@Z 1001bf4e f   libvcruntime:undname.obj
 0001:0001af71       ?Constructor@_HeapManager@@QAEXP6APAXI@ZP6AXPAX@Z@Z 1001bf71 f i libvcruntime:undname.obj
 0001:0001af95       ?Destructor@_HeapManager@@QAEXXZ 1001bf95 f i libvcruntime:undname.obj
 0001:0001afdc       ?UScore@UnDecorator@@SAPBDW4Tokens@@@Z 1001bfdc f   libvcruntime:undname.obj
 0001:0001b000       ?append@DName@@AAEXPAVDNameNode@@@Z 1001c000 f   libvcruntime:undname.obj
 0001:0001b057       ?composeDeclaration@UnDecorator@@CA?AVDName@@ABV2@@Z 1001c057 f i libvcruntime:undname.obj
 0001:0001c092       ?doAccessSpecifiers@UnDecorator@@SAHXZ 1001d092 f i libvcruntime:undname.obj
 0001:0001c0a3       ?doAllocationLanguage@UnDecorator@@SAHXZ 1001d0a3 f i libvcruntime:undname.obj
 0001:0001c0b4       ?doAllocationModel@UnDecorator@@SAHXZ 1001d0b4 f i libvcruntime:undname.obj
 0001:0001c0c5       ?doEcsu@UnDecorator@@SAHXZ 1001d0c5 f i libvcruntime:undname.obj
 0001:0001c0d6       ?doEllipsis@UnDecorator@@SAHXZ 1001d0d6 f i libvcruntime:undname.obj
 0001:0001c0e7       ?doFunctionReturns@UnDecorator@@SAHXZ 1001d0e7 f i libvcruntime:undname.obj
 0001:0001c0f8       ?doMSKeywords@UnDecorator@@SAHXZ 1001d0f8 f i libvcruntime:undname.obj
 0001:0001c108       ?doMemberTypes@UnDecorator@@SAHXZ 1001d108 f i libvcruntime:undname.obj
 0001:0001c119       ?doNameOnly@UnDecorator@@SAHXZ 1001d119 f i libvcruntime:undname.obj
 0001:0001c126       ?doNoIdentCharCheck@UnDecorator@@SAHXZ 1001d126 f i libvcruntime:undname.obj
 0001:0001c133       ?doPchar@DName@@AAEXPBDH@Z 1001d133 f   libvcruntime:undname.obj
 0001:0001c1df       ?doPtr64@UnDecorator@@SAHXZ 1001d1df f i libvcruntime:undname.obj
 0001:0001c1f0       ?doRestrictionSpec@UnDecorator@@SAHXZ 1001d1f0 f i libvcruntime:undname.obj
 0001:0001c201       ?doThisTypes@UnDecorator@@SAHXZ 1001d201 f i libvcruntime:undname.obj
 0001:0001c217       ?doThrowTypes@UnDecorator@@SAHXZ 1001d217 f i libvcruntime:undname.obj
 0001:0001c228       ?doTypeOnly@UnDecorator@@SAHXZ 1001d228 f i libvcruntime:undname.obj
 0001:0001c235       ?doUnderScore@UnDecorator@@SAHXZ 1001d235 f i libvcruntime:undname.obj
 0001:0001c242       ?getArgumentList@UnDecorator@@CA?AVDName@@XZ 1001d242 f   libvcruntime:undname.obj
 0001:0001c391       ?getArgumentTypes@UnDecorator@@CA?AVDName@@XZ 1001d391 f   libvcruntime:undname.obj
 0001:0001c4a9       ?getArrayType@UnDecorator@@CA?AVDName@@ABV2@@Z 1001d4a9 f i libvcruntime:undname.obj
 0001:0001c72b       ?getBasedType@UnDecorator@@CA?AVDName@@XZ 1001d72b f   libvcruntime:undname.obj
 0001:0001c7ea       ?getBasicDataType@UnDecorator@@CA?AVDName@@ABV2@@Z 1001d7ea f   libvcruntime:undname.obj
 0001:0001ccd4       ?getCallIndex@UnDecorator@@CA?AVDName@@XZ 1001dcd4 f i libvcruntime:undname.obj
 0001:0001cced       ?getCallingConvention@UnDecorator@@CA?AVDName@@XZ 1001dced f   libvcruntime:undname.obj
 0001:0001cddb       ?getDataIndirectType@UnDecorator@@CA?AVDName@@ABV2@PBD0H@Z 1001dddb f   libvcruntime:undname.obj
 0001:0001d586       ?getDataIndirectType@UnDecorator@@CA?AVDName@@XZ 1001e586 f i libvcruntime:undname.obj
 0001:0001d5cd       ?getDataType@UnDecorator@@CA?AVDName@@PAV2@@Z 1001e5cd f   libvcruntime:undname.obj
 0001:0001d6d3       ?getDecoratedName@UnDecorator@@CA?AVDName@@XZ 1001e6d3 f   libvcruntime:undname.obj
 0001:0001d9b2       ?getDimension@UnDecorator@@CA?AVDName@@_N@Z 1001e9b2 f   libvcruntime:undname.obj
 0001:0001db36       ?getDispatchTarget@UnDecorator@@CA?AVDName@@XZ 1001eb36 f   libvcruntime:undname.obj
 0001:0001dba7       ?getDisplacement@UnDecorator@@CA?AVDName@@XZ 1001eba7 f i libvcruntime:undname.obj
 0001:0001dbc0       ?getECSUDataType@UnDecorator@@CA?AVDName@@XZ 1001ebc0 f   libvcruntime:undname.obj
 0001:0001dd24       ?getECSUName@UnDecorator@@CA?AVDName@@XZ 1001ed24 f i libvcruntime:undname.obj
 0001:0001dd39       ?getEnumType@UnDecorator@@CA?AVDName@@XZ 1001ed39 f i libvcruntime:undname.obj
 0001:0001de60       ?getExtendedDataIndirectType@UnDecorator@@CA?AVDName@@AAPBDAA_NH@Z 1001ee60 f   libvcruntime:undname.obj
 0001:0001e073       ?getExternalDataType@UnDecorator@@CA?AVDName@@ABV2@@Z 1001f073 f i libvcruntime:undname.obj
 0001:0001e10a       ?getFunctionIndirectType@UnDecorator@@CA?AVDName@@ABV2@@Z 1001f10a f   libvcruntime:undname.obj
 0001:0001e615       ?getGuardNumber@UnDecorator@@CA?AVDName@@XZ 1001f615 f i libvcruntime:undname.obj
 0001:0001e62e       ?getLastChar@DName@@QBEDXZ 1001f62e f i libvcruntime:undname.obj
 0001:0001e654       ?getLastChar@DNameStatusNode@@UBEDXZ 1001f654 f i libvcruntime:undname.obj
 0001:0001e663       ?getLastChar@charNode@@UBEDXZ 1001f663 f i libvcruntime:undname.obj
 0001:0001e667       ?getLastChar@pDNameNode@@UBEDXZ 1001f667 f i libvcruntime:undname.obj
 0001:0001e678       ?getLastChar@pairNode@@UBEDXZ 1001f678 f i libvcruntime:undname.obj
 0001:0001e6b7       ?getLastChar@pcharNode@@UBEDXZ 1001f6b7 f i libvcruntime:undname.obj
 0001:0001e6cd       ?getLexicalFrame@UnDecorator@@CA?AVDName@@XZ 1001f6cd f i libvcruntime:undname.obj
 0001:0001e719       ?getMemory@_HeapManager@@QAEPAXIH@Z 1001f719 f   libvcruntime:undname.obj
 0001:0001e7ca       ?getNumberOfDimensions@UnDecorator@@CAHXZ 1001f7ca f   libvcruntime:undname.obj
 0001:0001e843       ?getOperatorName@UnDecorator@@CA?AVDName@@_NPA_N@Z 1001f843 f i libvcruntime:undname.obj
 0001:0001eff3       ?getPointerType@UnDecorator@@CA?AVDName@@ABV2@0@Z 1001fff3 f i libvcruntime:undname.obj
 0001:0001f018       ?getPointerTypeArray@UnDecorator@@CA?AVDName@@ABV2@0@Z 10020018 f i libvcruntime:undname.obj
 0001:0001f03d       ?getPrimaryDataType@UnDecorator@@CA?AVDName@@ABV2@@Z 1002003d f   libvcruntime:undname.obj
 0001:0001f2ae       ?getPtrRefDataType@UnDecorator@@CA?AVDName@@ABV2@H@Z 100202ae f   libvcruntime:undname.obj
 0001:0001f3f0       ?getPtrRefType@UnDecorator@@CA?AVDName@@ABV2@0PBD@Z 100203f0 f   libvcruntime:undname.obj
 0001:0001f52b       ?getReferenceType@UnDecorator@@CA?AVDName@@ABV2@0PBD@Z 1002052b f i libvcruntime:undname.obj
 0001:0001f54e       ?getRestrictionSpec@UnDecorator@@CA?AVDName@@XZ 1002054e f   libvcruntime:undname.obj
 0001:0001f67c       ?getReturnType@UnDecorator@@CA?AVDName@@PAV2@@Z 1002067c f   libvcruntime:undname.obj
 0001:0001f6b6       ?getScope@UnDecorator@@CA?AVDName@@XZ 100206b6 f   libvcruntime:undname.obj
 0001:0001fb8b       ?getScopedName@UnDecorator@@CA?AVDName@@XZ 10020b8b f   libvcruntime:undname.obj
 0001:0001fcc4       ?getSignedDimension@UnDecorator@@CA?AVDName@@XZ 10020cc4 f   libvcruntime:undname.obj
 0001:0001fd2b       ?getStorageConvention@UnDecorator@@CA?AVDName@@XZ 10020d2b f i libvcruntime:undname.obj
 0001:0001fd40       ?getString@DName@@QBEPADPAD0@Z 10020d40 f i libvcruntime:undname.obj
 0001:0001fd77       ?getString@DName@@QBEPADPADH@Z 10020d77 f i libvcruntime:undname.obj
 0001:0001fde2       ?getString@DNameStatusNode@@UBEPADPAD0@Z 10020de2 f i libvcruntime:undname.obj
 0001:0001fe12       ?getString@charNode@@UBEPADPAD0@Z 10020e12 f i libvcruntime:undname.obj
 0001:0001fe2c       ?getString@pDNameNode@@UBEPADPAD0@Z 10020e2c f i libvcruntime:undname.obj
 0001:0001fe48       ?getString@pairNode@@UBEPADPAD0@Z 10020e48 f i libvcruntime:undname.obj
 0001:0001fe9d       ?getString@pcharNode@@UBEPADPAD0@Z 10020e9d f i libvcruntime:undname.obj
 0001:0001febe       ?getStringEncoding@UnDecorator@@CA?AVDName@@PADH@Z 10020ebe f   libvcruntime:undname.obj
 0001:0001ff89       ?getStringHelper@@YAPADPAD00H@Z 10020f89 f i libvcruntime:undname.obj
 0001:0001ffcd       ?getSymbolName@UnDecorator@@CA?AVDName@@XZ 10020fcd f i libvcruntime:undname.obj
 0001:00020027       ?getTemplateArgumentList@UnDecorator@@CA?AVDName@@XZ 10021027 f   libvcruntime:undname.obj
 0001:00020374       ?getTemplateConstant@UnDecorator@@CA?AVDName@@XZ 10021374 f   libvcruntime:undname.obj
 0001:00020789       ?getTemplateName@UnDecorator@@CA?AVDName@@_N@Z 10021789 f   libvcruntime:undname.obj
 0001:00020934       ?getThisType@UnDecorator@@CA?AVDName@@XZ 10021934 f i libvcruntime:undname.obj
 0001:0002097c       ?getThrowTypes@UnDecorator@@CA?AVDName@@XZ 1002197c f   libvcruntime:undname.obj
 0001:00020a28       ?getTypeEncoding@UnDecorator@@CAHXZ 10021a28 f i libvcruntime:undname.obj
 0001:00020e24       ?getVCallThunkType@UnDecorator@@CA?AVDName@@XZ 10021e24 f i libvcruntime:undname.obj
 0001:00020e6d       ?getVbTableType@UnDecorator@@CA?AVDName@@ABV2@@Z 10021e6d f i libvcruntime:undname.obj
 0001:00020e87       ?getVdispMapType@UnDecorator@@CA?AVDName@@ABV2@@Z 10021e87 f i libvcruntime:undname.obj
 0001:00020ef2       ?getVfTableType@UnDecorator@@CA?AVDName@@ABV2@@Z 10021ef2 f i libvcruntime:undname.obj
 0001:000210b0       ?getZName@UnDecorator@@CA?AVDName@@_N0@Z 100220b0 f   libvcruntime:undname.obj
 0001:00021380       ?haveTemplateParameters@UnDecorator@@SAHXZ 10022380 f i libvcruntime:undname.obj
 0001:0002138d       ?isArray@DName@@QBEHXZ     1002238d f i libvcruntime:undname.obj
 0001:00021399       ?isComArray@DName@@QBEHXZ  10022399 f i libvcruntime:undname.obj
 0001:000213a5       ?isEmpty@DName@@QBEHXZ     100223a5 f i libvcruntime:undname.obj
 0001:000213af       ?isFull@Replicator@@QBEHXZ 100223af f i libvcruntime:undname.obj
 0001:000213ba       ?isNoTE@DName@@QBEHXZ      100223ba f i libvcruntime:undname.obj
 0001:000213c6       ?isPinPtr@DName@@QBEHXZ    100223c6 f i libvcruntime:undname.obj
 0001:000213d2       ?isPtrRef@DName@@QBEHXZ    100223d2 f i libvcruntime:undname.obj
 0001:000213de       ?isUDC@DName@@QBEHXZ       100223de f i libvcruntime:undname.obj
 0001:000213f3       ?isUDTThunk@DName@@QBEHXZ  100223f3 f i libvcruntime:undname.obj
 0001:00021408       ?isVCallThunk@DName@@QBEHXZ 10022408 f i libvcruntime:undname.obj
 0001:00021414       ?isValid@DName@@QBEHXZ     10022414 f i libvcruntime:undname.obj
 0001:00021420       ?length@DName@@QBEHXZ      10022420 f i libvcruntime:undname.obj
 0001:00021445       ?length@DNameStatusNode@@UBEHXZ 10022445 f i libvcruntime:undname.obj
 0001:00021449       ?length@charNode@@UBEHXZ   10022449 f i libvcruntime:undname.obj
 0001:0002144d       ?length@pDNameNode@@UBEHXZ 1002244d f i libvcruntime:undname.obj
 0001:0002145e       ?length@pairNode@@UBEHXZ   1002245e f i libvcruntime:undname.obj
 0001:000214ba       ?length@pcharNode@@UBEHXZ  100224ba f i libvcruntime:undname.obj
 0001:000214be       ?make@DNameStatusNode@@SAPAV1@W4DNameStatus@@@Z 100224be f i libvcruntime:undname.obj
 0001:00021565       ?setIsArray@DName@@QAEXXZ  10022565 f i libvcruntime:undname.obj
 0001:0002156f       ?setIsComArray@DName@@QAEXXZ 1002256f f i libvcruntime:undname.obj
 0001:00021579       ?setIsNoTE@DName@@QAEXXZ   10022579 f i libvcruntime:undname.obj
 0001:00021583       ?setIsPinPtr@DName@@QAEXXZ 10022583 f i libvcruntime:undname.obj
 0001:0002158d       ?setIsUDC@DName@@QAEXXZ    1002258d f i libvcruntime:undname.obj
 0001:0002159d       ?setIsVCallThunk@DName@@QAEXXZ 1002259d f i libvcruntime:undname.obj
 0001:000215a7       ?setPtrRef@DName@@QAEAAV1@XZ 100225a7 f i libvcruntime:undname.obj
 0001:000215b3       ?status@DName@@QBE?AW4DNameStatus@@XZ 100225b3 f i libvcruntime:undname.obj
 0001:00021638       ___unDName                 10022638 f   libvcruntime:undname.obj
 0001:000216f2       ___unDNameEx               100226f2 f   libvcruntime:undname.obj
 0001:000217ac       __vsprintf_s_l             100227ac f i libvcruntime:undname.obj
 0001:000217e4       _sprintf_s                 100227e4 f i libvcruntime:undname.obj
 0001:00021810       __global_unwind2           10022810 f   libvcruntime:_exsup_.obj
 0001:00021875       __local_unwind2            10022875 f   libvcruntime:_exsup_.obj
 0001:000218f9       __abnormal_termination     100228f9 f   libvcruntime:_exsup_.obj
 0001:0002191c       __NLG_Notify1              1002291c f   libvcruntime:_exsup_.obj
 0001:00021925       __NLG_Notify               10022925 f   libvcruntime:_exsup_.obj
 0001:0002193c       __NLG_Dispatch2            1002293c     libvcruntime:_exsup_.obj
 0001:0002193c       __NLG_Dispatch             1002293c     libvcruntime:_exsup_.obj
 0001:00021944       __NLG_Call                 10022944 f   libvcruntime:_exsup_.obj
 0001:00021946       __NLG_Return2              10022946     libvcruntime:_exsup_.obj
 0001:00021994       ??$__crt_fast_decode_pointer@P6AXXZ@@YAP6AXXZQ6AXXZ@Z 10022994 f i libvcruntime:purevirt.obj
 0001:000219ad       ??$__crt_interlocked_compare_exchange_pointer@$$A6AXXZ$$T$$T@@YAP6AXXZPDS6AXXZ$$T1@Z 100229ad f i libvcruntime:purevirt.obj
 0001:000219c3       ??$__crt_interlocked_exchange_pointer@$$A6AXXZP6AXXZ@@YAP6AXXZPDS6AXXZQ6AXXZ@Z 100229c3 f i libvcruntime:purevirt.obj
 0001:000219d3       ??$__crt_interlocked_read_pointer@$$A6AXXZ@@YAP6AXXZPDS6AXXZ@Z 100229d3 f i libvcruntime:purevirt.obj
 0001:000219e7       __get_purecall_handler     100229e7 f   libvcruntime:purevirt.obj
 0001:00021a0d       __purecall                 10022a0d f   libvcruntime:purevirt.obj
 0001:00021a2e       __set_purecall_handler     10022a2e f   libvcruntime:purevirt.obj
 0001:00021a5c       _malloc                    10022a5c f   libucrt:malloc.obj
 0001:00021a69       ??$?RPAU__crt_stdio_stream_data@@@__crt_internal_free_policy@@QBEXQBQAU__crt_stdio_stream_data@@@Z 10022a69 f i libucrt:_file.obj
 0001:00021a7f       ??0?$__crt_unique_heap_ptr@PAU__crt_stdio_stream_data@@U__crt_internal_free_policy@@@@QAE@QAPAU__crt_stdio_stream_data@@@Z 10022a7f f i libucrt:_file.obj
 0001:00021a93       ??0__crt_stdio_stream@@QAE@QAU_iobuf@@@Z 10022a93 f i libucrt:_file.obj
 0001:00021aa7       ??1?$__crt_unique_heap_ptr@PAU__crt_stdio_stream_data@@U__crt_internal_free_policy@@@@QAE@XZ 10022aa7 f i libucrt:_file.obj
 0001:00021abd       ??C__crt_stdio_stream@@QBEPAU__crt_stdio_stream_data@@XZ 10022abd f i libucrt:_file.obj
 0001:00021ac0       ?detach@?$__crt_unique_heap_ptr@PAU__crt_stdio_stream_data@@U__crt_internal_free_policy@@@@QAEPAPAU__crt_stdio_stream_data@@XZ 10022ac0 f i libucrt:_file.obj
 0001:00021ac6       ?release@?$__crt_unique_heap_ptr@PAU__crt_stdio_stream_data@@U__crt_internal_free_policy@@@@QAEXXZ 10022ac6 f i libucrt:_file.obj
 0001:00021adc       ___acrt_initialize_stdio   10022adc f   libucrt:_file.obj
 0001:00021bd6       ___acrt_iob_func           10022bd6 f   libucrt:_file.obj
 0001:00021bea       ___acrt_uninitialize_stdio 10022bea f   libucrt:_file.obj
 0001:00021c49       __get_stream_buffer_pointers 10022c49 f   libucrt:_file.obj
 0001:00021ca0       __lock_file                10022ca0 f   libucrt:_file.obj
 0001:00021cb9       __unlock_file              10022cb9 f   libucrt:_file.obj
 0001:00021cd2       ??$?0ABV?$stream_output_adapter@D@__crt_stdio_output@@AB_KABQBDABQAU__crt_locale_pointers@@ABQAD@?$format_validation_base@DV?$stream_output_adapter@D@__crt_stdio_output@@@__crt_stdio_output@@IAE@ABV?$stream_output_adapter@D@1@AB_KABQBDABQAU__crt_locale_pointers@@ABQAD@Z 10022cd2 f i libucrt:output.obj
 0001:00021cfd       ??$?0ABV?$stream_output_adapter@D@__crt_stdio_output@@AB_KABQBDABQAU__crt_locale_pointers@@ABQAD@?$positional_parameter_base@DV?$stream_output_adapter@D@__crt_stdio_output@@@__crt_stdio_output@@IAE@ABV?$stream_output_adapter@D@1@AB_KABQBDABQAU__crt_locale_pointers@@ABQAD@Z 10022cfd f i libucrt:output.obj
 0001:00021d57       ??$?0ABV?$stream_output_adapter@D@__crt_stdio_output@@AB_KABQBDABQAU__crt_locale_pointers@@ABQAD@?$standard_base@DV?$stream_output_adapter@D@__crt_stdio_output@@@__crt_stdio_output@@IAE@ABV?$stream_output_adapter@D@1@AB_KABQBDABQAU__crt_locale_pointers@@ABQAD@Z 10022d57 f i libucrt:output.obj
 0001:00021d99       ??$?0ABV?$stream_output_adapter@_W@__crt_stdio_output@@AB_KABQB_WABQAU__crt_locale_pointers@@ABQAD@?$format_validation_base@_WV?$stream_output_adapter@_W@__crt_stdio_output@@@__crt_stdio_output@@IAE@ABV?$stream_output_adapter@_W@1@AB_KABQB_WABQAU__crt_locale_pointers@@ABQAD@Z 10022d99 f i libucrt:output.obj
 0001:00021dc4       ??$?0ABV?$stream_output_adapter@_W@__crt_stdio_output@@AB_KABQB_WABQAU__crt_locale_pointers@@ABQAD@?$positional_parameter_base@_WV?$stream_output_adapter@_W@__crt_stdio_output@@@__crt_stdio_output@@IAE@ABV?$stream_output_adapter@_W@1@AB_KABQB_WABQAU__crt_locale_pointers@@ABQAD@Z 10022dc4 f i libucrt:output.obj
 0001:00021e1e       ??$?0ABV?$stream_output_adapter@_W@__crt_stdio_output@@AB_KABQB_WABQAU__crt_locale_pointers@@ABQAD@?$standard_base@_WV?$stream_output_adapter@_W@__crt_stdio_output@@@__crt_stdio_output@@IAE@ABV?$stream_output_adapter@_W@1@AB_KABQB_WABQAU__crt_locale_pointers@@ABQAD@Z 10022e1e f i libucrt:output.obj
 0001:00021e60       ??$?0ABV?$string_output_adapter@D@__crt_stdio_output@@AB_KABQBDABQAU__crt_locale_pointers@@ABQAD@?$format_validation_base@DV?$string_output_adapter@D@__crt_stdio_output@@@__crt_stdio_output@@IAE@ABV?$string_output_adapter@D@1@AB_KABQBDABQAU__crt_locale_pointers@@ABQAD@Z 10022e60 f i libucrt:output.obj
 0001:00021e8b       ??$?0ABV?$string_output_adapter@D@__crt_stdio_output@@AB_KABQBDABQAU__crt_locale_pointers@@ABQAD@?$positional_parameter_base@DV?$string_output_adapter@D@__crt_stdio_output@@@__crt_stdio_output@@IAE@ABV?$string_output_adapter@D@1@AB_KABQBDABQAU__crt_locale_pointers@@ABQAD@Z 10022e8b f i libucrt:output.obj
 0001:00021ee5       ??$?0ABV?$string_output_adapter@D@__crt_stdio_output@@AB_KABQBDABQAU__crt_locale_pointers@@ABQAD@?$standard_base@DV?$string_output_adapter@D@__crt_stdio_output@@@__crt_stdio_output@@IAE@ABV?$string_output_adapter@D@1@AB_KABQBDABQAU__crt_locale_pointers@@ABQAD@Z 10022ee5 f i libucrt:output.obj
 0001:00021f27       ??$?0ABV?$string_output_adapter@_W@__crt_stdio_output@@AB_KABQB_WABQAU__crt_locale_pointers@@ABQAD@?$format_validation_base@_WV?$string_output_adapter@_W@__crt_stdio_output@@@__crt_stdio_output@@IAE@ABV?$string_output_adapter@_W@1@AB_KABQB_WABQAU__crt_locale_pointers@@ABQAD@Z 10022f27 f i libucrt:output.obj
 0001:00021f52       ??$?0ABV?$string_output_adapter@_W@__crt_stdio_output@@AB_KABQB_WABQAU__crt_locale_pointers@@ABQAD@?$positional_parameter_base@_WV?$string_output_adapter@_W@__crt_stdio_output@@@__crt_stdio_output@@IAE@ABV?$string_output_adapter@_W@1@AB_KABQB_WABQAU__crt_locale_pointers@@ABQAD@Z 10022f52 f i libucrt:output.obj
 0001:00021fac       ??$?0ABV?$string_output_adapter@_W@__crt_stdio_output@@AB_KABQB_WABQAU__crt_locale_pointers@@ABQAD@?$standard_base@_WV?$string_output_adapter@_W@__crt_stdio_output@@@__crt_stdio_output@@IAE@ABV?$string_output_adapter@_W@1@AB_KABQB_WABQAU__crt_locale_pointers@@ABQAD@Z 10022fac f i libucrt:output.obj
 0001:00022378       ??$__crt_interlocked_read@J@@YAJPDJ@Z 10023378 f i libucrt:output.obj
 0001:000235e1       ??$count@D@formatting_buffer@__crt_stdio_output@@QBEIXZ 100245e1 f i libucrt:output.obj
 0001:000235ff       ??$count@_W@formatting_buffer@__crt_stdio_output@@QBEIXZ 100245ff f i libucrt:output.obj
 0001:0002361e       ??$data@D@formatting_buffer@__crt_stdio_output@@QAEPADXZ 1002461e f i libucrt:output.obj
 0001:0002362e       ??$data@_W@formatting_buffer@__crt_stdio_output@@QAEPA_WXZ 1002462e f i libucrt:output.obj
 0001:0002363e       ??$ensure_buffer_is_big_enough@D@formatting_buffer@__crt_stdio_output@@QAE_NI@Z 1002463e f i libucrt:output.obj
 0001:000236dc       ??$ensure_buffer_is_big_enough@_W@formatting_buffer@__crt_stdio_output@@QAE_NI@Z 100246dc f i libucrt:output.obj
 0001:0002377c       ??$extract_argument_from_va_list@C_J@?$positional_parameter_base@DV?$stream_output_adapter@D@__crt_stdio_output@@@__crt_stdio_output@@IAE_NAA_J@Z 1002477c f i libucrt:output.obj
 0001:00023813       ??$extract_argument_from_va_list@C_J@?$positional_parameter_base@DV?$string_output_adapter@D@__crt_stdio_output@@@__crt_stdio_output@@IAE_NAA_J@Z 10024813 f i libucrt:output.obj
 0001:000238aa       ??$extract_argument_from_va_list@C_J@?$positional_parameter_base@_WV?$stream_output_adapter@_W@__crt_stdio_output@@@__crt_stdio_output@@IAE_NAA_J@Z 100248aa f i libucrt:output.obj
 0001:00023941       ??$extract_argument_from_va_list@C_J@?$positional_parameter_base@_WV?$string_output_adapter@_W@__crt_stdio_output@@@__crt_stdio_output@@IAE_NAA_J@Z 10024941 f i libucrt:output.obj
 0001:000239d8       ??$extract_argument_from_va_list@C_J@?$standard_base@DV?$stream_output_adapter@D@__crt_stdio_output@@@__crt_stdio_output@@IAE_NAA_J@Z 100249d8 f i libucrt:output.obj
 0001:000239fe       ??$extract_argument_from_va_list@C_J@?$standard_base@DV?$string_output_adapter@D@__crt_stdio_output@@@__crt_stdio_output@@IAE_NAA_J@Z 100249fe f i libucrt:output.obj
 0001:00023a24       ??$extract_argument_from_va_list@C_J@?$standard_base@_WV?$stream_output_adapter@_W@__crt_stdio_output@@@__crt_stdio_output@@IAE_NAA_J@Z 10024a24 f i libucrt:output.obj
 0001:00023a4a       ??$extract_argument_from_va_list@C_J@?$standard_base@_WV?$string_output_adapter@_W@__crt_stdio_output@@@__crt_stdio_output@@IAE_NAA_J@Z 10024a4a f i libucrt:output.obj
 0001:00023a70       ??$extract_argument_from_va_list@E_J@?$positional_parameter_base@DV?$stream_output_adapter@D@__crt_stdio_output@@@__crt_stdio_output@@IAE_NAA_J@Z 10024a70 f i libucrt:output.obj
 0001:00023b07       ??$extract_argument_from_va_list@E_J@?$positional_parameter_base@DV?$string_output_adapter@D@__crt_stdio_output@@@__crt_stdio_output@@IAE_NAA_J@Z 10024b07 f i libucrt:output.obj
 0001:00023b9e       ??$extract_argument_from_va_list@E_J@?$positional_parameter_base@_WV?$stream_output_adapter@_W@__crt_stdio_output@@@__crt_stdio_output@@IAE_NAA_J@Z 10024b9e f i libucrt:output.obj
 0001:00023c35       ??$extract_argument_from_va_list@E_J@?$positional_parameter_base@_WV?$string_output_adapter@_W@__crt_stdio_output@@@__crt_stdio_output@@IAE_NAA_J@Z 10024c35 f i libucrt:output.obj
 0001:00023ccc       ??$extract_argument_from_va_list@E_J@?$standard_base@DV?$stream_output_adapter@D@__crt_stdio_output@@@__crt_stdio_output@@IAE_NAA_J@Z 10024ccc f i libucrt:output.obj
 0001:00023cf2       ??$extract_argument_from_va_list@E_J@?$standard_base@DV?$string_output_adapter@D@__crt_stdio_output@@@__crt_stdio_output@@IAE_NAA_J@Z 10024cf2 f i libucrt:output.obj
 0001:00023d18       ??$extract_argument_from_va_list@E_J@?$standard_base@_WV?$stream_output_adapter@_W@__crt_stdio_output@@@__crt_stdio_output@@IAE_NAA_J@Z 10024d18 f i libucrt:output.obj
 0001:00023d3e       ??$extract_argument_from_va_list@E_J@?$standard_base@_WV?$string_output_adapter@_W@__crt_stdio_output@@@__crt_stdio_output@@IAE_NAA_J@Z 10024d3e f i libucrt:output.obj
 0001:00023d64       ??$extract_argument_from_va_list@F_J@?$positional_parameter_base@DV?$stream_output_adapter@D@__crt_stdio_output@@@__crt_stdio_output@@IAE_NAA_J@Z 10024d64 f i libucrt:output.obj
 0001:00023dfb       ??$extract_argument_from_va_list@F_J@?$positional_parameter_base@DV?$string_output_adapter@D@__crt_stdio_output@@@__crt_stdio_output@@IAE_NAA_J@Z 10024dfb f i libucrt:output.obj
 0001:00023e92       ??$extract_argument_from_va_list@F_J@?$positional_parameter_base@_WV?$stream_output_adapter@_W@__crt_stdio_output@@@__crt_stdio_output@@IAE_NAA_J@Z 10024e92 f i libucrt:output.obj
 0001:00023f29       ??$extract_argument_from_va_list@F_J@?$positional_parameter_base@_WV?$string_output_adapter@_W@__crt_stdio_output@@@__crt_stdio_output@@IAE_NAA_J@Z 10024f29 f i libucrt:output.obj
 0001:00023fc0       ??$extract_argument_from_va_list@F_J@?$standard_base@DV?$stream_output_adapter@D@__crt_stdio_output@@@__crt_stdio_output@@IAE_NAA_J@Z 10024fc0 f i libucrt:output.obj
 0001:00023fe6       ??$extract_argument_from_va_list@F_J@?$standard_base@DV?$string_output_adapter@D@__crt_stdio_output@@@__crt_stdio_output@@IAE_NAA_J@Z 10024fe6 f i libucrt:output.obj
 0001:0002400c       ??$extract_argument_from_va_list@F_J@?$standard_base@_WV?$stream_output_adapter@_W@__crt_stdio_output@@@__crt_stdio_output@@IAE_NAA_J@Z 1002500c f i libucrt:output.obj
 0001:00024032       ??$extract_argument_from_va_list@F_J@?$standard_base@_WV?$string_output_adapter@_W@__crt_stdio_output@@@__crt_stdio_output@@IAE_NAA_J@Z 10025032 f i libucrt:output.obj
 0001:00024058       ??$extract_argument_from_va_list@GD@?$positional_parameter_base@DV?$stream_output_adapter@D@__crt_stdio_output@@@__crt_stdio_output@@IAE_NAAD@Z 10025058 f i libucrt:output.obj
 0001:000240ee       ??$extract_argument_from_va_list@GD@?$positional_parameter_base@DV?$string_output_adapter@D@__crt_stdio_output@@@__crt_stdio_output@@IAE_NAAD@Z 100250ee f i libucrt:output.obj
 0001:00024184       ??$extract_argument_from_va_list@GD@?$standard_base@DV?$stream_output_adapter@D@__crt_stdio_output@@@__crt_stdio_output@@IAE_NAAD@Z 10025184 f i libucrt:output.obj
 0001:000241a4       ??$extract_argument_from_va_list@GD@?$standard_base@DV?$string_output_adapter@D@__crt_stdio_output@@@__crt_stdio_output@@IAE_NAAD@Z 100251a4 f i libucrt:output.obj
 0001:000241c4       ??$extract_argument_from_va_list@G_J@?$positional_parameter_base@DV?$stream_output_adapter@D@__crt_stdio_output@@@__crt_stdio_output@@IAE_NAA_J@Z 100251c4 f i libucrt:output.obj
 0001:0002425b       ??$extract_argument_from_va_list@G_J@?$positional_parameter_base@DV?$string_output_adapter@D@__crt_stdio_output@@@__crt_stdio_output@@IAE_NAA_J@Z 1002525b f i libucrt:output.obj
 0001:000242f2       ??$extract_argument_from_va_list@G_J@?$positional_parameter_base@_WV?$stream_output_adapter@_W@__crt_stdio_output@@@__crt_stdio_output@@IAE_NAA_J@Z 100252f2 f i libucrt:output.obj
 0001:00024389       ??$extract_argument_from_va_list@G_J@?$positional_parameter_base@_WV?$string_output_adapter@_W@__crt_stdio_output@@@__crt_stdio_output@@IAE_NAA_J@Z 10025389 f i libucrt:output.obj
 0001:00024420       ??$extract_argument_from_va_list@G_J@?$standard_base@DV?$stream_output_adapter@D@__crt_stdio_output@@@__crt_stdio_output@@IAE_NAA_J@Z 10025420 f i libucrt:output.obj
 0001:00024446       ??$extract_argument_from_va_list@G_J@?$standard_base@DV?$string_output_adapter@D@__crt_stdio_output@@@__crt_stdio_output@@IAE_NAA_J@Z 10025446 f i libucrt:output.obj
 0001:0002446c       ??$extract_argument_from_va_list@G_J@?$standard_base@_WV?$stream_output_adapter@_W@__crt_stdio_output@@@__crt_stdio_output@@IAE_NAA_J@Z 1002546c f i libucrt:output.obj
 0001:00024492       ??$extract_argument_from_va_list@G_J@?$standard_base@_WV?$string_output_adapter@_W@__crt_stdio_output@@@__crt_stdio_output@@IAE_NAA_J@Z 10025492 f i libucrt:output.obj
 0001:000244b8       ??$extract_argument_from_va_list@H_J@?$positional_parameter_base@DV?$stream_output_adapter@D@__crt_stdio_output@@@__crt_stdio_output@@IAE_NAA_J@Z 100254b8 f i libucrt:output.obj
 0001:0002454c       ??$extract_argument_from_va_list@H_J@?$positional_parameter_base@DV?$string_output_adapter@D@__crt_stdio_output@@@__crt_stdio_output@@IAE_NAA_J@Z 1002554c f i libucrt:output.obj
 0001:000245e0       ??$extract_argument_from_va_list@H_J@?$positional_parameter_base@_WV?$stream_output_adapter@_W@__crt_stdio_output@@@__crt_stdio_output@@IAE_NAA_J@Z 100255e0 f i libucrt:output.obj
 0001:00024674       ??$extract_argument_from_va_list@H_J@?$positional_parameter_base@_WV?$string_output_adapter@_W@__crt_stdio_output@@@__crt_stdio_output@@IAE_NAA_J@Z 10025674 f i libucrt:output.obj
 0001:00024708       ??$extract_argument_from_va_list@H_J@?$standard_base@DV?$stream_output_adapter@D@__crt_stdio_output@@@__crt_stdio_output@@IAE_NAA_J@Z 10025708 f i libucrt:output.obj
 0001:0002472d       ??$extract_argument_from_va_list@H_J@?$standard_base@DV?$string_output_adapter@D@__crt_stdio_output@@@__crt_stdio_output@@IAE_NAA_J@Z 1002572d f i libucrt:output.obj
 0001:00024752       ??$extract_argument_from_va_list@H_J@?$standard_base@_WV?$stream_output_adapter@_W@__crt_stdio_output@@@__crt_stdio_output@@IAE_NAA_J@Z 10025752 f i libucrt:output.obj
 0001:00024777       ??$extract_argument_from_va_list@H_J@?$standard_base@_WV?$string_output_adapter@_W@__crt_stdio_output@@@__crt_stdio_output@@IAE_NAA_J@Z 10025777 f i libucrt:output.obj
 0001:0002479c       ??$extract_argument_from_va_list@I_J@?$positional_parameter_base@DV?$stream_output_adapter@D@__crt_stdio_output@@@__crt_stdio_output@@IAE_NAA_J@Z 1002579c f i libucrt:output.obj
 0001:0002483c       ??$extract_argument_from_va_list@I_J@?$positional_parameter_base@DV?$string_output_adapter@D@__crt_stdio_output@@@__crt_stdio_output@@IAE_NAA_J@Z 1002583c f i libucrt:output.obj
 0001:000248dc       ??$extract_argument_from_va_list@I_J@?$positional_parameter_base@_WV?$stream_output_adapter@_W@__crt_stdio_output@@@__crt_stdio_output@@IAE_NAA_J@Z 100258dc f i libucrt:output.obj
 0001:0002497c       ??$extract_argument_from_va_list@I_J@?$positional_parameter_base@_WV?$string_output_adapter@_W@__crt_stdio_output@@@__crt_stdio_output@@IAE_NAA_J@Z 1002597c f i libucrt:output.obj
 0001:00024a1c       ??$extract_argument_from_va_list@I_J@?$standard_base@DV?$stream_output_adapter@D@__crt_stdio_output@@@__crt_stdio_output@@IAE_NAA_J@Z 10025a1c f i libucrt:output.obj
 0001:00024a41       ??$extract_argument_from_va_list@I_J@?$standard_base@DV?$string_output_adapter@D@__crt_stdio_output@@@__crt_stdio_output@@IAE_NAA_J@Z 10025a41 f i libucrt:output.obj
 0001:00024a66       ??$extract_argument_from_va_list@I_J@?$standard_base@_WV?$stream_output_adapter@_W@__crt_stdio_output@@@__crt_stdio_output@@IAE_NAA_J@Z 10025a66 f i libucrt:output.obj
 0001:00024a8b       ??$extract_argument_from_va_list@I_J@?$standard_base@_WV?$string_output_adapter@_W@__crt_stdio_output@@@__crt_stdio_output@@IAE_NAA_J@Z 10025a8b f i libucrt:output.obj
 0001:00024ab0       ??$extract_argument_from_va_list@PADPAD@?$positional_parameter_base@DV?$stream_output_adapter@D@__crt_stdio_output@@@__crt_stdio_output@@IAE_NAAPAD@Z 10025ab0 f i libucrt:output.obj
 0001:00024b46       ??$extract_argument_from_va_list@PADPAD@?$positional_parameter_base@DV?$string_output_adapter@D@__crt_stdio_output@@@__crt_stdio_output@@IAE_NAAPAD@Z 10025b46 f i libucrt:output.obj
 0001:00024bdc       ??$extract_argument_from_va_list@PADPAD@?$positional_parameter_base@_WV?$stream_output_adapter@_W@__crt_stdio_output@@@__crt_stdio_output@@IAE_NAAPAD@Z 10025bdc f i libucrt:output.obj
 0001:00024c72       ??$extract_argument_from_va_list@PADPAD@?$positional_parameter_base@_WV?$string_output_adapter@_W@__crt_stdio_output@@@__crt_stdio_output@@IAE_NAAPAD@Z 10025c72 f i libucrt:output.obj
 0001:00024d08       ??$extract_argument_from_va_list@PADPAD@?$standard_base@DV?$stream_output_adapter@D@__crt_stdio_output@@@__crt_stdio_output@@IAE_NAAPAD@Z 10025d08 f i libucrt:output.obj
 0001:00024d28       ??$extract_argument_from_va_list@PADPAD@?$standard_base@DV?$string_output_adapter@D@__crt_stdio_output@@@__crt_stdio_output@@IAE_NAAPAD@Z 10025d28 f i libucrt:output.obj
 0001:00024d48       ??$extract_argument_from_va_list@PADPAD@?$standard_base@_WV?$stream_output_adapter@_W@__crt_stdio_output@@@__crt_stdio_output@@IAE_NAAPAD@Z 10025d48 f i libucrt:output.obj
 0001:00024d68       ??$extract_argument_from_va_list@PADPAD@?$standard_base@_WV?$string_output_adapter@_W@__crt_stdio_output@@@__crt_stdio_output@@IAE_NAAPAD@Z 10025d68 f i libucrt:output.obj
 0001:00025160       ??$extract_argument_from_va_list@PAXPAX@?$positional_parameter_base@DV?$stream_output_adapter@D@__crt_stdio_output@@@__crt_stdio_output@@IAE_NAAPAX@Z 10026160 f i libucrt:output.obj
 0001:000251f6       ??$extract_argument_from_va_list@PAXPAX@?$positional_parameter_base@DV?$string_output_adapter@D@__crt_stdio_output@@@__crt_stdio_output@@IAE_NAAPAX@Z 100261f6 f i libucrt:output.obj
 0001:0002528c       ??$extract_argument_from_va_list@PAXPAX@?$positional_parameter_base@_WV?$stream_output_adapter@_W@__crt_stdio_output@@@__crt_stdio_output@@IAE_NAAPAX@Z 1002628c f i libucrt:output.obj
 0001:00025322       ??$extract_argument_from_va_list@PAXPAX@?$positional_parameter_base@_WV?$string_output_adapter@_W@__crt_stdio_output@@@__crt_stdio_output@@IAE_NAAPAX@Z 10026322 f i libucrt:output.obj
 0001:000253b8       ??$extract_argument_from_va_list@PAXPAX@?$standard_base@DV?$stream_output_adapter@D@__crt_stdio_output@@@__crt_stdio_output@@IAE_NAAPAX@Z 100263b8 f i libucrt:output.obj
 0001:000253d8       ??$extract_argument_from_va_list@PAXPAX@?$standard_base@DV?$string_output_adapter@D@__crt_stdio_output@@@__crt_stdio_output@@IAE_NAAPAX@Z 100263d8 f i libucrt:output.obj
 0001:000253f8       ??$extract_argument_from_va_list@PAXPAX@?$standard_base@_WV?$stream_output_adapter@_W@__crt_stdio_output@@@__crt_stdio_output@@IAE_NAAPAX@Z 100263f8 f i libucrt:output.obj
 0001:00025418       ??$extract_argument_from_va_list@PAXPAX@?$standard_base@_WV?$string_output_adapter@_W@__crt_stdio_output@@@__crt_stdio_output@@IAE_NAAPAX@Z 10026418 f i libucrt:output.obj
 0001:00025438       ??$extract_argument_from_va_list@U_CRT_DOUBLE@@U1@@?$positional_parameter_base@DV?$stream_output_adapter@D@__crt_stdio_output@@@__crt_stdio_output@@IAE_NAAU_CRT_DOUBLE@@@Z 10026438 f i libucrt:output.obj
 0001:000254df       ??$extract_argument_from_va_list@U_CRT_DOUBLE@@U1@@?$positional_parameter_base@DV?$string_output_adapter@D@__crt_stdio_output@@@__crt_stdio_output@@IAE_NAAU_CRT_DOUBLE@@@Z 100264df f i libucrt:output.obj
 0001:00025586       ??$extract_argument_from_va_list@U_CRT_DOUBLE@@U1@@?$positional_parameter_base@_WV?$stream_output_adapter@_W@__crt_stdio_output@@@__crt_stdio_output@@IAE_NAAU_CRT_DOUBLE@@@Z 10026586 f i libucrt:output.obj
 0001:0002562d       ??$extract_argument_from_va_list@U_CRT_DOUBLE@@U1@@?$positional_parameter_base@_WV?$string_output_adapter@_W@__crt_stdio_output@@@__crt_stdio_output@@IAE_NAAU_CRT_DOUBLE@@@Z 1002662d f i libucrt:output.obj
 0001:000256d4       ??$extract_argument_from_va_list@U_CRT_DOUBLE@@U1@@?$standard_base@DV?$stream_output_adapter@D@__crt_stdio_output@@@__crt_stdio_output@@IAE_NAAU_CRT_DOUBLE@@@Z 100266d4 f i libucrt:output.obj
 0001:000256fc       ??$extract_argument_from_va_list@U_CRT_DOUBLE@@U1@@?$standard_base@DV?$string_output_adapter@D@__crt_stdio_output@@@__crt_stdio_output@@IAE_NAAU_CRT_DOUBLE@@@Z 100266fc f i libucrt:output.obj
 0001:00025724       ??$extract_argument_from_va_list@U_CRT_DOUBLE@@U1@@?$standard_base@_WV?$stream_output_adapter@_W@__crt_stdio_output@@@__crt_stdio_output@@IAE_NAAU_CRT_DOUBLE@@@Z 10026724 f i libucrt:output.obj
 0001:0002574c       ??$extract_argument_from_va_list@U_CRT_DOUBLE@@U1@@?$standard_base@_WV?$string_output_adapter@_W@__crt_stdio_output@@@__crt_stdio_output@@IAE_NAAU_CRT_DOUBLE@@@Z 1002674c f i libucrt:output.obj
 0001:00025774       ??$extract_argument_from_va_list@_J_J@?$positional_parameter_base@DV?$stream_output_adapter@D@__crt_stdio_output@@@__crt_stdio_output@@IAE_NAA_J@Z 10026774 f i libucrt:output.obj
 0001:0002581b       ??$extract_argument_from_va_list@_J_J@?$positional_parameter_base@DV?$string_output_adapter@D@__crt_stdio_output@@@__crt_stdio_output@@IAE_NAA_J@Z 1002681b f i libucrt:output.obj
 0001:000258c2       ??$extract_argument_from_va_list@_J_J@?$positional_parameter_base@_WV?$stream_output_adapter@_W@__crt_stdio_output@@@__crt_stdio_output@@IAE_NAA_J@Z 100268c2 f i libucrt:output.obj
 0001:00025969       ??$extract_argument_from_va_list@_J_J@?$positional_parameter_base@_WV?$string_output_adapter@_W@__crt_stdio_output@@@__crt_stdio_output@@IAE_NAA_J@Z 10026969 f i libucrt:output.obj
 0001:00025a10       ??$extract_argument_from_va_list@_J_J@?$standard_base@DV?$stream_output_adapter@D@__crt_stdio_output@@@__crt_stdio_output@@IAE_NAA_J@Z 10026a10 f i libucrt:output.obj
 0001:00025a38       ??$extract_argument_from_va_list@_J_J@?$standard_base@DV?$string_output_adapter@D@__crt_stdio_output@@@__crt_stdio_output@@IAE_NAA_J@Z 10026a38 f i libucrt:output.obj
 0001:00025a60       ??$extract_argument_from_va_list@_J_J@?$standard_base@_WV?$stream_output_adapter@_W@__crt_stdio_output@@@__crt_stdio_output@@IAE_NAA_J@Z 10026a60 f i libucrt:output.obj
 0001:00025a88       ??$extract_argument_from_va_list@_J_J@?$standard_base@_WV?$string_output_adapter@_W@__crt_stdio_output@@@__crt_stdio_output@@IAE_NAA_J@Z 10026a88 f i libucrt:output.obj
 0001:00025ab0       ??$extract_argument_from_va_list@_K_J@?$positional_parameter_base@DV?$stream_output_adapter@D@__crt_stdio_output@@@__crt_stdio_output@@IAE_NAA_J@Z 10026ab0 f i libucrt:output.obj
 0001:00025b57       ??$extract_argument_from_va_list@_K_J@?$positional_parameter_base@DV?$string_output_adapter@D@__crt_stdio_output@@@__crt_stdio_output@@IAE_NAA_J@Z 10026b57 f i libucrt:output.obj
 0001:00025bfe       ??$extract_argument_from_va_list@_K_J@?$positional_parameter_base@_WV?$stream_output_adapter@_W@__crt_stdio_output@@@__crt_stdio_output@@IAE_NAA_J@Z 10026bfe f i libucrt:output.obj
 0001:00025ca5       ??$extract_argument_from_va_list@_K_J@?$positional_parameter_base@_WV?$string_output_adapter@_W@__crt_stdio_output@@@__crt_stdio_output@@IAE_NAA_J@Z 10026ca5 f i libucrt:output.obj
 0001:00025d4c       ??$extract_argument_from_va_list@_K_J@?$standard_base@DV?$stream_output_adapter@D@__crt_stdio_output@@@__crt_stdio_output@@IAE_NAA_J@Z 10026d4c f i libucrt:output.obj
 0001:00025d74       ??$extract_argument_from_va_list@_K_J@?$standard_base@DV?$string_output_adapter@D@__crt_stdio_output@@@__crt_stdio_output@@IAE_NAA_J@Z 10026d74 f i libucrt:output.obj
 0001:00025d9c       ??$extract_argument_from_va_list@_K_J@?$standard_base@_WV?$stream_output_adapter@_W@__crt_stdio_output@@@__crt_stdio_output@@IAE_NAA_J@Z 10026d9c f i libucrt:output.obj
 0001:00025dc4       ??$extract_argument_from_va_list@_K_J@?$standard_base@_WV?$string_output_adapter@_W@__crt_stdio_output@@@__crt_stdio_output@@IAE_NAA_J@Z 10026dc4 f i libucrt:output.obj
 0001:00025dec       ??$extract_argument_from_va_list@_W_W@?$positional_parameter_base@DV?$stream_output_adapter@D@__crt_stdio_output@@@__crt_stdio_output@@IAE_NAA_W@Z 10026dec f i libucrt:output.obj
 0001:00025e87       ??$extract_argument_from_va_list@_W_W@?$positional_parameter_base@DV?$string_output_adapter@D@__crt_stdio_output@@@__crt_stdio_output@@IAE_NAA_W@Z 10026e87 f i libucrt:output.obj
 0001:00025f22       ??$extract_argument_from_va_list@_W_W@?$positional_parameter_base@_WV?$stream_output_adapter@_W@__crt_stdio_output@@@__crt_stdio_output@@IAE_NAA_W@Z 10026f22 f i libucrt:output.obj
 0001:00025fbd       ??$extract_argument_from_va_list@_W_W@?$positional_parameter_base@_WV?$string_output_adapter@_W@__crt_stdio_output@@@__crt_stdio_output@@IAE_NAA_W@Z 10026fbd f i libucrt:output.obj
 0001:00026058       ??$extract_argument_from_va_list@_W_W@?$standard_base@DV?$stream_output_adapter@D@__crt_stdio_output@@@__crt_stdio_output@@IAE_NAA_W@Z 10027058 f i libucrt:output.obj
 0001:0002607b       ??$extract_argument_from_va_list@_W_W@?$standard_base@DV?$string_output_adapter@D@__crt_stdio_output@@@__crt_stdio_output@@IAE_NAA_W@Z 1002707b f i libucrt:output.obj
 0001:0002609e       ??$extract_argument_from_va_list@_W_W@?$standard_base@_WV?$stream_output_adapter@_W@__crt_stdio_output@@@__crt_stdio_output@@IAE_NAA_W@Z 1002709e f i libucrt:output.obj
 0001:000260c1       ??$extract_argument_from_va_list@_W_W@?$standard_base@_WV?$string_output_adapter@_W@__crt_stdio_output@@@__crt_stdio_output@@IAE_NAA_W@Z 100270c1 f i libucrt:output.obj
 0001:000260e4       ??$get_parameter_type@D@?$positional_parameter_base@DV?$stream_output_adapter@D@__crt_stdio_output@@@__crt_stdio_output@@CA?AW4parameter_type@01@PAD@Z 100270e4 f i libucrt:output.obj
 0001:000260e8       ??$get_parameter_type@D@?$positional_parameter_base@DV?$string_output_adapter@D@__crt_stdio_output@@@__crt_stdio_output@@CA?AW4parameter_type@01@PAD@Z 100270e8 f i libucrt:output.obj
 0001:000260ec       ??$get_parameter_type@D@?$positional_parameter_base@_WV?$stream_output_adapter@_W@__crt_stdio_output@@@__crt_stdio_output@@CA?AW4parameter_type@01@PAD@Z 100270ec f i libucrt:output.obj
 0001:000260f0       ??$get_parameter_type@D@?$positional_parameter_base@_WV?$string_output_adapter@_W@__crt_stdio_output@@@__crt_stdio_output@@CA?AW4parameter_type@01@PAD@Z 100270f0 f i libucrt:output.obj
 0001:00026104       ??$get_parameter_type@X@?$positional_parameter_base@DV?$stream_output_adapter@D@__crt_stdio_output@@@__crt_stdio_output@@CA?AW4parameter_type@01@PAX@Z 10027104 f i libucrt:output.obj
 0001:00026108       ??$get_parameter_type@X@?$positional_parameter_base@DV?$string_output_adapter@D@__crt_stdio_output@@@__crt_stdio_output@@CA?AW4parameter_type@01@PAX@Z 10027108 f i libucrt:output.obj
 0001:0002610c       ??$get_parameter_type@X@?$positional_parameter_base@_WV?$stream_output_adapter@_W@__crt_stdio_output@@@__crt_stdio_output@@CA?AW4parameter_type@01@PAX@Z 1002710c f i libucrt:output.obj
 0001:00026110       ??$get_parameter_type@X@?$positional_parameter_base@_WV?$string_output_adapter@_W@__crt_stdio_output@@@__crt_stdio_output@@CA?AW4parameter_type@01@PAX@Z 10027110 f i libucrt:output.obj
 0001:00026114       ??$is_character_specifier@D@?$positional_parameter_base@DV?$stream_output_adapter@D@__crt_stdio_output@@@__crt_stdio_output@@CA_ND@Z 10027114 f i libucrt:output.obj
 0001:00026132       ??$is_character_specifier@D@?$positional_parameter_base@DV?$string_output_adapter@D@__crt_stdio_output@@@__crt_stdio_output@@CA_ND@Z 10027132 f i libucrt:output.obj
 0001:00026150       ??$is_character_specifier@_W@?$positional_parameter_base@_WV?$stream_output_adapter@_W@__crt_stdio_output@@@__crt_stdio_output@@CA_N_W@Z 10027150 f i libucrt:output.obj
 0001:00026171       ??$is_character_specifier@_W@?$positional_parameter_base@_WV?$string_output_adapter@_W@__crt_stdio_output@@@__crt_stdio_output@@CA_N_W@Z 10027171 f i libucrt:output.obj
 0001:00026192       ??$is_integral_specifier@D@?$positional_parameter_base@DV?$stream_output_adapter@D@__crt_stdio_output@@@__crt_stdio_output@@CA_ND@Z 10027192 f i libucrt:output.obj
 0001:000261c9       ??$is_integral_specifier@D@?$positional_parameter_base@DV?$string_output_adapter@D@__crt_stdio_output@@@__crt_stdio_output@@CA_ND@Z 100271c9 f i libucrt:output.obj
 0001:00026200       ??$is_integral_specifier@_W@?$positional_parameter_base@_WV?$stream_output_adapter@_W@__crt_stdio_output@@@__crt_stdio_output@@CA_N_W@Z 10027200 f i libucrt:output.obj
 0001:00026249       ??$is_integral_specifier@_W@?$positional_parameter_base@_WV?$string_output_adapter@_W@__crt_stdio_output@@@__crt_stdio_output@@CA_N_W@Z 10027249 f i libucrt:output.obj
 0001:00026292       ??$is_pointer_specifier@D@?$positional_parameter_base@DV?$stream_output_adapter@D@__crt_stdio_output@@@__crt_stdio_output@@CA_ND@Z 10027292 f i libucrt:output.obj
 0001:000262a3       ??$is_pointer_specifier@D@?$positional_parameter_base@DV?$string_output_adapter@D@__crt_stdio_output@@@__crt_stdio_output@@CA_ND@Z 100272a3 f i libucrt:output.obj
 0001:000262b4       ??$is_pointer_specifier@_W@?$positional_parameter_base@_WV?$stream_output_adapter@_W@__crt_stdio_output@@@__crt_stdio_output@@CA_N_W@Z 100272b4 f i libucrt:output.obj
 0001:000262c6       ??$is_pointer_specifier@_W@?$positional_parameter_base@_WV?$string_output_adapter@_W@__crt_stdio_output@@@__crt_stdio_output@@CA_N_W@Z 100272c6 f i libucrt:output.obj
 0001:000262d8       ??$is_string_specifier@D@?$positional_parameter_base@DV?$stream_output_adapter@D@__crt_stdio_output@@@__crt_stdio_output@@CA_ND@Z 100272d8 f i libucrt:output.obj
 0001:000262f6       ??$is_string_specifier@D@?$positional_parameter_base@DV?$string_output_adapter@D@__crt_stdio_output@@@__crt_stdio_output@@CA_ND@Z 100272f6 f i libucrt:output.obj
 0001:00026314       ??$is_string_specifier@_W@?$positional_parameter_base@_WV?$stream_output_adapter@_W@__crt_stdio_output@@@__crt_stdio_output@@CA_N_W@Z 10027314 f i libucrt:output.obj
 0001:00026335       ??$is_string_specifier@_W@?$positional_parameter_base@_WV?$string_output_adapter@_W@__crt_stdio_output@@@__crt_stdio_output@@CA_N_W@Z 10027335 f i libucrt:output.obj
 0001:00026356       ??$is_wide_character_specifier@D@__crt_stdio_output@@YA_N_KDW4length_modifier@0@@Z 10027356 f i libucrt:output.obj
 0001:00026393       ??$is_wide_character_specifier@_W@__crt_stdio_output@@YA_N_K_WW4length_modifier@0@@Z 10027393 f i libucrt:output.obj
 0001:000263f4       ??$peek_va_arg@C@__crt_stdio_output@@YACPAD@Z 100273f4 f i libucrt:output.obj
 0001:00026403       ??$peek_va_arg@E@__crt_stdio_output@@YAEPAD@Z 10027403 f i libucrt:output.obj
 0001:00026412       ??$peek_va_arg@F@__crt_stdio_output@@YAFPAD@Z 10027412 f i libucrt:output.obj
 0001:00026422       ??$peek_va_arg@G@__crt_stdio_output@@YAGPAD@Z 10027422 f i libucrt:output.obj
 0001:00026432       ??$peek_va_arg@H@__crt_stdio_output@@YAHPAD@Z 10027432 f i libucrt:output.obj
 0001:00026441       ??$peek_va_arg@I@__crt_stdio_output@@YAIPAD@Z 10027441 f i libucrt:output.obj
 0001:00026450       ??$peek_va_arg@PAD@__crt_stdio_output@@YAPADPAD@Z 10027450 f i libucrt:output.obj
 0001:0002649b       ??$peek_va_arg@PAX@__crt_stdio_output@@YAPAXPAD@Z 1002749b f i libucrt:output.obj
 0001:000264aa       ??$peek_va_arg@U_CRT_DOUBLE@@@__crt_stdio_output@@YA?AU_CRT_DOUBLE@@PAD@Z 100274aa f i libucrt:output.obj
 0001:000264bc       ??$peek_va_arg@_J@__crt_stdio_output@@YA_JPAD@Z 100274bc f i libucrt:output.obj
 0001:000264ce       ??$peek_va_arg@_K@__crt_stdio_output@@YA_KPAD@Z 100274ce f i libucrt:output.obj
 0001:000264e0       ??$peek_va_arg@_W@__crt_stdio_output@@YA_WPAD@Z 100274e0 f i libucrt:output.obj
 0001:000264f0       ??$puttc_nolock@ABDPAU_iobuf@@@?$__crt_char_traits@D@@SAHABD$$QAPAU_iobuf@@@Z 100274f0 f i libucrt:output.obj
 0001:00026510       ??$puttc_nolock@AB_WPAU_iobuf@@@?$__crt_char_traits@_W@@SAGAB_W$$QAPAU_iobuf@@@Z 10027510 f i libucrt:output.obj
 0001:00026530       ??$read_va_arg@C@__crt_stdio_output@@YACAAPAD@Z 10027530 f i libucrt:output.obj
 0001:00026546       ??$read_va_arg@E@__crt_stdio_output@@YAEAAPAD@Z 10027546 f i libucrt:output.obj
 0001:0002655c       ??$read_va_arg@F@__crt_stdio_output@@YAFAAPAD@Z 1002755c f i libucrt:output.obj
 0001:00026573       ??$read_va_arg@G@__crt_stdio_output@@YAGAAPAD@Z 10027573 f i libucrt:output.obj
 0001:0002658a       ??$read_va_arg@H@__crt_stdio_output@@YAHAAPAD@Z 1002758a f i libucrt:output.obj
 0001:000265a0       ??$read_va_arg@I@__crt_stdio_output@@YAIAAPAD@Z 100275a0 f i libucrt:output.obj
 0001:000265b6       ??$read_va_arg@PAD@__crt_stdio_output@@YAPADAAPAD@Z 100275b6 f i libucrt:output.obj
 0001:000266d4       ??$read_va_arg@PAX@__crt_stdio_output@@YAPAXAAPAD@Z 100276d4 f i libucrt:output.obj
 0001:000266ea       ??$read_va_arg@U_CRT_DOUBLE@@@__crt_stdio_output@@YA?AU_CRT_DOUBLE@@AAPAD@Z 100276ea f i libucrt:output.obj
 0001:00026705       ??$read_va_arg@_J@__crt_stdio_output@@YA_JAAPAD@Z 10027705 f i libucrt:output.obj
 0001:0002671f       ??$read_va_arg@_K@__crt_stdio_output@@YA_KAAPAD@Z 1002771f f i libucrt:output.obj
 0001:00026739       ??$read_va_arg@_W@__crt_stdio_output@@YA_WAAPAD@Z 10027739 f i libucrt:output.obj
 0001:00026750       ??$scratch_count@D@formatting_buffer@__crt_stdio_output@@QBEIXZ 10027750 f i libucrt:output.obj
 0001:00026755       ??$scratch_data@D@formatting_buffer@__crt_stdio_output@@QAEPADXZ 10027755 f i libucrt:output.obj
 0001:0002677a       ??$tcstol@AAPBDPAPADH@?$__crt_char_traits@D@@SAJAAPBD$$QAPAPAD$$QAH@Z 1002777a f i libucrt:output.obj
 0001:0002679f       ??$tcstol@AAPB_WPAPA_WH@?$__crt_char_traits@_W@@SAJAAPB_W$$QAPAPA_W$$QAH@Z 1002779f f i libucrt:output.obj
 0001:000267c4       ??$tcstol@PBDPAPADH@?$__crt_char_traits@D@@SAJ$$QAPBD$$QAPAPAD$$QAH@Z 100277c4 f i libucrt:output.obj
 0001:000267e9       ??$tcstol@PB_WPAPA_WH@?$__crt_char_traits@_W@@SAJ$$QAPB_W$$QAPAPA_W$$QAH@Z 100277e9 f i libucrt:output.obj
 0001:0002680e       ??$type_case_integer_parse_into_buffer@I@?$output_processor@DV?$stream_output_adapter@D@__crt_stdio_output@@V?$format_validation_base@DV?$stream_output_adapter@D@__crt_stdio_output@@@2@@__crt_stdio_output@@AAEXII_N@Z 1002780e f i libucrt:output.obj
 0001:0002689d       ??$type_case_integer_parse_into_buffer@I@?$output_processor@DV?$stream_output_adapter@D@__crt_stdio_output@@V?$positional_parameter_base@DV?$stream_output_adapter@D@__crt_stdio_output@@@2@@__crt_stdio_output@@AAEXII_N@Z 1002789d f i libucrt:output.obj
 0001:0002692c       ??$type_case_integer_parse_into_buffer@I@?$output_processor@DV?$stream_output_adapter@D@__crt_stdio_output@@V?$standard_base@DV?$stream_output_adapter@D@__crt_stdio_output@@@2@@__crt_stdio_output@@AAEXII_N@Z 1002792c f i libucrt:output.obj
 0001:000269bb       ??$type_case_integer_parse_into_buffer@I@?$output_processor@DV?$string_output_adapter@D@__crt_stdio_output@@V?$format_validation_base@DV?$string_output_adapter@D@__crt_stdio_output@@@2@@__crt_stdio_output@@AAEXII_N@Z 100279bb f i libucrt:output.obj
 0001:00026a4a       ??$type_case_integer_parse_into_buffer@I@?$output_processor@DV?$string_output_adapter@D@__crt_stdio_output@@V?$positional_parameter_base@DV?$string_output_adapter@D@__crt_stdio_output@@@2@@__crt_stdio_output@@AAEXII_N@Z 10027a4a f i libucrt:output.obj
 0001:00026ad9       ??$type_case_integer_parse_into_buffer@I@?$output_processor@DV?$string_output_adapter@D@__crt_stdio_output@@V?$standard_base@DV?$string_output_adapter@D@__crt_stdio_output@@@2@@__crt_stdio_output@@AAEXII_N@Z 10027ad9 f i libucrt:output.obj
 0001:00026b68       ??$type_case_integer_parse_into_buffer@I@?$output_processor@_WV?$stream_output_adapter@_W@__crt_stdio_output@@V?$format_validation_base@_WV?$stream_output_adapter@_W@__crt_stdio_output@@@2@@__crt_stdio_output@@AAEXII_N@Z 10027b68 f i libucrt:output.obj
 0001:00026c08       ??$type_case_integer_parse_into_buffer@I@?$output_processor@_WV?$stream_output_adapter@_W@__crt_stdio_output@@V?$positional_parameter_base@_WV?$stream_output_adapter@_W@__crt_stdio_output@@@2@@__crt_stdio_output@@AAEXII_N@Z 10027c08 f i libucrt:output.obj
 0001:00026ca8       ??$type_case_integer_parse_into_buffer@I@?$output_processor@_WV?$stream_output_adapter@_W@__crt_stdio_output@@V?$standard_base@_WV?$stream_output_adapter@_W@__crt_stdio_output@@@2@@__crt_stdio_output@@AAEXII_N@Z 10027ca8 f i libucrt:output.obj
 0001:00026d48       ??$type_case_integer_parse_into_buffer@I@?$output_processor@_WV?$string_output_adapter@_W@__crt_stdio_output@@V?$format_validation_base@_WV?$string_output_adapter@_W@__crt_stdio_output@@@2@@__crt_stdio_output@@AAEXII_N@Z 10027d48 f i libucrt:output.obj
 0001:00026de8       ??$type_case_integer_parse_into_buffer@I@?$output_processor@_WV?$string_output_adapter@_W@__crt_stdio_output@@V?$positional_parameter_base@_WV?$string_output_adapter@_W@__crt_stdio_output@@@2@@__crt_stdio_output@@AAEXII_N@Z 10027de8 f i libucrt:output.obj
 0001:00026e88       ??$type_case_integer_parse_into_buffer@I@?$output_processor@_WV?$string_output_adapter@_W@__crt_stdio_output@@V?$standard_base@_WV?$string_output_adapter@_W@__crt_stdio_output@@@2@@__crt_stdio_output@@AAEXII_N@Z 10027e88 f i libucrt:output.obj
 0001:00026f28       ??$type_case_integer_parse_into_buffer@_K@?$output_processor@DV?$stream_output_adapter@D@__crt_stdio_output@@V?$format_validation_base@DV?$stream_output_adapter@D@__crt_stdio_output@@@2@@__crt_stdio_output@@AAEX_KI_N@Z 10027f28 f i libucrt:output.obj
 0001:00026fda       ??$type_case_integer_parse_into_buffer@_K@?$output_processor@DV?$stream_output_adapter@D@__crt_stdio_output@@V?$positional_parameter_base@DV?$stream_output_adapter@D@__crt_stdio_output@@@2@@__crt_stdio_output@@AAEX_KI_N@Z 10027fda f i libucrt:output.obj
 0001:0002708c       ??$type_case_integer_parse_into_buffer@_K@?$output_processor@DV?$stream_output_adapter@D@__crt_stdio_output@@V?$standard_base@DV?$stream_output_adapter@D@__crt_stdio_output@@@2@@__crt_stdio_output@@AAEX_KI_N@Z 1002808c f i libucrt:output.obj
 0001:0002713e       ??$type_case_integer_parse_into_buffer@_K@?$output_processor@DV?$string_output_adapter@D@__crt_stdio_output@@V?$format_validation_base@DV?$string_output_adapter@D@__crt_stdio_output@@@2@@__crt_stdio_output@@AAEX_KI_N@Z 1002813e f i libucrt:output.obj
 0001:000271f0       ??$type_case_integer_parse_into_buffer@_K@?$output_processor@DV?$string_output_adapter@D@__crt_stdio_output@@V?$positional_parameter_base@DV?$string_output_adapter@D@__crt_stdio_output@@@2@@__crt_stdio_output@@AAEX_KI_N@Z 100281f0 f i libucrt:output.obj
 0001:000272a2       ??$type_case_integer_parse_into_buffer@_K@?$output_processor@DV?$string_output_adapter@D@__crt_stdio_output@@V?$standard_base@DV?$string_output_adapter@D@__crt_stdio_output@@@2@@__crt_stdio_output@@AAEX_KI_N@Z 100282a2 f i libucrt:output.obj
 0001:00027354       ??$type_case_integer_parse_into_buffer@_K@?$output_processor@_WV?$stream_output_adapter@_W@__crt_stdio_output@@V?$format_validation_base@_WV?$stream_output_adapter@_W@__crt_stdio_output@@@2@@__crt_stdio_output@@AAEX_KI_N@Z 10028354 f i libucrt:output.obj
 0001:00027417       ??$type_case_integer_parse_into_buffer@_K@?$output_processor@_WV?$stream_output_adapter@_W@__crt_stdio_output@@V?$positional_parameter_base@_WV?$stream_output_adapter@_W@__crt_stdio_output@@@2@@__crt_stdio_output@@AAEX_KI_N@Z 10028417 f i libucrt:output.obj
 0001:000274da       ??$type_case_integer_parse_into_buffer@_K@?$output_processor@_WV?$stream_output_adapter@_W@__crt_stdio_output@@V?$standard_base@_WV?$stream_output_adapter@_W@__crt_stdio_output@@@2@@__crt_stdio_output@@AAEX_KI_N@Z 100284da f i libucrt:output.obj
 0001:0002759d       ??$type_case_integer_parse_into_buffer@_K@?$output_processor@_WV?$string_output_adapter@_W@__crt_stdio_output@@V?$format_validation_base@_WV?$string_output_adapter@_W@__crt_stdio_output@@@2@@__crt_stdio_output@@AAEX_KI_N@Z 1002859d f i libucrt:output.obj
 0001:00027660       ??$type_case_integer_parse_into_buffer@_K@?$output_processor@_WV?$string_output_adapter@_W@__crt_stdio_output@@V?$positional_parameter_base@_WV?$string_output_adapter@_W@__crt_stdio_output@@@2@@__crt_stdio_output@@AAEX_KI_N@Z 10028660 f i libucrt:output.obj
 0001:00027723       ??$type_case_integer_parse_into_buffer@_K@?$output_processor@_WV?$string_output_adapter@_W@__crt_stdio_output@@V?$standard_base@_WV?$string_output_adapter@_W@__crt_stdio_output@@@2@@__crt_stdio_output@@AAEX_KI_N@Z 10028723 f i libucrt:output.obj
 0001:000277e6       ??$write_multiple_characters@V?$stream_output_adapter@D@__crt_stdio_output@@D@__crt_stdio_output@@YAXABV?$stream_output_adapter@D@0@DHQAH@Z 100287e6 f i libucrt:output.obj
 0001:0002782f       ??$write_multiple_characters@V?$stream_output_adapter@_W@__crt_stdio_output@@D@__crt_stdio_output@@YAXABV?$stream_output_adapter@_W@0@DHQAH@Z 1002882f f i libucrt:output.obj
 0001:0002787f       ??$write_multiple_characters@V?$string_output_adapter@D@__crt_stdio_output@@D@__crt_stdio_output@@YAXABV?$string_output_adapter@D@0@DHQAH@Z 1002887f f i libucrt:output.obj
 0001:000278b6       ??$write_multiple_characters@V?$string_output_adapter@_W@__crt_stdio_output@@D@__crt_stdio_output@@YAXABV?$string_output_adapter@_W@0@DHQAH@Z 100288b6 f i libucrt:output.obj
 0001:00027b27       ??0?$common_data@D@__crt_stdio_output@@IAE@XZ 10028b27 f i libucrt:output.obj
 0001:00027b7f       ??0?$common_data@_W@__crt_stdio_output@@IAE@XZ 10028b7f f i libucrt:output.obj
 0001:00027bde       ??0?$output_adapter_data@DV?$stream_output_adapter@D@__crt_stdio_output@@@__crt_stdio_output@@IAE@ABV?$stream_output_adapter@D@1@_KQBDQAU__crt_locale_pointers@@QAD@Z 10028bde f i libucrt:output.obj
 0001:00027c29       ??0?$output_adapter_data@DV?$string_output_adapter@D@__crt_stdio_output@@@__crt_stdio_output@@IAE@ABV?$string_output_adapter@D@1@_KQBDQAU__crt_locale_pointers@@QAD@Z 10028c29 f i libucrt:output.obj
 0001:00027c74       ??0?$output_adapter_data@_WV?$stream_output_adapter@_W@__crt_stdio_output@@@__crt_stdio_output@@IAE@ABV?$stream_output_adapter@_W@1@_KQB_WQAU__crt_locale_pointers@@QAD@Z 10028c74 f i libucrt:output.obj
 0001:00027cbf       ??0?$output_adapter_data@_WV?$string_output_adapter@_W@__crt_stdio_output@@@__crt_stdio_output@@IAE@ABV?$string_output_adapter@_W@1@_KQB_WQAU__crt_locale_pointers@@QAD@Z 10028cbf f i libucrt:output.obj
 0001:00027d0a       ??0?$output_processor@DV?$stream_output_adapter@D@__crt_stdio_output@@V?$format_validation_base@DV?$stream_output_adapter@D@__crt_stdio_output@@@2@@__crt_stdio_output@@QAE@ABV?$stream_output_adapter@D@1@_KQBDQAU__crt_locale_pointers@@QAD@Z 10028d0a f i libucrt:output.obj
 0001:00027d42       ??0?$output_processor@DV?$stream_output_adapter@D@__crt_stdio_output@@V?$positional_parameter_base@DV?$stream_output_adapter@D@__crt_stdio_output@@@2@@__crt_stdio_output@@QAE@ABV?$stream_output_adapter@D@1@_KQBDQAU__crt_locale_pointers@@QAD@Z 10028d42 f i libucrt:output.obj
 0001:00027d72       ??0?$output_processor@DV?$stream_output_adapter@D@__crt_stdio_output@@V?$standard_base@DV?$stream_output_adapter@D@__crt_stdio_output@@@2@@__crt_stdio_output@@QAE@ABV?$stream_output_adapter@D@1@_KQBDQAU__crt_locale_pointers@@QAD@Z 10028d72 f i libucrt:output.obj
 0001:00027daa       ??0?$output_processor@DV?$string_output_adapter@D@__crt_stdio_output@@V?$format_validation_base@DV?$string_output_adapter@D@__crt_stdio_output@@@2@@__crt_stdio_output@@QAE@ABV?$string_output_adapter@D@1@_KQBDQAU__crt_locale_pointers@@QAD@Z 10028daa f i libucrt:output.obj
 0001:00027de2       ??0?$output_processor@DV?$string_output_adapter@D@__crt_stdio_output@@V?$positional_parameter_base@DV?$string_output_adapter@D@__crt_stdio_output@@@2@@__crt_stdio_output@@QAE@ABV?$string_output_adapter@D@1@_KQBDQAU__crt_locale_pointers@@QAD@Z 10028de2 f i libucrt:output.obj
 0001:00027e12       ??0?$output_processor@DV?$string_output_adapter@D@__crt_stdio_output@@V?$standard_base@DV?$string_output_adapter@D@__crt_stdio_output@@@2@@__crt_stdio_output@@QAE@ABV?$string_output_adapter@D@1@_KQBDQAU__crt_locale_pointers@@QAD@Z 10028e12 f i libucrt:output.obj
 0001:00027e4a       ??0?$output_processor@_WV?$stream_output_adapter@_W@__crt_stdio_output@@V?$format_validation_base@_WV?$stream_output_adapter@_W@__crt_stdio_output@@@2@@__crt_stdio_output@@QAE@ABV?$stream_output_adapter@_W@1@_KQB_WQAU__crt_locale_pointers@@QAD@Z 10028e4a f i libucrt:output.obj
 0001:00027e82       ??0?$output_processor@_WV?$stream_output_adapter@_W@__crt_stdio_output@@V?$positional_parameter_base@_WV?$stream_output_adapter@_W@__crt_stdio_output@@@2@@__crt_stdio_output@@QAE@ABV?$stream_output_adapter@_W@1@_KQB_WQAU__crt_locale_pointers@@QAD@Z 10028e82 f i libucrt:output.obj
 0001:00027eb2       ??0?$output_processor@_WV?$stream_output_adapter@_W@__crt_stdio_output@@V?$standard_base@_WV?$stream_output_adapter@_W@__crt_stdio_output@@@2@@__crt_stdio_output@@QAE@ABV?$stream_output_adapter@_W@1@_KQB_WQAU__crt_locale_pointers@@QAD@Z 10028eb2 f i libucrt:output.obj
 0001:00027eea       ??0?$output_processor@_WV?$string_output_adapter@_W@__crt_stdio_output@@V?$format_validation_base@_WV?$string_output_adapter@_W@__crt_stdio_output@@@2@@__crt_stdio_output@@QAE@ABV?$string_output_adapter@_W@1@_KQB_WQAU__crt_locale_pointers@@QAD@Z 10028eea f i libucrt:output.obj
 0001:00027f22       ??0?$output_processor@_WV?$string_output_adapter@_W@__crt_stdio_output@@V?$positional_parameter_base@_WV?$string_output_adapter@_W@__crt_stdio_output@@@2@@__crt_stdio_output@@QAE@ABV?$string_output_adapter@_W@1@_KQB_WQAU__crt_locale_pointers@@QAD@Z 10028f22 f i libucrt:output.obj
 0001:00027f52       ??0?$output_processor@_WV?$string_output_adapter@_W@__crt_stdio_output@@V?$standard_base@_WV?$string_output_adapter@_W@__crt_stdio_output@@@2@@__crt_stdio_output@@QAE@ABV?$string_output_adapter@_W@1@_KQB_WQAU__crt_locale_pointers@@QAD@Z 10028f52 f i libucrt:output.obj
 0001:00027f8a       ??0?$stream_output_adapter@D@__crt_stdio_output@@QAE@QAU_iobuf@@@Z 10028f8a f i libucrt:output.obj
 0001:00027f9e       ??0?$stream_output_adapter@_W@__crt_stdio_output@@QAE@QAU_iobuf@@@Z 10028f9e f i libucrt:output.obj
 0001:00027fb2       ??0?$string_output_adapter@D@__crt_stdio_output@@QAE@QAU?$string_output_adapter_context@D@1@@Z 10028fb2 f i libucrt:output.obj
 0001:00027fc6       ??0?$string_output_adapter@_W@__crt_stdio_output@@QAE@QAU?$string_output_adapter_context@_W@1@@Z 10028fc6 f i libucrt:output.obj
 0001:00027fda       ??0_LocaleUpdate@@QAE@QAU__crt_locale_pointers@@@Z 10028fda f i libucrt:output.obj
 0001:0002807d       ??0__acrt_stdio_temporary_buffering_guard@@QAE@QAU_iobuf@@@Z 1002907d f i libucrt:output.obj
 0001:000280a2       ??0__crt_deferred_errno_cache@@QAE@XZ 100290a2 f i libucrt:output.obj
 0001:000280a8       ??0__crt_errno_guard@@QAE@QAH@Z 100290a8 f i libucrt:output.obj
 0001:000280c6       ??0formatting_buffer@__crt_stdio_output@@QAE@XZ 100290c6 f i libucrt:output.obj
 0001:000280db       ??1?$common_data@D@__crt_stdio_output@@QAE@XZ 100290db f i libucrt:output.obj
 0001:000280e5       ??1?$common_data@_W@__crt_stdio_output@@QAE@XZ 100290e5 f i libucrt:output.obj
 0001:000280ef       ??1?$format_validation_base@DV?$stream_output_adapter@D@__crt_stdio_output@@@__crt_stdio_output@@QAE@XZ 100290ef f i libucrt:output.obj
 0001:000280f9       ??1?$format_validation_base@DV?$string_output_adapter@D@__crt_stdio_output@@@__crt_stdio_output@@QAE@XZ 100290f9 f i libucrt:output.obj
 0001:00028103       ??1?$format_validation_base@_WV?$stream_output_adapter@_W@__crt_stdio_output@@@__crt_stdio_output@@QAE@XZ 10029103 f i libucrt:output.obj
 0001:0002810d       ??1?$format_validation_base@_WV?$string_output_adapter@_W@__crt_stdio_output@@@__crt_stdio_output@@QAE@XZ 1002910d f i libucrt:output.obj
 0001:00028117       ??1?$output_adapter_data@DV?$stream_output_adapter@D@__crt_stdio_output@@@__crt_stdio_output@@QAE@XZ 10029117 f i libucrt:output.obj
 0001:00028121       ??1?$output_adapter_data@DV?$string_output_adapter@D@__crt_stdio_output@@@__crt_stdio_output@@QAE@XZ 10029121 f i libucrt:output.obj
 0001:0002812b       ??1?$output_adapter_data@_WV?$stream_output_adapter@_W@__crt_stdio_output@@@__crt_stdio_output@@QAE@XZ 1002912b f i libucrt:output.obj
 0001:00028135       ??1?$output_adapter_data@_WV?$string_output_adapter@_W@__crt_stdio_output@@@__crt_stdio_output@@QAE@XZ 10029135 f i libucrt:output.obj
 0001:0002813f       ??1?$output_processor@DV?$stream_output_adapter@D@__crt_stdio_output@@V?$format_validation_base@DV?$stream_output_adapter@D@__crt_stdio_output@@@2@@__crt_stdio_output@@QAE@XZ 1002913f f i libucrt:output.obj
 0001:00028149       ??1?$output_processor@DV?$stream_output_adapter@D@__crt_stdio_output@@V?$positional_parameter_base@DV?$stream_output_adapter@D@__crt_stdio_output@@@2@@__crt_stdio_output@@QAE@XZ 10029149 f i libucrt:output.obj
 0001:00028153       ??1?$output_processor@DV?$stream_output_adapter@D@__crt_stdio_output@@V?$standard_base@DV?$stream_output_adapter@D@__crt_stdio_output@@@2@@__crt_stdio_output@@QAE@XZ 10029153 f i libucrt:output.obj
 0001:0002815d       ??1?$output_processor@DV?$string_output_adapter@D@__crt_stdio_output@@V?$format_validation_base@DV?$string_output_adapter@D@__crt_stdio_output@@@2@@__crt_stdio_output@@QAE@XZ 1002915d f i libucrt:output.obj
 0001:00028167       ??1?$output_processor@DV?$string_output_adapter@D@__crt_stdio_output@@V?$positional_parameter_base@DV?$string_output_adapter@D@__crt_stdio_output@@@2@@__crt_stdio_output@@QAE@XZ 10029167 f i libucrt:output.obj
 0001:00028171       ??1?$output_processor@DV?$string_output_adapter@D@__crt_stdio_output@@V?$standard_base@DV?$string_output_adapter@D@__crt_stdio_output@@@2@@__crt_stdio_output@@QAE@XZ 10029171 f i libucrt:output.obj
 0001:0002817b       ??1?$output_processor@_WV?$stream_output_adapter@_W@__crt_stdio_output@@V?$format_validation_base@_WV?$stream_output_adapter@_W@__crt_stdio_output@@@2@@__crt_stdio_output@@QAE@XZ 1002917b f i libucrt:output.obj
 0001:00028185       ??1?$output_processor@_WV?$stream_output_adapter@_W@__crt_stdio_output@@V?$positional_parameter_base@_WV?$stream_output_adapter@_W@__crt_stdio_output@@@2@@__crt_stdio_output@@QAE@XZ 10029185 f i libucrt:output.obj
 0001:0002818f       ??1?$output_processor@_WV?$stream_output_adapter@_W@__crt_stdio_output@@V?$standard_base@_WV?$stream_output_adapter@_W@__crt_stdio_output@@@2@@__crt_stdio_output@@QAE@XZ 1002918f f i libucrt:output.obj
 0001:00028199       ??1?$output_processor@_WV?$string_output_adapter@_W@__crt_stdio_output@@V?$format_validation_base@_WV?$string_output_adapter@_W@__crt_stdio_output@@@2@@__crt_stdio_output@@QAE@XZ 10029199 f i libucrt:output.obj
 0001:000281a3       ??1?$output_processor@_WV?$string_output_adapter@_W@__crt_stdio_output@@V?$positional_parameter_base@_WV?$string_output_adapter@_W@__crt_stdio_output@@@2@@__crt_stdio_output@@QAE@XZ 100291a3 f i libucrt:output.obj
 0001:000281ad       ??1?$output_processor@_WV?$string_output_adapter@_W@__crt_stdio_output@@V?$standard_base@_WV?$string_output_adapter@_W@__crt_stdio_output@@@2@@__crt_stdio_output@@QAE@XZ 100291ad f i libucrt:output.obj
 0001:000281b7       ??1?$positional_parameter_base@DV?$stream_output_adapter@D@__crt_stdio_output@@@__crt_stdio_output@@QAE@XZ 100291b7 f i libucrt:output.obj
 0001:000281c1       ??1?$positional_parameter_base@DV?$string_output_adapter@D@__crt_stdio_output@@@__crt_stdio_output@@QAE@XZ 100291c1 f i libucrt:output.obj
 0001:000281cb       ??1?$positional_parameter_base@_WV?$stream_output_adapter@_W@__crt_stdio_output@@@__crt_stdio_output@@QAE@XZ 100291cb f i libucrt:output.obj
 0001:000281d5       ??1?$positional_parameter_base@_WV?$string_output_adapter@_W@__crt_stdio_output@@@__crt_stdio_output@@QAE@XZ 100291d5 f i libucrt:output.obj
 0001:000281df       ??1?$standard_base@DV?$stream_output_adapter@D@__crt_stdio_output@@@__crt_stdio_output@@QAE@XZ 100291df f i libucrt:output.obj
 0001:000281e9       ??1?$standard_base@DV?$string_output_adapter@D@__crt_stdio_output@@@__crt_stdio_output@@QAE@XZ 100291e9 f i libucrt:output.obj
 0001:000281f3       ??1?$standard_base@_WV?$stream_output_adapter@_W@__crt_stdio_output@@@__crt_stdio_output@@QAE@XZ 100291f3 f i libucrt:output.obj
 0001:000281fd       ??1?$standard_base@_WV?$string_output_adapter@_W@__crt_stdio_output@@@__crt_stdio_output@@QAE@XZ 100291fd f i libucrt:output.obj
 0001:00028207       ??1_LocaleUpdate@@QAE@XZ   10029207 f i libucrt:output.obj
 0001:0002821b       ??1__acrt_stdio_temporary_buffering_guard@@QAE@XZ 1002921b f i libucrt:output.obj
 0001:0002822d       ??1__crt_errno_guard@@QAE@XZ 1002922d f i libucrt:output.obj
 0001:00028242       ??1formatting_buffer@__crt_stdio_output@@QAE@XZ 10029242 f i libucrt:output.obj
 0001:00028262       ??4?$__crt_unique_heap_ptr@DU__crt_internal_free_policy@@@@QAEAAV0@$$QAV0@@Z 10029262 f i libucrt:output.obj
 0001:0002893d       ?GetLocaleT@_LocaleUpdate@@QAEPAU__crt_locale_pointers@@XZ 1002993d f i libucrt:output.obj
 0001:00028941       ?__crt_interlocked_read_32@@YAHPDH@Z 10029941 f i libucrt:output.obj
 0001:00028950       ?adjust_hexit@?$output_processor@DV?$stream_output_adapter@D@__crt_stdio_output@@V?$format_validation_base@DV?$stream_output_adapter@D@__crt_stdio_output@@@2@@__crt_stdio_output@@CADH_N@Z 10029950 f i libucrt:output.obj
 0001:00028969       ?adjust_hexit@?$output_processor@DV?$stream_output_adapter@D@__crt_stdio_output@@V?$positional_parameter_base@DV?$stream_output_adapter@D@__crt_stdio_output@@@2@@__crt_stdio_output@@CADH_N@Z 10029969 f i libucrt:output.obj
 0001:00028982       ?adjust_hexit@?$output_processor@DV?$stream_output_adapter@D@__crt_stdio_output@@V?$standard_base@DV?$stream_output_adapter@D@__crt_stdio_output@@@2@@__crt_stdio_output@@CADH_N@Z 10029982 f i libucrt:output.obj
 0001:0002899b       ?adjust_hexit@?$output_processor@DV?$string_output_adapter@D@__crt_stdio_output@@V?$format_validation_base@DV?$string_output_adapter@D@__crt_stdio_output@@@2@@__crt_stdio_output@@CADH_N@Z 1002999b f i libucrt:output.obj
 0001:000289b4       ?adjust_hexit@?$output_processor@DV?$string_output_adapter@D@__crt_stdio_output@@V?$positional_parameter_base@DV?$string_output_adapter@D@__crt_stdio_output@@@2@@__crt_stdio_output@@CADH_N@Z 100299b4 f i libucrt:output.obj
 0001:000289cd       ?adjust_hexit@?$output_processor@DV?$string_output_adapter@D@__crt_stdio_output@@V?$standard_base@DV?$string_output_adapter@D@__crt_stdio_output@@@2@@__crt_stdio_output@@CADH_N@Z 100299cd f i libucrt:output.obj
 0001:000289e6       ?adjust_hexit@?$output_processor@_WV?$stream_output_adapter@_W@__crt_stdio_output@@V?$format_validation_base@_WV?$stream_output_adapter@_W@__crt_stdio_output@@@2@@__crt_stdio_output@@CADH_N@Z 100299e6 f i libucrt:output.obj
 0001:000289ff       ?adjust_hexit@?$output_processor@_WV?$stream_output_adapter@_W@__crt_stdio_output@@V?$positional_parameter_base@_WV?$stream_output_adapter@_W@__crt_stdio_output@@@2@@__crt_stdio_output@@CADH_N@Z 100299ff f i libucrt:output.obj
 0001:00028a18       ?adjust_hexit@?$output_processor@_WV?$stream_output_adapter@_W@__crt_stdio_output@@V?$standard_base@_WV?$stream_output_adapter@_W@__crt_stdio_output@@@2@@__crt_stdio_output@@CADH_N@Z 10029a18 f i libucrt:output.obj
 0001:00028a31       ?adjust_hexit@?$output_processor@_WV?$string_output_adapter@_W@__crt_stdio_output@@V?$format_validation_base@_WV?$string_output_adapter@_W@__crt_stdio_output@@@2@@__crt_stdio_output@@CADH_N@Z 10029a31 f i libucrt:output.obj
 0001:00028a4a       ?adjust_hexit@?$output_processor@_WV?$string_output_adapter@_W@__crt_stdio_output@@V?$positional_parameter_base@_WV?$string_output_adapter@_W@__crt_stdio_output@@@2@@__crt_stdio_output@@CADH_N@Z 10029a4a f i libucrt:output.obj
 0001:00028a63       ?adjust_hexit@?$output_processor@_WV?$string_output_adapter@_W@__crt_stdio_output@@V?$standard_base@_WV?$string_output_adapter@_W@__crt_stdio_output@@@2@@__crt_stdio_output@@CADH_N@Z 10029a63 f i libucrt:output.obj
 0001:00028a7c       ?advance_to_next_pass@?$positional_parameter_base@DV?$stream_output_adapter@D@__crt_stdio_output@@@__crt_stdio_output@@IAE_NXZ 10029a7c f i libucrt:output.obj
 0001:00028adb       ?advance_to_next_pass@?$positional_parameter_base@DV?$string_output_adapter@D@__crt_stdio_output@@@__crt_stdio_output@@IAE_NXZ 10029adb f i libucrt:output.obj
 0001:00028b3a       ?advance_to_next_pass@?$positional_parameter_base@_WV?$stream_output_adapter@_W@__crt_stdio_output@@@__crt_stdio_output@@IAE_NXZ 10029b3a f i libucrt:output.obj
 0001:00028b99       ?advance_to_next_pass@?$positional_parameter_base@_WV?$string_output_adapter@_W@__crt_stdio_output@@@__crt_stdio_output@@IAE_NXZ 10029b99 f i libucrt:output.obj
 0001:00028bf8       ?advance_to_next_pass@?$standard_base@DV?$stream_output_adapter@D@__crt_stdio_output@@@__crt_stdio_output@@IAE_NXZ 10029bf8 f i libucrt:output.obj
 0001:00028c0d       ?advance_to_next_pass@?$standard_base@DV?$string_output_adapter@D@__crt_stdio_output@@@__crt_stdio_output@@IAE_NXZ 10029c0d f i libucrt:output.obj
 0001:00028c22       ?advance_to_next_pass@?$standard_base@_WV?$stream_output_adapter@_W@__crt_stdio_output@@@__crt_stdio_output@@IAE_NXZ 10029c22 f i libucrt:output.obj
 0001:00028c37       ?advance_to_next_pass@?$standard_base@_WV?$string_output_adapter@_W@__crt_stdio_output@@@__crt_stdio_output@@IAE_NXZ 10029c37 f i libucrt:output.obj
 0001:00028c4c       ?crop_zeroes@__crt_stdio_output@@YAXPADQAU__crt_locale_pointers@@@Z 10029c4c f i libucrt:output.obj
 0001:00028cc4       ?find_next_state@?$output_processor@DV?$stream_output_adapter@D@__crt_stdio_output@@V?$format_validation_base@DV?$stream_output_adapter@D@__crt_stdio_output@@@2@@__crt_stdio_output@@ABE?AW4state@2@DW432@@Z 10029cc4 f i libucrt:output.obj
 0001:00028d16       ?find_next_state@?$output_processor@DV?$stream_output_adapter@D@__crt_stdio_output@@V?$positional_parameter_base@DV?$stream_output_adapter@D@__crt_stdio_output@@@2@@__crt_stdio_output@@ABE?AW4state@2@DW432@@Z 10029d16 f i libucrt:output.obj
 0001:00028d68       ?find_next_state@?$output_processor@DV?$stream_output_adapter@D@__crt_stdio_output@@V?$standard_base@DV?$stream_output_adapter@D@__crt_stdio_output@@@2@@__crt_stdio_output@@ABE?AW4state@2@DW432@@Z 10029d68 f i libucrt:output.obj
 0001:00028db6       ?find_next_state@?$output_processor@DV?$string_output_adapter@D@__crt_stdio_output@@V?$format_validation_base@DV?$string_output_adapter@D@__crt_stdio_output@@@2@@__crt_stdio_output@@ABE?AW4state@2@DW432@@Z 10029db6 f i libucrt:output.obj
 0001:00028e08       ?find_next_state@?$output_processor@DV?$string_output_adapter@D@__crt_stdio_output@@V?$positional_parameter_base@DV?$string_output_adapter@D@__crt_stdio_output@@@2@@__crt_stdio_output@@ABE?AW4state@2@DW432@@Z 10029e08 f i libucrt:output.obj
 0001:00028e5a       ?find_next_state@?$output_processor@DV?$string_output_adapter@D@__crt_stdio_output@@V?$standard_base@DV?$string_output_adapter@D@__crt_stdio_output@@@2@@__crt_stdio_output@@ABE?AW4state@2@DW432@@Z 10029e5a f i libucrt:output.obj
 0001:00028ea8       ?find_next_state@?$output_processor@_WV?$stream_output_adapter@_W@__crt_stdio_output@@V?$format_validation_base@_WV?$stream_output_adapter@_W@__crt_stdio_output@@@2@@__crt_stdio_output@@ABE?AW4state@2@_WW432@@Z 10029ea8 f i libucrt:output.obj
 0001:00028efd       ?find_next_state@?$output_processor@_WV?$stream_output_adapter@_W@__crt_stdio_output@@V?$positional_parameter_base@_WV?$stream_output_adapter@_W@__crt_stdio_output@@@2@@__crt_stdio_output@@ABE?AW4state@2@_WW432@@Z 10029efd f i libucrt:output.obj
 0001:00028f52       ?find_next_state@?$output_processor@_WV?$stream_output_adapter@_W@__crt_stdio_output@@V?$standard_base@_WV?$stream_output_adapter@_W@__crt_stdio_output@@@2@@__crt_stdio_output@@ABE?AW4state@2@_WW432@@Z 10029f52 f i libucrt:output.obj
 0001:00028fa3       ?find_next_state@?$output_processor@_WV?$string_output_adapter@_W@__crt_stdio_output@@V?$format_validation_base@_WV?$string_output_adapter@_W@__crt_stdio_output@@@2@@__crt_stdio_output@@ABE?AW4state@2@_WW432@@Z 10029fa3 f i libucrt:output.obj
 0001:00028ff8       ?find_next_state@?$output_processor@_WV?$string_output_adapter@_W@__crt_stdio_output@@V?$positional_parameter_base@_WV?$string_output_adapter@_W@__crt_stdio_output@@@2@@__crt_stdio_output@@ABE?AW4state@2@_WW432@@Z 10029ff8 f i libucrt:output.obj
 0001:0002904d       ?find_next_state@?$output_processor@_WV?$string_output_adapter@_W@__crt_stdio_output@@V?$standard_base@_WV?$string_output_adapter@_W@__crt_stdio_output@@@2@@__crt_stdio_output@@ABE?AW4state@2@_WW432@@Z 1002a04d f i libucrt:output.obj
 0001:0002909e       ?force_decimal_point@__crt_stdio_output@@YAXPADQAU__crt_locale_pointers@@@Z 1002a09e f i libucrt:output.obj
 0001:00029111       ?get@__crt_deferred_errno_cache@@QAEAAHXZ 1002a111 f i libucrt:output.obj
 0001:0002912a       ?get_flags@__crt_stdio_stream@@QBEJXZ 1002a12a f i libucrt:output.obj
 0001:00029130       ?get_parameter_type@?$positional_parameter_base@DV?$stream_output_adapter@D@__crt_stdio_output@@@__crt_stdio_output@@CA?AW4parameter_type@12@F@Z 1002a130 f i libucrt:output.obj
 0001:00029134       ?get_parameter_type@?$positional_parameter_base@DV?$stream_output_adapter@D@__crt_stdio_output@@@__crt_stdio_output@@CA?AW4parameter_type@12@G@Z 1002a134 f i libucrt:output.obj
 0001:00029138       ?get_parameter_type@?$positional_parameter_base@DV?$stream_output_adapter@D@__crt_stdio_output@@@__crt_stdio_output@@CA?AW4parameter_type@12@H@Z 1002a138 f i libucrt:output.obj
 0001:0002913c       ?get_parameter_type@?$positional_parameter_base@DV?$stream_output_adapter@D@__crt_stdio_output@@@__crt_stdio_output@@CA?AW4parameter_type@12@I@Z 1002a13c f i libucrt:output.obj
 0001:00029140       ?get_parameter_type@?$positional_parameter_base@DV?$stream_output_adapter@D@__crt_stdio_output@@@__crt_stdio_output@@CA?AW4parameter_type@12@U_CRT_DOUBLE@@@Z 1002a140 f i libucrt:output.obj
 0001:00029144       ?get_parameter_type@?$positional_parameter_base@DV?$stream_output_adapter@D@__crt_stdio_output@@@__crt_stdio_output@@CA?AW4parameter_type@12@_J@Z 1002a144 f i libucrt:output.obj
 0001:00029148       ?get_parameter_type@?$positional_parameter_base@DV?$stream_output_adapter@D@__crt_stdio_output@@@__crt_stdio_output@@CA?AW4parameter_type@12@_K@Z 1002a148 f i libucrt:output.obj
 0001:0002914c       ?get_parameter_type@?$positional_parameter_base@DV?$stream_output_adapter@D@__crt_stdio_output@@@__crt_stdio_output@@CA?AW4parameter_type@12@_W@Z 1002a14c f i libucrt:output.obj
 0001:00029150       ?get_parameter_type@?$positional_parameter_base@DV?$string_output_adapter@D@__crt_stdio_output@@@__crt_stdio_output@@CA?AW4parameter_type@12@F@Z 1002a150 f i libucrt:output.obj
 0001:00029154       ?get_parameter_type@?$positional_parameter_base@DV?$string_output_adapter@D@__crt_stdio_output@@@__crt_stdio_output@@CA?AW4parameter_type@12@G@Z 1002a154 f i libucrt:output.obj
 0001:00029158       ?get_parameter_type@?$positional_parameter_base@DV?$string_output_adapter@D@__crt_stdio_output@@@__crt_stdio_output@@CA?AW4parameter_type@12@H@Z 1002a158 f i libucrt:output.obj
 0001:0002915c       ?get_parameter_type@?$positional_parameter_base@DV?$string_output_adapter@D@__crt_stdio_output@@@__crt_stdio_output@@CA?AW4parameter_type@12@I@Z 1002a15c f i libucrt:output.obj
 0001:00029160       ?get_parameter_type@?$positional_parameter_base@DV?$string_output_adapter@D@__crt_stdio_output@@@__crt_stdio_output@@CA?AW4parameter_type@12@U_CRT_DOUBLE@@@Z 1002a160 f i libucrt:output.obj
 0001:00029164       ?get_parameter_type@?$positional_parameter_base@DV?$string_output_adapter@D@__crt_stdio_output@@@__crt_stdio_output@@CA?AW4parameter_type@12@_J@Z 1002a164 f i libucrt:output.obj
 0001:00029168       ?get_parameter_type@?$positional_parameter_base@DV?$string_output_adapter@D@__crt_stdio_output@@@__crt_stdio_output@@CA?AW4parameter_type@12@_K@Z 1002a168 f i libucrt:output.obj
 0001:0002916c       ?get_parameter_type@?$positional_parameter_base@DV?$string_output_adapter@D@__crt_stdio_output@@@__crt_stdio_output@@CA?AW4parameter_type@12@_W@Z 1002a16c f i libucrt:output.obj
 0001:00029170       ?get_parameter_type@?$positional_parameter_base@_WV?$stream_output_adapter@_W@__crt_stdio_output@@@__crt_stdio_output@@CA?AW4parameter_type@12@F@Z 1002a170 f i libucrt:output.obj
 0001:00029174       ?get_parameter_type@?$positional_parameter_base@_WV?$stream_output_adapter@_W@__crt_stdio_output@@@__crt_stdio_output@@CA?AW4parameter_type@12@G@Z 1002a174 f i libucrt:output.obj
 0001:00029178       ?get_parameter_type@?$positional_parameter_base@_WV?$stream_output_adapter@_W@__crt_stdio_output@@@__crt_stdio_output@@CA?AW4parameter_type@12@H@Z 1002a178 f i libucrt:output.obj
 0001:0002917c       ?get_parameter_type@?$positional_parameter_base@_WV?$stream_output_adapter@_W@__crt_stdio_output@@@__crt_stdio_output@@CA?AW4parameter_type@12@I@Z 1002a17c f i libucrt:output.obj
 0001:00029180       ?get_parameter_type@?$positional_parameter_base@_WV?$stream_output_adapter@_W@__crt_stdio_output@@@__crt_stdio_output@@CA?AW4parameter_type@12@U_CRT_DOUBLE@@@Z 1002a180 f i libucrt:output.obj
 0001:00029184       ?get_parameter_type@?$positional_parameter_base@_WV?$stream_output_adapter@_W@__crt_stdio_output@@@__crt_stdio_output@@CA?AW4parameter_type@12@_J@Z 1002a184 f i libucrt:output.obj
 0001:00029188       ?get_parameter_type@?$positional_parameter_base@_WV?$stream_output_adapter@_W@__crt_stdio_output@@@__crt_stdio_output@@CA?AW4parameter_type@12@_K@Z 1002a188 f i libucrt:output.obj
 0001:0002918c       ?get_parameter_type@?$positional_parameter_base@_WV?$stream_output_adapter@_W@__crt_stdio_output@@@__crt_stdio_output@@CA?AW4parameter_type@12@_W@Z 1002a18c f i libucrt:output.obj
 0001:00029190       ?get_parameter_type@?$positional_parameter_base@_WV?$string_output_adapter@_W@__crt_stdio_output@@@__crt_stdio_output@@CA?AW4parameter_type@12@F@Z 1002a190 f i libucrt:output.obj
 0001:00029194       ?get_parameter_type@?$positional_parameter_base@_WV?$string_output_adapter@_W@__crt_stdio_output@@@__crt_stdio_output@@CA?AW4parameter_type@12@G@Z 1002a194 f i libucrt:output.obj
 0001:00029198       ?get_parameter_type@?$positional_parameter_base@_WV?$string_output_adapter@_W@__crt_stdio_output@@@__crt_stdio_output@@CA?AW4parameter_type@12@H@Z 1002a198 f i libucrt:output.obj
 0001:0002919c       ?get_parameter_type@?$positional_parameter_base@_WV?$string_output_adapter@_W@__crt_stdio_output@@@__crt_stdio_output@@CA?AW4parameter_type@12@I@Z 1002a19c f i libucrt:output.obj
 0001:000291a0       ?get_parameter_type@?$positional_parameter_base@_WV?$string_output_adapter@_W@__crt_stdio_output@@@__crt_stdio_output@@CA?AW4parameter_type@12@U_CRT_DOUBLE@@@Z 1002a1a0 f i libucrt:output.obj
 0001:000291a4       ?get_parameter_type@?$positional_parameter_base@_WV?$string_output_adapter@_W@__crt_stdio_output@@@__crt_stdio_output@@CA?AW4parameter_type@12@_J@Z 1002a1a4 f i libucrt:output.obj
 0001:000291a8       ?get_parameter_type@?$positional_parameter_base@_WV?$string_output_adapter@_W@__crt_stdio_output@@@__crt_stdio_output@@CA?AW4parameter_type@12@_K@Z 1002a1a8 f i libucrt:output.obj
 0001:000291ac       ?get_parameter_type@?$positional_parameter_base@_WV?$string_output_adapter@_W@__crt_stdio_output@@@__crt_stdio_output@@CA?AW4parameter_type@12@_W@Z 1002a1ac f i libucrt:output.obj
 0001:000291b0       ?has_flag@?$output_processor@DV?$stream_output_adapter@D@__crt_stdio_output@@V?$format_validation_base@DV?$stream_output_adapter@D@__crt_stdio_output@@@2@@__crt_stdio_output@@ABE_NI@Z 1002a1b0 f i libucrt:output.obj
 0001:000291c6       ?has_flag@?$output_processor@DV?$stream_output_adapter@D@__crt_stdio_output@@V?$positional_parameter_base@DV?$stream_output_adapter@D@__crt_stdio_output@@@2@@__crt_stdio_output@@ABE_NI@Z 1002a1c6 f i libucrt:output.obj
 0001:000291dc       ?has_flag@?$output_processor@DV?$stream_output_adapter@D@__crt_stdio_output@@V?$standard_base@DV?$stream_output_adapter@D@__crt_stdio_output@@@2@@__crt_stdio_output@@ABE_NI@Z 1002a1dc f i libucrt:output.obj
 0001:000291f2       ?has_flag@?$output_processor@DV?$string_output_adapter@D@__crt_stdio_output@@V?$format_validation_base@DV?$string_output_adapter@D@__crt_stdio_output@@@2@@__crt_stdio_output@@ABE_NI@Z 1002a1f2 f i libucrt:output.obj
 0001:00029208       ?has_flag@?$output_processor@DV?$string_output_adapter@D@__crt_stdio_output@@V?$positional_parameter_base@DV?$string_output_adapter@D@__crt_stdio_output@@@2@@__crt_stdio_output@@ABE_NI@Z 1002a208 f i libucrt:output.obj
 0001:0002921e       ?has_flag@?$output_processor@DV?$string_output_adapter@D@__crt_stdio_output@@V?$standard_base@DV?$string_output_adapter@D@__crt_stdio_output@@@2@@__crt_stdio_output@@ABE_NI@Z 1002a21e f i libucrt:output.obj
 0001:00029234       ?has_flag@?$output_processor@_WV?$stream_output_adapter@_W@__crt_stdio_output@@V?$format_validation_base@_WV?$stream_output_adapter@_W@__crt_stdio_output@@@2@@__crt_stdio_output@@ABE_NI@Z 1002a234 f i libucrt:output.obj
 0001:0002924a       ?has_flag@?$output_processor@_WV?$stream_output_adapter@_W@__crt_stdio_output@@V?$positional_parameter_base@_WV?$stream_output_adapter@_W@__crt_stdio_output@@@2@@__crt_stdio_output@@ABE_NI@Z 1002a24a f i libucrt:output.obj
 0001:00029260       ?has_flag@?$output_processor@_WV?$stream_output_adapter@_W@__crt_stdio_output@@V?$standard_base@_WV?$stream_output_adapter@_W@__crt_stdio_output@@@2@@__crt_stdio_output@@ABE_NI@Z 1002a260 f i libucrt:output.obj
 0001:00029276       ?has_flag@?$output_processor@_WV?$string_output_adapter@_W@__crt_stdio_output@@V?$format_validation_base@_WV?$string_output_adapter@_W@__crt_stdio_output@@@2@@__crt_stdio_output@@ABE_NI@Z 1002a276 f i libucrt:output.obj
 0001:0002928c       ?has_flag@?$output_processor@_WV?$string_output_adapter@_W@__crt_stdio_output@@V?$positional_parameter_base@_WV?$string_output_adapter@_W@__crt_stdio_output@@@2@@__crt_stdio_output@@ABE_NI@Z 1002a28c f i libucrt:output.obj
 0001:000292a2       ?has_flag@?$output_processor@_WV?$string_output_adapter@_W@__crt_stdio_output@@V?$standard_base@_WV?$string_output_adapter@_W@__crt_stdio_output@@@2@@__crt_stdio_output@@ABE_NI@Z 1002a2a2 f i libucrt:output.obj
 0001:000292b8       ?is_positional_parameter_reappearance_consistent@?$positional_parameter_base@DV?$stream_output_adapter@D@__crt_stdio_output@@@__crt_stdio_output@@AAE_NABUparameter_data@12@W4parameter_type@12@DW4length_modifier@2@@Z 1002a2b8 f i libucrt:output.obj
 0001:00029418       ?is_positional_parameter_reappearance_consistent@?$positional_parameter_base@DV?$string_output_adapter@D@__crt_stdio_output@@@__crt_stdio_output@@AAE_NABUparameter_data@12@W4parameter_type@12@DW4length_modifier@2@@Z 1002a418 f i libucrt:output.obj
 0001:00029578       ?is_positional_parameter_reappearance_consistent@?$positional_parameter_base@_WV?$stream_output_adapter@_W@__crt_stdio_output@@@__crt_stdio_output@@AAE_NABUparameter_data@12@W4parameter_type@12@_WW4length_modifier@2@@Z 1002a578 f i libucrt:output.obj
 0001:000296d7       ?is_positional_parameter_reappearance_consistent@?$positional_parameter_base@_WV?$string_output_adapter@_W@__crt_stdio_output@@@__crt_stdio_output@@AAE_NABUparameter_data@12@W4parameter_type@12@_WW4length_modifier@2@@Z 1002a6d7 f i libucrt:output.obj
 0001:00029836       ?is_string_backed@__crt_stdio_stream@@QBE_NXZ 1002a836 f i libucrt:output.obj
 0001:00029843       ?narrow_null_string@?$output_processor@DV?$stream_output_adapter@D@__crt_stdio_output@@V?$format_validation_base@DV?$stream_output_adapter@D@__crt_stdio_output@@@2@@__crt_stdio_output@@CAPADXZ 1002a843 f i libucrt:output.obj
 0001:00029849       ?narrow_null_string@?$output_processor@DV?$stream_output_adapter@D@__crt_stdio_output@@V?$positional_parameter_base@DV?$stream_output_adapter@D@__crt_stdio_output@@@2@@__crt_stdio_output@@CAPADXZ 1002a849 f i libucrt:output.obj
 0001:0002984f       ?narrow_null_string@?$output_processor@DV?$stream_output_adapter@D@__crt_stdio_output@@V?$standard_base@DV?$stream_output_adapter@D@__crt_stdio_output@@@2@@__crt_stdio_output@@CAPADXZ 1002a84f f i libucrt:output.obj
 0001:00029855       ?narrow_null_string@?$output_processor@DV?$string_output_adapter@D@__crt_stdio_output@@V?$format_validation_base@DV?$string_output_adapter@D@__crt_stdio_output@@@2@@__crt_stdio_output@@CAPADXZ 1002a855 f i libucrt:output.obj
 0001:0002985b       ?narrow_null_string@?$output_processor@DV?$string_output_adapter@D@__crt_stdio_output@@V?$positional_parameter_base@DV?$string_output_adapter@D@__crt_stdio_output@@@2@@__crt_stdio_output@@CAPADXZ 1002a85b f i libucrt:output.obj
 0001:00029861       ?narrow_null_string@?$output_processor@DV?$string_output_adapter@D@__crt_stdio_output@@V?$standard_base@DV?$string_output_adapter@D@__crt_stdio_output@@@2@@__crt_stdio_output@@CAPADXZ 1002a861 f i libucrt:output.obj
 0001:00029867       ?narrow_null_string@?$output_processor@_WV?$stream_output_adapter@_W@__crt_stdio_output@@V?$format_validation_base@_WV?$stream_output_adapter@_W@__crt_stdio_output@@@2@@__crt_stdio_output@@CAPADXZ 1002a867 f i libucrt:output.obj
 0001:0002986d       ?narrow_null_string@?$output_processor@_WV?$stream_output_adapter@_W@__crt_stdio_output@@V?$positional_parameter_base@_WV?$stream_output_adapter@_W@__crt_stdio_output@@@2@@__crt_stdio_output@@CAPADXZ 1002a86d f i libucrt:output.obj
 0001:00029873       ?narrow_null_string@?$output_processor@_WV?$stream_output_adapter@_W@__crt_stdio_output@@V?$standard_base@_WV?$stream_output_adapter@_W@__crt_stdio_output@@@2@@__crt_stdio_output@@CAPADXZ 1002a873 f i libucrt:output.obj
 0001:00029879       ?narrow_null_string@?$output_processor@_WV?$string_output_adapter@_W@__crt_stdio_output@@V?$format_validation_base@_WV?$string_output_adapter@_W@__crt_stdio_output@@@2@@__crt_stdio_output@@CAPADXZ 1002a879 f i libucrt:output.obj
 0001:0002987f       ?narrow_null_string@?$output_processor@_WV?$string_output_adapter@_W@__crt_stdio_output@@V?$positional_parameter_base@_WV?$string_output_adapter@_W@__crt_stdio_output@@@2@@__crt_stdio_output@@CAPADXZ 1002a87f f i libucrt:output.obj
 0001:00029885       ?narrow_null_string@?$output_processor@_WV?$string_output_adapter@_W@__crt_stdio_output@@V?$standard_base@_WV?$string_output_adapter@_W@__crt_stdio_output@@@2@@__crt_stdio_output@@CAPADXZ 1002a885 f i libucrt:output.obj
 0001:0002988b       ?parse_int_from_format_string@?$output_processor@DV?$stream_output_adapter@D@__crt_stdio_output@@V?$format_validation_base@DV?$stream_output_adapter@D@__crt_stdio_output@@@2@@__crt_stdio_output@@AAE_NQAH@Z 1002a88b f i libucrt:output.obj
 0001:0002991e       ?parse_int_from_format_string@?$output_processor@DV?$stream_output_adapter@D@__crt_stdio_output@@V?$positional_parameter_base@DV?$stream_output_adapter@D@__crt_stdio_output@@@2@@__crt_stdio_output@@AAE_NQAH@Z 1002a91e f i libucrt:output.obj
 0001:000299b1       ?parse_int_from_format_string@?$output_processor@DV?$stream_output_adapter@D@__crt_stdio_output@@V?$standard_base@DV?$stream_output_adapter@D@__crt_stdio_output@@@2@@__crt_stdio_output@@AAE_NQAH@Z 1002a9b1 f i libucrt:output.obj
 0001:00029a44       ?parse_int_from_format_string@?$output_processor@DV?$string_output_adapter@D@__crt_stdio_output@@V?$format_validation_base@DV?$string_output_adapter@D@__crt_stdio_output@@@2@@__crt_stdio_output@@AAE_NQAH@Z 1002aa44 f i libucrt:output.obj
 0001:00029ad7       ?parse_int_from_format_string@?$output_processor@DV?$string_output_adapter@D@__crt_stdio_output@@V?$positional_parameter_base@DV?$string_output_adapter@D@__crt_stdio_output@@@2@@__crt_stdio_output@@AAE_NQAH@Z 1002aad7 f i libucrt:output.obj
 0001:00029b6a       ?parse_int_from_format_string@?$output_processor@DV?$string_output_adapter@D@__crt_stdio_output@@V?$standard_base@DV?$string_output_adapter@D@__crt_stdio_output@@@2@@__crt_stdio_output@@AAE_NQAH@Z 1002ab6a f i libucrt:output.obj
 0001:00029bfd       ?parse_int_from_format_string@?$output_processor@_WV?$stream_output_adapter@_W@__crt_stdio_output@@V?$format_validation_base@_WV?$stream_output_adapter@_W@__crt_stdio_output@@@2@@__crt_stdio_output@@AAE_NQAH@Z 1002abfd f i libucrt:output.obj
 0001:00029c93       ?parse_int_from_format_string@?$output_processor@_WV?$stream_output_adapter@_W@__crt_stdio_output@@V?$positional_parameter_base@_WV?$stream_output_adapter@_W@__crt_stdio_output@@@2@@__crt_stdio_output@@AAE_NQAH@Z 1002ac93 f i libucrt:output.obj
 0001:00029d29       ?parse_int_from_format_string@?$output_processor@_WV?$stream_output_adapter@_W@__crt_stdio_output@@V?$standard_base@_WV?$stream_output_adapter@_W@__crt_stdio_output@@@2@@__crt_stdio_output@@AAE_NQAH@Z 1002ad29 f i libucrt:output.obj
 0001:00029dbf       ?parse_int_from_format_string@?$output_processor@_WV?$string_output_adapter@_W@__crt_stdio_output@@V?$format_validation_base@_WV?$string_output_adapter@_W@__crt_stdio_output@@@2@@__crt_stdio_output@@AAE_NQAH@Z 1002adbf f i libucrt:output.obj
 0001:00029e55       ?parse_int_from_format_string@?$output_processor@_WV?$string_output_adapter@_W@__crt_stdio_output@@V?$positional_parameter_base@_WV?$string_output_adapter@_W@__crt_stdio_output@@@2@@__crt_stdio_output@@AAE_NQAH@Z 1002ae55 f i libucrt:output.obj
 0001:00029eeb       ?parse_int_from_format_string@?$output_processor@_WV?$string_output_adapter@_W@__crt_stdio_output@@V?$standard_base@_WV?$string_output_adapter@_W@__crt_stdio_output@@@2@@__crt_stdio_output@@AAE_NQAH@Z 1002aeeb f i libucrt:output.obj
 0001:00029f81       ?process@?$output_processor@DV?$stream_output_adapter@D@__crt_stdio_output@@V?$format_validation_base@DV?$stream_output_adapter@D@__crt_stdio_output@@@2@@__crt_stdio_output@@QAEHXZ 1002af81 f i libucrt:output.obj
 0001:0002a0f3       ?process@?$output_processor@DV?$stream_output_adapter@D@__crt_stdio_output@@V?$positional_parameter_base@DV?$stream_output_adapter@D@__crt_stdio_output@@@2@@__crt_stdio_output@@QAEHXZ 1002b0f3 f i libucrt:output.obj
 0001:0002a2a6       ?process@?$output_processor@DV?$stream_output_adapter@D@__crt_stdio_output@@V?$standard_base@DV?$stream_output_adapter@D@__crt_stdio_output@@@2@@__crt_stdio_output@@QAEHXZ 1002b2a6 f i libucrt:output.obj
 0001:0002a409       ?process@?$output_processor@DV?$string_output_adapter@D@__crt_stdio_output@@V?$format_validation_base@DV?$string_output_adapter@D@__crt_stdio_output@@@2@@__crt_stdio_output@@QAEHXZ 1002b409 f i libucrt:output.obj
 0001:0002a57b       ?process@?$output_processor@DV?$string_output_adapter@D@__crt_stdio_output@@V?$positional_parameter_base@DV?$string_output_adapter@D@__crt_stdio_output@@@2@@__crt_stdio_output@@QAEHXZ 1002b57b f i libucrt:output.obj
 0001:0002a72e       ?process@?$output_processor@DV?$string_output_adapter@D@__crt_stdio_output@@V?$standard_base@DV?$string_output_adapter@D@__crt_stdio_output@@@2@@__crt_stdio_output@@QAEHXZ 1002b72e f i libucrt:output.obj
 0001:0002a891       ?process@?$output_processor@_WV?$stream_output_adapter@_W@__crt_stdio_output@@V?$format_validation_base@_WV?$stream_output_adapter@_W@__crt_stdio_output@@@2@@__crt_stdio_output@@QAEHXZ 1002b891 f i libucrt:output.obj
 0001:0002aa0d       ?process@?$output_processor@_WV?$stream_output_adapter@_W@__crt_stdio_output@@V?$positional_parameter_base@_WV?$stream_output_adapter@_W@__crt_stdio_output@@@2@@__crt_stdio_output@@QAEHXZ 1002ba0d f i libucrt:output.obj
 0001:0002abc5       ?process@?$output_processor@_WV?$stream_output_adapter@_W@__crt_stdio_output@@V?$standard_base@_WV?$stream_output_adapter@_W@__crt_stdio_output@@@2@@__crt_stdio_output@@QAEHXZ 1002bbc5 f i libucrt:output.obj
 0001:0002ad2d       ?process@?$output_processor@_WV?$string_output_adapter@_W@__crt_stdio_output@@V?$format_validation_base@_WV?$string_output_adapter@_W@__crt_stdio_output@@@2@@__crt_stdio_output@@QAEHXZ 1002bd2d f i libucrt:output.obj
 0001:0002aea9       ?process@?$output_processor@_WV?$string_output_adapter@_W@__crt_stdio_output@@V?$positional_parameter_base@_WV?$string_output_adapter@_W@__crt_stdio_output@@@2@@__crt_stdio_output@@QAEHXZ 1002bea9 f i libucrt:output.obj
 0001:0002b061       ?process@?$output_processor@_WV?$string_output_adapter@_W@__crt_stdio_output@@V?$standard_base@_WV?$string_output_adapter@_W@__crt_stdio_output@@@2@@__crt_stdio_output@@QAEHXZ 1002c061 f i libucrt:output.obj
 0001:0002b1c9       ?public_stream@__crt_stdio_stream@@QBEPAU_iobuf@@XZ 1002c1c9 f i libucrt:output.obj
 0001:0002b1cc       ?set_flag@?$output_processor@DV?$stream_output_adapter@D@__crt_stdio_output@@V?$format_validation_base@DV?$stream_output_adapter@D@__crt_stdio_output@@@2@@__crt_stdio_output@@AAEXI@Z 1002c1cc f i libucrt:output.obj
 0001:0002b1de       ?set_flag@?$output_processor@DV?$stream_output_adapter@D@__crt_stdio_output@@V?$positional_parameter_base@DV?$stream_output_adapter@D@__crt_stdio_output@@@2@@__crt_stdio_output@@AAEXI@Z 1002c1de f i libucrt:output.obj
 0001:0002b1f0       ?set_flag@?$output_processor@DV?$stream_output_adapter@D@__crt_stdio_output@@V?$standard_base@DV?$stream_output_adapter@D@__crt_stdio_output@@@2@@__crt_stdio_output@@AAEXI@Z 1002c1f0 f i libucrt:output.obj
 0001:0002b202       ?set_flag@?$output_processor@DV?$string_output_adapter@D@__crt_stdio_output@@V?$format_validation_base@DV?$string_output_adapter@D@__crt_stdio_output@@@2@@__crt_stdio_output@@AAEXI@Z 1002c202 f i libucrt:output.obj
 0001:0002b214       ?set_flag@?$output_processor@DV?$string_output_adapter@D@__crt_stdio_output@@V?$positional_parameter_base@DV?$string_output_adapter@D@__crt_stdio_output@@@2@@__crt_stdio_output@@AAEXI@Z 1002c214 f i libucrt:output.obj
 0001:0002b226       ?set_flag@?$output_processor@DV?$string_output_adapter@D@__crt_stdio_output@@V?$standard_base@DV?$string_output_adapter@D@__crt_stdio_output@@@2@@__crt_stdio_output@@AAEXI@Z 1002c226 f i libucrt:output.obj
 0001:0002b238       ?set_flag@?$output_processor@_WV?$stream_output_adapter@_W@__crt_stdio_output@@V?$format_validation_base@_WV?$stream_output_adapter@_W@__crt_stdio_output@@@2@@__crt_stdio_output@@AAEXI@Z 1002c238 f i libucrt:output.obj
 0001:0002b24a       ?set_flag@?$output_processor@_WV?$stream_output_adapter@_W@__crt_stdio_output@@V?$positional_parameter_base@_WV?$stream_output_adapter@_W@__crt_stdio_output@@@2@@__crt_stdio_output@@AAEXI@Z 1002c24a f i libucrt:output.obj
 0001:0002b25c       ?set_flag@?$output_processor@_WV?$stream_output_adapter@_W@__crt_stdio_output@@V?$standard_base@_WV?$stream_output_adapter@_W@__crt_stdio_output@@@2@@__crt_stdio_output@@AAEXI@Z 1002c25c f i libucrt:output.obj
 0001:0002b26e       ?set_flag@?$output_processor@_WV?$string_output_adapter@_W@__crt_stdio_output@@V?$format_validation_base@_WV?$string_output_adapter@_W@__crt_stdio_output@@@2@@__crt_stdio_output@@AAEXI@Z 1002c26e f i libucrt:output.obj
 0001:0002b280       ?set_flag@?$output_processor@_WV?$string_output_adapter@_W@__crt_stdio_output@@V?$positional_parameter_base@_WV?$string_output_adapter@_W@__crt_stdio_output@@@2@@__crt_stdio_output@@AAEXI@Z 1002c280 f i libucrt:output.obj
 0001:0002b292       ?set_flag@?$output_processor@_WV?$string_output_adapter@_W@__crt_stdio_output@@V?$standard_base@_WV?$string_output_adapter@_W@__crt_stdio_output@@@2@@__crt_stdio_output@@AAEXI@Z 1002c292 f i libucrt:output.obj
 0001:0002b2a4       ?should_format@?$positional_parameter_base@DV?$stream_output_adapter@D@__crt_stdio_output@@@__crt_stdio_output@@IAE_NXZ 1002c2a4 f i libucrt:output.obj
 0001:0002b2bf       ?should_format@?$positional_parameter_base@DV?$string_output_adapter@D@__crt_stdio_output@@@__crt_stdio_output@@IAE_NXZ 1002c2bf f i libucrt:output.obj
 0001:0002b2da       ?should_format@?$positional_parameter_base@_WV?$stream_output_adapter@_W@__crt_stdio_output@@@__crt_stdio_output@@IAE_NXZ 1002c2da f i libucrt:output.obj
 0001:0002b2f5       ?should_format@?$positional_parameter_base@_WV?$string_output_adapter@_W@__crt_stdio_output@@@__crt_stdio_output@@IAE_NXZ 1002c2f5 f i libucrt:output.obj
 0001:0002b310       ?should_format@?$standard_base@DV?$stream_output_adapter@D@__crt_stdio_output@@@__crt_stdio_output@@IAE_NXZ 1002c310 f i libucrt:output.obj
 0001:0002b313       ?should_format@?$standard_base@DV?$string_output_adapter@D@__crt_stdio_output@@@__crt_stdio_output@@IAE_NXZ 1002c313 f i libucrt:output.obj
 0001:0002b316       ?should_format@?$standard_base@_WV?$stream_output_adapter@_W@__crt_stdio_output@@@__crt_stdio_output@@IAE_NXZ 1002c316 f i libucrt:output.obj
 0001:0002b319       ?should_format@?$standard_base@_WV?$string_output_adapter@_W@__crt_stdio_output@@@__crt_stdio_output@@IAE_NXZ 1002c319 f i libucrt:output.obj
 0001:0002b31c       ?should_skip_normal_state_processing@?$positional_parameter_base@DV?$stream_output_adapter@D@__crt_stdio_output@@@__crt_stdio_output@@IAE_NXZ 1002c31c f i libucrt:output.obj
 0001:0002b34e       ?should_skip_normal_state_processing@?$positional_parameter_base@DV?$string_output_adapter@D@__crt_stdio_output@@@__crt_stdio_output@@IAE_NXZ 1002c34e f i libucrt:output.obj
 0001:0002b380       ?should_skip_normal_state_processing@?$positional_parameter_base@_WV?$stream_output_adapter@_W@__crt_stdio_output@@@__crt_stdio_output@@IAE_NXZ 1002c380 f i libucrt:output.obj
 0001:0002b3b2       ?should_skip_normal_state_processing@?$positional_parameter_base@_WV?$string_output_adapter@_W@__crt_stdio_output@@@__crt_stdio_output@@IAE_NXZ 1002c3b2 f i libucrt:output.obj
 0001:0002b3e4       ?should_skip_normal_state_processing@?$standard_base@DV?$stream_output_adapter@D@__crt_stdio_output@@@__crt_stdio_output@@IAE_NXZ 1002c3e4 f i libucrt:output.obj
 0001:0002b3e7       ?should_skip_normal_state_processing@?$standard_base@DV?$string_output_adapter@D@__crt_stdio_output@@@__crt_stdio_output@@IAE_NXZ 1002c3e7 f i libucrt:output.obj
 0001:0002b3ea       ?should_skip_normal_state_processing@?$standard_base@_WV?$stream_output_adapter@_W@__crt_stdio_output@@@__crt_stdio_output@@IAE_NXZ 1002c3ea f i libucrt:output.obj
 0001:0002b3ed       ?should_skip_normal_state_processing@?$standard_base@_WV?$string_output_adapter@_W@__crt_stdio_output@@@__crt_stdio_output@@IAE_NXZ 1002c3ed f i libucrt:output.obj
 0001:0002b3f0       ?should_skip_type_state_output@?$positional_parameter_base@DV?$stream_output_adapter@D@__crt_stdio_output@@@__crt_stdio_output@@IBE_NXZ 1002c3f0 f i libucrt:output.obj
 0001:0002b40c       ?should_skip_type_state_output@?$positional_parameter_base@DV?$string_output_adapter@D@__crt_stdio_output@@@__crt_stdio_output@@IBE_NXZ 1002c40c f i libucrt:output.obj
 0001:0002b428       ?should_skip_type_state_output@?$positional_parameter_base@_WV?$stream_output_adapter@_W@__crt_stdio_output@@@__crt_stdio_output@@IBE_NXZ 1002c428 f i libucrt:output.obj
 0001:0002b444       ?should_skip_type_state_output@?$positional_parameter_base@_WV?$string_output_adapter@_W@__crt_stdio_output@@@__crt_stdio_output@@IBE_NXZ 1002c444 f i libucrt:output.obj
 0001:0002b460       ?should_skip_type_state_output@?$standard_base@DV?$stream_output_adapter@D@__crt_stdio_output@@@__crt_stdio_output@@IBE_NXZ 1002c460 f i libucrt:output.obj
 0001:0002b463       ?should_skip_type_state_output@?$standard_base@DV?$string_output_adapter@D@__crt_stdio_output@@@__crt_stdio_output@@IBE_NXZ 1002c463 f i libucrt:output.obj
 0001:0002b466       ?should_skip_type_state_output@?$standard_base@_WV?$stream_output_adapter@_W@__crt_stdio_output@@@__crt_stdio_output@@IBE_NXZ 1002c466 f i libucrt:output.obj
 0001:0002b469       ?should_skip_type_state_output@?$standard_base@_WV?$string_output_adapter@_W@__crt_stdio_output@@@__crt_stdio_output@@IBE_NXZ 1002c469 f i libucrt:output.obj
 0001:0002b46c       ?state_case_dot@?$output_processor@DV?$stream_output_adapter@D@__crt_stdio_output@@V?$format_validation_base@DV?$stream_output_adapter@D@__crt_stdio_output@@@2@@__crt_stdio_output@@AAE_NXZ 1002c46c f i libucrt:output.obj
 0001:0002b473       ?state_case_dot@?$output_processor@DV?$stream_output_adapter@D@__crt_stdio_output@@V?$positional_parameter_base@DV?$stream_output_adapter@D@__crt_stdio_output@@@2@@__crt_stdio_output@@AAE_NXZ 1002c473 f i libucrt:output.obj
 0001:0002b47a       ?state_case_dot@?$output_processor@DV?$stream_output_adapter@D@__crt_stdio_output@@V?$standard_base@DV?$stream_output_adapter@D@__crt_stdio_output@@@2@@__crt_stdio_output@@AAE_NXZ 1002c47a f i libucrt:output.obj
 0001:0002b481       ?state_case_dot@?$output_processor@DV?$string_output_adapter@D@__crt_stdio_output@@V?$format_validation_base@DV?$string_output_adapter@D@__crt_stdio_output@@@2@@__crt_stdio_output@@AAE_NXZ 1002c481 f i libucrt:output.obj
 0001:0002b488       ?state_case_dot@?$output_processor@DV?$string_output_adapter@D@__crt_stdio_output@@V?$positional_parameter_base@DV?$string_output_adapter@D@__crt_stdio_output@@@2@@__crt_stdio_output@@AAE_NXZ 1002c488 f i libucrt:output.obj
 0001:0002b48f       ?state_case_dot@?$output_processor@DV?$string_output_adapter@D@__crt_stdio_output@@V?$standard_base@DV?$string_output_adapter@D@__crt_stdio_output@@@2@@__crt_stdio_output@@AAE_NXZ 1002c48f f i libucrt:output.obj
 0001:0002b496       ?state_case_dot@?$output_processor@_WV?$stream_output_adapter@_W@__crt_stdio_output@@V?$format_validation_base@_WV?$stream_output_adapter@_W@__crt_stdio_output@@@2@@__crt_stdio_output@@AAE_NXZ 1002c496 f i libucrt:output.obj
 0001:0002b49d       ?state_case_dot@?$output_processor@_WV?$stream_output_adapter@_W@__crt_stdio_output@@V?$positional_parameter_base@_WV?$stream_output_adapter@_W@__crt_stdio_output@@@2@@__crt_stdio_output@@AAE_NXZ 1002c49d f i libucrt:output.obj
 0001:0002b4a4       ?state_case_dot@?$output_processor@_WV?$stream_output_adapter@_W@__crt_stdio_output@@V?$standard_base@_WV?$stream_output_adapter@_W@__crt_stdio_output@@@2@@__crt_stdio_output@@AAE_NXZ 1002c4a4 f i libucrt:output.obj
 0001:0002b4ab       ?state_case_dot@?$output_processor@_WV?$string_output_adapter@_W@__crt_stdio_output@@V?$format_validation_base@_WV?$string_output_adapter@_W@__crt_stdio_output@@@2@@__crt_stdio_output@@AAE_NXZ 1002c4ab f i libucrt:output.obj
 0001:0002b4b2       ?state_case_dot@?$output_processor@_WV?$string_output_adapter@_W@__crt_stdio_output@@V?$positional_parameter_base@_WV?$string_output_adapter@_W@__crt_stdio_output@@@2@@__crt_stdio_output@@AAE_NXZ 1002c4b2 f i libucrt:output.obj
 0001:0002b4b9       ?state_case_dot@?$output_processor@_WV?$string_output_adapter@_W@__crt_stdio_output@@V?$standard_base@_WV?$string_output_adapter@_W@__crt_stdio_output@@@2@@__crt_stdio_output@@AAE_NXZ 1002c4b9 f i libucrt:output.obj
 0001:0002b4c0       ?state_case_flag@?$output_processor@DV?$stream_output_adapter@D@__crt_stdio_output@@V?$format_validation_base@DV?$stream_output_adapter@D@__crt_stdio_output@@@2@@__crt_stdio_output@@AAE_NXZ 1002c4c0 f i libucrt:output.obj
 0001:0002b50c       ?state_case_flag@?$output_processor@DV?$stream_output_adapter@D@__crt_stdio_output@@V?$positional_parameter_base@DV?$stream_output_adapter@D@__crt_stdio_output@@@2@@__crt_stdio_output@@AAE_NXZ 1002c50c f i libucrt:output.obj
 0001:0002b558       ?state_case_flag@?$output_processor@DV?$stream_output_adapter@D@__crt_stdio_output@@V?$standard_base@DV?$stream_output_adapter@D@__crt_stdio_output@@@2@@__crt_stdio_output@@AAE_NXZ 1002c558 f i libucrt:output.obj
 0001:0002b5a4       ?state_case_flag@?$output_processor@DV?$string_output_adapter@D@__crt_stdio_output@@V?$format_validation_base@DV?$string_output_adapter@D@__crt_stdio_output@@@2@@__crt_stdio_output@@AAE_NXZ 1002c5a4 f i libucrt:output.obj
 0001:0002b5f0       ?state_case_flag@?$output_processor@DV?$string_output_adapter@D@__crt_stdio_output@@V?$positional_parameter_base@DV?$string_output_adapter@D@__crt_stdio_output@@@2@@__crt_stdio_output@@AAE_NXZ 1002c5f0 f i libucrt:output.obj
 0001:0002b63c       ?state_case_flag@?$output_processor@DV?$string_output_adapter@D@__crt_stdio_output@@V?$standard_base@DV?$string_output_adapter@D@__crt_stdio_output@@@2@@__crt_stdio_output@@AAE_NXZ 1002c63c f i libucrt:output.obj
 0001:0002b688       ?state_case_flag@?$output_processor@_WV?$stream_output_adapter@_W@__crt_stdio_output@@V?$format_validation_base@_WV?$stream_output_adapter@_W@__crt_stdio_output@@@2@@__crt_stdio_output@@AAE_NXZ 1002c688 f i libucrt:output.obj
 0001:0002b6d4       ?state_case_flag@?$output_processor@_WV?$stream_output_adapter@_W@__crt_stdio_output@@V?$positional_parameter_base@_WV?$stream_output_adapter@_W@__crt_stdio_output@@@2@@__crt_stdio_output@@AAE_NXZ 1002c6d4 f i libucrt:output.obj
 0001:0002b720       ?state_case_flag@?$output_processor@_WV?$stream_output_adapter@_W@__crt_stdio_output@@V?$standard_base@_WV?$stream_output_adapter@_W@__crt_stdio_output@@@2@@__crt_stdio_output@@AAE_NXZ 1002c720 f i libucrt:output.obj
 0001:0002b76c       ?state_case_flag@?$output_processor@_WV?$string_output_adapter@_W@__crt_stdio_output@@V?$format_validation_base@_WV?$string_output_adapter@_W@__crt_stdio_output@@@2@@__crt_stdio_output@@AAE_NXZ 1002c76c f i libucrt:output.obj
 0001:0002b7b8       ?state_case_flag@?$output_processor@_WV?$string_output_adapter@_W@__crt_stdio_output@@V?$positional_parameter_base@_WV?$string_output_adapter@_W@__crt_stdio_output@@@2@@__crt_stdio_output@@AAE_NXZ 1002c7b8 f i libucrt:output.obj
 0001:0002b804       ?state_case_flag@?$output_processor@_WV?$string_output_adapter@_W@__crt_stdio_output@@V?$standard_base@_WV?$string_output_adapter@_W@__crt_stdio_output@@@2@@__crt_stdio_output@@AAE_NXZ 1002c804 f i libucrt:output.obj
 0001:0002b850       ?state_case_normal@?$output_processor@DV?$stream_output_adapter@D@__crt_stdio_output@@V?$format_validation_base@DV?$stream_output_adapter@D@__crt_stdio_output@@@2@@__crt_stdio_output@@AAE_NXZ 1002c850 f i libucrt:output.obj
 0001:0002b876       ?state_case_normal@?$output_processor@DV?$stream_output_adapter@D@__crt_stdio_output@@V?$positional_parameter_base@DV?$stream_output_adapter@D@__crt_stdio_output@@@2@@__crt_stdio_output@@AAE_NXZ 1002c876 f i libucrt:output.obj
 0001:0002b8b3       ?state_case_normal@?$output_processor@DV?$stream_output_adapter@D@__crt_stdio_output@@V?$standard_base@DV?$stream_output_adapter@D@__crt_stdio_output@@@2@@__crt_stdio_output@@AAE_NXZ 1002c8b3 f i libucrt:output.obj
 0001:0002b8d9       ?state_case_normal@?$output_processor@DV?$string_output_adapter@D@__crt_stdio_output@@V?$format_validation_base@DV?$string_output_adapter@D@__crt_stdio_output@@@2@@__crt_stdio_output@@AAE_NXZ 1002c8d9 f i libucrt:output.obj
 0001:0002b8ff       ?state_case_normal@?$output_processor@DV?$string_output_adapter@D@__crt_stdio_output@@V?$positional_parameter_base@DV?$string_output_adapter@D@__crt_stdio_output@@@2@@__crt_stdio_output@@AAE_NXZ 1002c8ff f i libucrt:output.obj
 0001:0002b93c       ?state_case_normal@?$output_processor@DV?$string_output_adapter@D@__crt_stdio_output@@V?$standard_base@DV?$string_output_adapter@D@__crt_stdio_output@@@2@@__crt_stdio_output@@AAE_NXZ 1002c93c f i libucrt:output.obj
 0001:0002b962       ?state_case_normal@?$output_processor@_WV?$stream_output_adapter@_W@__crt_stdio_output@@V?$format_validation_base@_WV?$stream_output_adapter@_W@__crt_stdio_output@@@2@@__crt_stdio_output@@AAE_NXZ 1002c962 f i libucrt:output.obj
 0001:0002b988       ?state_case_normal@?$output_processor@_WV?$stream_output_adapter@_W@__crt_stdio_output@@V?$positional_parameter_base@_WV?$stream_output_adapter@_W@__crt_stdio_output@@@2@@__crt_stdio_output@@AAE_NXZ 1002c988 f i libucrt:output.obj
 0001:0002b9c5       ?state_case_normal@?$output_processor@_WV?$stream_output_adapter@_W@__crt_stdio_output@@V?$standard_base@_WV?$stream_output_adapter@_W@__crt_stdio_output@@@2@@__crt_stdio_output@@AAE_NXZ 1002c9c5 f i libucrt:output.obj
 0001:0002b9eb       ?state_case_normal@?$output_processor@_WV?$string_output_adapter@_W@__crt_stdio_output@@V?$format_validation_base@_WV?$string_output_adapter@_W@__crt_stdio_output@@@2@@__crt_stdio_output@@AAE_NXZ 1002c9eb f i libucrt:output.obj
 0001:0002ba11       ?state_case_normal@?$output_processor@_WV?$string_output_adapter@_W@__crt_stdio_output@@V?$positional_parameter_base@_WV?$string_output_adapter@_W@__crt_stdio_output@@@2@@__crt_stdio_output@@AAE_NXZ 1002ca11 f i libucrt:output.obj
 0001:0002ba4e       ?state_case_normal@?$output_processor@_WV?$string_output_adapter@_W@__crt_stdio_output@@V?$standard_base@_WV?$string_output_adapter@_W@__crt_stdio_output@@@2@@__crt_stdio_output@@AAE_NXZ 1002ca4e f i libucrt:output.obj
 0001:0002ba74       ?state_case_normal_common@?$output_processor@DV?$stream_output_adapter@D@__crt_stdio_output@@V?$format_validation_base@DV?$stream_output_adapter@D@__crt_stdio_output@@@2@@__crt_stdio_output@@AAE_NXZ 1002ca74 f i libucrt:output.obj
 0001:0002babf       ?state_case_normal_common@?$output_processor@DV?$stream_output_adapter@D@__crt_stdio_output@@V?$positional_parameter_base@DV?$stream_output_adapter@D@__crt_stdio_output@@@2@@__crt_stdio_output@@AAE_NXZ 1002cabf f i libucrt:output.obj
 0001:0002bb0a       ?state_case_normal_common@?$output_processor@DV?$stream_output_adapter@D@__crt_stdio_output@@V?$standard_base@DV?$stream_output_adapter@D@__crt_stdio_output@@@2@@__crt_stdio_output@@AAE_NXZ 1002cb0a f i libucrt:output.obj
 0001:0002bb55       ?state_case_normal_common@?$output_processor@DV?$string_output_adapter@D@__crt_stdio_output@@V?$format_validation_base@DV?$string_output_adapter@D@__crt_stdio_output@@@2@@__crt_stdio_output@@AAE_NXZ 1002cb55 f i libucrt:output.obj
 0001:0002bb89       ?state_case_normal_common@?$output_processor@DV?$string_output_adapter@D@__crt_stdio_output@@V?$positional_parameter_base@DV?$string_output_adapter@D@__crt_stdio_output@@@2@@__crt_stdio_output@@AAE_NXZ 1002cb89 f i libucrt:output.obj
 0001:0002bbbd       ?state_case_normal_common@?$output_processor@DV?$string_output_adapter@D@__crt_stdio_output@@V?$standard_base@DV?$string_output_adapter@D@__crt_stdio_output@@@2@@__crt_stdio_output@@AAE_NXZ 1002cbbd f i libucrt:output.obj
 0001:0002bbf1       ?state_case_normal_common@?$output_processor@_WV?$stream_output_adapter@_W@__crt_stdio_output@@V?$format_validation_base@_WV?$stream_output_adapter@_W@__crt_stdio_output@@@2@@__crt_stdio_output@@AAE_NXZ 1002cbf1 f i libucrt:output.obj
 0001:0002bc25       ?state_case_normal_common@?$output_processor@_WV?$stream_output_adapter@_W@__crt_stdio_output@@V?$positional_parameter_base@_WV?$stream_output_adapter@_W@__crt_stdio_output@@@2@@__crt_stdio_output@@AAE_NXZ 1002cc25 f i libucrt:output.obj
 0001:0002bc59       ?state_case_normal_common@?$output_processor@_WV?$stream_output_adapter@_W@__crt_stdio_output@@V?$standard_base@_WV?$stream_output_adapter@_W@__crt_stdio_output@@@2@@__crt_stdio_output@@AAE_NXZ 1002cc59 f i libucrt:output.obj
 0001:0002bc8d       ?state_case_normal_common@?$output_processor@_WV?$string_output_adapter@_W@__crt_stdio_output@@V?$format_validation_base@_WV?$string_output_adapter@_W@__crt_stdio_output@@@2@@__crt_stdio_output@@AAE_NXZ 1002cc8d f i libucrt:output.obj
 0001:0002bcae       ?state_case_normal_common@?$output_processor@_WV?$string_output_adapter@_W@__crt_stdio_output@@V?$positional_parameter_base@_WV?$string_output_adapter@_W@__crt_stdio_output@@@2@@__crt_stdio_output@@AAE_NXZ 1002ccae f i libucrt:output.obj
 0001:0002bccf       ?state_case_normal_common@?$output_processor@_WV?$string_output_adapter@_W@__crt_stdio_output@@V?$standard_base@_WV?$string_output_adapter@_W@__crt_stdio_output@@@2@@__crt_stdio_output@@AAE_NXZ 1002cccf f i libucrt:output.obj
 0001:0002bcf0       ?state_case_normal_tchar@?$output_processor@DV?$stream_output_adapter@D@__crt_stdio_output@@V?$format_validation_base@DV?$stream_output_adapter@D@__crt_stdio_output@@@2@@__crt_stdio_output@@AAE_ND@Z 1002ccf0 f i libucrt:output.obj
 0001:0002bd6a       ?state_case_normal_tchar@?$output_processor@DV?$stream_output_adapter@D@__crt_stdio_output@@V?$positional_parameter_base@DV?$stream_output_adapter@D@__crt_stdio_output@@@2@@__crt_stdio_output@@AAE_ND@Z 1002cd6a f i libucrt:output.obj
 0001:0002bde4       ?state_case_normal_tchar@?$output_processor@DV?$stream_output_adapter@D@__crt_stdio_output@@V?$standard_base@DV?$stream_output_adapter@D@__crt_stdio_output@@@2@@__crt_stdio_output@@AAE_ND@Z 1002cde4 f i libucrt:output.obj
 0001:0002be5e       ?state_case_normal_tchar@?$output_processor@DV?$string_output_adapter@D@__crt_stdio_output@@V?$format_validation_base@DV?$string_output_adapter@D@__crt_stdio_output@@@2@@__crt_stdio_output@@AAE_ND@Z 1002ce5e f i libucrt:output.obj
 0001:0002becd       ?state_case_normal_tchar@?$output_processor@DV?$string_output_adapter@D@__crt_stdio_output@@V?$positional_parameter_base@DV?$string_output_adapter@D@__crt_stdio_output@@@2@@__crt_stdio_output@@AAE_ND@Z 1002cecd f i libucrt:output.obj
 0001:0002bf3c       ?state_case_normal_tchar@?$output_processor@DV?$string_output_adapter@D@__crt_stdio_output@@V?$standard_base@DV?$string_output_adapter@D@__crt_stdio_output@@@2@@__crt_stdio_output@@AAE_ND@Z 1002cf3c f i libucrt:output.obj
 0001:0002bfab       ?state_case_normal_tchar@?$output_processor@_WV?$stream_output_adapter@_W@__crt_stdio_output@@V?$format_validation_base@_WV?$stream_output_adapter@_W@__crt_stdio_output@@@2@@__crt_stdio_output@@AAE_N_W@Z 1002cfab f i libucrt:output.obj
 0001:0002bfb6       ?state_case_normal_tchar@?$output_processor@_WV?$stream_output_adapter@_W@__crt_stdio_output@@V?$positional_parameter_base@_WV?$stream_output_adapter@_W@__crt_stdio_output@@@2@@__crt_stdio_output@@AAE_N_W@Z 1002cfb6 f i libucrt:output.obj
 0001:0002bfc1       ?state_case_normal_tchar@?$output_processor@_WV?$stream_output_adapter@_W@__crt_stdio_output@@V?$standard_base@_WV?$stream_output_adapter@_W@__crt_stdio_output@@@2@@__crt_stdio_output@@AAE_N_W@Z 1002cfc1 f i libucrt:output.obj
 0001:0002bfcc       ?state_case_normal_tchar@?$output_processor@_WV?$string_output_adapter@_W@__crt_stdio_output@@V?$format_validation_base@_WV?$string_output_adapter@_W@__crt_stdio_output@@@2@@__crt_stdio_output@@AAE_N_W@Z 1002cfcc f i libucrt:output.obj
 0001:0002bfd7       ?state_case_normal_tchar@?$output_processor@_WV?$string_output_adapter@_W@__crt_stdio_output@@V?$positional_parameter_base@_WV?$string_output_adapter@_W@__crt_stdio_output@@@2@@__crt_stdio_output@@AAE_N_W@Z 1002cfd7 f i libucrt:output.obj
 0001:0002bfe2       ?state_case_normal_tchar@?$output_processor@_WV?$string_output_adapter@_W@__crt_stdio_output@@V?$standard_base@_WV?$string_output_adapter@_W@__crt_stdio_output@@@2@@__crt_stdio_output@@AAE_N_W@Z 1002cfe2 f i libucrt:output.obj
 0001:0002bfed       ?state_case_percent@?$output_processor@DV?$stream_output_adapter@D@__crt_stdio_output@@V?$format_validation_base@DV?$stream_output_adapter@D@__crt_stdio_output@@@2@@__crt_stdio_output@@AAE_NXZ 1002cfed f i libucrt:output.obj
 0001:0002c00b       ?state_case_percent@?$output_processor@DV?$stream_output_adapter@D@__crt_stdio_output@@V?$positional_parameter_base@DV?$stream_output_adapter@D@__crt_stdio_output@@@2@@__crt_stdio_output@@AAE_NXZ 1002d00b f i libucrt:output.obj
 0001:0002c029       ?state_case_percent@?$output_processor@DV?$stream_output_adapter@D@__crt_stdio_output@@V?$standard_base@DV?$stream_output_adapter@D@__crt_stdio_output@@@2@@__crt_stdio_output@@AAE_NXZ 1002d029 f i libucrt:output.obj
 0001:0002c047       ?state_case_percent@?$output_processor@DV?$string_output_adapter@D@__crt_stdio_output@@V?$format_validation_base@DV?$string_output_adapter@D@__crt_stdio_output@@@2@@__crt_stdio_output@@AAE_NXZ 1002d047 f i libucrt:output.obj
 0001:0002c065       ?state_case_percent@?$output_processor@DV?$string_output_adapter@D@__crt_stdio_output@@V?$positional_parameter_base@DV?$string_output_adapter@D@__crt_stdio_output@@@2@@__crt_stdio_output@@AAE_NXZ 1002d065 f i libucrt:output.obj
 0001:0002c083       ?state_case_percent@?$output_processor@DV?$string_output_adapter@D@__crt_stdio_output@@V?$standard_base@DV?$string_output_adapter@D@__crt_stdio_output@@@2@@__crt_stdio_output@@AAE_NXZ 1002d083 f i libucrt:output.obj
 0001:0002c0a1       ?state_case_percent@?$output_processor@_WV?$stream_output_adapter@_W@__crt_stdio_output@@V?$format_validation_base@_WV?$stream_output_adapter@_W@__crt_stdio_output@@@2@@__crt_stdio_output@@AAE_NXZ 1002d0a1 f i libucrt:output.obj
 0001:0002c0bf       ?state_case_percent@?$output_processor@_WV?$stream_output_adapter@_W@__crt_stdio_output@@V?$positional_parameter_base@_WV?$stream_output_adapter@_W@__crt_stdio_output@@@2@@__crt_stdio_output@@AAE_NXZ 1002d0bf f i libucrt:output.obj
 0001:0002c0dd       ?state_case_percent@?$output_processor@_WV?$stream_output_adapter@_W@__crt_stdio_output@@V?$standard_base@_WV?$stream_output_adapter@_W@__crt_stdio_output@@@2@@__crt_stdio_output@@AAE_NXZ 1002d0dd f i libucrt:output.obj
 0001:0002c0fb       ?state_case_percent@?$output_processor@_WV?$string_output_adapter@_W@__crt_stdio_output@@V?$format_validation_base@_WV?$string_output_adapter@_W@__crt_stdio_output@@@2@@__crt_stdio_output@@AAE_NXZ 1002d0fb f i libucrt:output.obj
 0001:0002c119       ?state_case_percent@?$output_processor@_WV?$string_output_adapter@_W@__crt_stdio_output@@V?$positional_parameter_base@_WV?$string_output_adapter@_W@__crt_stdio_output@@@2@@__crt_stdio_output@@AAE_NXZ 1002d119 f i libucrt:output.obj
 0001:0002c137       ?state_case_percent@?$output_processor@_WV?$string_output_adapter@_W@__crt_stdio_output@@V?$standard_base@_WV?$string_output_adapter@_W@__crt_stdio_output@@@2@@__crt_stdio_output@@AAE_NXZ 1002d137 f i libucrt:output.obj
 0001:0002c155       ?state_case_precision@?$output_processor@DV?$stream_output_adapter@D@__crt_stdio_output@@V?$format_validation_base@DV?$stream_output_adapter@D@__crt_stdio_output@@@2@@__crt_stdio_output@@AAE_NXZ 1002d155 f i libucrt:output.obj
 0001:0002c184       ?state_case_precision@?$output_processor@DV?$stream_output_adapter@D@__crt_stdio_output@@V?$positional_parameter_base@DV?$stream_output_adapter@D@__crt_stdio_output@@@2@@__crt_stdio_output@@AAE_NXZ 1002d184 f i libucrt:output.obj
 0001:0002c1cc       ?state_case_precision@?$output_processor@DV?$stream_output_adapter@D@__crt_stdio_output@@V?$standard_base@DV?$stream_output_adapter@D@__crt_stdio_output@@@2@@__crt_stdio_output@@AAE_NXZ 1002d1cc f i libucrt:output.obj
 0001:0002c1fb       ?state_case_precision@?$output_processor@DV?$string_output_adapter@D@__crt_stdio_output@@V?$format_validation_base@DV?$string_output_adapter@D@__crt_stdio_output@@@2@@__crt_stdio_output@@AAE_NXZ 1002d1fb f i libucrt:output.obj
 0001:0002c22a       ?state_case_precision@?$output_processor@DV?$string_output_adapter@D@__crt_stdio_output@@V?$positional_parameter_base@DV?$string_output_adapter@D@__crt_stdio_output@@@2@@__crt_stdio_output@@AAE_NXZ 1002d22a f i libucrt:output.obj
 0001:0002c272       ?state_case_precision@?$output_processor@DV?$string_output_adapter@D@__crt_stdio_output@@V?$standard_base@DV?$string_output_adapter@D@__crt_stdio_output@@@2@@__crt_stdio_output@@AAE_NXZ 1002d272 f i libucrt:output.obj
 0001:0002c2a1       ?state_case_precision@?$output_processor@_WV?$stream_output_adapter@_W@__crt_stdio_output@@V?$format_validation_base@_WV?$stream_output_adapter@_W@__crt_stdio_output@@@2@@__crt_stdio_output@@AAE_NXZ 1002d2a1 f i libucrt:output.obj
 0001:0002c2d1       ?state_case_precision@?$output_processor@_WV?$stream_output_adapter@_W@__crt_stdio_output@@V?$positional_parameter_base@_WV?$stream_output_adapter@_W@__crt_stdio_output@@@2@@__crt_stdio_output@@AAE_NXZ 1002d2d1 f i libucrt:output.obj
 0001:0002c31a       ?state_case_precision@?$output_processor@_WV?$stream_output_adapter@_W@__crt_stdio_output@@V?$standard_base@_WV?$stream_output_adapter@_W@__crt_stdio_output@@@2@@__crt_stdio_output@@AAE_NXZ 1002d31a f i libucrt:output.obj
 0001:0002c34a       ?state_case_precision@?$output_processor@_WV?$string_output_adapter@_W@__crt_stdio_output@@V?$format_validation_base@_WV?$string_output_adapter@_W@__crt_stdio_output@@@2@@__crt_stdio_output@@AAE_NXZ 1002d34a f i libucrt:output.obj
 0001:0002c37a       ?state_case_precision@?$output_processor@_WV?$string_output_adapter@_W@__crt_stdio_output@@V?$positional_parameter_base@_WV?$string_output_adapter@_W@__crt_stdio_output@@@2@@__crt_stdio_output@@AAE_NXZ 1002d37a f i libucrt:output.obj
 0001:0002c3c3       ?state_case_precision@?$output_processor@_WV?$string_output_adapter@_W@__crt_stdio_output@@V?$standard_base@_WV?$string_output_adapter@_W@__crt_stdio_output@@@2@@__crt_stdio_output@@AAE_NXZ 1002d3c3 f i libucrt:output.obj
 0001:0002c3f3       ?state_case_size@?$output_processor@DV?$stream_output_adapter@D@__crt_stdio_output@@V?$format_validation_base@DV?$stream_output_adapter@D@__crt_stdio_output@@@2@@__crt_stdio_output@@AAE_NXZ 1002d3f3 f i libucrt:output.obj
 0001:0002c5a3       ?state_case_size@?$output_processor@DV?$stream_output_adapter@D@__crt_stdio_output@@V?$positional_parameter_base@DV?$stream_output_adapter@D@__crt_stdio_output@@@2@@__crt_stdio_output@@AAE_NXZ 1002d5a3 f i libucrt:output.obj
 0001:0002c753       ?state_case_size@?$output_processor@DV?$stream_output_adapter@D@__crt_stdio_output@@V?$standard_base@DV?$stream_output_adapter@D@__crt_stdio_output@@@2@@__crt_stdio_output@@AAE_NXZ 1002d753 f i libucrt:output.obj
 0001:0002c903       ?state_case_size@?$output_processor@DV?$string_output_adapter@D@__crt_stdio_output@@V?$format_validation_base@DV?$string_output_adapter@D@__crt_stdio_output@@@2@@__crt_stdio_output@@AAE_NXZ 1002d903 f i libucrt:output.obj
 0001:0002cab3       ?state_case_size@?$output_processor@DV?$string_output_adapter@D@__crt_stdio_output@@V?$positional_parameter_base@DV?$string_output_adapter@D@__crt_stdio_output@@@2@@__crt_stdio_output@@AAE_NXZ 1002dab3 f i libucrt:output.obj
 0001:0002cc63       ?state_case_size@?$output_processor@DV?$string_output_adapter@D@__crt_stdio_output@@V?$standard_base@DV?$string_output_adapter@D@__crt_stdio_output@@@2@@__crt_stdio_output@@AAE_NXZ 1002dc63 f i libucrt:output.obj
 0001:0002ce13       ?state_case_size@?$output_processor@_WV?$stream_output_adapter@_W@__crt_stdio_output@@V?$format_validation_base@_WV?$stream_output_adapter@_W@__crt_stdio_output@@@2@@__crt_stdio_output@@AAE_NXZ 1002de13 f i libucrt:output.obj
 0001:0002cfdb       ?state_case_size@?$output_processor@_WV?$stream_output_adapter@_W@__crt_stdio_output@@V?$positional_parameter_base@_WV?$stream_output_adapter@_W@__crt_stdio_output@@@2@@__crt_stdio_output@@AAE_NXZ 1002dfdb f i libucrt:output.obj
 0001:0002d1a3       ?state_case_size@?$output_processor@_WV?$stream_output_adapter@_W@__crt_stdio_output@@V?$standard_base@_WV?$stream_output_adapter@_W@__crt_stdio_output@@@2@@__crt_stdio_output@@AAE_NXZ 1002e1a3 f i libucrt:output.obj
 0001:0002d36b       ?state_case_size@?$output_processor@_WV?$string_output_adapter@_W@__crt_stdio_output@@V?$format_validation_base@_WV?$string_output_adapter@_W@__crt_stdio_output@@@2@@__crt_stdio_output@@AAE_NXZ 1002e36b f i libucrt:output.obj
 0001:0002d533       ?state_case_size@?$output_processor@_WV?$string_output_adapter@_W@__crt_stdio_output@@V?$positional_parameter_base@_WV?$string_output_adapter@_W@__crt_stdio_output@@@2@@__crt_stdio_output@@AAE_NXZ 1002e533 f i libucrt:output.obj
 0001:0002d6fb       ?state_case_size@?$output_processor@_WV?$string_output_adapter@_W@__crt_stdio_output@@V?$standard_base@_WV?$string_output_adapter@_W@__crt_stdio_output@@@2@@__crt_stdio_output@@AAE_NXZ 1002e6fb f i libucrt:output.obj
 0001:0002d8c3       ?state_case_type@?$output_processor@DV?$stream_output_adapter@D@__crt_stdio_output@@V?$format_validation_base@DV?$stream_output_adapter@D@__crt_stdio_output@@@2@@__crt_stdio_output@@AAE_NXZ 1002e8c3 f i libucrt:output.obj
 0001:0002db76       ?state_case_type@?$output_processor@DV?$stream_output_adapter@D@__crt_stdio_output@@V?$positional_parameter_base@DV?$stream_output_adapter@D@__crt_stdio_output@@@2@@__crt_stdio_output@@AAE_NXZ 1002eb76 f i libucrt:output.obj
 0001:0002de37       ?state_case_type@?$output_processor@DV?$stream_output_adapter@D@__crt_stdio_output@@V?$standard_base@DV?$stream_output_adapter@D@__crt_stdio_output@@@2@@__crt_stdio_output@@AAE_NXZ 1002ee37 f i libucrt:output.obj
 0001:0002e0ea       ?state_case_type@?$output_processor@DV?$string_output_adapter@D@__crt_stdio_output@@V?$format_validation_base@DV?$string_output_adapter@D@__crt_stdio_output@@@2@@__crt_stdio_output@@AAE_NXZ 1002f0ea f i libucrt:output.obj
 0001:0002e39d       ?state_case_type@?$output_processor@DV?$string_output_adapter@D@__crt_stdio_output@@V?$positional_parameter_base@DV?$string_output_adapter@D@__crt_stdio_output@@@2@@__crt_stdio_output@@AAE_NXZ 1002f39d f i libucrt:output.obj
 0001:0002e65e       ?state_case_type@?$output_processor@DV?$string_output_adapter@D@__crt_stdio_output@@V?$standard_base@DV?$string_output_adapter@D@__crt_stdio_output@@@2@@__crt_stdio_output@@AAE_NXZ 1002f65e f i libucrt:output.obj
 0001:0002e911       ?state_case_type@?$output_processor@_WV?$stream_output_adapter@_W@__crt_stdio_output@@V?$format_validation_base@_WV?$stream_output_adapter@_W@__crt_stdio_output@@@2@@__crt_stdio_output@@AAE_NXZ 1002f911 f i libucrt:output.obj
 0001:0002ec11       ?state_case_type@?$output_processor@_WV?$stream_output_adapter@_W@__crt_stdio_output@@V?$positional_parameter_base@_WV?$stream_output_adapter@_W@__crt_stdio_output@@@2@@__crt_stdio_output@@AAE_NXZ 1002fc11 f i libucrt:output.obj
 0001:0002ef24       ?state_case_type@?$output_processor@_WV?$stream_output_adapter@_W@__crt_stdio_output@@V?$standard_base@_WV?$stream_output_adapter@_W@__crt_stdio_output@@@2@@__crt_stdio_output@@AAE_NXZ 1002ff24 f i libucrt:output.obj
 0001:0002f224       ?state_case_type@?$output_processor@_WV?$string_output_adapter@_W@__crt_stdio_output@@V?$format_validation_base@_WV?$string_output_adapter@_W@__crt_stdio_output@@@2@@__crt_stdio_output@@AAE_NXZ 10030224 f i libucrt:output.obj
 0001:0002f524       ?state_case_type@?$output_processor@_WV?$string_output_adapter@_W@__crt_stdio_output@@V?$positional_parameter_base@_WV?$string_output_adapter@_W@__crt_stdio_output@@@2@@__crt_stdio_output@@AAE_NXZ 10030524 f i libucrt:output.obj
 0001:0002f837       ?state_case_type@?$output_processor@_WV?$string_output_adapter@_W@__crt_stdio_output@@V?$standard_base@_WV?$string_output_adapter@_W@__crt_stdio_output@@@2@@__crt_stdio_output@@AAE_NXZ 10030837 f i libucrt:output.obj
 0001:0002fb37       ?state_case_width@?$output_processor@DV?$stream_output_adapter@D@__crt_stdio_output@@V?$format_validation_base@DV?$stream_output_adapter@D@__crt_stdio_output@@@2@@__crt_stdio_output@@AAE_NXZ 10030b37 f i libucrt:output.obj
 0001:0002fb6c       ?state_case_width@?$output_processor@DV?$stream_output_adapter@D@__crt_stdio_output@@V?$positional_parameter_base@DV?$stream_output_adapter@D@__crt_stdio_output@@@2@@__crt_stdio_output@@AAE_NXZ 10030b6c f i libucrt:output.obj
 0001:0002fbbc       ?state_case_width@?$output_processor@DV?$stream_output_adapter@D@__crt_stdio_output@@V?$standard_base@DV?$stream_output_adapter@D@__crt_stdio_output@@@2@@__crt_stdio_output@@AAE_NXZ 10030bbc f i libucrt:output.obj
 0001:0002fbf1       ?state_case_width@?$output_processor@DV?$string_output_adapter@D@__crt_stdio_output@@V?$format_validation_base@DV?$string_output_adapter@D@__crt_stdio_output@@@2@@__crt_stdio_output@@AAE_NXZ 10030bf1 f i libucrt:output.obj
 0001:0002fc26       ?state_case_width@?$output_processor@DV?$string_output_adapter@D@__crt_stdio_output@@V?$positional_parameter_base@DV?$string_output_adapter@D@__crt_stdio_output@@@2@@__crt_stdio_output@@AAE_NXZ 10030c26 f i libucrt:output.obj
 0001:0002fc76       ?state_case_width@?$output_processor@DV?$string_output_adapter@D@__crt_stdio_output@@V?$standard_base@DV?$string_output_adapter@D@__crt_stdio_output@@@2@@__crt_stdio_output@@AAE_NXZ 10030c76 f i libucrt:output.obj
 0001:0002fcab       ?state_case_width@?$output_processor@_WV?$stream_output_adapter@_W@__crt_stdio_output@@V?$format_validation_base@_WV?$stream_output_adapter@_W@__crt_stdio_output@@@2@@__crt_stdio_output@@AAE_NXZ 10030cab f i libucrt:output.obj
 0001:0002fce2       ?state_case_width@?$output_processor@_WV?$stream_output_adapter@_W@__crt_stdio_output@@V?$positional_parameter_base@_WV?$stream_output_adapter@_W@__crt_stdio_output@@@2@@__crt_stdio_output@@AAE_NXZ 10030ce2 f i libucrt:output.obj
 0001:0002fd33       ?state_case_width@?$output_processor@_WV?$stream_output_adapter@_W@__crt_stdio_output@@V?$standard_base@_WV?$stream_output_adapter@_W@__crt_stdio_output@@@2@@__crt_stdio_output@@AAE_NXZ 10030d33 f i libucrt:output.obj
 0001:0002fd6a       ?state_case_width@?$output_processor@_WV?$string_output_adapter@_W@__crt_stdio_output@@V?$format_validation_base@_WV?$string_output_adapter@_W@__crt_stdio_output@@@2@@__crt_stdio_output@@AAE_NXZ 10030d6a f i libucrt:output.obj
 0001:0002fda1       ?state_case_width@?$output_processor@_WV?$string_output_adapter@_W@__crt_stdio_output@@V?$positional_parameter_base@_WV?$string_output_adapter@_W@__crt_stdio_output@@@2@@__crt_stdio_output@@AAE_NXZ 10030da1 f i libucrt:output.obj
 0001:0002fdf2       ?state_case_width@?$output_processor@_WV?$string_output_adapter@_W@__crt_stdio_output@@V?$standard_base@_WV?$string_output_adapter@_W@__crt_stdio_output@@@2@@__crt_stdio_output@@AAE_NXZ 10030df2 f i libucrt:output.obj
 0001:0002fe29       ?state_count@?$format_validation_base@DV?$stream_output_adapter@D@__crt_stdio_output@@@__crt_stdio_output@@KAIXZ 10030e29 f i libucrt:output.obj
 0001:0002fe2d       ?state_count@?$format_validation_base@DV?$string_output_adapter@D@__crt_stdio_output@@@__crt_stdio_output@@KAIXZ 10030e2d f i libucrt:output.obj
 0001:0002fe31       ?state_count@?$format_validation_base@_WV?$stream_output_adapter@_W@__crt_stdio_output@@@__crt_stdio_output@@KAIXZ 10030e31 f i libucrt:output.obj
 0001:0002fe35       ?state_count@?$format_validation_base@_WV?$string_output_adapter@_W@__crt_stdio_output@@@__crt_stdio_output@@KAIXZ 10030e35 f i libucrt:output.obj
 0001:0002fe39       ?state_count@?$standard_base@DV?$stream_output_adapter@D@__crt_stdio_output@@@__crt_stdio_output@@KAIXZ 10030e39 f i libucrt:output.obj
 0001:0002fe3d       ?state_count@?$standard_base@DV?$string_output_adapter@D@__crt_stdio_output@@@__crt_stdio_output@@KAIXZ 10030e3d f i libucrt:output.obj
 0001:0002fe41       ?state_count@?$standard_base@_WV?$stream_output_adapter@_W@__crt_stdio_output@@@__crt_stdio_output@@KAIXZ 10030e41 f i libucrt:output.obj
 0001:0002fe45       ?state_count@?$standard_base@_WV?$string_output_adapter@_W@__crt_stdio_output@@@__crt_stdio_output@@KAIXZ 10030e45 f i libucrt:output.obj
 0001:0002fe49       ?state_transition_table@?$format_validation_base@DV?$stream_output_adapter@D@__crt_stdio_output@@@__crt_stdio_output@@KAPBEXZ 10030e49 f i libucrt:output.obj
 0001:0002fe4f       ?state_transition_table@?$format_validation_base@DV?$string_output_adapter@D@__crt_stdio_output@@@__crt_stdio_output@@KAPBEXZ 10030e4f f i libucrt:output.obj
 0001:0002fe55       ?state_transition_table@?$format_validation_base@_WV?$stream_output_adapter@_W@__crt_stdio_output@@@__crt_stdio_output@@KAPBEXZ 10030e55 f i libucrt:output.obj
 0001:0002fe5b       ?state_transition_table@?$format_validation_base@_WV?$string_output_adapter@_W@__crt_stdio_output@@@__crt_stdio_output@@KAPBEXZ 10030e5b f i libucrt:output.obj
 0001:0002fe61       ?state_transition_table@?$standard_base@DV?$stream_output_adapter@D@__crt_stdio_output@@@__crt_stdio_output@@KAPBEXZ 10030e61 f i libucrt:output.obj
 0001:0002fe67       ?state_transition_table@?$standard_base@DV?$string_output_adapter@D@__crt_stdio_output@@@__crt_stdio_output@@KAPBEXZ 10030e67 f i libucrt:output.obj
 0001:0002fe6d       ?state_transition_table@?$standard_base@_WV?$stream_output_adapter@_W@__crt_stdio_output@@@__crt_stdio_output@@KAPBEXZ 10030e6d f i libucrt:output.obj
 0001:0002fe73       ?state_transition_table@?$standard_base@_WV?$string_output_adapter@_W@__crt_stdio_output@@@__crt_stdio_output@@KAPBEXZ 10030e73 f i libucrt:output.obj
 0001:0002fe79       ?tchar_string@?$common_data@D@__crt_stdio_output@@IAEAAPADD@Z 10030e79 f i libucrt:output.obj
 0001:0002fe7f       ?tchar_string@?$common_data@D@__crt_stdio_output@@IAEAAPADXZ 10030e7f f i libucrt:output.obj
 0001:0002fe83       ?tchar_string@?$common_data@_W@__crt_stdio_output@@IAEAAPA_WXZ 10030e83 f i libucrt:output.obj
 0001:0002fe87       ?tchar_string@?$common_data@_W@__crt_stdio_output@@IAEAAPA_W_W@Z 10030e87 f i libucrt:output.obj
 0001:0002fe8d       ?to_integer_size@__crt_stdio_output@@YAIW4length_modifier@1@@Z 10030e8d f i libucrt:output.obj
 0001:0002ff00       ?type_case_X@?$output_processor@DV?$stream_output_adapter@D@__crt_stdio_output@@V?$format_validation_base@DV?$stream_output_adapter@D@__crt_stdio_output@@@2@@__crt_stdio_output@@AAE_NXZ 10030f00 f i libucrt:output.obj
 0001:0002ff0c       ?type_case_X@?$output_processor@DV?$stream_output_adapter@D@__crt_stdio_output@@V?$positional_parameter_base@DV?$stream_output_adapter@D@__crt_stdio_output@@@2@@__crt_stdio_output@@AAE_NXZ 10030f0c f i libucrt:output.obj
 0001:0002ff18       ?type_case_X@?$output_processor@DV?$stream_output_adapter@D@__crt_stdio_output@@V?$standard_base@DV?$stream_output_adapter@D@__crt_stdio_output@@@2@@__crt_stdio_output@@AAE_NXZ 10030f18 f i libucrt:output.obj
 0001:0002ff24       ?type_case_X@?$output_processor@DV?$string_output_adapter@D@__crt_stdio_output@@V?$format_validation_base@DV?$string_output_adapter@D@__crt_stdio_output@@@2@@__crt_stdio_output@@AAE_NXZ 10030f24 f i libucrt:output.obj
 0001:0002ff30       ?type_case_X@?$output_processor@DV?$string_output_adapter@D@__crt_stdio_output@@V?$positional_parameter_base@DV?$string_output_adapter@D@__crt_stdio_output@@@2@@__crt_stdio_output@@AAE_NXZ 10030f30 f i libucrt:output.obj
 0001:0002ff3c       ?type_case_X@?$output_processor@DV?$string_output_adapter@D@__crt_stdio_output@@V?$standard_base@DV?$string_output_adapter@D@__crt_stdio_output@@@2@@__crt_stdio_output@@AAE_NXZ 10030f3c f i libucrt:output.obj
 0001:0002ff48       ?type_case_X@?$output_processor@_WV?$stream_output_adapter@_W@__crt_stdio_output@@V?$format_validation_base@_WV?$stream_output_adapter@_W@__crt_stdio_output@@@2@@__crt_stdio_output@@AAE_NXZ 10030f48 f i libucrt:output.obj
 0001:0002ff54       ?type_case_X@?$output_processor@_WV?$stream_output_adapter@_W@__crt_stdio_output@@V?$positional_parameter_base@_WV?$stream_output_adapter@_W@__crt_stdio_output@@@2@@__crt_stdio_output@@AAE_NXZ 10030f54 f i libucrt:output.obj
 0001:0002ff60       ?type_case_X@?$output_processor@_WV?$stream_output_adapter@_W@__crt_stdio_output@@V?$standard_base@_WV?$stream_output_adapter@_W@__crt_stdio_output@@@2@@__crt_stdio_output@@AAE_NXZ 10030f60 f i libucrt:output.obj
 0001:0002ff6c       ?type_case_X@?$output_processor@_WV?$string_output_adapter@_W@__crt_stdio_output@@V?$format_validation_base@_WV?$string_output_adapter@_W@__crt_stdio_output@@@2@@__crt_stdio_output@@AAE_NXZ 10030f6c f i libucrt:output.obj
 0001:0002ff78       ?type_case_X@?$output_processor@_WV?$string_output_adapter@_W@__crt_stdio_output@@V?$positional_parameter_base@_WV?$string_output_adapter@_W@__crt_stdio_output@@@2@@__crt_stdio_output@@AAE_NXZ 10030f78 f i libucrt:output.obj
 0001:0002ff84       ?type_case_X@?$output_processor@_WV?$string_output_adapter@_W@__crt_stdio_output@@V?$standard_base@_WV?$string_output_adapter@_W@__crt_stdio_output@@@2@@__crt_stdio_output@@AAE_NXZ 10030f84 f i libucrt:output.obj
 0001:0002ff90       ?type_case_Z@?$output_processor@DV?$stream_output_adapter@D@__crt_stdio_output@@V?$format_validation_base@DV?$stream_output_adapter@D@__crt_stdio_output@@@2@@__crt_stdio_output@@AAE_NXZ 10030f90 f i libucrt:output.obj
 0001:00030009       ?type_case_Z@?$output_processor@DV?$stream_output_adapter@D@__crt_stdio_output@@V?$positional_parameter_base@DV?$stream_output_adapter@D@__crt_stdio_output@@@2@@__crt_stdio_output@@AAE_NXZ 10031009 f i libucrt:output.obj
 0001:0003011f       ?type_case_Z@?$output_processor@DV?$stream_output_adapter@D@__crt_stdio_output@@V?$standard_base@DV?$stream_output_adapter@D@__crt_stdio_output@@@2@@__crt_stdio_output@@AAE_NXZ 1003111f f i libucrt:output.obj
 0001:00030198       ?type_case_Z@?$output_processor@DV?$string_output_adapter@D@__crt_stdio_output@@V?$format_validation_base@DV?$string_output_adapter@D@__crt_stdio_output@@@2@@__crt_stdio_output@@AAE_NXZ 10031198 f i libucrt:output.obj
 0001:00030211       ?type_case_Z@?$output_processor@DV?$string_output_adapter@D@__crt_stdio_output@@V?$positional_parameter_base@DV?$string_output_adapter@D@__crt_stdio_output@@@2@@__crt_stdio_output@@AAE_NXZ 10031211 f i libucrt:output.obj
 0001:00030327       ?type_case_Z@?$output_processor@DV?$string_output_adapter@D@__crt_stdio_output@@V?$standard_base@DV?$string_output_adapter@D@__crt_stdio_output@@@2@@__crt_stdio_output@@AAE_NXZ 10031327 f i libucrt:output.obj
 0001:000303a0       ?type_case_Z@?$output_processor@_WV?$stream_output_adapter@_W@__crt_stdio_output@@V?$format_validation_base@_WV?$stream_output_adapter@_W@__crt_stdio_output@@@2@@__crt_stdio_output@@AAE_NXZ 100313a0 f i libucrt:output.obj
 0001:00030419       ?type_case_Z@?$output_processor@_WV?$stream_output_adapter@_W@__crt_stdio_output@@V?$positional_parameter_base@_WV?$stream_output_adapter@_W@__crt_stdio_output@@@2@@__crt_stdio_output@@AAE_NXZ 10031419 f i libucrt:output.obj
 0001:0003052f       ?type_case_Z@?$output_processor@_WV?$stream_output_adapter@_W@__crt_stdio_output@@V?$standard_base@_WV?$stream_output_adapter@_W@__crt_stdio_output@@@2@@__crt_stdio_output@@AAE_NXZ 1003152f f i libucrt:output.obj
 0001:000305a8       ?type_case_Z@?$output_processor@_WV?$string_output_adapter@_W@__crt_stdio_output@@V?$format_validation_base@_WV?$string_output_adapter@_W@__crt_stdio_output@@@2@@__crt_stdio_output@@AAE_NXZ 100315a8 f i libucrt:output.obj
 0001:00030621       ?type_case_Z@?$output_processor@_WV?$string_output_adapter@_W@__crt_stdio_output@@V?$positional_parameter_base@_WV?$string_output_adapter@_W@__crt_stdio_output@@@2@@__crt_stdio_output@@AAE_NXZ 10031621 f i libucrt:output.obj
 0001:00030737       ?type_case_Z@?$output_processor@_WV?$string_output_adapter@_W@__crt_stdio_output@@V?$standard_base@_WV?$string_output_adapter@_W@__crt_stdio_output@@@2@@__crt_stdio_output@@AAE_NXZ 10031737 f i libucrt:output.obj
 0001:000307b0       ?type_case_a@?$output_processor@DV?$stream_output_adapter@D@__crt_stdio_output@@V?$format_validation_base@DV?$stream_output_adapter@D@__crt_stdio_output@@@2@@__crt_stdio_output@@AAE_NXZ 100317b0 f i libucrt:output.obj
 0001:0003095f       ?type_case_a@?$output_processor@DV?$stream_output_adapter@D@__crt_stdio_output@@V?$positional_parameter_base@DV?$stream_output_adapter@D@__crt_stdio_output@@@2@@__crt_stdio_output@@AAE_NXZ 1003195f f i libucrt:output.obj
 0001:00030b35       ?type_case_a@?$output_processor@DV?$stream_output_adapter@D@__crt_stdio_output@@V?$standard_base@DV?$stream_output_adapter@D@__crt_stdio_output@@@2@@__crt_stdio_output@@AAE_NXZ 10031b35 f i libucrt:output.obj
 0001:00030ce4       ?type_case_a@?$output_processor@DV?$string_output_adapter@D@__crt_stdio_output@@V?$format_validation_base@DV?$string_output_adapter@D@__crt_stdio_output@@@2@@__crt_stdio_output@@AAE_NXZ 10031ce4 f i libucrt:output.obj
 0001:00030e93       ?type_case_a@?$output_processor@DV?$string_output_adapter@D@__crt_stdio_output@@V?$positional_parameter_base@DV?$string_output_adapter@D@__crt_stdio_output@@@2@@__crt_stdio_output@@AAE_NXZ 10031e93 f i libucrt:output.obj
 0001:00031069       ?type_case_a@?$output_processor@DV?$string_output_adapter@D@__crt_stdio_output@@V?$standard_base@DV?$string_output_adapter@D@__crt_stdio_output@@@2@@__crt_stdio_output@@AAE_NXZ 10032069 f i libucrt:output.obj
 0001:00031218       ?type_case_a@?$output_processor@_WV?$stream_output_adapter@_W@__crt_stdio_output@@V?$format_validation_base@_WV?$stream_output_adapter@_W@__crt_stdio_output@@@2@@__crt_stdio_output@@AAE_NXZ 10032218 f i libucrt:output.obj
 0001:000313e2       ?type_case_a@?$output_processor@_WV?$stream_output_adapter@_W@__crt_stdio_output@@V?$positional_parameter_base@_WV?$stream_output_adapter@_W@__crt_stdio_output@@@2@@__crt_stdio_output@@AAE_NXZ 100323e2 f i libucrt:output.obj
 0001:000315d3       ?type_case_a@?$output_processor@_WV?$stream_output_adapter@_W@__crt_stdio_output@@V?$standard_base@_WV?$stream_output_adapter@_W@__crt_stdio_output@@@2@@__crt_stdio_output@@AAE_NXZ 100325d3 f i libucrt:output.obj
 0001:0003179d       ?type_case_a@?$output_processor@_WV?$string_output_adapter@_W@__crt_stdio_output@@V?$format_validation_base@_WV?$string_output_adapter@_W@__crt_stdio_output@@@2@@__crt_stdio_output@@AAE_NXZ 1003279d f i libucrt:output.obj
 0001:00031967       ?type_case_a@?$output_processor@_WV?$string_output_adapter@_W@__crt_stdio_output@@V?$positional_parameter_base@_WV?$string_output_adapter@_W@__crt_stdio_output@@@2@@__crt_stdio_output@@AAE_NXZ 10032967 f i libucrt:output.obj
 0001:00031b58       ?type_case_a@?$output_processor@_WV?$string_output_adapter@_W@__crt_stdio_output@@V?$standard_base@_WV?$string_output_adapter@_W@__crt_stdio_output@@@2@@__crt_stdio_output@@AAE_NXZ 10032b58 f i libucrt:output.obj
 0001:00031d22       ?type_case_c@?$output_processor@DV?$stream_output_adapter@D@__crt_stdio_output@@V?$format_validation_base@DV?$stream_output_adapter@D@__crt_stdio_output@@@2@@__crt_stdio_output@@AAE_NXZ 10032d22 f i libucrt:output.obj
 0001:00031d2c       ?type_case_c@?$output_processor@DV?$stream_output_adapter@D@__crt_stdio_output@@V?$positional_parameter_base@DV?$stream_output_adapter@D@__crt_stdio_output@@@2@@__crt_stdio_output@@AAE_NXZ 10032d2c f i libucrt:output.obj
 0001:00031d36       ?type_case_c@?$output_processor@DV?$stream_output_adapter@D@__crt_stdio_output@@V?$standard_base@DV?$stream_output_adapter@D@__crt_stdio_output@@@2@@__crt_stdio_output@@AAE_NXZ 10032d36 f i libucrt:output.obj
 0001:00031d40       ?type_case_c@?$output_processor@DV?$string_output_adapter@D@__crt_stdio_output@@V?$format_validation_base@DV?$string_output_adapter@D@__crt_stdio_output@@@2@@__crt_stdio_output@@AAE_NXZ 10032d40 f i libucrt:output.obj
 0001:00031d4a       ?type_case_c@?$output_processor@DV?$string_output_adapter@D@__crt_stdio_output@@V?$positional_parameter_base@DV?$string_output_adapter@D@__crt_stdio_output@@@2@@__crt_stdio_output@@AAE_NXZ 10032d4a f i libucrt:output.obj
 0001:00031d54       ?type_case_c@?$output_processor@DV?$string_output_adapter@D@__crt_stdio_output@@V?$standard_base@DV?$string_output_adapter@D@__crt_stdio_output@@@2@@__crt_stdio_output@@AAE_NXZ 10032d54 f i libucrt:output.obj
 0001:00031d5e       ?type_case_c@?$output_processor@_WV?$stream_output_adapter@_W@__crt_stdio_output@@V?$format_validation_base@_WV?$stream_output_adapter@_W@__crt_stdio_output@@@2@@__crt_stdio_output@@AAE_NXZ 10032d5e f i libucrt:output.obj
 0001:00031d68       ?type_case_c@?$output_processor@_WV?$stream_output_adapter@_W@__crt_stdio_output@@V?$positional_parameter_base@_WV?$stream_output_adapter@_W@__crt_stdio_output@@@2@@__crt_stdio_output@@AAE_NXZ 10032d68 f i libucrt:output.obj
 0001:00031d72       ?type_case_c@?$output_processor@_WV?$stream_output_adapter@_W@__crt_stdio_output@@V?$standard_base@_WV?$stream_output_adapter@_W@__crt_stdio_output@@@2@@__crt_stdio_output@@AAE_NXZ 10032d72 f i libucrt:output.obj
 0001:00031d7c       ?type_case_c@?$output_processor@_WV?$string_output_adapter@_W@__crt_stdio_output@@V?$format_validation_base@_WV?$string_output_adapter@_W@__crt_stdio_output@@@2@@__crt_stdio_output@@AAE_NXZ 10032d7c f i libucrt:output.obj
 0001:00031d86       ?type_case_c@?$output_processor@_WV?$string_output_adapter@_W@__crt_stdio_output@@V?$positional_parameter_base@_WV?$string_output_adapter@_W@__crt_stdio_output@@@2@@__crt_stdio_output@@AAE_NXZ 10032d86 f i libucrt:output.obj
 0001:00031d90       ?type_case_c@?$output_processor@_WV?$string_output_adapter@_W@__crt_stdio_output@@V?$standard_base@_WV?$string_output_adapter@_W@__crt_stdio_output@@@2@@__crt_stdio_output@@AAE_NXZ 10032d90 f i libucrt:output.obj
 0001:00031d9a       ?type_case_c_tchar@?$output_processor@DV?$stream_output_adapter@D@__crt_stdio_output@@V?$format_validation_base@DV?$stream_output_adapter@D@__crt_stdio_output@@@2@@__crt_stdio_output@@AAE_ND@Z 10032d9a f i libucrt:output.obj
 0001:00031e4e       ?type_case_c_tchar@?$output_processor@DV?$stream_output_adapter@D@__crt_stdio_output@@V?$positional_parameter_base@DV?$stream_output_adapter@D@__crt_stdio_output@@@2@@__crt_stdio_output@@AAE_ND@Z 10032e4e f i libucrt:output.obj
 0001:00031f3e       ?type_case_c_tchar@?$output_processor@DV?$stream_output_adapter@D@__crt_stdio_output@@V?$standard_base@DV?$stream_output_adapter@D@__crt_stdio_output@@@2@@__crt_stdio_output@@AAE_ND@Z 10032f3e f i libucrt:output.obj
 0001:00031ff2       ?type_case_c_tchar@?$output_processor@DV?$string_output_adapter@D@__crt_stdio_output@@V?$format_validation_base@DV?$string_output_adapter@D@__crt_stdio_output@@@2@@__crt_stdio_output@@AAE_ND@Z 10032ff2 f i libucrt:output.obj
 0001:000320a6       ?type_case_c_tchar@?$output_processor@DV?$string_output_adapter@D@__crt_stdio_output@@V?$positional_parameter_base@DV?$string_output_adapter@D@__crt_stdio_output@@@2@@__crt_stdio_output@@AAE_ND@Z 100330a6 f i libucrt:output.obj
 0001:00032196       ?type_case_c_tchar@?$output_processor@DV?$string_output_adapter@D@__crt_stdio_output@@V?$standard_base@DV?$string_output_adapter@D@__crt_stdio_output@@@2@@__crt_stdio_output@@AAE_ND@Z 10033196 f i libucrt:output.obj
 0001:0003224a       ?type_case_c_tchar@?$output_processor@_WV?$stream_output_adapter@_W@__crt_stdio_output@@V?$format_validation_base@_WV?$stream_output_adapter@_W@__crt_stdio_output@@@2@@__crt_stdio_output@@AAE_N_W@Z 1003324a f i libucrt:output.obj
 0001:00032308       ?type_case_c_tchar@?$output_processor@_WV?$stream_output_adapter@_W@__crt_stdio_output@@V?$positional_parameter_base@_WV?$stream_output_adapter@_W@__crt_stdio_output@@@2@@__crt_stdio_output@@AAE_N_W@Z 10033308 f i libucrt:output.obj
 0001:000323e2       ?type_case_c_tchar@?$output_processor@_WV?$stream_output_adapter@_W@__crt_stdio_output@@V?$standard_base@_WV?$stream_output_adapter@_W@__crt_stdio_output@@@2@@__crt_stdio_output@@AAE_N_W@Z 100333e2 f i libucrt:output.obj
 0001:000324a0       ?type_case_c_tchar@?$output_processor@_WV?$string_output_adapter@_W@__crt_stdio_output@@V?$format_validation_base@_WV?$string_output_adapter@_W@__crt_stdio_output@@@2@@__crt_stdio_output@@AAE_N_W@Z 100334a0 f i libucrt:output.obj
 0001:0003255e       ?type_case_c_tchar@?$output_processor@_WV?$string_output_adapter@_W@__crt_stdio_output@@V?$positional_parameter_base@_WV?$string_output_adapter@_W@__crt_stdio_output@@@2@@__crt_stdio_output@@AAE_N_W@Z 1003355e f i libucrt:output.obj
 0001:00032638       ?type_case_c_tchar@?$output_processor@_WV?$string_output_adapter@_W@__crt_stdio_output@@V?$standard_base@_WV?$string_output_adapter@_W@__crt_stdio_output@@@2@@__crt_stdio_output@@AAE_N_W@Z 10033638 f i libucrt:output.obj
 0001:000326f6       ?type_case_d@?$output_processor@DV?$stream_output_adapter@D@__crt_stdio_output@@V?$format_validation_base@DV?$stream_output_adapter@D@__crt_stdio_output@@@2@@__crt_stdio_output@@AAE_NXZ 100336f6 f i libucrt:output.obj
 0001:00032707       ?type_case_d@?$output_processor@DV?$stream_output_adapter@D@__crt_stdio_output@@V?$positional_parameter_base@DV?$stream_output_adapter@D@__crt_stdio_output@@@2@@__crt_stdio_output@@AAE_NXZ 10033707 f i libucrt:output.obj
 0001:00032718       ?type_case_d@?$output_processor@DV?$stream_output_adapter@D@__crt_stdio_output@@V?$standard_base@DV?$stream_output_adapter@D@__crt_stdio_output@@@2@@__crt_stdio_output@@AAE_NXZ 10033718 f i libucrt:output.obj
 0001:00032729       ?type_case_d@?$output_processor@DV?$string_output_adapter@D@__crt_stdio_output@@V?$format_validation_base@DV?$string_output_adapter@D@__crt_stdio_output@@@2@@__crt_stdio_output@@AAE_NXZ 10033729 f i libucrt:output.obj
 0001:0003273a       ?type_case_d@?$output_processor@DV?$string_output_adapter@D@__crt_stdio_output@@V?$positional_parameter_base@DV?$string_output_adapter@D@__crt_stdio_output@@@2@@__crt_stdio_output@@AAE_NXZ 1003373a f i libucrt:output.obj
 0001:0003274b       ?type_case_d@?$output_processor@DV?$string_output_adapter@D@__crt_stdio_output@@V?$standard_base@DV?$string_output_adapter@D@__crt_stdio_output@@@2@@__crt_stdio_output@@AAE_NXZ 1003374b f i libucrt:output.obj
 0001:0003275c       ?type_case_d@?$output_processor@_WV?$stream_output_adapter@_W@__crt_stdio_output@@V?$format_validation_base@_WV?$stream_output_adapter@_W@__crt_stdio_output@@@2@@__crt_stdio_output@@AAE_NXZ 1003375c f i libucrt:output.obj
 0001:0003276d       ?type_case_d@?$output_processor@_WV?$stream_output_adapter@_W@__crt_stdio_output@@V?$positional_parameter_base@_WV?$stream_output_adapter@_W@__crt_stdio_output@@@2@@__crt_stdio_output@@AAE_NXZ 1003376d f i libucrt:output.obj
 0001:0003277e       ?type_case_d@?$output_processor@_WV?$stream_output_adapter@_W@__crt_stdio_output@@V?$standard_base@_WV?$stream_output_adapter@_W@__crt_stdio_output@@@2@@__crt_stdio_output@@AAE_NXZ 1003377e f i libucrt:output.obj
 0001:0003278f       ?type_case_d@?$output_processor@_WV?$string_output_adapter@_W@__crt_stdio_output@@V?$format_validation_base@_WV?$string_output_adapter@_W@__crt_stdio_output@@@2@@__crt_stdio_output@@AAE_NXZ 1003378f f i libucrt:output.obj
 0001:000327a0       ?type_case_d@?$output_processor@_WV?$string_output_adapter@_W@__crt_stdio_output@@V?$positional_parameter_base@_WV?$string_output_adapter@_W@__crt_stdio_output@@@2@@__crt_stdio_output@@AAE_NXZ 100337a0 f i libucrt:output.obj
 0001:000327b1       ?type_case_d@?$output_processor@_WV?$string_output_adapter@_W@__crt_stdio_output@@V?$standard_base@_WV?$string_output_adapter@_W@__crt_stdio_output@@@2@@__crt_stdio_output@@AAE_NXZ 100337b1 f i libucrt:output.obj
 0001:000327c2       ?type_case_integer@?$output_processor@DV?$stream_output_adapter@D@__crt_stdio_output@@V?$format_validation_base@DV?$stream_output_adapter@D@__crt_stdio_output@@@2@@__crt_stdio_output@@AAE_NI_N@Z 100337c2 f i libucrt:output.obj
 0001:00032969       ?type_case_integer@?$output_processor@DV?$stream_output_adapter@D@__crt_stdio_output@@V?$positional_parameter_base@DV?$stream_output_adapter@D@__crt_stdio_output@@@2@@__crt_stdio_output@@AAE_NI_N@Z 10033969 f i libucrt:output.obj
 0001:00032b4c       ?type_case_integer@?$output_processor@DV?$stream_output_adapter@D@__crt_stdio_output@@V?$standard_base@DV?$stream_output_adapter@D@__crt_stdio_output@@@2@@__crt_stdio_output@@AAE_NI_N@Z 10033b4c f i libucrt:output.obj
 0001:00032cf3       ?type_case_integer@?$output_processor@DV?$string_output_adapter@D@__crt_stdio_output@@V?$format_validation_base@DV?$string_output_adapter@D@__crt_stdio_output@@@2@@__crt_stdio_output@@AAE_NI_N@Z 10033cf3 f i libucrt:output.obj
 0001:00032e9a       ?type_case_integer@?$output_processor@DV?$string_output_adapter@D@__crt_stdio_output@@V?$positional_parameter_base@DV?$string_output_adapter@D@__crt_stdio_output@@@2@@__crt_stdio_output@@AAE_NI_N@Z 10033e9a f i libucrt:output.obj
 0001:0003307d       ?type_case_integer@?$output_processor@DV?$string_output_adapter@D@__crt_stdio_output@@V?$standard_base@DV?$string_output_adapter@D@__crt_stdio_output@@@2@@__crt_stdio_output@@AAE_NI_N@Z 1003407d f i libucrt:output.obj
 0001:00033224       ?type_case_integer@?$output_processor@_WV?$stream_output_adapter@_W@__crt_stdio_output@@V?$format_validation_base@_WV?$stream_output_adapter@_W@__crt_stdio_output@@@2@@__crt_stdio_output@@AAE_NI_N@Z 10034224 f i libucrt:output.obj
 0001:000333d0       ?type_case_integer@?$output_processor@_WV?$stream_output_adapter@_W@__crt_stdio_output@@V?$positional_parameter_base@_WV?$stream_output_adapter@_W@__crt_stdio_output@@@2@@__crt_stdio_output@@AAE_NI_N@Z 100343d0 f i libucrt:output.obj
 0001:000335b8       ?type_case_integer@?$output_processor@_WV?$stream_output_adapter@_W@__crt_stdio_output@@V?$standard_base@_WV?$stream_output_adapter@_W@__crt_stdio_output@@@2@@__crt_stdio_output@@AAE_NI_N@Z 100345b8 f i libucrt:output.obj
 0001:00033764       ?type_case_integer@?$output_processor@_WV?$string_output_adapter@_W@__crt_stdio_output@@V?$format_validation_base@_WV?$string_output_adapter@_W@__crt_stdio_output@@@2@@__crt_stdio_output@@AAE_NI_N@Z 10034764 f i libucrt:output.obj
 0001:00033910       ?type_case_integer@?$output_processor@_WV?$string_output_adapter@_W@__crt_stdio_output@@V?$positional_parameter_base@_WV?$string_output_adapter@_W@__crt_stdio_output@@@2@@__crt_stdio_output@@AAE_NI_N@Z 10034910 f i libucrt:output.obj
 0001:00033af8       ?type_case_integer@?$output_processor@_WV?$string_output_adapter@_W@__crt_stdio_output@@V?$standard_base@_WV?$string_output_adapter@_W@__crt_stdio_output@@@2@@__crt_stdio_output@@AAE_NI_N@Z 10034af8 f i libucrt:output.obj
 0001:00033ca4       ?type_case_n@?$output_processor@DV?$stream_output_adapter@D@__crt_stdio_output@@V?$format_validation_base@DV?$stream_output_adapter@D@__crt_stdio_output@@@2@@__crt_stdio_output@@AAE_NXZ 10034ca4 f i libucrt:output.obj
 0001:00033d35       ?type_case_n@?$output_processor@DV?$stream_output_adapter@D@__crt_stdio_output@@V?$positional_parameter_base@DV?$stream_output_adapter@D@__crt_stdio_output@@@2@@__crt_stdio_output@@AAE_NXZ 10034d35 f i libucrt:output.obj
 0001:00033df4       ?type_case_n@?$output_processor@DV?$stream_output_adapter@D@__crt_stdio_output@@V?$standard_base@DV?$stream_output_adapter@D@__crt_stdio_output@@@2@@__crt_stdio_output@@AAE_NXZ 10034df4 f i libucrt:output.obj
 0001:00033e85       ?type_case_n@?$output_processor@DV?$string_output_adapter@D@__crt_stdio_output@@V?$format_validation_base@DV?$string_output_adapter@D@__crt_stdio_output@@@2@@__crt_stdio_output@@AAE_NXZ 10034e85 f i libucrt:output.obj
 0001:00033f16       ?type_case_n@?$output_processor@DV?$string_output_adapter@D@__crt_stdio_output@@V?$positional_parameter_base@DV?$string_output_adapter@D@__crt_stdio_output@@@2@@__crt_stdio_output@@AAE_NXZ 10034f16 f i libucrt:output.obj
 0001:00033fd5       ?type_case_n@?$output_processor@DV?$string_output_adapter@D@__crt_stdio_output@@V?$standard_base@DV?$string_output_adapter@D@__crt_stdio_output@@@2@@__crt_stdio_output@@AAE_NXZ 10034fd5 f i libucrt:output.obj
 0001:00034066       ?type_case_n@?$output_processor@_WV?$stream_output_adapter@_W@__crt_stdio_output@@V?$format_validation_base@_WV?$stream_output_adapter@_W@__crt_stdio_output@@@2@@__crt_stdio_output@@AAE_NXZ 10035066 f i libucrt:output.obj
 0001:000340f7       ?type_case_n@?$output_processor@_WV?$stream_output_adapter@_W@__crt_stdio_output@@V?$positional_parameter_base@_WV?$stream_output_adapter@_W@__crt_stdio_output@@@2@@__crt_stdio_output@@AAE_NXZ 100350f7 f i libucrt:output.obj
 0001:000341b6       ?type_case_n@?$output_processor@_WV?$stream_output_adapter@_W@__crt_stdio_output@@V?$standard_base@_WV?$stream_output_adapter@_W@__crt_stdio_output@@@2@@__crt_stdio_output@@AAE_NXZ 100351b6 f i libucrt:output.obj
 0001:00034247       ?type_case_n@?$output_processor@_WV?$string_output_adapter@_W@__crt_stdio_output@@V?$format_validation_base@_WV?$string_output_adapter@_W@__crt_stdio_output@@@2@@__crt_stdio_output@@AAE_NXZ 10035247 f i libucrt:output.obj
 0001:000342d8       ?type_case_n@?$output_processor@_WV?$string_output_adapter@_W@__crt_stdio_output@@V?$positional_parameter_base@_WV?$string_output_adapter@_W@__crt_stdio_output@@@2@@__crt_stdio_output@@AAE_NXZ 100352d8 f i libucrt:output.obj
 0001:00034397       ?type_case_n@?$output_processor@_WV?$string_output_adapter@_W@__crt_stdio_output@@V?$standard_base@_WV?$string_output_adapter@_W@__crt_stdio_output@@@2@@__crt_stdio_output@@AAE_NXZ 10035397 f i libucrt:output.obj
 0001:00034428       ?type_case_o@?$output_processor@DV?$stream_output_adapter@D@__crt_stdio_output@@V?$format_validation_base@DV?$stream_output_adapter@D@__crt_stdio_output@@@2@@__crt_stdio_output@@AAE_NXZ 10035428 f i libucrt:output.obj
 0001:0003444e       ?type_case_o@?$output_processor@DV?$stream_output_adapter@D@__crt_stdio_output@@V?$positional_parameter_base@DV?$stream_output_adapter@D@__crt_stdio_output@@@2@@__crt_stdio_output@@AAE_NXZ 1003544e f i libucrt:output.obj
 0001:00034474       ?type_case_o@?$output_processor@DV?$stream_output_adapter@D@__crt_stdio_output@@V?$standard_base@DV?$stream_output_adapter@D@__crt_stdio_output@@@2@@__crt_stdio_output@@AAE_NXZ 10035474 f i libucrt:output.obj
 0001:0003449a       ?type_case_o@?$output_processor@DV?$string_output_adapter@D@__crt_stdio_output@@V?$format_validation_base@DV?$string_output_adapter@D@__crt_stdio_output@@@2@@__crt_stdio_output@@AAE_NXZ 1003549a f i libucrt:output.obj
 0001:000344c0       ?type_case_o@?$output_processor@DV?$string_output_adapter@D@__crt_stdio_output@@V?$positional_parameter_base@DV?$string_output_adapter@D@__crt_stdio_output@@@2@@__crt_stdio_output@@AAE_NXZ 100354c0 f i libucrt:output.obj
 0001:000344e6       ?type_case_o@?$output_processor@DV?$string_output_adapter@D@__crt_stdio_output@@V?$standard_base@DV?$string_output_adapter@D@__crt_stdio_output@@@2@@__crt_stdio_output@@AAE_NXZ 100354e6 f i libucrt:output.obj
 0001:0003450c       ?type_case_o@?$output_processor@_WV?$stream_output_adapter@_W@__crt_stdio_output@@V?$format_validation_base@_WV?$stream_output_adapter@_W@__crt_stdio_output@@@2@@__crt_stdio_output@@AAE_NXZ 1003550c f i libucrt:output.obj
 0001:00034532       ?type_case_o@?$output_processor@_WV?$stream_output_adapter@_W@__crt_stdio_output@@V?$positional_parameter_base@_WV?$stream_output_adapter@_W@__crt_stdio_output@@@2@@__crt_stdio_output@@AAE_NXZ 10035532 f i libucrt:output.obj
 0001:00034558       ?type_case_o@?$output_processor@_WV?$stream_output_adapter@_W@__crt_stdio_output@@V?$standard_base@_WV?$stream_output_adapter@_W@__crt_stdio_output@@@2@@__crt_stdio_output@@AAE_NXZ 10035558 f i libucrt:output.obj
 0001:0003457e       ?type_case_o@?$output_processor@_WV?$string_output_adapter@_W@__crt_stdio_output@@V?$format_validation_base@_WV?$string_output_adapter@_W@__crt_stdio_output@@@2@@__crt_stdio_output@@AAE_NXZ 1003557e f i libucrt:output.obj
 0001:000345a4       ?type_case_o@?$output_processor@_WV?$string_output_adapter@_W@__crt_stdio_output@@V?$positional_parameter_base@_WV?$string_output_adapter@_W@__crt_stdio_output@@@2@@__crt_stdio_output@@AAE_NXZ 100355a4 f i libucrt:output.obj
 0001:000345ca       ?type_case_o@?$output_processor@_WV?$string_output_adapter@_W@__crt_stdio_output@@V?$standard_base@_WV?$string_output_adapter@_W@__crt_stdio_output@@@2@@__crt_stdio_output@@AAE_NXZ 100355ca f i libucrt:output.obj
 0001:000345f0       ?type_case_p@?$output_processor@DV?$stream_output_adapter@D@__crt_stdio_output@@V?$format_validation_base@DV?$stream_output_adapter@D@__crt_stdio_output@@@2@@__crt_stdio_output@@AAE_NXZ 100355f0 f i libucrt:output.obj
 0001:0003460e       ?type_case_p@?$output_processor@DV?$stream_output_adapter@D@__crt_stdio_output@@V?$positional_parameter_base@DV?$stream_output_adapter@D@__crt_stdio_output@@@2@@__crt_stdio_output@@AAE_NXZ 1003560e f i libucrt:output.obj
 0001:0003462c       ?type_case_p@?$output_processor@DV?$stream_output_adapter@D@__crt_stdio_output@@V?$standard_base@DV?$stream_output_adapter@D@__crt_stdio_output@@@2@@__crt_stdio_output@@AAE_NXZ 1003562c f i libucrt:output.obj
 0001:0003464a       ?type_case_p@?$output_processor@DV?$string_output_adapter@D@__crt_stdio_output@@V?$format_validation_base@DV?$string_output_adapter@D@__crt_stdio_output@@@2@@__crt_stdio_output@@AAE_NXZ 1003564a f i libucrt:output.obj
 0001:00034668       ?type_case_p@?$output_processor@DV?$string_output_adapter@D@__crt_stdio_output@@V?$positional_parameter_base@DV?$string_output_adapter@D@__crt_stdio_output@@@2@@__crt_stdio_output@@AAE_NXZ 10035668 f i libucrt:output.obj
 0001:00034686       ?type_case_p@?$output_processor@DV?$string_output_adapter@D@__crt_stdio_output@@V?$standard_base@DV?$string_output_adapter@D@__crt_stdio_output@@@2@@__crt_stdio_output@@AAE_NXZ 10035686 f i libucrt:output.obj
 0001:000346a4       ?type_case_p@?$output_processor@_WV?$stream_output_adapter@_W@__crt_stdio_output@@V?$format_validation_base@_WV?$stream_output_adapter@_W@__crt_stdio_output@@@2@@__crt_stdio_output@@AAE_NXZ 100356a4 f i libucrt:output.obj
 0001:000346c2       ?type_case_p@?$output_processor@_WV?$stream_output_adapter@_W@__crt_stdio_output@@V?$positional_parameter_base@_WV?$stream_output_adapter@_W@__crt_stdio_output@@@2@@__crt_stdio_output@@AAE_NXZ 100356c2 f i libucrt:output.obj
 0001:000346e0       ?type_case_p@?$output_processor@_WV?$stream_output_adapter@_W@__crt_stdio_output@@V?$standard_base@_WV?$stream_output_adapter@_W@__crt_stdio_output@@@2@@__crt_stdio_output@@AAE_NXZ 100356e0 f i libucrt:output.obj
 0001:000346fe       ?type_case_p@?$output_processor@_WV?$string_output_adapter@_W@__crt_stdio_output@@V?$format_validation_base@_WV?$string_output_adapter@_W@__crt_stdio_output@@@2@@__crt_stdio_output@@AAE_NXZ 100356fe f i libucrt:output.obj
 0001:0003471c       ?type_case_p@?$output_processor@_WV?$string_output_adapter@_W@__crt_stdio_output@@V?$positional_parameter_base@_WV?$string_output_adapter@_W@__crt_stdio_output@@@2@@__crt_stdio_output@@AAE_NXZ 1003571c f i libucrt:output.obj
 0001:0003473a       ?type_case_p@?$output_processor@_WV?$string_output_adapter@_W@__crt_stdio_output@@V?$standard_base@_WV?$string_output_adapter@_W@__crt_stdio_output@@@2@@__crt_stdio_output@@AAE_NXZ 1003573a f i libucrt:output.obj
 0001:00034758       ?type_case_s@?$output_processor@DV?$stream_output_adapter@D@__crt_stdio_output@@V?$format_validation_base@DV?$stream_output_adapter@D@__crt_stdio_output@@@2@@__crt_stdio_output@@AAE_NXZ 10035758 f i libucrt:output.obj
 0001:000347e5       ?type_case_s@?$output_processor@DV?$stream_output_adapter@D@__crt_stdio_output@@V?$positional_parameter_base@DV?$stream_output_adapter@D@__crt_stdio_output@@@2@@__crt_stdio_output@@AAE_NXZ 100357e5 f i libucrt:output.obj
 0001:00034882       ?type_case_s@?$output_processor@DV?$stream_output_adapter@D@__crt_stdio_output@@V?$standard_base@DV?$stream_output_adapter@D@__crt_stdio_output@@@2@@__crt_stdio_output@@AAE_NXZ 10035882 f i libucrt:output.obj
 0001:0003490f       ?type_case_s@?$output_processor@DV?$string_output_adapter@D@__crt_stdio_output@@V?$format_validation_base@DV?$string_output_adapter@D@__crt_stdio_output@@@2@@__crt_stdio_output@@AAE_NXZ 1003590f f i libucrt:output.obj
 0001:0003499c       ?type_case_s@?$output_processor@DV?$string_output_adapter@D@__crt_stdio_output@@V?$positional_parameter_base@DV?$string_output_adapter@D@__crt_stdio_output@@@2@@__crt_stdio_output@@AAE_NXZ 1003599c f i libucrt:output.obj
 0001:00034a39       ?type_case_s@?$output_processor@DV?$string_output_adapter@D@__crt_stdio_output@@V?$standard_base@DV?$string_output_adapter@D@__crt_stdio_output@@@2@@__crt_stdio_output@@AAE_NXZ 10035a39 f i libucrt:output.obj
 0001:00034ac6       ?type_case_s@?$output_processor@_WV?$stream_output_adapter@_W@__crt_stdio_output@@V?$format_validation_base@_WV?$stream_output_adapter@_W@__crt_stdio_output@@@2@@__crt_stdio_output@@AAE_NXZ 10035ac6 f i libucrt:output.obj
 0001:00034b55       ?type_case_s@?$output_processor@_WV?$stream_output_adapter@_W@__crt_stdio_output@@V?$positional_parameter_base@_WV?$stream_output_adapter@_W@__crt_stdio_output@@@2@@__crt_stdio_output@@AAE_NXZ 10035b55 f i libucrt:output.obj
 0001:00034bf5       ?type_case_s@?$output_processor@_WV?$stream_output_adapter@_W@__crt_stdio_output@@V?$standard_base@_WV?$stream_output_adapter@_W@__crt_stdio_output@@@2@@__crt_stdio_output@@AAE_NXZ 10035bf5 f i libucrt:output.obj
 0001:00034c84       ?type_case_s@?$output_processor@_WV?$string_output_adapter@_W@__crt_stdio_output@@V?$format_validation_base@_WV?$string_output_adapter@_W@__crt_stdio_output@@@2@@__crt_stdio_output@@AAE_NXZ 10035c84 f i libucrt:output.obj
 0001:00034d13       ?type_case_s@?$output_processor@_WV?$string_output_adapter@_W@__crt_stdio_output@@V?$positional_parameter_base@_WV?$string_output_adapter@_W@__crt_stdio_output@@@2@@__crt_stdio_output@@AAE_NXZ 10035d13 f i libucrt:output.obj
 0001:00034db3       ?type_case_s@?$output_processor@_WV?$string_output_adapter@_W@__crt_stdio_output@@V?$standard_base@_WV?$string_output_adapter@_W@__crt_stdio_output@@@2@@__crt_stdio_output@@AAE_NXZ 10035db3 f i libucrt:output.obj
 0001:00034e42       ?type_case_s_compute_narrow_string_length@?$output_processor@DV?$stream_output_adapter@D@__crt_stdio_output@@V?$format_validation_base@DV?$stream_output_adapter@D@__crt_stdio_output@@@2@@__crt_stdio_output@@ABEHHD@Z 10035e42 f i libucrt:output.obj
 0001:00034e5d       ?type_case_s_compute_narrow_string_length@?$output_processor@DV?$stream_output_adapter@D@__crt_stdio_output@@V?$positional_parameter_base@DV?$stream_output_adapter@D@__crt_stdio_output@@@2@@__crt_stdio_output@@ABEHHD@Z 10035e5d f i libucrt:output.obj
 0001:00034e78       ?type_case_s_compute_narrow_string_length@?$output_processor@DV?$stream_output_adapter@D@__crt_stdio_output@@V?$standard_base@DV?$stream_output_adapter@D@__crt_stdio_output@@@2@@__crt_stdio_output@@ABEHHD@Z 10035e78 f i libucrt:output.obj
 0001:00034e93       ?type_case_s_compute_narrow_string_length@?$output_processor@DV?$string_output_adapter@D@__crt_stdio_output@@V?$format_validation_base@DV?$string_output_adapter@D@__crt_stdio_output@@@2@@__crt_stdio_output@@ABEHHD@Z 10035e93 f i libucrt:output.obj
 0001:00034eae       ?type_case_s_compute_narrow_string_length@?$output_processor@DV?$string_output_adapter@D@__crt_stdio_output@@V?$positional_parameter_base@DV?$string_output_adapter@D@__crt_stdio_output@@@2@@__crt_stdio_output@@ABEHHD@Z 10035eae f i libucrt:output.obj
 0001:00034ec9       ?type_case_s_compute_narrow_string_length@?$output_processor@DV?$string_output_adapter@D@__crt_stdio_output@@V?$standard_base@DV?$string_output_adapter@D@__crt_stdio_output@@@2@@__crt_stdio_output@@ABEHHD@Z 10035ec9 f i libucrt:output.obj
 0001:00034ee4       ?type_case_s_compute_narrow_string_length@?$output_processor@_WV?$stream_output_adapter@_W@__crt_stdio_output@@V?$format_validation_base@_WV?$stream_output_adapter@_W@__crt_stdio_output@@@2@@__crt_stdio_output@@ABEHH_W@Z 10035ee4 f i libucrt:output.obj
 0001:00034f30       ?type_case_s_compute_narrow_string_length@?$output_processor@_WV?$stream_output_adapter@_W@__crt_stdio_output@@V?$positional_parameter_base@_WV?$stream_output_adapter@_W@__crt_stdio_output@@@2@@__crt_stdio_output@@ABEHH_W@Z 10035f30 f i libucrt:output.obj
 0001:00034f7c       ?type_case_s_compute_narrow_string_length@?$output_processor@_WV?$stream_output_adapter@_W@__crt_stdio_output@@V?$standard_base@_WV?$stream_output_adapter@_W@__crt_stdio_output@@@2@@__crt_stdio_output@@ABEHH_W@Z 10035f7c f i libucrt:output.obj
 0001:00034fc8       ?type_case_s_compute_narrow_string_length@?$output_processor@_WV?$string_output_adapter@_W@__crt_stdio_output@@V?$format_validation_base@_WV?$string_output_adapter@_W@__crt_stdio_output@@@2@@__crt_stdio_output@@ABEHH_W@Z 10035fc8 f i libucrt:output.obj
 0001:00035014       ?type_case_s_compute_narrow_string_length@?$output_processor@_WV?$string_output_adapter@_W@__crt_stdio_output@@V?$positional_parameter_base@_WV?$string_output_adapter@_W@__crt_stdio_output@@@2@@__crt_stdio_output@@ABEHH_W@Z 10036014 f i libucrt:output.obj
 0001:00035060       ?type_case_s_compute_narrow_string_length@?$output_processor@_WV?$string_output_adapter@_W@__crt_stdio_output@@V?$standard_base@_WV?$string_output_adapter@_W@__crt_stdio_output@@@2@@__crt_stdio_output@@ABEHH_W@Z 10036060 f i libucrt:output.obj
 0001:000350ac       ?type_case_u@?$output_processor@DV?$stream_output_adapter@D@__crt_stdio_output@@V?$format_validation_base@DV?$stream_output_adapter@D@__crt_stdio_output@@@2@@__crt_stdio_output@@AAE_NXZ 100360ac f i libucrt:output.obj
 0001:000350b8       ?type_case_u@?$output_processor@DV?$stream_output_adapter@D@__crt_stdio_output@@V?$positional_parameter_base@DV?$stream_output_adapter@D@__crt_stdio_output@@@2@@__crt_stdio_output@@AAE_NXZ 100360b8 f i libucrt:output.obj
 0001:000350c4       ?type_case_u@?$output_processor@DV?$stream_output_adapter@D@__crt_stdio_output@@V?$standard_base@DV?$stream_output_adapter@D@__crt_stdio_output@@@2@@__crt_stdio_output@@AAE_NXZ 100360c4 f i libucrt:output.obj
 0001:000350d0       ?type_case_u@?$output_processor@DV?$string_output_adapter@D@__crt_stdio_output@@V?$format_validation_base@DV?$string_output_adapter@D@__crt_stdio_output@@@2@@__crt_stdio_output@@AAE_NXZ 100360d0 f i libucrt:output.obj
 0001:000350dc       ?type_case_u@?$output_processor@DV?$string_output_adapter@D@__crt_stdio_output@@V?$positional_parameter_base@DV?$string_output_adapter@D@__crt_stdio_output@@@2@@__crt_stdio_output@@AAE_NXZ 100360dc f i libucrt:output.obj
 0001:000350e8       ?type_case_u@?$output_processor@DV?$string_output_adapter@D@__crt_stdio_output@@V?$standard_base@DV?$string_output_adapter@D@__crt_stdio_output@@@2@@__crt_stdio_output@@AAE_NXZ 100360e8 f i libucrt:output.obj
 0001:000350f4       ?type_case_u@?$output_processor@_WV?$stream_output_adapter@_W@__crt_stdio_output@@V?$format_validation_base@_WV?$stream_output_adapter@_W@__crt_stdio_output@@@2@@__crt_stdio_output@@AAE_NXZ 100360f4 f i libucrt:output.obj
 0001:00035100       ?type_case_u@?$output_processor@_WV?$stream_output_adapter@_W@__crt_stdio_output@@V?$positional_parameter_base@_WV?$stream_output_adapter@_W@__crt_stdio_output@@@2@@__crt_stdio_output@@AAE_NXZ 10036100 f i libucrt:output.obj
 0001:0003510c       ?type_case_u@?$output_processor@_WV?$stream_output_adapter@_W@__crt_stdio_output@@V?$standard_base@_WV?$stream_output_adapter@_W@__crt_stdio_output@@@2@@__crt_stdio_output@@AAE_NXZ 1003610c f i libucrt:output.obj
 0001:00035118       ?type_case_u@?$output_processor@_WV?$string_output_adapter@_W@__crt_stdio_output@@V?$format_validation_base@_WV?$string_output_adapter@_W@__crt_stdio_output@@@2@@__crt_stdio_output@@AAE_NXZ 10036118 f i libucrt:output.obj
 0001:00035124       ?type_case_u@?$output_processor@_WV?$string_output_adapter@_W@__crt_stdio_output@@V?$positional_parameter_base@_WV?$string_output_adapter@_W@__crt_stdio_output@@@2@@__crt_stdio_output@@AAE_NXZ 10036124 f i libucrt:output.obj
 0001:00035130       ?type_case_u@?$output_processor@_WV?$string_output_adapter@_W@__crt_stdio_output@@V?$standard_base@_WV?$string_output_adapter@_W@__crt_stdio_output@@@2@@__crt_stdio_output@@AAE_NXZ 10036130 f i libucrt:output.obj
 0001:0003513c       ?type_case_x@?$output_processor@DV?$stream_output_adapter@D@__crt_stdio_output@@V?$format_validation_base@DV?$stream_output_adapter@D@__crt_stdio_output@@@2@@__crt_stdio_output@@AAE_NXZ 1003613c f i libucrt:output.obj
 0001:00035148       ?type_case_x@?$output_processor@DV?$stream_output_adapter@D@__crt_stdio_output@@V?$positional_parameter_base@DV?$stream_output_adapter@D@__crt_stdio_output@@@2@@__crt_stdio_output@@AAE_NXZ 10036148 f i libucrt:output.obj
 0001:00035154       ?type_case_x@?$output_processor@DV?$stream_output_adapter@D@__crt_stdio_output@@V?$standard_base@DV?$stream_output_adapter@D@__crt_stdio_output@@@2@@__crt_stdio_output@@AAE_NXZ 10036154 f i libucrt:output.obj
 0001:00035160       ?type_case_x@?$output_processor@DV?$string_output_adapter@D@__crt_stdio_output@@V?$format_validation_base@DV?$string_output_adapter@D@__crt_stdio_output@@@2@@__crt_stdio_output@@AAE_NXZ 10036160 f i libucrt:output.obj
 0001:0003516c       ?type_case_x@?$output_processor@DV?$string_output_adapter@D@__crt_stdio_output@@V?$positional_parameter_base@DV?$string_output_adapter@D@__crt_stdio_output@@@2@@__crt_stdio_output@@AAE_NXZ 1003616c f i libucrt:output.obj
 0001:00035178       ?type_case_x@?$output_processor@DV?$string_output_adapter@D@__crt_stdio_output@@V?$standard_base@DV?$string_output_adapter@D@__crt_stdio_output@@@2@@__crt_stdio_output@@AAE_NXZ 10036178 f i libucrt:output.obj
 0001:00035184       ?type_case_x@?$output_processor@_WV?$stream_output_adapter@_W@__crt_stdio_output@@V?$format_validation_base@_WV?$stream_output_adapter@_W@__crt_stdio_output@@@2@@__crt_stdio_output@@AAE_NXZ 10036184 f i libucrt:output.obj
 0001:00035190       ?type_case_x@?$output_processor@_WV?$stream_output_adapter@_W@__crt_stdio_output@@V?$positional_parameter_base@_WV?$stream_output_adapter@_W@__crt_stdio_output@@@2@@__crt_stdio_output@@AAE_NXZ 10036190 f i libucrt:output.obj
 0001:0003519c       ?type_case_x@?$output_processor@_WV?$stream_output_adapter@_W@__crt_stdio_output@@V?$standard_base@_WV?$stream_output_adapter@_W@__crt_stdio_output@@@2@@__crt_stdio_output@@AAE_NXZ 1003619c f i libucrt:output.obj
 0001:000351a8       ?type_case_x@?$output_processor@_WV?$string_output_adapter@_W@__crt_stdio_output@@V?$format_validation_base@_WV?$string_output_adapter@_W@__crt_stdio_output@@@2@@__crt_stdio_output@@AAE_NXZ 100361a8 f i libucrt:output.obj
 0001:000351b4       ?type_case_x@?$output_processor@_WV?$string_output_adapter@_W@__crt_stdio_output@@V?$positional_parameter_base@_WV?$string_output_adapter@_W@__crt_stdio_output@@@2@@__crt_stdio_output@@AAE_NXZ 100361b4 f i libucrt:output.obj
 0001:000351c0       ?type_case_x@?$output_processor@_WV?$string_output_adapter@_W@__crt_stdio_output@@V?$standard_base@_WV?$string_output_adapter@_W@__crt_stdio_output@@@2@@__crt_stdio_output@@AAE_NXZ 100361c0 f i libucrt:output.obj
 0001:000351cc       ?unset_flag@?$output_processor@DV?$stream_output_adapter@D@__crt_stdio_output@@V?$format_validation_base@DV?$stream_output_adapter@D@__crt_stdio_output@@@2@@__crt_stdio_output@@AAEXI@Z 100361cc f i libucrt:output.obj
 0001:000351e1       ?unset_flag@?$output_processor@DV?$stream_output_adapter@D@__crt_stdio_output@@V?$positional_parameter_base@DV?$stream_output_adapter@D@__crt_stdio_output@@@2@@__crt_stdio_output@@AAEXI@Z 100361e1 f i libucrt:output.obj
 0001:000351f6       ?unset_flag@?$output_processor@DV?$stream_output_adapter@D@__crt_stdio_output@@V?$standard_base@DV?$stream_output_adapter@D@__crt_stdio_output@@@2@@__crt_stdio_output@@AAEXI@Z 100361f6 f i libucrt:output.obj
 0001:0003520b       ?unset_flag@?$output_processor@DV?$string_output_adapter@D@__crt_stdio_output@@V?$format_validation_base@DV?$string_output_adapter@D@__crt_stdio_output@@@2@@__crt_stdio_output@@AAEXI@Z 1003620b f i libucrt:output.obj
 0001:00035220       ?unset_flag@?$output_processor@DV?$string_output_adapter@D@__crt_stdio_output@@V?$positional_parameter_base@DV?$string_output_adapter@D@__crt_stdio_output@@@2@@__crt_stdio_output@@AAEXI@Z 10036220 f i libucrt:output.obj
 0001:00035235       ?unset_flag@?$output_processor@DV?$string_output_adapter@D@__crt_stdio_output@@V?$standard_base@DV?$string_output_adapter@D@__crt_stdio_output@@@2@@__crt_stdio_output@@AAEXI@Z 10036235 f i libucrt:output.obj
 0001:0003524a       ?unset_flag@?$output_processor@_WV?$stream_output_adapter@_W@__crt_stdio_output@@V?$format_validation_base@_WV?$stream_output_adapter@_W@__crt_stdio_output@@@2@@__crt_stdio_output@@AAEXI@Z 1003624a f i libucrt:output.obj
 0001:0003525f       ?unset_flag@?$output_processor@_WV?$stream_output_adapter@_W@__crt_stdio_output@@V?$positional_parameter_base@_WV?$stream_output_adapter@_W@__crt_stdio_output@@@2@@__crt_stdio_output@@AAEXI@Z 1003625f f i libucrt:output.obj
 0001:00035274       ?unset_flag@?$output_processor@_WV?$stream_output_adapter@_W@__crt_stdio_output@@V?$standard_base@_WV?$stream_output_adapter@_W@__crt_stdio_output@@@2@@__crt_stdio_output@@AAEXI@Z 10036274 f i libucrt:output.obj
 0001:00035289       ?unset_flag@?$output_processor@_WV?$string_output_adapter@_W@__crt_stdio_output@@V?$format_validation_base@_WV?$string_output_adapter@_W@__crt_stdio_output@@@2@@__crt_stdio_output@@AAEXI@Z 10036289 f i libucrt:output.obj
 0001:0003529e       ?unset_flag@?$output_processor@_WV?$string_output_adapter@_W@__crt_stdio_output@@V?$positional_parameter_base@_WV?$string_output_adapter@_W@__crt_stdio_output@@@2@@__crt_stdio_output@@AAEXI@Z 1003629e f i libucrt:output.obj
 0001:000352b3       ?unset_flag@?$output_processor@_WV?$string_output_adapter@_W@__crt_stdio_output@@V?$standard_base@_WV?$string_output_adapter@_W@__crt_stdio_output@@@2@@__crt_stdio_output@@AAEXI@Z 100362b3 f i libucrt:output.obj
 0001:000352c8       ?update_field_width@?$positional_parameter_base@DV?$stream_output_adapter@D@__crt_stdio_output@@@__crt_stdio_output@@IAE_NXZ 100362c8 f i libucrt:output.obj
 0001:000353ab       ?update_field_width@?$positional_parameter_base@DV?$string_output_adapter@D@__crt_stdio_output@@@__crt_stdio_output@@IAE_NXZ 100363ab f i libucrt:output.obj
 0001:0003548e       ?update_field_width@?$positional_parameter_base@_WV?$stream_output_adapter@_W@__crt_stdio_output@@@__crt_stdio_output@@IAE_NXZ 1003648e f i libucrt:output.obj
 0001:00035572       ?update_field_width@?$positional_parameter_base@_WV?$string_output_adapter@_W@__crt_stdio_output@@@__crt_stdio_output@@IAE_NXZ 10036572 f i libucrt:output.obj
 0001:00035656       ?update_field_width@?$standard_base@DV?$stream_output_adapter@D@__crt_stdio_output@@@__crt_stdio_output@@IAE_NXZ 10036656 f i libucrt:output.obj
 0001:0003566a       ?update_field_width@?$standard_base@DV?$string_output_adapter@D@__crt_stdio_output@@@__crt_stdio_output@@IAE_NXZ 1003666a f i libucrt:output.obj
 0001:0003567e       ?update_field_width@?$standard_base@_WV?$stream_output_adapter@_W@__crt_stdio_output@@@__crt_stdio_output@@IAE_NXZ 1003667e f i libucrt:output.obj
 0001:00035692       ?update_field_width@?$standard_base@_WV?$string_output_adapter@_W@__crt_stdio_output@@@__crt_stdio_output@@IAE_NXZ 10036692 f i libucrt:output.obj
 0001:000356a6       ?update_precision@?$positional_parameter_base@DV?$stream_output_adapter@D@__crt_stdio_output@@@__crt_stdio_output@@IAE_NXZ 100366a6 f i libucrt:output.obj
 0001:00035789       ?update_precision@?$positional_parameter_base@DV?$string_output_adapter@D@__crt_stdio_output@@@__crt_stdio_output@@IAE_NXZ 10036789 f i libucrt:output.obj
 0001:0003586c       ?update_precision@?$positional_parameter_base@_WV?$stream_output_adapter@_W@__crt_stdio_output@@@__crt_stdio_output@@IAE_NXZ 1003686c f i libucrt:output.obj
 0001:00035950       ?update_precision@?$positional_parameter_base@_WV?$string_output_adapter@_W@__crt_stdio_output@@@__crt_stdio_output@@IAE_NXZ 10036950 f i libucrt:output.obj
 0001:00035a34       ?update_precision@?$standard_base@DV?$stream_output_adapter@D@__crt_stdio_output@@@__crt_stdio_output@@IAE_NXZ 10036a34 f i libucrt:output.obj
 0001:00035a48       ?update_precision@?$standard_base@DV?$string_output_adapter@D@__crt_stdio_output@@@__crt_stdio_output@@IAE_NXZ 10036a48 f i libucrt:output.obj
 0001:00035a5c       ?update_precision@?$standard_base@_WV?$stream_output_adapter@_W@__crt_stdio_output@@@__crt_stdio_output@@IAE_NXZ 10036a5c f i libucrt:output.obj
 0001:00035a70       ?update_precision@?$standard_base@_WV?$string_output_adapter@_W@__crt_stdio_output@@@__crt_stdio_output@@IAE_NXZ 10036a70 f i libucrt:output.obj
 0001:00035a84       ?valid@__crt_stdio_stream@@QBE_NXZ 10036a84 f i libucrt:output.obj
 0001:00035a8b       ?validate@?$stream_output_adapter@D@__crt_stdio_output@@QBE_NXZ 10036a8b f i libucrt:output.obj
 0001:00035ab4       ?validate@?$stream_output_adapter@_W@__crt_stdio_output@@QBE_NXZ 10036ab4 f i libucrt:output.obj
 0001:00035ad5       ?validate@?$string_output_adapter@D@__crt_stdio_output@@QBE_NXZ 10036ad5 f i libucrt:output.obj
 0001:00035af6       ?validate@?$string_output_adapter@_W@__crt_stdio_output@@QBE_NXZ 10036af6 f i libucrt:output.obj
 0001:00035b17       ?validate_and_store_parameter_data@?$positional_parameter_base@DV?$stream_output_adapter@D@__crt_stdio_output@@@__crt_stdio_output@@AAE_NAAUparameter_data@12@W4parameter_type@12@DW4length_modifier@2@@Z 10036b17 f i libucrt:output.obj
 0001:00035b74       ?validate_and_store_parameter_data@?$positional_parameter_base@DV?$string_output_adapter@D@__crt_stdio_output@@@__crt_stdio_output@@AAE_NAAUparameter_data@12@W4parameter_type@12@DW4length_modifier@2@@Z 10036b74 f i libucrt:output.obj
 0001:00035bd1       ?validate_and_store_parameter_data@?$positional_parameter_base@_WV?$stream_output_adapter@_W@__crt_stdio_output@@@__crt_stdio_output@@AAE_NAAUparameter_data@12@W4parameter_type@12@_WW4length_modifier@2@@Z 10036bd1 f i libucrt:output.obj
 0001:00035c31       ?validate_and_store_parameter_data@?$positional_parameter_base@_WV?$string_output_adapter@_W@__crt_stdio_output@@@__crt_stdio_output@@AAE_NAAUparameter_data@12@W4parameter_type@12@_WW4length_modifier@2@@Z 10036c31 f i libucrt:output.obj
 0001:00035c91       ?validate_and_update_state_at_beginning_of_format_character@?$positional_parameter_base@DV?$stream_output_adapter@D@__crt_stdio_output@@@__crt_stdio_output@@IAE_NXZ 10036c91 f i libucrt:output.obj
 0001:00035dc9       ?validate_and_update_state_at_beginning_of_format_character@?$positional_parameter_base@DV?$string_output_adapter@D@__crt_stdio_output@@@__crt_stdio_output@@IAE_NXZ 10036dc9 f i libucrt:output.obj
 0001:00035f01       ?validate_and_update_state_at_beginning_of_format_character@?$positional_parameter_base@_WV?$stream_output_adapter@_W@__crt_stdio_output@@@__crt_stdio_output@@IAE_NXZ 10036f01 f i libucrt:output.obj
 0001:00036044       ?validate_and_update_state_at_beginning_of_format_character@?$positional_parameter_base@_WV?$string_output_adapter@_W@__crt_stdio_output@@@__crt_stdio_output@@IAE_NXZ 10037044 f i libucrt:output.obj
 0001:00036187       ?validate_and_update_state_at_beginning_of_format_character@?$standard_base@DV?$stream_output_adapter@D@__crt_stdio_output@@@__crt_stdio_output@@IAE_NXZ 10037187 f i libucrt:output.obj
 0001:0003618a       ?validate_and_update_state_at_beginning_of_format_character@?$standard_base@DV?$string_output_adapter@D@__crt_stdio_output@@@__crt_stdio_output@@IAE_NXZ 1003718a f i libucrt:output.obj
 0001:0003618d       ?validate_and_update_state_at_beginning_of_format_character@?$standard_base@_WV?$stream_output_adapter@_W@__crt_stdio_output@@@__crt_stdio_output@@IAE_NXZ 1003718d f i libucrt:output.obj
 0001:00036190       ?validate_and_update_state_at_beginning_of_format_character@?$standard_base@_WV?$string_output_adapter@_W@__crt_stdio_output@@@__crt_stdio_output@@IAE_NXZ 10037190 f i libucrt:output.obj
 0001:00036193       ?validate_and_update_state_at_end_of_format_string@?$format_validation_base@DV?$stream_output_adapter@D@__crt_stdio_output@@@__crt_stdio_output@@IBE_NXZ 10037193 f i libucrt:output.obj
 0001:000361bd       ?validate_and_update_state_at_end_of_format_string@?$format_validation_base@DV?$string_output_adapter@D@__crt_stdio_output@@@__crt_stdio_output@@IBE_NXZ 100371bd f i libucrt:output.obj
 0001:000361e7       ?validate_and_update_state_at_end_of_format_string@?$format_validation_base@_WV?$stream_output_adapter@_W@__crt_stdio_output@@@__crt_stdio_output@@IBE_NXZ 100371e7 f i libucrt:output.obj
 0001:00036211       ?validate_and_update_state_at_end_of_format_string@?$format_validation_base@_WV?$string_output_adapter@_W@__crt_stdio_output@@@__crt_stdio_output@@IBE_NXZ 10037211 f i libucrt:output.obj
 0001:0003623b       ?validate_and_update_state_at_end_of_format_string@?$positional_parameter_base@DV?$stream_output_adapter@D@__crt_stdio_output@@@__crt_stdio_output@@IAE_NXZ 1003723b f i libucrt:output.obj
 0001:000362e1       ?validate_and_update_state_at_end_of_format_string@?$positional_parameter_base@DV?$string_output_adapter@D@__crt_stdio_output@@@__crt_stdio_output@@IAE_NXZ 100372e1 f i libucrt:output.obj
 0001:00036387       ?validate_and_update_state_at_end_of_format_string@?$positional_parameter_base@_WV?$stream_output_adapter@_W@__crt_stdio_output@@@__crt_stdio_output@@IAE_NXZ 10037387 f i libucrt:output.obj
 0001:0003642d       ?validate_and_update_state_at_end_of_format_string@?$positional_parameter_base@_WV?$string_output_adapter@_W@__crt_stdio_output@@@__crt_stdio_output@@IAE_NXZ 1003742d f i libucrt:output.obj
 0001:000364d3       ?validate_and_update_state_at_end_of_format_string@?$standard_base@DV?$stream_output_adapter@D@__crt_stdio_output@@@__crt_stdio_output@@IBE_NXZ 100374d3 f i libucrt:output.obj
 0001:000364d6       ?validate_and_update_state_at_end_of_format_string@?$standard_base@DV?$string_output_adapter@D@__crt_stdio_output@@@__crt_stdio_output@@IBE_NXZ 100374d6 f i libucrt:output.obj
 0001:000364d9       ?validate_and_update_state_at_end_of_format_string@?$standard_base@_WV?$stream_output_adapter@_W@__crt_stdio_output@@@__crt_stdio_output@@IBE_NXZ 100374d9 f i libucrt:output.obj
 0001:000364dc       ?validate_and_update_state_at_end_of_format_string@?$standard_base@_WV?$string_output_adapter@_W@__crt_stdio_output@@@__crt_stdio_output@@IBE_NXZ 100374dc f i libucrt:output.obj
 0001:000364df       ?validate_state_for_type_case_a@?$positional_parameter_base@DV?$stream_output_adapter@D@__crt_stdio_output@@@__crt_stdio_output@@IAE_NXZ 100374df f i libucrt:output.obj
 0001:00036541       ?validate_state_for_type_case_a@?$positional_parameter_base@DV?$string_output_adapter@D@__crt_stdio_output@@@__crt_stdio_output@@IAE_NXZ 10037541 f i libucrt:output.obj
 0001:000365a3       ?validate_state_for_type_case_a@?$positional_parameter_base@_WV?$stream_output_adapter@_W@__crt_stdio_output@@@__crt_stdio_output@@IAE_NXZ 100375a3 f i libucrt:output.obj
 0001:00036605       ?validate_state_for_type_case_a@?$positional_parameter_base@_WV?$string_output_adapter@_W@__crt_stdio_output@@@__crt_stdio_output@@IAE_NXZ 10037605 f i libucrt:output.obj
 0001:00036667       ?validate_state_for_type_case_a@?$standard_base@DV?$stream_output_adapter@D@__crt_stdio_output@@@__crt_stdio_output@@IBE_NXZ 10037667 f i libucrt:output.obj
 0001:0003666a       ?validate_state_for_type_case_a@?$standard_base@DV?$string_output_adapter@D@__crt_stdio_output@@@__crt_stdio_output@@IBE_NXZ 1003766a f i libucrt:output.obj
 0001:0003666d       ?validate_state_for_type_case_a@?$standard_base@_WV?$stream_output_adapter@_W@__crt_stdio_output@@@__crt_stdio_output@@IBE_NXZ 1003766d f i libucrt:output.obj
 0001:00036670       ?validate_state_for_type_case_a@?$standard_base@_WV?$string_output_adapter@_W@__crt_stdio_output@@@__crt_stdio_output@@IBE_NXZ 10037670 f i libucrt:output.obj
 0001:00036673       ?validate_stream_is_ansi_if_required@?$__acrt_stdio_char_traits@D@@SA_NQAU_iobuf@@@Z 10037673 f i libucrt:output.obj
 0001:0003671a       ?validate_stream_is_ansi_if_required@?$__acrt_stdio_char_traits@_W@@SA_NQAU_iobuf@@@Z 1003771a f i libucrt:output.obj
 0001:0003671d       ?wide_null_string@?$output_processor@DV?$stream_output_adapter@D@__crt_stdio_output@@V?$format_validation_base@DV?$stream_output_adapter@D@__crt_stdio_output@@@2@@__crt_stdio_output@@CAPA_WXZ 1003771d f i libucrt:output.obj
 0001:00036723       ?wide_null_string@?$output_processor@DV?$stream_output_adapter@D@__crt_stdio_output@@V?$positional_parameter_base@DV?$stream_output_adapter@D@__crt_stdio_output@@@2@@__crt_stdio_output@@CAPA_WXZ 10037723 f i libucrt:output.obj
 0001:00036729       ?wide_null_string@?$output_processor@DV?$stream_output_adapter@D@__crt_stdio_output@@V?$standard_base@DV?$stream_output_adapter@D@__crt_stdio_output@@@2@@__crt_stdio_output@@CAPA_WXZ 10037729 f i libucrt:output.obj
 0001:0003672f       ?wide_null_string@?$output_processor@DV?$string_output_adapter@D@__crt_stdio_output@@V?$format_validation_base@DV?$string_output_adapter@D@__crt_stdio_output@@@2@@__crt_stdio_output@@CAPA_WXZ 1003772f f i libucrt:output.obj
 0001:00036735       ?wide_null_string@?$output_processor@DV?$string_output_adapter@D@__crt_stdio_output@@V?$positional_parameter_base@DV?$string_output_adapter@D@__crt_stdio_output@@@2@@__crt_stdio_output@@CAPA_WXZ 10037735 f i libucrt:output.obj
 0001:0003673b       ?wide_null_string@?$output_processor@DV?$string_output_adapter@D@__crt_stdio_output@@V?$standard_base@DV?$string_output_adapter@D@__crt_stdio_output@@@2@@__crt_stdio_output@@CAPA_WXZ 1003773b f i libucrt:output.obj
 0001:00036741       ?wide_null_string@?$output_processor@_WV?$stream_output_adapter@_W@__crt_stdio_output@@V?$format_validation_base@_WV?$stream_output_adapter@_W@__crt_stdio_output@@@2@@__crt_stdio_output@@CAPA_WXZ 10037741 f i libucrt:output.obj
 0001:00036747       ?wide_null_string@?$output_processor@_WV?$stream_output_adapter@_W@__crt_stdio_output@@V?$positional_parameter_base@_WV?$stream_output_adapter@_W@__crt_stdio_output@@@2@@__crt_stdio_output@@CAPA_WXZ 10037747 f i libucrt:output.obj
 0001:0003674d       ?wide_null_string@?$output_processor@_WV?$stream_output_adapter@_W@__crt_stdio_output@@V?$standard_base@_WV?$stream_output_adapter@_W@__crt_stdio_output@@@2@@__crt_stdio_output@@CAPA_WXZ 1003774d f i libucrt:output.obj
 0001:00036753       ?wide_null_string@?$output_processor@_WV?$string_output_adapter@_W@__crt_stdio_output@@V?$format_validation_base@_WV?$string_output_adapter@_W@__crt_stdio_output@@@2@@__crt_stdio_output@@CAPA_WXZ 10037753 f i libucrt:output.obj
 0001:00036759       ?wide_null_string@?$output_processor@_WV?$string_output_adapter@_W@__crt_stdio_output@@V?$positional_parameter_base@_WV?$string_output_adapter@_W@__crt_stdio_output@@@2@@__crt_stdio_output@@CAPA_WXZ 10037759 f i libucrt:output.obj
 0001:0003675f       ?wide_null_string@?$output_processor@_WV?$string_output_adapter@_W@__crt_stdio_output@@V?$standard_base@_WV?$string_output_adapter@_W@__crt_stdio_output@@@2@@__crt_stdio_output@@CAPA_WXZ 1003775f f i libucrt:output.obj
 0001:00036765       ?write_character@?$output_adapter_common@DV?$stream_output_adapter@D@__crt_stdio_output@@@__crt_stdio_output@@QBEXDQAH@Z 10037765 f i libucrt:output.obj
 0001:0003678b       ?write_character@?$output_adapter_common@_WV?$stream_output_adapter@_W@__crt_stdio_output@@@__crt_stdio_output@@QBEX_WQAH@Z 1003778b f i libucrt:output.obj
 0001:000367b1       ?write_character@?$string_output_adapter@D@__crt_stdio_output@@QBE_NDQAH@Z 100377b1 f i libucrt:output.obj
 0001:00036803       ?write_character@?$string_output_adapter@_W@__crt_stdio_output@@QBE_N_WQAH@Z 10037803 f i libucrt:output.obj
 0001:00036859       ?write_character_without_count_update@?$stream_output_adapter@D@__crt_stdio_output@@QBE_ND@Z 10037859 f i libucrt:output.obj
 0001:0003689b       ?write_character_without_count_update@?$stream_output_adapter@_W@__crt_stdio_output@@QBE_N_W@Z 1003789b f i libucrt:output.obj
 0001:000368e1       ?write_stored_string_tchar@?$output_processor@DV?$stream_output_adapter@D@__crt_stdio_output@@V?$format_validation_base@DV?$stream_output_adapter@D@__crt_stdio_output@@@2@@__crt_stdio_output@@AAE_ND@Z 100378e1 f i libucrt:output.obj
 0001:000369b4       ?write_stored_string_tchar@?$output_processor@DV?$stream_output_adapter@D@__crt_stdio_output@@V?$positional_parameter_base@DV?$stream_output_adapter@D@__crt_stdio_output@@@2@@__crt_stdio_output@@AAE_ND@Z 100379b4 f i libucrt:output.obj
 0001:00036a87       ?write_stored_string_tchar@?$output_processor@DV?$stream_output_adapter@D@__crt_stdio_output@@V?$standard_base@DV?$stream_output_adapter@D@__crt_stdio_output@@@2@@__crt_stdio_output@@AAE_ND@Z 10037a87 f i libucrt:output.obj
 0001:00036b5a       ?write_stored_string_tchar@?$output_processor@DV?$string_output_adapter@D@__crt_stdio_output@@V?$format_validation_base@DV?$string_output_adapter@D@__crt_stdio_output@@@2@@__crt_stdio_output@@AAE_ND@Z 10037b5a f i libucrt:output.obj
 0001:00036c2d       ?write_stored_string_tchar@?$output_processor@DV?$string_output_adapter@D@__crt_stdio_output@@V?$positional_parameter_base@DV?$string_output_adapter@D@__crt_stdio_output@@@2@@__crt_stdio_output@@AAE_ND@Z 10037c2d f i libucrt:output.obj
 0001:00036d00       ?write_stored_string_tchar@?$output_processor@DV?$string_output_adapter@D@__crt_stdio_output@@V?$standard_base@DV?$string_output_adapter@D@__crt_stdio_output@@@2@@__crt_stdio_output@@AAE_ND@Z 10037d00 f i libucrt:output.obj
 0001:00036dd3       ?write_stored_string_tchar@?$output_processor@_WV?$stream_output_adapter@_W@__crt_stdio_output@@V?$format_validation_base@_WV?$stream_output_adapter@_W@__crt_stdio_output@@@2@@__crt_stdio_output@@AAE_N_W@Z 10037dd3 f i libucrt:output.obj
 0001:00036e8d       ?write_stored_string_tchar@?$output_processor@_WV?$stream_output_adapter@_W@__crt_stdio_output@@V?$positional_parameter_base@_WV?$stream_output_adapter@_W@__crt_stdio_output@@@2@@__crt_stdio_output@@AAE_N_W@Z 10037e8d f i libucrt:output.obj
 0001:00036f47       ?write_stored_string_tchar@?$output_processor@_WV?$stream_output_adapter@_W@__crt_stdio_output@@V?$standard_base@_WV?$stream_output_adapter@_W@__crt_stdio_output@@@2@@__crt_stdio_output@@AAE_N_W@Z 10037f47 f i libucrt:output.obj
 0001:00037001       ?write_stored_string_tchar@?$output_processor@_WV?$string_output_adapter@_W@__crt_stdio_output@@V?$format_validation_base@_WV?$string_output_adapter@_W@__crt_stdio_output@@@2@@__crt_stdio_output@@AAE_N_W@Z 10038001 f i libucrt:output.obj
 0001:000370bb       ?write_stored_string_tchar@?$output_processor@_WV?$string_output_adapter@_W@__crt_stdio_output@@V?$positional_parameter_base@_WV?$string_output_adapter@_W@__crt_stdio_output@@@2@@__crt_stdio_output@@AAE_N_W@Z 100380bb f i libucrt:output.obj
 0001:00037175       ?write_stored_string_tchar@?$output_processor@_WV?$string_output_adapter@_W@__crt_stdio_output@@V?$standard_base@_WV?$string_output_adapter@_W@__crt_stdio_output@@@2@@__crt_stdio_output@@AAE_N_W@Z 10038175 f i libucrt:output.obj
 0001:0003722f       ?write_string@?$stream_output_adapter@D@__crt_stdio_output@@QBEXQBDHQAHAAV__crt_deferred_errno_cache@@@Z 1003822f f i libucrt:output.obj
 0001:00037264       ?write_string@?$stream_output_adapter@_W@__crt_stdio_output@@QBEXQB_WHQAHAAV__crt_deferred_errno_cache@@@Z 10038264 f i libucrt:output.obj
 0001:00037299       ?write_string@?$string_output_adapter@D@__crt_stdio_output@@QBEXQBDHQAHAAV__crt_deferred_errno_cache@@@Z 10038299 f i libucrt:output.obj
 0001:00037319       ?write_string@?$string_output_adapter@_W@__crt_stdio_output@@QBEXQB_WHQAHAAV__crt_deferred_errno_cache@@@Z 10038319 f i libucrt:output.obj
 0001:000373a8       ?write_string_impl@?$output_adapter_common@DV?$stream_output_adapter@D@__crt_stdio_output@@@__crt_stdio_output@@IBEXQBDHQAHAAV__crt_deferred_errno_cache@@@Z 100383a8 f i libucrt:output.obj
 0001:00037470       ?write_string_impl@?$output_adapter_common@_WV?$stream_output_adapter@_W@__crt_stdio_output@@@__crt_stdio_output@@IBEXQB_WHQAHAAV__crt_deferred_errno_cache@@@Z 10038470 f i libucrt:output.obj
 0001:0003753b       ___acrt_isleadbyte_l_noupdate 1003853b f i libucrt:output.obj
 0001:0003755c       ___acrt_locale_changed     1003855c f i libucrt:output.obj
 0001:00037569       ___stdio_common_vfprintf   10038569 f   libucrt:output.obj
 0001:0003760f       ___stdio_common_vfprintf_p 1003860f f   libucrt:output.obj
 0001:000376b5       ___stdio_common_vfprintf_s 100386b5 f   libucrt:output.obj
 0001:0003775b       ___stdio_common_vfwprintf  1003875b f   libucrt:output.obj
 0001:00037801       ___stdio_common_vfwprintf_p 10038801 f   libucrt:output.obj
 0001:000378a7       ___stdio_common_vfwprintf_s 100388a7 f   libucrt:output.obj
 0001:0003794d       ___stdio_common_vsnprintf_s 1003894d f   libucrt:output.obj
 0001:0003797d       ___stdio_common_vsnwprintf_s 1003897d f   libucrt:output.obj
 0001:000379ad       ___stdio_common_vsprintf   100389ad f   libucrt:output.obj
 0001:000379da       ___stdio_common_vsprintf_p 100389da f   libucrt:output.obj
 0001:00037a07       ___stdio_common_vsprintf_s 10038a07 f   libucrt:output.obj
 0001:00037a34       ___stdio_common_vswprintf  10038a34 f   libucrt:output.obj
 0001:00037a61       ___stdio_common_vswprintf_p 10038a61 f   libucrt:output.obj
 0001:00037a8e       ___stdio_common_vswprintf_s 10038a8e f   libucrt:output.obj
 0001:00037abb       ___libm_sse2_atan          10038abb f   libucrt:atan_sse2.obj
 0001:00037d51       _calloc                    10038d51 f   libucrt:calloc.obj
 0001:00037d5e       _free                      10038d5e f   libucrt:free.obj
 0001:00037d82       ??$__vcrt_va_start_verify_argument_type@QB_W@@YAXXZ 10038d82 f i libucrt:assert.obj
 0001:00038d24       ??$ftprintf@PAU_iobuf@@PBDABQBDABQBDABI@?$__crt_char_traits@D@@SAH$$QAPAU_iobuf@@$$QAPBDABQBD2ABI@Z 10039d24 f i libucrt:assert.obj
 0001:00038d56       ??$ftprintf@PAU_iobuf@@PB_WABQB_WABQB_WABI@?$__crt_char_traits@_W@@SAH$$QAPAU_iobuf@@$$QAPB_WABQB_W2ABI@Z 10039d56 f i libucrt:assert.obj
 0001:00038d88       ??$get_module_file_name@AAPAUHINSTANCE__@@AAY0BAF@DK@?$__crt_char_traits@D@@SAKAAPAUHINSTANCE__@@AAY0BAF@D$$QAK@Z 10039d88 f i libucrt:assert.obj
 0001:00038dab       ??$get_module_file_name@AAPAUHINSTANCE__@@AAY0BAF@_WK@?$__crt_char_traits@_W@@SAKAAPAUHINSTANCE__@@AAY0BAF@_W$$QAK@Z 10039dab f i libucrt:assert.obj
 0001:00038dcb       ??$itot_s@ABIPADIH@?$__crt_char_traits@D@@SAHABI$$QAPAD$$QAI$$QAH@Z 10039dcb f i libucrt:assert.obj
 0001:00038df6       ??$itot_s@ABIPA_WIH@?$__crt_char_traits@_W@@SAHABI$$QAPA_W$$QAI$$QAH@Z 10039df6 f i libucrt:assert.obj
 0001:00038e21       ??$show_message_box@AAY0CEA@DPBDJ@?$__crt_char_traits@D@@SAHAAY0CEA@D$$QAPBD$$QAJ@Z 10039e21 f i libucrt:assert.obj
 0001:00038e44       ??$show_message_box@AAY0CEA@_WPB_WJ@?$__crt_char_traits@_W@@SAHAAY0CEA@_W$$QAPB_W$$QAJ@Z 10039e44 f i libucrt:assert.obj
 0001:00038e67       ??$tcscat_s@ABQADABIAAPAD@?$__crt_char_traits@D@@SAHABQADABIAAPAD@Z 10039e67 f i libucrt:assert.obj
 0001:00038e8c       ??$tcscat_s@ABQADABIABQBD@?$__crt_char_traits@D@@SAHABQADABIABQBD@Z 10039e8c f i libucrt:assert.obj
 0001:00038eb1       ??$tcscat_s@ABQADABIPBD@?$__crt_char_traits@D@@SAHABQADABI$$QAPBD@Z 10039eb1 f i libucrt:assert.obj
 0001:00038ed6       ??$tcscat_s@ABQA_WABIAAPA_W@?$__crt_char_traits@_W@@SAHABQA_WABIAAPA_W@Z 10039ed6 f i libucrt:assert.obj
 0001:00038efb       ??$tcscat_s@ABQA_WABIABQB_W@?$__crt_char_traits@_W@@SAHABQA_WABIABQB_W@Z 10039efb f i libucrt:assert.obj
 0001:00038f20       ??$tcscat_s@ABQA_WABIPB_W@?$__crt_char_traits@_W@@SAHABQA_WABI$$QAPB_W@Z 10039f20 f i libucrt:assert.obj
 0001:00038f45       ??$tcscpy_s@AAY0BAF@DIPBD@?$__crt_char_traits@D@@SAHAAY0BAF@D$$QAI$$QAPBD@Z 10039f45 f i libucrt:assert.obj
 0001:00038f68       ??$tcscpy_s@AAY0BAF@_WIPB_W@?$__crt_char_traits@_W@@SAHAAY0BAF@_W$$QAI$$QAPB_W@Z 10039f68 f i libucrt:assert.obj
 0001:00038f8b       ??$tcscpy_s@ABQADABIPBD@?$__crt_char_traits@D@@SAHABQADABI$$QAPBD@Z 10039f8b f i libucrt:assert.obj
 0001:00038fb0       ??$tcscpy_s@ABQA_WABIPB_W@?$__crt_char_traits@_W@@SAHABQA_WABI$$QAPB_W@Z 10039fb0 f i libucrt:assert.obj
 0001:00038fd5       ??$tcslen@AAY0BAF@D@?$__crt_char_traits@D@@SAIAAY0BAF@D@Z 10039fd5 f i libucrt:assert.obj
 0001:00038ff0       ??$tcslen@AAY0BAF@_W@?$__crt_char_traits@_W@@SAIAAY0BAF@_W@Z 10039ff0 f i libucrt:assert.obj
 0001:00039013       ??$tcslen@ABQAD@?$__crt_char_traits@D@@SAIABQAD@Z 1003a013 f i libucrt:assert.obj
 0001:00039031       ??$tcslen@ABQA_W@?$__crt_char_traits@_W@@SAIABQA_W@Z 1003a031 f i libucrt:assert.obj
 0001:00039056       ??$tcslen@ABQBD@?$__crt_char_traits@D@@SAIABQBD@Z 1003a056 f i libucrt:assert.obj
 0001:00039074       ??$tcslen@ABQB_W@?$__crt_char_traits@_W@@SAIABQB_W@Z 1003a074 f i libucrt:assert.obj
 0001:00039099       ??$tcsncat_s@ABQADABIAAPBDI@?$__crt_char_traits@D@@SAHABQADABIAAPBD$$QAI@Z 1003a099 f i libucrt:assert.obj
 0001:000390c4       ??$tcsncat_s@ABQADABIABQBDABI@?$__crt_char_traits@D@@SAHABQADABIABQBD1@Z 1003a0c4 f i libucrt:assert.obj
 0001:000390ef       ??$tcsncat_s@ABQADABIPBDI@?$__crt_char_traits@D@@SAHABQADABI$$QAPBD$$QAI@Z 1003a0ef f i libucrt:assert.obj
 0001:0003911a       ??$tcsncat_s@ABQA_WABIAAPB_WI@?$__crt_char_traits@_W@@SAHABQA_WABIAAPB_W$$QAI@Z 1003a11a f i libucrt:assert.obj
 0001:00039145       ??$tcsncat_s@ABQA_WABIABQB_WABI@?$__crt_char_traits@_W@@SAHABQA_WABIABQB_W1@Z 1003a145 f i libucrt:assert.obj
 0001:00039170       ??$tcsncat_s@ABQA_WABIPB_WI@?$__crt_char_traits@_W@@SAHABQA_WABI$$QAPB_W$$QAI@Z 1003a170 f i libucrt:assert.obj
 0001:00039315       ?has_any_buffer@__crt_stdio_stream@@QBE_NXZ 1003a315 f i libucrt:assert.obj
 0001:00039326       ?has_any_of@__crt_stdio_stream@@QBE_NJ@Z 1003a326 f i libucrt:assert.obj
 0001:0003933f       __assert                   1003a33f f   libucrt:assert.obj
 0001:00039399       __invoke_watson_if_error   1003a399 f i libucrt:assert.obj
 0001:000393c3       __vfwprintf_l              1003a3c3 f i libucrt:assert.obj
 0001:000393f1       __vswprintf_c_l            1003a3f1 f i libucrt:assert.obj
 0001:0003942b       __wassert                  1003a42b f   libucrt:assert.obj
 0001:00039485       _fwprintf                  1003a485 f i libucrt:assert.obj
 0001:00039547       _swprintf                  1003a547 f i libucrt:assert.obj
 0001:0003956c       _realloc                   1003a56c f   libucrt:realloc.obj
 0001:00039579       ??$?B$$A6GXPAXK0@Z@__crt_fast_encoded_nullptr_t@@QBEP6GXPAXK0@ZXZ 1003a579 f i libucrt:exit.obj
 0001:0003961c       ??$__crt_fast_decode_pointer@P6GXPAXK0@Z@@YAP6GXPAXK0@ZQ6GX0K0@Z@Z 1003a61c f i libucrt:exit.obj
 0001:00039637       ??$__crt_fast_encode_pointer@P6GXPAXK0@Z@@YAP6GXPAXK0@ZQ6GX0K0@Z@Z 1003a637 f i libucrt:exit.obj
 0001:0003965d       ??$__crt_get_proc_address@P6GXI@Z@@YAP6GXI@ZQAUHINSTANCE__@@QBD@Z 1003a65d f i libucrt:exit.obj
 0001:000396c3       ??0?$__crt_unique_handle_t@U__crt_hmodule_traits@@@@QAE@QAUHINSTANCE__@@@Z 1003a6c3 f i libucrt:exit.obj
 0001:000396d7       ??1?$__crt_unique_handle_t@U__crt_hmodule_traits@@@@QAE@XZ 1003a6d7 f i libucrt:exit.obj
 0001:0003981c       ?__acrt_select_exit_lock@@YA?AW4__acrt_lock_id@@XZ 1003a81c f i libucrt:exit.obj
 0001:00039837       ?close@?$__crt_unique_handle_t@U__crt_hmodule_traits@@@@QAEXXZ 1003a837 f i libucrt:exit.obj
 0001:00039853       ?close@__crt_hmodule_traits@@SA_NPAUHINSTANCE__@@@Z 1003a853 f i libucrt:exit.obj
 0001:0003993e       ?get@?$__crt_unique_handle_t@U__crt_hmodule_traits@@@@QBEPAUHINSTANCE__@@XZ 1003a93e f i libucrt:exit.obj
 0001:00039941       ?get_address_of@?$__crt_unique_handle_t@U__crt_hmodule_traits@@@@QAEPAPAUHINSTANCE__@@XZ 1003a941 f i libucrt:exit.obj
 0001:00039944       ?get_invalid_value@__crt_hmodule_traits@@SAPAUHINSTANCE__@@XZ 1003a944 f i libucrt:exit.obj
 0001:00039a45       __Exit                     1003aa45 f   libucrt:exit.obj
 0001:00039a60       ___acrt_initialize_thread_local_exit_callback 1003aa60 f   libucrt:exit.obj
 0001:00039a72       __c_exit                   1003aa72 f   libucrt:exit.obj
 0001:00039a84       __cexit                    1003aa84 f   libucrt:exit.obj
 0001:00039a96       __exit                     1003aa96 f   libucrt:exit.obj
 0001:00039ab1       __is_c_termination_complete 1003aab1 f   libucrt:exit.obj
 0001:00039ab7       __register_thread_local_exe_atexit_callback 1003aab7 f   libucrt:exit.obj
 0001:00039afd       _exit                      1003aafd f   libucrt:exit.obj
 0001:00039b18       _quick_exit                1003ab18 f   libucrt:exit.obj
 0001:00039b40       _strncat                   1003ab40 f   libucrt:strncat.obj
 0001:00039cd0       _strncpy                   1003acd0 f   libucrt:strncpy.obj
 0001:00039e3d       ?is_in_use@__crt_stdio_stream@@QBE_NXZ 1003ae3d f i libucrt:fclose.obj
 0001:00039e4a       __fclose_nolock            1003ae4a f   libucrt:fclose.obj
 0001:00039edd       _fclose                    1003aedd f   libucrt:fclose.obj
 0001:0003a1d3       ??$open_file@ABQBDABQBDABHPAU_iobuf@@@?$__crt_char_traits@D@@SAPAU_iobuf@@ABQBD0ABH$$QAPAU1@@Z 1003b1d3 f i libucrt:fopen.obj
 0001:0003a1fe       ??$open_file@ABQB_WABQB_WABHPAU_iobuf@@@?$__crt_char_traits@_W@@SAPAU_iobuf@@ABQB_W0ABH$$QAPAU1@@Z 1003b1fe f i libucrt:fopen.obj
 0001:0003a229       ?unlock@__crt_stdio_stream@@QBEXXZ 1003b229 f i libucrt:fopen.obj
 0001:0003a234       __fsopen                   1003b234 f   libucrt:fopen.obj
 0001:0003a241       __wfopen                   1003b241 f   libucrt:fopen.obj
 0001:0003a25d       __wfopen_s                 1003b25d f   libucrt:fopen.obj
 0001:0003a2b5       __wfsopen                  1003b2b5 f   libucrt:fopen.obj
 0001:0003a2c2       _fopen                     1003b2c2 f   libucrt:fopen.obj
 0001:0003a2de       _fopen_s                   1003b2de f   libucrt:fopen.obj
 0001:0003a336       ?__acrt_stdio_reset_buffer@@YAXV__crt_stdio_stream@@@Z 1003b336 f i libucrt:fread.obj
 0001:0003a351       ?set_flags@__crt_stdio_stream@@QBE_NJ@Z 1003b351 f i libucrt:fread.obj
 0001:0003a37e       __fread_nolock             1003b37e f   libucrt:fread.obj
 0001:0003a3a2       __fread_nolock_s           1003b3a2 f   libucrt:fread.obj
 0001:0003a5f1       _fread                     1003b5f1 f   libucrt:fread.obj
 0001:0003a615       _fread_s                   1003b615 f   libucrt:fread.obj
 0001:0003a8c6       ?has_big_buffer@__crt_stdio_stream@@QBE_NXZ 1003b8c6 f i libucrt:fwrite.obj
 0001:0003a8d3       __fwrite_nolock            1003b8d3 f   libucrt:fwrite.obj
 0001:0003aaac       _fwrite                    1003baac f   libucrt:fwrite.obj
 0001:0003abcf       ??$__acrt_mbs_to_wcs_cp@U__crt_win32_buffer_internal_dynamic_resizing@@@@YAHQBDAAV?$__crt_win32_buffer@_WU__crt_win32_buffer_internal_dynamic_resizing@@@@I@Z 1003bbcf f i libucrt:unlink.obj
 0001:0003abf5       ??0?$__crt_win32_buffer@_WU__crt_win32_buffer_internal_dynamic_resizing@@@@QAE@XZ 1003bbf5 f i libucrt:unlink.obj
 0001:0003ac10       ??1?$__crt_win32_buffer@_WU__crt_win32_buffer_internal_dynamic_resizing@@@@QAE@XZ 1003bc10 f i libucrt:unlink.obj
 0001:0003ac3e       ?__acrt_get_utf8_acp_compatibility_codepage@@YAIXZ 1003bc3e f i libucrt:unlink.obj
 0001:0003ac8f       ?_deallocate@?$__crt_win32_buffer@_WU__crt_win32_buffer_internal_dynamic_resizing@@@@AAEXXZ 1003bc8f f i libucrt:unlink.obj
 0001:0003acaf       ?allocate@?$__crt_win32_buffer@_WU__crt_win32_buffer_internal_dynamic_resizing@@@@QAEHI@Z 1003bcaf f i libucrt:unlink.obj
 0001:0003acfd       ?allocate@__crt_win32_buffer_internal_dynamic_resizing@@SAHQAPAXIABV__crt_win32_buffer_empty_debug_info@@@Z 1003bcfd f i libucrt:unlink.obj
 0001:0003ad23       ?capacity@?$__crt_win32_buffer@_WU__crt_win32_buffer_internal_dynamic_resizing@@@@QBEIXZ 1003bd23 f i libucrt:unlink.obj
 0001:0003ad27       ?data@?$__crt_win32_buffer@_WU__crt_win32_buffer_internal_dynamic_resizing@@@@QAEPA_WXZ 1003bd27 f i libucrt:unlink.obj
 0001:0003ad2b       ?deallocate@__crt_win32_buffer_internal_dynamic_resizing@@SAXQAXABV__crt_win32_buffer_empty_debug_info@@@Z 1003bd2b f i libucrt:unlink.obj
 0001:0003ad3f       ?debug_info@?$__crt_win32_buffer@_WU__crt_win32_buffer_internal_dynamic_resizing@@@@QBEABV__crt_win32_buffer_empty_debug_info@@XZ 1003bd3f f i libucrt:unlink.obj
 0001:0003ad42       ?size@?$__crt_win32_buffer@_WU__crt_win32_buffer_internal_dynamic_resizing@@@@QAEXI@Z 1003bd42 f i libucrt:unlink.obj
 0001:0003ad54       __unlink                   1003bd54 f   libucrt:unlink.obj
 0001:0003ad61       _remove                    1003bd61 f   libucrt:unlink.obj
 0001:0003ade8       ?has_all_of@__crt_stdio_stream@@QBE_NJ@Z 1003bde8 f i libucrt:rewind.obj
 0001:0003ae04       ?unset_flags@__crt_stdio_stream@@QBE_NJ@Z 1003be04 f i libucrt:rewind.obj
 0001:0003ae37       _rewind                    1003be37 f   libucrt:rewind.obj
 0001:0003af29       _ldexp                     1003bf29 f   libucrt:ldexp.obj
 0001:0003b1a2       __errcode                  1003c1a2 f   libucrt:fpexcept.obj
 0001:0003b1e3       __except1                  1003c1e3 f   libucrt:fpexcept.obj
 0001:0003b2e4       __except2                  1003c2e4 f   libucrt:fpexcept.obj
 0001:0003b42d       __handle_exc               1003c42d f   libucrt:fpexcept.obj
 0001:0003b695       __handle_qnan2             1003c695 f   libucrt:fpexcept.obj
 0001:0003b6a5       __raise_exc                1003c6a5 f   libucrt:fpexcept.obj
 0001:0003b6d0       __raise_exc_ex             1003c6d0 f   libucrt:fpexcept.obj
 0001:0003ba83       __raise_excf               1003ca83 f   libucrt:fpexcept.obj
 0001:0003baae       __set_errno_from_matherr   1003caae f   libucrt:fpexcept.obj
 0001:0003bae8       __umatherr                 1003cae8 f   libucrt:fpexcept.obj
 0001:0003bbb2       __initterm                 1003cbb2 f   libucrt:initterm.obj
 0001:0003bc25       __initterm_e               1003cc25 f   libucrt:initterm.obj
 0001:0003bca8       __seh_filter_dll           1003cca8 f   libucrt:exception_filter.obj
 0001:0003bcd0       __seh_filter_exe           1003ccd0 f   libucrt:exception_filter.obj
 0001:0003be8f       ??$?RE@__crt_internal_free_policy@@QBEXQBE@Z 1003ce8f f i libucrt:argv_parsing.obj
 0001:0003bea5       ??$?RPAD@__crt_internal_free_policy@@QBEXQBQAD@Z 1003cea5 f i libucrt:argv_parsing.obj
 0001:0003bebb       ??$?RPA_W@__crt_internal_free_policy@@QBEXQBQA_W@Z 1003cebb f i libucrt:argv_parsing.obj
 0001:0003c1d4       ??$get_module_file_name@$$TAAY0BAF@DH@?$__crt_char_traits@D@@SAK$$QA$$TAAY0BAF@D$$QAH@Z 1003d1d4 f i libucrt:argv_parsing.obj
 0001:0003c1f7       ??$get_module_file_name@$$TAAY0BAF@_WH@?$__crt_char_traits@_W@@SAK$$QA$$TAAY0BAF@_W$$QAH@Z 1003d1f7 f i libucrt:argv_parsing.obj
 0001:0003c5ea       ??$set_program_name@PAD@?$__crt_char_traits@D@@SAX$$QAPAD@Z 1003d5ea f i libucrt:argv_parsing.obj
 0001:0003c5ff       ??$set_program_name@PA_W@?$__crt_char_traits@_W@@SAX$$QAPA_W@Z 1003d5ff f i libucrt:argv_parsing.obj
 0001:0003c63c       ??0?$__crt_unique_heap_ptr@EU__crt_internal_free_policy@@@@QAE@QAE@Z 1003d63c f i libucrt:argv_parsing.obj
 0001:0003c650       ??0?$__crt_unique_heap_ptr@PADU__crt_internal_free_policy@@@@QAE@QAPAD@Z 1003d650 f i libucrt:argv_parsing.obj
 0001:0003c664       ??0?$__crt_unique_heap_ptr@PA_WU__crt_internal_free_policy@@@@QAE@QAPA_W@Z 1003d664 f i libucrt:argv_parsing.obj
 0001:0003c678       ??1?$__crt_unique_heap_ptr@EU__crt_internal_free_policy@@@@QAE@XZ 1003d678 f i libucrt:argv_parsing.obj
 0001:0003c68e       ??1?$__crt_unique_heap_ptr@PADU__crt_internal_free_policy@@@@QAE@XZ 1003d68e f i libucrt:argv_parsing.obj
 0001:0003c6a4       ??1?$__crt_unique_heap_ptr@PA_WU__crt_internal_free_policy@@@@QAE@XZ 1003d6a4 f i libucrt:argv_parsing.obj
 0001:0003c6ba       ??B?$__crt_unique_heap_ptr@EU__crt_internal_free_policy@@@@QBE_NXZ 1003d6ba f i libucrt:argv_parsing.obj
 0001:0003c6f7       ?detach@?$__crt_unique_heap_ptr@EU__crt_internal_free_policy@@@@QAEPAEXZ 1003d6f7 f i libucrt:argv_parsing.obj
 0001:0003c6fd       ?detach@?$__crt_unique_heap_ptr@PADU__crt_internal_free_policy@@@@QAEPAPADXZ 1003d6fd f i libucrt:argv_parsing.obj
 0001:0003c703       ?detach@?$__crt_unique_heap_ptr@PA_WU__crt_internal_free_policy@@@@QAEPAPA_WXZ 1003d703 f i libucrt:argv_parsing.obj
 0001:0003c729       ?get@?$__crt_unique_heap_ptr@EU__crt_internal_free_policy@@@@QBEPAEXZ 1003d729 f i libucrt:argv_parsing.obj
 0001:0003c72c       ?get@?$__crt_unique_heap_ptr@PADU__crt_internal_free_policy@@@@QBEPAPADXZ 1003d72c f i libucrt:argv_parsing.obj
 0001:0003c72f       ?get@?$__crt_unique_heap_ptr@PA_WU__crt_internal_free_policy@@@@QBEPAPA_WXZ 1003d72f f i libucrt:argv_parsing.obj
 0001:0003c732       ?get_address_of@?$__crt_unique_heap_ptr@PADU__crt_internal_free_policy@@@@QAEPAPAPADXZ 1003d732 f i libucrt:argv_parsing.obj
 0001:0003c735       ?get_address_of@?$__crt_unique_heap_ptr@PA_WU__crt_internal_free_policy@@@@QAEPAPAPA_WXZ 1003d735 f i libucrt:argv_parsing.obj
 0001:0003c750       ?is_valid@?$__crt_unique_heap_ptr@EU__crt_internal_free_policy@@@@QBE_NXZ 1003d750 f i libucrt:argv_parsing.obj
 0001:0003c757       ?release@?$__crt_unique_heap_ptr@EU__crt_internal_free_policy@@@@QAEXXZ 1003d757 f i libucrt:argv_parsing.obj
 0001:0003c76d       ?release@?$__crt_unique_heap_ptr@PADU__crt_internal_free_policy@@@@QAEXXZ 1003d76d f i libucrt:argv_parsing.obj
 0001:0003c783       ?release@?$__crt_unique_heap_ptr@PA_WU__crt_internal_free_policy@@@@QAEXXZ 1003d783 f i libucrt:argv_parsing.obj
 0001:0003c7b8       ___acrt_allocate_buffer_for_argv 1003d7b8 f   libucrt:argv_parsing.obj
 0001:0003c81a       __configure_narrow_argv    1003d81a f   libucrt:argv_parsing.obj
 0001:0003c827       __configure_wide_argv      1003d827 f   libucrt:argv_parsing.obj
 0001:0003c834       __set_pgmptr               1003d834 f i libucrt:argv_parsing.obj
 0001:0003c846       __set_wpgmptr              1003d846 f i libucrt:argv_parsing.obj
 0001:0003c858       ??$?R_W@__crt_internal_free_policy@@QBEXQB_W@Z 1003d858 f i libucrt:environment_initialization.obj
 0001:0003cd3e       ??$get_environment_from_os@$$V@?$__crt_char_traits@D@@SAPADXZ 1003dd3e f i libucrt:environment_initialization.obj
 0001:0003cd43       ??$get_environment_from_os@$$V@?$__crt_char_traits@_W@@SAPA_WXZ 1003dd43 f i libucrt:environment_initialization.obj
 0001:0003ce94       ??$set_variable_in_environment_nolock@PADH@?$__crt_char_traits@D@@SAH$$QAPAD$$QAH@Z 1003de94 f i libucrt:environment_initialization.obj
 0001:0003ceb2       ??$set_variable_in_environment_nolock@PA_WH@?$__crt_char_traits@_W@@SAH$$QAPA_W$$QAH@Z 1003deb2 f i libucrt:environment_initialization.obj
 0001:0003ced0       ??$tcscpy_s@PADABIAAPAD@?$__crt_char_traits@D@@SAH$$QAPADABIAAPAD@Z 1003ded0 f i libucrt:environment_initialization.obj
 0001:0003cef5       ??$tcscpy_s@PA_WABIAAPA_W@?$__crt_char_traits@_W@@SAH$$QAPA_WABIAAPA_W@Z 1003def5 f i libucrt:environment_initialization.obj
 0001:0003cf1a       ??$tcslen@AAPAD@?$__crt_char_traits@D@@SAIAAPAD@Z 1003df1a f i libucrt:environment_initialization.obj
 0001:0003cf38       ??$tcslen@AAPA_W@?$__crt_char_traits@_W@@SAIAAPA_W@Z 1003df38 f i libucrt:environment_initialization.obj
 0001:0003cf5d       ??$uninitialize@A6AXAAPAPAD@Z@?$dual_state_global@PAPAD@__crt_state_management@@QAEXA6AXAAPAPAD@Z@Z 1003df5d f i libucrt:environment_initialization.obj
 0001:0003cfad       ??$uninitialize@A6AXAAPAPA_W@Z@?$dual_state_global@PAPA_W@__crt_state_management@@QAEXA6AXAAPAPA_W@Z@Z 1003dfad f i libucrt:environment_initialization.obj
 0001:0003d03f       ??0?$__crt_unique_heap_ptr@_WU__crt_internal_free_policy@@@@QAE@QA_W@Z 1003e03f f i libucrt:environment_initialization.obj
 0001:0003d053       ??1?$__crt_unique_heap_ptr@_WU__crt_internal_free_policy@@@@QAE@XZ 1003e053 f i libucrt:environment_initialization.obj
 0001:0003d069       ??B?$__crt_unique_heap_ptr@PADU__crt_internal_free_policy@@@@QBE_NXZ 1003e069 f i libucrt:environment_initialization.obj
 0001:0003d070       ??B?$__crt_unique_heap_ptr@PA_WU__crt_internal_free_policy@@@@QBE_NXZ 1003e070 f i libucrt:environment_initialization.obj
 0001:0003d077       ??B?$__crt_unique_heap_ptr@_WU__crt_internal_free_policy@@@@QBE_NXZ 1003e077 f i libucrt:environment_initialization.obj
 0001:0003d07e       ?__crt_compute_required_transform_buffer_count@@YAIIQBD@Z 1003e07e f i libucrt:environment_initialization.obj
 0001:0003d0a1       ?__crt_compute_required_transform_buffer_count@@YAIIQB_W@Z 1003e0a1 f i libucrt:environment_initialization.obj
 0001:0003d0c6       ?__crt_transform_string@@YAIIQBDQA_WI@Z 1003e0c6 f i libucrt:environment_initialization.obj
 0001:0003d0ec       ?__crt_transform_string@@YAIIQB_WQADI@Z 1003e0ec f i libucrt:environment_initialization.obj
 0001:0003d116       ?detach@?$__crt_unique_heap_ptr@DU__crt_internal_free_policy@@@@QAEPADXZ 1003e116 f i libucrt:environment_initialization.obj
 0001:0003d11c       ?detach@?$__crt_unique_heap_ptr@_WU__crt_internal_free_policy@@@@QAEPA_WXZ 1003e11c f i libucrt:environment_initialization.obj
 0001:0003d122       ?get@?$__crt_unique_heap_ptr@_WU__crt_internal_free_policy@@@@QBEPA_WXZ 1003e122 f i libucrt:environment_initialization.obj
 0001:0003d125       ?get_current_state_index@__crt_state_management@@YAIXZ 1003e125 f i libucrt:environment_initialization.obj
 0001:0003d14c       ?initialize@?$dual_state_global@PAPAD@__crt_state_management@@QAEXQAPAD@Z 1003e14c f i libucrt:environment_initialization.obj
 0001:0003d17b       ?initialize@?$dual_state_global@PAPA_W@__crt_state_management@@QAEXQAPA_W@Z 1003e17b f i libucrt:environment_initialization.obj
 0001:0003d1aa       ?is_valid@?$__crt_unique_heap_ptr@PADU__crt_internal_free_policy@@@@QBE_NXZ 1003e1aa f i libucrt:environment_initialization.obj
 0001:0003d1b1       ?is_valid@?$__crt_unique_heap_ptr@PA_WU__crt_internal_free_policy@@@@QBE_NXZ 1003e1b1 f i libucrt:environment_initialization.obj
 0001:0003d1b8       ?is_valid@?$__crt_unique_heap_ptr@_WU__crt_internal_free_policy@@@@QBE_NXZ 1003e1b8 f i libucrt:environment_initialization.obj
 0001:0003d1c5       ?release@?$__crt_unique_heap_ptr@_WU__crt_internal_free_policy@@@@QAEXXZ 1003e1c5 f i libucrt:environment_initialization.obj
 0001:0003d1db       ?value@?$dual_state_global@PAPAD@__crt_state_management@@QAEAAPAPADXZ 1003e1db f i libucrt:environment_initialization.obj
 0001:0003d1de       ?value@?$dual_state_global@PAPA_W@__crt_state_management@@QAEAAPAPA_WXZ 1003e1de f i libucrt:environment_initialization.obj
 0001:0003d1e1       ___dcrt_get_or_create_narrow_environment_nolock 1003e1e1 f   libucrt:environment_initialization.obj
 0001:0003d1e6       ___dcrt_get_or_create_wide_environment_nolock 1003e1e6 f   libucrt:environment_initialization.obj
 0001:0003d1eb       ___dcrt_uninitialize_environments_nolock 1003e1eb f   libucrt:environment_initialization.obj
 0001:0003d22f       ___p__environ              1003e22f f   libucrt:environment_initialization.obj
 0001:0003d235       ___p__wenviron             1003e235 f   libucrt:environment_initialization.obj
 0001:0003d23b       __get_initial_narrow_environment 1003e23b f   libucrt:environment_initialization.obj
 0001:0003d254       __get_initial_wide_environment 1003e254 f   libucrt:environment_initialization.obj
 0001:0003d26d       __initialize_narrow_environment 1003e26d f   libucrt:environment_initialization.obj
 0001:0003d272       __initialize_wide_environment 1003e272 f   libucrt:environment_initialization.obj
 0001:0003d277       ??$?BP6AXXZ@__crt_fast_encoded_nullptr_t@@QBEPAP6AXXZXZ 1003e277 f i libucrt:onexit.obj
 0001:0003d295       ??$?RP6AXXZ@__crt_internal_free_policy@@QBEXQBQ6AXXZ@Z 1003e295 f i libucrt:onexit.obj
 0001:0003d3d9       ??$__crt_fast_encode_pointer@P6AHXZ@@YAP6AHXZQ6AHXZ@Z 1003e3d9 f i libucrt:onexit.obj
 0001:0003d486       ??0?$__crt_unique_heap_ptr@P6AXXZU__crt_internal_free_policy@@@@QAE@QAP6AXXZ@Z 1003e486 f i libucrt:onexit.obj
 0001:0003d49a       ??1?$__crt_unique_heap_ptr@P6AXXZU__crt_internal_free_policy@@@@QAE@XZ 1003e49a f i libucrt:onexit.obj
 0001:0003d4b0       ??1scoped_global_state_reset@__crt_state_management@@QAE@XZ 1003e4b0 f i libucrt:onexit.obj
 0001:0003d7db       ?detach@?$__crt_unique_heap_ptr@P6AXXZU__crt_internal_free_policy@@@@QAEPAP6AXXZXZ 1003e7db f i libucrt:onexit.obj
 0001:0003d7e1       ?release@?$__crt_unique_heap_ptr@P6AXXZU__crt_internal_free_policy@@@@QAEXXZ 1003e7e1 f i libucrt:onexit.obj
 0001:0003d7f7       __crt_at_quick_exit        1003e7f7 f   libucrt:onexit.obj
 0001:0003d812       __crt_atexit               1003e812 f   libucrt:onexit.obj
 0001:0003d82d       __execute_onexit_table     1003e82d f   libucrt:onexit.obj
 0001:0003d867       __initialize_onexit_table  1003e867 f   libucrt:onexit.obj
 0001:0003d8b3       __register_onexit_function 1003e8b3 f   libucrt:onexit.obj
 0001:0003da7e       ?__acrt_stdio_is_initialized@@YA_NXZ 1003ea7e f i libucrt:initialization.obj
 0001:0003da8b       ?initialize@?$dual_state_global@PAU__crt_locale_data@@@__crt_state_management@@QAEXQAU__crt_locale_data@@@Z 1003ea8b f i libucrt:initialization.obj
 0001:0003daba       ___acrt_initialize         1003eaba f   libucrt:initialization.obj
 0001:0003dad0       ___acrt_thread_attach      1003ead0 f   libucrt:initialization.obj
 0001:0003dadd       ___acrt_thread_detach      1003eadd f   libucrt:initialization.obj
 0001:0003dae7       ___acrt_uninitialize       1003eae7 f   libucrt:initialization.obj
 0001:0003db23       ___acrt_uninitialize_critical 1003eb23 f   libucrt:initialization.obj
 0001:0003db54       __get_terminate            1003eb54 f   libucrt:terminate.obj
 0001:0003db6a       _set_terminate             1003eb6a f   libucrt:terminate.obj
 0001:0003db92       _terminate                 1003eb92 f   libucrt:terminate.obj
 0001:0003dbe3       __free_base                1003ebe3 f   libucrt:free_base.obj
 0001:0003dc2b       __malloc_base              1003ec2b f   libucrt:malloc_base.obj
 0001:0003dcfc       _strcpy_s                  1003ecfc f   libucrt:strcpy_s.obj
 0001:0003dd6c       __set_abort_behavior       1003ed6c f   libucrt:abort.obj
 0001:0003dd95       _abort                     1003ed95 f   libucrt:abort.obj
 0001:0003ddea       __calloc_base              1003edea f   libucrt:calloc_base.obj
 0001:0003de5e       ??$is_overflow_condition@K@__crt_strtox@@YA_NIK@Z 1003ee5e f i libucrt:atox.obj
 0001:0003de9b       ??$is_overflow_condition@_K@__crt_strtox@@YA_NI_K@Z 1003ee9b f i libucrt:atox.obj
 0001:0003deec       ??$make_c_string_character_source@D$$T@__crt_strtox@@YA?AV?$c_string_character_source@D@0@QBD$$T@Z 1003eeec f i libucrt:atox.obj
 0001:0003df0d       ??$make_c_string_character_source@_W$$T@__crt_strtox@@YA?AV?$c_string_character_source@_W@0@QB_W$$T@Z 1003ef0d f i libucrt:atox.obj
 0001:0003df2e       ??$parse_integer@KV?$c_string_character_source@D@__crt_strtox@@@__crt_strtox@@YAKQAU__crt_locale_pointers@@V?$c_string_character_source@D@0@H_N@Z 1003ef2e f i libucrt:atox.obj
 0001:0003e1e1       ??$parse_integer@KV?$c_string_character_source@_W@__crt_strtox@@@__crt_strtox@@YAKQAU__crt_locale_pointers@@V?$c_string_character_source@_W@0@H_N@Z 1003f1e1 f i libucrt:atox.obj
 0001:0003e9b2       ??$parse_integer@_KV?$c_string_character_source@D@__crt_strtox@@@__crt_strtox@@YA_KQAU__crt_locale_pointers@@V?$c_string_character_source@D@0@H_N@Z 1003f9b2 f i libucrt:atox.obj
 0001:0003ed02       ??$parse_integer@_KV?$c_string_character_source@_W@__crt_strtox@@@__crt_strtox@@YA_KQAU__crt_locale_pointers@@V?$c_string_character_source@_W@0@H_N@Z 1003fd02 f i libucrt:atox.obj
 0001:0003f5cf       ??$parse_integer_from_string@JD$$T@__crt_strtox@@YAJQBD$$THQAU__crt_locale_pointers@@@Z 100405cf f i libucrt:atox.obj
 0001:0003f607       ??$parse_integer_from_string@J_W$$T@__crt_strtox@@YAJQB_W$$THQAU__crt_locale_pointers@@@Z 10040607 f i libucrt:atox.obj
 0001:0003f63f       ??$parse_integer_from_string@_JD$$T@__crt_strtox@@YA_JQBD$$THQAU__crt_locale_pointers@@@Z 1004063f f i libucrt:atox.obj
 0001:0003f677       ??$parse_integer_from_string@_J_W$$T@__crt_strtox@@YA_JQB_W$$THQAU__crt_locale_pointers@@@Z 10040677 f i libucrt:atox.obj
 0001:0003f6af       ??0?$c_string_character_source@D@__crt_strtox@@QAE@QBDQAPBD@Z 100406af f i libucrt:atox.obj
 0001:0003f6d2       ??0?$c_string_character_source@_W@__crt_strtox@@QAE@QB_WQAPB_W@Z 100406d2 f i libucrt:atox.obj
 0001:0003f6f5       ??1?$c_string_character_source@D@__crt_strtox@@QAE@XZ 100406f5 f i libucrt:atox.obj
 0001:0003f704       ??1?$c_string_character_source@_W@__crt_strtox@@QAE@XZ 10040704 f i libucrt:atox.obj
 0001:0003f713       ?get@?$c_string_character_source@D@__crt_strtox@@QAEDXZ 10040713 f i libucrt:atox.obj
 0001:0003f71d       ?get@?$c_string_character_source@_W@__crt_strtox@@QAE_WXZ 1004071d f i libucrt:atox.obj
 0001:0003f72a       ?is_space@__crt_strtox@@YA_NDQAU__crt_locale_pointers@@@Z 1004072a f i libucrt:atox.obj
 0001:0003f74f       ?is_space@__crt_strtox@@YA_N_WPAU__crt_locale_pointers@@@Z 1004074f f i libucrt:atox.obj
 0001:0003f76d       ?maximum_signed_value@__crt_strtox@@YAJK@Z 1004076d f i libucrt:atox.obj
 0001:0003f773       ?maximum_signed_value@__crt_strtox@@YA_J_K@Z 10040773 f i libucrt:atox.obj
 0001:0003f77e       ?minimum_signed_value@__crt_strtox@@YAJK@Z 1004077e f i libucrt:atox.obj
 0001:0003f784       ?minimum_signed_value@__crt_strtox@@YA_J_K@Z 10040784 f i libucrt:atox.obj
 0001:0003f78e       ?parse_digit@__crt_strtox@@YAID@Z 1004078e f i libucrt:atox.obj
 0001:0003f7d6       ?parse_digit@__crt_strtox@@YAI_W@Z 100407d6 f i libucrt:atox.obj
 0001:0003fa47       ?restore_state@?$c_string_character_source@D@__crt_strtox@@QAE_NQBD@Z 10040a47 f i libucrt:atox.obj
 0001:0003fa5b       ?restore_state@?$c_string_character_source@_W@__crt_strtox@@QAE_NQB_W@Z 10040a5b f i libucrt:atox.obj
 0001:0003fa6f       ?save_state@?$c_string_character_source@D@__crt_strtox@@QBEPBDXZ 10040a6f f i libucrt:atox.obj
 0001:0003fa72       ?save_state@?$c_string_character_source@_W@__crt_strtox@@QBEPB_WXZ 10040a72 f i libucrt:atox.obj
 0001:0003fa75       ?unget@?$c_string_character_source@D@__crt_strtox@@QAEXD@Z 10040a75 f i libucrt:atox.obj
 0001:0003faa8       ?unget@?$c_string_character_source@_W@__crt_strtox@@QAEX_W@Z 10040aa8 f i libucrt:atox.obj
 0001:0003fae1       ?validate@?$c_string_character_source@D@__crt_strtox@@QBE_NXZ 10040ae1 f i libucrt:atox.obj
 0001:0003fb02       ?validate@?$c_string_character_source@_W@__crt_strtox@@QBE_NXZ 10040b02 f i libucrt:atox.obj
 0001:0003fb23       ?wide_character_to_digit@__crt_strtox@@YAH_W@Z 10040b23 f i libucrt:atox.obj
 0001:0003fd2c       ___acrt_get_locale_data_prefix 10040d2c f i libucrt:atox.obj
 0001:0003fd3b       __atoi64                   10040d3b f   libucrt:atox.obj
 0001:0003fd69       __atoi64_l                 10040d69 f   libucrt:atox.obj
 0001:0003fd98       __atoi_l                   10040d98 f   libucrt:atox.obj
 0001:0003fdc7       __atol_l                   10040dc7 f   libucrt:atox.obj
 0001:0003fdf6       __atoll_l                  10040df6 f   libucrt:atox.obj
 0001:0003fe25       __chvalidchk_l             10040e25 f i libucrt:atox.obj
 0001:0003fe54       __ischartype_l             10040e54 f i libucrt:atox.obj
 0001:0003fe93       __wtoi                     10040e93 f   libucrt:atox.obj
 0001:0003fec1       __wtoi64                   10040ec1 f   libucrt:atox.obj
 0001:0003feef       __wtoi64_l                 10040eef f   libucrt:atox.obj
 0001:0003ff1e       __wtoi_l                   10040f1e f   libucrt:atox.obj
 0001:0003ff4d       __wtol                     10040f4d f   libucrt:atox.obj
 0001:0003ff7b       __wtol_l                   10040f7b f   libucrt:atox.obj
 0001:0003ffaa       __wtoll                    10040faa f   libucrt:atox.obj
 0001:0003ffd8       __wtoll_l                  10040fd8 f   libucrt:atox.obj
 0001:00040007       _atoi                      10041007 f   libucrt:atox.obj
 0001:00040035       _atol                      10041035 f   libucrt:atox.obj
 0001:00040063       _atoll                     10041063 f   libucrt:atox.obj
 0001:00040091       ??$__crt_fast_decode_pointer@P6AXPB_W00II@Z@@YAP6AXPB_W00II@ZQ6AX000II@Z@Z 10041091 f i libucrt:invalid_parameter.obj
 0001:000400ac       ??$__crt_fast_encode_pointer@P6AXPB_W00II@Z@@YAP6AXPB_W00II@ZQ6AX000II@Z@Z 100410ac f i libucrt:invalid_parameter.obj
 0001:000400d2       ??$initialize_from_array@$$BY00Q6AXPB_W00II@Z@?$dual_state_global@P6AXPB_W00II@Z@__crt_state_management@@QAAXAAY00Q6AXPB_W00II@Z@Z 100410d2 f i libucrt:invalid_parameter.obj
 0001:000400e7       ?dangerous_get_state_array@?$dual_state_global@P6AXPB_W00II@Z@__crt_state_management@@QAEPAP6AXPB_W00II@ZXZ 100410e7 f i libucrt:invalid_parameter.obj
 0001:000400ea       ?value@?$dual_state_global@P6AXPB_W00II@Z@__crt_state_management@@QAEAAP6AXPB_W00II@ZXZ 100410ea f i libucrt:invalid_parameter.obj
 0001:000400ed       ___acrt_call_reportfault   100410ed f   libucrt:invalid_parameter.obj
 0001:00040276       ___acrt_initialize_invalid_parameter_handler 10041276 f   libucrt:invalid_parameter.obj
 0001:00040288       __get_invalid_parameter_handler 10041288 f   libucrt:invalid_parameter.obj
 0001:0004029f       __get_thread_local_invalid_parameter_handler 1004129f f   libucrt:invalid_parameter.obj
 0001:000402b4       __invalid_parameter        100412b4 f   libucrt:invalid_parameter.obj
 0001:0004034d       __invalid_parameter_noinfo 1004134d f   libucrt:invalid_parameter.obj
 0001:00040361       __invalid_parameter_noinfo_noreturn 10041361 f   libucrt:invalid_parameter.obj
 0001:00040385       __invoke_watson            10041385 f   libucrt:invalid_parameter.obj
 0001:000403c6       __set_invalid_parameter_handler 100413c6 f   libucrt:invalid_parameter.obj
 0001:00040402       __set_thread_local_invalid_parameter_handler 10041402 f   libucrt:invalid_parameter.obj
 0001:00040426       ___acrt_errno_from_os_error 10041426 f   libucrt:errno.obj
 0001:00040479       ___acrt_errno_map_os_error 10041479 f   libucrt:errno.obj
 0001:000404a4       ___doserrno                100414a4 f   libucrt:errno.obj
 0001:000404bb       __errno                    100414bb f   libucrt:errno.obj
 0001:000404d2       __get_doserrno             100414d2 f   libucrt:errno.obj
 0001:00040500       __get_errno                10041500 f   libucrt:errno.obj
 0001:0004052e       __set_doserrno             1004152e f   libucrt:errno.obj
 0001:00040557       __set_errno                10041557 f   libucrt:errno.obj
 0001:00040590       ??$?B$$A6GHPA_WKJ@Z@__crt_fast_encoded_nullptr_t@@QBEP6GHPA_WKJ@ZXZ 10041590 f i libucrt:winapi_thunks.obj
 0001:0004068a       ??$__crt_fast_decode_pointer@P6GHPA_WKJ@Z@@YAP6GHPA_WKJ@ZQ6GH0KJ@Z@Z 1004168a f i libucrt:winapi_thunks.obj
 0001:000406a5       ??$__crt_fast_encode_pointer@P6GHPA_WKJ@Z@@YAP6GHPA_WKJ@ZQ6GH0KJ@Z@Z 100416a5 f i libucrt:winapi_thunks.obj
 0001:00040f04       _GetCurrentThreadEffectiveToken 10041f04 f i libucrt:winapi_thunks.obj
 0001:00040f08       ___acrt_AppPolicyGetProcessTerminationMethodInternal@4 10041f08 f   libucrt:winapi_thunks.obj
 0001:00040f74       ___acrt_AppPolicyGetShowDeveloperDiagnosticInternal@4 10041f74 f   libucrt:winapi_thunks.obj
 0001:00040fe0       ___acrt_AppPolicyGetThreadInitializationTypeInternal@4 10041fe0 f   libucrt:winapi_thunks.obj
 0001:0004104c       ___acrt_AppPolicyGetWindowingModelInternal@4 1004204c f   libucrt:winapi_thunks.obj
 0001:000410b8       ___acrt_AreFileApisANSI@0  100420b8 f   libucrt:winapi_thunks.obj
 0001:00041100       ___acrt_CompareStringEx@36 10042100 f   libucrt:winapi_thunks.obj
 0001:00041191       ___acrt_EnumSystemLocalesEx@16 10042191 f   libucrt:winapi_thunks.obj
 0001:00041215       ___acrt_FlsAlloc@4         10042215 f   libucrt:winapi_thunks.obj
 0001:00041280       ___acrt_FlsFree@4          10042280 f   libucrt:winapi_thunks.obj
 0001:000412eb       ___acrt_FlsGetValue@4      100422eb f   libucrt:winapi_thunks.obj
 0001:00041356       ___acrt_FlsSetValue@8      10042356 f   libucrt:winapi_thunks.obj
 0001:000413c5       ___acrt_GetDateFormatEx@28 100423c5 f   libucrt:winapi_thunks.obj
 0001:0004144e       ___acrt_GetEnabledXStateFeatures@0 1004244e f   libucrt:winapi_thunks.obj
 0001:000414b0       ___acrt_GetLocaleInfoEx@16 100424b0 f   libucrt:winapi_thunks.obj
 0001:0004151b       ___acrt_GetSystemTimePreciseAsFileTime@4 1004251b f   libucrt:winapi_thunks.obj
 0001:00041586       ___acrt_GetTimeFormatEx@24 10042586 f   libucrt:winapi_thunks.obj
 0001:000415f9       ___acrt_GetUserDefaultLocaleName@8 100425f9 f   libucrt:winapi_thunks.obj
 0001:00041660       ___acrt_GetXStateFeaturesMask@8 10042660 f   libucrt:winapi_thunks.obj
 0001:000416cc       ___acrt_InitializeCriticalSectionEx@12 100426cc f   libucrt:winapi_thunks.obj
 0001:00041746       ___acrt_IsValidLocaleName@4 10042746 f   libucrt:winapi_thunks.obj
 0001:000417a8       ___acrt_LCIDToLocaleName@16 100427a8 f   libucrt:winapi_thunks.obj
 0001:00041813       ___acrt_LCMapStringEx@36   10042813 f   libucrt:winapi_thunks.obj
 0001:000418a4       ___acrt_LocaleNameToLCID@8 100428a4 f   libucrt:winapi_thunks.obj
 0001:000418fe       ___acrt_LocateXStateFeature@12 100428fe f   libucrt:winapi_thunks.obj
 0001:00041955       ___acrt_MessageBoxA@16     10042955 f   libucrt:winapi_thunks.obj
 0001:000419b0       ___acrt_MessageBoxW@16     100429b0 f   libucrt:winapi_thunks.obj
 0001:00041a0b       ___acrt_RoInitialize@4     10042a0b f   libucrt:winapi_thunks.obj
 0001:00041a71       ___acrt_RoUninitialize@0   10042a71 f   libucrt:winapi_thunks.obj
 0001:00041acc       ___acrt_RtlGenRandom@8     10042acc f   libucrt:winapi_thunks.obj
 0001:00041b38       ___acrt_SetThreadStackGuarantee@4 10042b38 f   libucrt:winapi_thunks.obj
 0001:00041b9e       ___acrt_can_show_message_box 10042b9e f   libucrt:winapi_thunks.obj
 0001:00041bce       ___acrt_can_use_vista_locale_apis 10042bce f   libucrt:winapi_thunks.obj
 0001:00041bdb       ___acrt_can_use_xstate_apis 10042bdb f   libucrt:winapi_thunks.obj
 0001:00041be8       ___acrt_eagerly_load_locale_apis 10042be8 f   libucrt:winapi_thunks.obj
 0001:00041c2c       ___acrt_get_parent_window  10042c2c f   libucrt:winapi_thunks.obj
 0001:00041cca       ___acrt_initialize_winapi_thunks 10042cca f   libucrt:winapi_thunks.obj
 0001:00041d15       ___acrt_is_interactive     10042d15 f   libucrt:winapi_thunks.obj
 0001:00041de4       ___acrt_uninitialize_winapi_thunks 10042de4 f   libucrt:winapi_thunks.obj
 0001:00041e27       ??0__crt_stdio_stream@@QAE@QAU__crt_stdio_stream_data@@@Z 10042e27 f i libucrt:closeall.obj
 0001:00041e3b       __fcloseall                10042e3b f   libucrt:closeall.obj
 0001:000424a9       ___acrt_stdio_flush_nolock 100434a9 f   libucrt:fflush.obj
 0001:00042524       __fflush_nolock            10043524 f   libucrt:fflush.obj
 0001:0004257c       __flushall                 1004357c f   libucrt:fflush.obj
 0001:00042587       _fflush                    10043587 f   libucrt:fflush.obj
 0001:000425f0       ?has_crt_buffer@__crt_stdio_stream@@QBE_NXZ 100435f0 f i libucrt:_freebuf.obj
 0001:000425fd       ___acrt_stdio_free_buffer_nolock 100435fd f   libucrt:_freebuf.obj
 0001:0004283b       ___acrt_initialize_lowio   1004383b f   libucrt:ioinit.obj
 0001:000428a6       ___acrt_uninitialize_lowio 100438a6 f   libucrt:ioinit.obj
 0001:000428f9       ___isascii                 100438f9 f i libucrt:_ctype.obj
 0001:0004290f       ___iscsym                  1004390f f i libucrt:_ctype.obj
 0001:00042939       ___iscsymf                 10043939 f i libucrt:_ctype.obj
 0001:0004295f       ___toascii                 1004395f f i libucrt:_ctype.obj
 0001:0004296f       __isalnum_l                1004396f f i libucrt:_ctype.obj
 0001:000429b8       __isalpha_l                100439b8 f i libucrt:_ctype.obj
 0001:00042a01       __isblank_l                10043a01 f i libucrt:_ctype.obj
 0001:00042a54       __iscntrl_l                10043a54 f i libucrt:_ctype.obj
 0001:00042a9a       __iscsym_l                 10043a9a f i libucrt:_ctype.obj
 0001:00042ac5       __iscsymf_l                10043ac5 f i libucrt:_ctype.obj
 0001:00042af0       __isdigit_l                10043af0 f i libucrt:_ctype.obj
 0001:00042b36       __isgraph_l                10043b36 f i libucrt:_ctype.obj
 0001:00042b7f       __islower_l                10043b7f f i libucrt:_ctype.obj
 0001:00042bc5       __isprint_l                10043bc5 f i libucrt:_ctype.obj
 0001:00042c0e       __ispunct_l                10043c0e f i libucrt:_ctype.obj
 0001:00042c54       __isspace_l                10043c54 f i libucrt:_ctype.obj
 0001:00042c9a       __isupper_l                10043c9a f i libucrt:_ctype.obj
 0001:00042ce0       __isxdigit_l               10043ce0 f i libucrt:_ctype.obj
 0001:00042d29       _isalnum                   10043d29 f i libucrt:_ctype.obj
 0001:00042d65       _isalpha                   10043d65 f i libucrt:_ctype.obj
 0001:00042da1       _isblank                   10043da1 f i libucrt:_ctype.obj
 0001:00042de9       _iscntrl                   10043de9 f i libucrt:_ctype.obj
 0001:00042e22       _isdigit                   10043e22 f i libucrt:_ctype.obj
 0001:00042e5b       _isgraph                   10043e5b f i libucrt:_ctype.obj
 0001:00042e97       _islower                   10043e97 f i libucrt:_ctype.obj
 0001:00042ed0       _isprint                   10043ed0 f i libucrt:_ctype.obj
 0001:00042f0c       _ispunct                   10043f0c f i libucrt:_ctype.obj
 0001:00042f45       _isspace                   10043f45 f i libucrt:_ctype.obj
 0001:00042f7e       _isupper                   10043f7e f i libucrt:_ctype.obj
 0001:00042fb7       _isxdigit                  10043fb7 f i libucrt:_ctype.obj
 0001:000433af       __tolower                  100443af f   libucrt:tolower_toupper.obj
 0001:000433bf       __tolower_l                100443bf f   libucrt:tolower_toupper.obj
 0001:000433df       __toupper                  100443df f   libucrt:tolower_toupper.obj
 0001:000433ef       __toupper_l                100443ef f   libucrt:tolower_toupper.obj
 0001:0004340f       _tolower                   1004440f f   libucrt:tolower_toupper.obj
 0001:0004344b       _toupper                   1004444b f   libucrt:tolower_toupper.obj
 0001:00043487       ??$make_c_string_character_source@DPAPAD@__crt_strtox@@YA?AV?$c_string_character_source@D@0@QBDQAPAD@Z 10044487 f i libucrt:strtox.obj
 0001:000434a8       ??$make_c_string_character_source@_WPAPA_W@__crt_strtox@@YA?AV?$c_string_character_source@_W@0@QB_WQAPA_W@Z 100444a8 f i libucrt:strtox.obj
 0001:000434c9       ??$parse_integer_from_string@JDPAPAD@__crt_strtox@@YAJQBDQAPADHQAU__crt_locale_pointers@@@Z 100444c9 f i libucrt:strtox.obj
 0001:00043501       ??$parse_integer_from_string@J_WPAPA_W@__crt_strtox@@YAJQB_WQAPA_WHQAU__crt_locale_pointers@@@Z 10044501 f i libucrt:strtox.obj
 0001:00043539       ??$parse_integer_from_string@KDPAPAD@__crt_strtox@@YAKQBDQAPADHQAU__crt_locale_pointers@@@Z 10044539 f i libucrt:strtox.obj
 0001:00043571       ??$parse_integer_from_string@K_WPAPA_W@__crt_strtox@@YAKQB_WQAPA_WHQAU__crt_locale_pointers@@@Z 10044571 f i libucrt:strtox.obj
 0001:000435a9       ??$parse_integer_from_string@_JDPAPAD@__crt_strtox@@YA_JQBDQAPADHQAU__crt_locale_pointers@@@Z 100445a9 f i libucrt:strtox.obj
 0001:000435e1       ??$parse_integer_from_string@_J_WPAPA_W@__crt_strtox@@YA_JQB_WQAPA_WHQAU__crt_locale_pointers@@@Z 100445e1 f i libucrt:strtox.obj
 0001:00043619       ??$parse_integer_from_string@_KDPAPAD@__crt_strtox@@YA_KQBDQAPADHQAU__crt_locale_pointers@@@Z 10044619 f i libucrt:strtox.obj
 0001:00043651       ??$parse_integer_from_string@_K_WPAPA_W@__crt_strtox@@YA_KQB_WQAPA_WHQAU__crt_locale_pointers@@@Z 10044651 f i libucrt:strtox.obj
 0001:00043689       __strtoi64                 10044689 f   libucrt:strtox.obj
 0001:000436c0       __strtoi64_l               100446c0 f   libucrt:strtox.obj
 0001:000436f8       __strtoimax_l              100446f8 f   libucrt:strtox.obj
 0001:00043730       __strtol_l                 10044730 f   libucrt:strtox.obj
 0001:00043768       __strtoll_l                10044768 f   libucrt:strtox.obj
 0001:000437a0       __strtoui64                100447a0 f   libucrt:strtox.obj
 0001:000437d7       __strtoui64_l              100447d7 f   libucrt:strtox.obj
 0001:0004380f       __strtoul_l                1004480f f   libucrt:strtox.obj
 0001:00043847       __strtoull_l               10044847 f   libucrt:strtox.obj
 0001:0004387f       __strtoumax_l              1004487f f   libucrt:strtox.obj
 0001:000438b7       __wcstoi64                 100448b7 f   libucrt:strtox.obj
 0001:000438ee       __wcstoi64_l               100448ee f   libucrt:strtox.obj
 0001:00043926       __wcstoimax_l              10044926 f   libucrt:strtox.obj
 0001:0004395e       __wcstol_l                 1004495e f   libucrt:strtox.obj
 0001:00043996       __wcstoll_l                10044996 f   libucrt:strtox.obj
 0001:000439ce       __wcstoui64                100449ce f   libucrt:strtox.obj
 0001:00043a05       __wcstoui64_l              10044a05 f   libucrt:strtox.obj
 0001:00043a3d       __wcstoul_l                10044a3d f   libucrt:strtox.obj
 0001:00043a75       __wcstoull_l               10044a75 f   libucrt:strtox.obj
 0001:00043aad       __wcstoumax_l              10044aad f   libucrt:strtox.obj
 0001:00043ae5       _strtoimax                 10044ae5 f   libucrt:strtox.obj
 0001:00043b1c       _strtol                    10044b1c f   libucrt:strtox.obj
 0001:00043b53       _strtoll                   10044b53 f   libucrt:strtox.obj
 0001:00043b8a       _strtoul                   10044b8a f   libucrt:strtox.obj
 0001:00043bc1       _strtoull                  10044bc1 f   libucrt:strtox.obj
 0001:00043bf8       _strtoumax                 10044bf8 f   libucrt:strtox.obj
 0001:00043c2f       _wcstoimax                 10044c2f f   libucrt:strtox.obj
 0001:00043c66       _wcstol                    10044c66 f   libucrt:strtox.obj
 0001:00043c9d       _wcstoll                   10044c9d f   libucrt:strtox.obj
 0001:00043cd4       _wcstoul                   10044cd4 f   libucrt:strtox.obj
 0001:00043d0b       _wcstoull                  10044d0b f   libucrt:strtox.obj
 0001:00043d42       _wcstoumax                 10044d42 f   libucrt:strtox.obj
 0001:00043d79       __mbtowc_l                 10044d79 f   libucrt:mbtowc.obj
 0001:00043f0e       _mbtowc                    10044f0e f   libucrt:mbtowc.obj
 0001:00043f2e       __wctomb_l                 10044f2e f   libucrt:wctomb.obj
 0001:00043f95       __wctomb_s_l               10044f95 f   libucrt:wctomb.obj
 0001:00044100       _wctomb                    10045100 f   libucrt:wctomb.obj
 0001:00044141       _wctomb_s                  10045141 f   libucrt:wctomb.obj
 0001:00044b5e       ??1?$__crt_simd_cleanup_guard@$00@@QAE@XZ 10045b5e f i libucrt:strnlen.obj
 0001:00044b62       ??1?$__crt_simd_cleanup_guard@$0A@@@QAE@XZ 10045b62 f i libucrt:strnlen.obj
 0001:00044b63       ?compare_equals@?$__crt_simd_traits@$00E@@SA?AT__m256i@@T2@0@Z 10045b63 f i libucrt:strnlen.obj
 0001:00044b68       ?compare_equals@?$__crt_simd_traits@$00G@@SA?AT__m256i@@T2@0@Z 10045b68 f i libucrt:strnlen.obj
 0001:00044b6d       ?compare_equals@?$__crt_simd_traits@$0A@E@@SA?AT__m128i@@T2@0@Z 10045b6d f i libucrt:strnlen.obj
 0001:00044b72       ?compare_equals@?$__crt_simd_traits@$0A@G@@SA?AT__m128i@@T2@0@Z 10045b72 f i libucrt:strnlen.obj
 0001:00044b77       ?compute_byte_mask@?$__crt_simd_pack_traits@$00@@SAHT__m256i@@@Z 10045b77 f i libucrt:strnlen.obj
 0001:00044b7c       ?compute_byte_mask@?$__crt_simd_pack_traits@$0A@@@SAHT__m128i@@@Z 10045b7c f i libucrt:strnlen.obj
 0001:00044b81       ?get_zero_pack@?$__crt_simd_pack_traits@$00@@SA?AT__m256i@@XZ 10045b81 f i libucrt:strnlen.obj
 0001:00044b86       ?get_zero_pack@?$__crt_simd_pack_traits@$0A@@@SA?AT__m128i@@XZ 10045b86 f i libucrt:strnlen.obj
 0001:00044b8a       _strnlen                   10045b8a f   libucrt:strnlen.obj
 0001:00044cf4       _wcslen                    10045cf4 f   libucrt:strnlen.obj
 0001:00044e66       _wcsnlen                   10045e66 f   libucrt:strnlen.obj
 0001:00045082       ??$?RU__acrt_ptd@@@__crt_internal_free_policy@@QBEXQBU__acrt_ptd@@@Z 10046082 f i libucrt:per_thread_data.obj
 0001:000453fb       ??0?$__crt_unique_heap_ptr@U__acrt_ptd@@U__crt_internal_free_policy@@@@QAE@QAU__acrt_ptd@@@Z 100463fb f i libucrt:per_thread_data.obj
 0001:0004540f       ??0__crt_scoped_get_last_error_reset@@QAE@XZ 1004640f f i libucrt:per_thread_data.obj
 0001:00045424       ??1?$__crt_unique_heap_ptr@U__acrt_ptd@@U__crt_internal_free_policy@@@@QAE@XZ 10046424 f i libucrt:per_thread_data.obj
 0001:0004543a       ??1__crt_scoped_get_last_error_reset@@QAE@XZ 1004643a f i libucrt:per_thread_data.obj
 0001:00045445       ??B?$__crt_unique_heap_ptr@U__acrt_ptd@@U__crt_internal_free_policy@@@@QBE_NXZ 10046445 f i libucrt:per_thread_data.obj
 0001:000455e2       ?dangerous_get_state_array@?$dual_state_global@PAU__crt_locale_data@@@__crt_state_management@@QAEPAPAU__crt_locale_data@@XZ 100465e2 f i libucrt:per_thread_data.obj
 0001:00045715       ?detach@?$__crt_unique_heap_ptr@U__acrt_ptd@@U__crt_internal_free_policy@@@@QAEPAU__acrt_ptd@@XZ 10046715 f i libucrt:per_thread_data.obj
 0001:0004571b       ?get@?$__crt_unique_heap_ptr@U__acrt_ptd@@U__crt_internal_free_policy@@@@QBEPAU__acrt_ptd@@XZ 1004671b f i libucrt:per_thread_data.obj
 0001:0004571e       ?get_current_state_index@__crt_state_management@@YAIABV__crt_scoped_get_last_error_reset@@@Z 1004671e f i libucrt:per_thread_data.obj
 0001:000458a4       ?is_valid@?$__crt_unique_heap_ptr@U__acrt_ptd@@U__crt_internal_free_policy@@@@QBE_NXZ 100468a4 f i libucrt:per_thread_data.obj
 0001:000458ab       ?release@?$__crt_unique_heap_ptr@U__acrt_ptd@@U__crt_internal_free_policy@@@@QAEXXZ 100468ab f i libucrt:per_thread_data.obj
 0001:00045937       ?value@?$dual_state_global@PAU__crt_locale_data@@@__crt_state_management@@QAEAAPAU__crt_locale_data@@XZ 10046937 f i libucrt:per_thread_data.obj
 0001:0004593a       ___acrt_freeptd            1004693a f   libucrt:per_thread_data.obj
 0001:00045971       ___acrt_getptd             10046971 f   libucrt:per_thread_data.obj
 0001:00045a55       ___acrt_getptd_head        10046a55 f   libucrt:per_thread_data.obj
 0001:00045b15       ___acrt_getptd_noexit      10046b15 f   libucrt:per_thread_data.obj
 0001:00045bed       ___acrt_initialize_ptd     10046bed f   libucrt:per_thread_data.obj
 0001:00045c24       ___acrt_uninitialize_ptd   10046c24 f   libucrt:per_thread_data.obj
 0001:00045c44       ___threadhandle            10046c44 f   libucrt:per_thread_data.obj
 0001:00045c4a       ___threadid                10046c4a f   libucrt:per_thread_data.obj
 0001:00045c50       ?value@?$dual_state_global@PAU__crt_multibyte_data@@@__crt_state_management@@QAEAAPAU__crt_multibyte_data@@XZ 10046c50 f i libucrt:locale_update.obj
 0001:00045c53       ___acrt_update_locale_info 10046c53 f   libucrt:locale_update.obj
 0001:00045c8b       ___acrt_update_multibyte_info 10046c8b f   libucrt:locale_update.obj
 0001:00045cc3       ?__acrt_fp_classify@@YA?AW4__acrt_fp_class@@ABN@Z 10046cc3 f i libucrt:cvt.obj
 0001:00045d3d       ?__acrt_fp_is_negative@@YA_NABN@Z 10046d3d f i libucrt:cvt.obj
 0001:000467c2       ?strrchr@@YAPADQADH@Z      100477c2 f i libucrt:cvt.obj
 0001:000467cf       ___acrt_fp_format          100477cf f   libucrt:cvt.obj
 0001:00046997       __fputwc_nolock            10047997 f   libucrt:fputwc.obj
 0001:00046b0b       __fputwchar                10047b0b f   libucrt:fputwc.obj
 0001:00046b2b       __putwc_nolock             10047b2b f   libucrt:fputwc.obj
 0001:00046b38       _fputwc                    10047b38 f   libucrt:fputwc.obj
 0001:00046bc9       _putwc                     10047bc9 f   libucrt:fputwc.obj
 0001:00046bd6       _putwchar                  10047bd6 f   libucrt:fputwc.obj
 0001:00046be3       ?lowio_handle@__crt_stdio_stream@@QBEHXZ 10047be3 f i libucrt:fileno.obj
 0001:00046be9       __fileno                   10047be9 f   libucrt:fileno.obj
 0001:00046c18       __fputc_nolock             10047c18 f   libucrt:fputc.obj
 0001:00046c4b       __fputchar                 10047c4b f   libucrt:fputc.obj
 0001:00046c6b       __putc_nolock              10047c6b f   libucrt:fputc.obj
 0001:00046c78       _fputc                     10047c78 f   libucrt:fputc.obj
 0001:00046db6       _putc                      10047db6 f   libucrt:fputc.obj
 0001:00046dc3       _putchar                   10047dc3 f   libucrt:fputc.obj
 0001:00046dd0       __get_printf_count_output  10047dd0 f   libucrt:printf_count_output.obj
 0001:00046dea       __set_printf_count_output  10047dea f   libucrt:printf_count_output.obj
 0001:00046e1e       ?has_temporary_buffer@__crt_stdio_stream@@QBE_NXZ 10047e1e f i libucrt:_sftbuf.obj
 0001:00046e2b       ___acrt_stdio_begin_temporary_buffering_nolock 10047e2b f   libucrt:_sftbuf.obj
 0001:00046f0d       ___acrt_stdio_end_temporary_buffering_nolock 10047f0d f   libucrt:_sftbuf.obj
 0001:00046f57       ??$?RU__crt_locale_data@@@__crt_internal_free_policy@@QBEXQBU__crt_locale_data@@@Z 10047f57 f i libucrt:wsetlocale.obj
 0001:00046f6d       ??$?RU__crt_locale_pointers@@@__crt_internal_free_policy@@QBEXQBU__crt_locale_pointers@@@Z 10047f6d f i libucrt:wsetlocale.obj
 0001:00046f83       ??$?RU__crt_multibyte_data@@@__crt_internal_free_policy@@QBEXQBU__crt_multibyte_data@@@Z 10047f83 f i libucrt:wsetlocale.obj
 0001:00047253       ??$__vcrt_va_start_verify_argument_type@H@@YAXXZ 10048253 f i libucrt:wsetlocale.obj
 0001:000473de       ??0?$__crt_unique_heap_ptr@U__crt_locale_data@@U__crt_internal_free_policy@@@@QAE@QAU__crt_locale_data@@@Z 100483de f i libucrt:wsetlocale.obj
 0001:000473f2       ??0?$__crt_unique_heap_ptr@U__crt_locale_pointers@@U__crt_internal_free_policy@@@@QAE@QAU__crt_locale_pointers@@@Z 100483f2 f i libucrt:wsetlocale.obj
 0001:00047406       ??0?$__crt_unique_heap_ptr@U__crt_multibyte_data@@U__crt_internal_free_policy@@@@QAE@QAU__crt_multibyte_data@@@Z 10048406 f i libucrt:wsetlocale.obj
 0001:0004741a       ??1?$__crt_unique_heap_ptr@U__crt_locale_data@@U__crt_internal_free_policy@@@@QAE@XZ 1004841a f i libucrt:wsetlocale.obj
 0001:00047430       ??1?$__crt_unique_heap_ptr@U__crt_locale_pointers@@U__crt_internal_free_policy@@@@QAE@XZ 10048430 f i libucrt:wsetlocale.obj
 0001:00047446       ??1?$__crt_unique_heap_ptr@U__crt_multibyte_data@@U__crt_internal_free_policy@@@@QAE@XZ 10048446 f i libucrt:wsetlocale.obj
 0001:0004745c       ??B?$__crt_unique_heap_ptr@U__crt_locale_data@@U__crt_internal_free_policy@@@@QBE_NXZ 1004845c f i libucrt:wsetlocale.obj
 0001:00047463       ??B?$__crt_unique_heap_ptr@U__crt_locale_pointers@@U__crt_internal_free_policy@@@@QBE_NXZ 10048463 f i libucrt:wsetlocale.obj
 0001:0004746a       ??B?$__crt_unique_heap_ptr@U__crt_multibyte_data@@U__crt_internal_free_policy@@@@QBE_NXZ 1004846a f i libucrt:wsetlocale.obj
 0001:0004770c       ?detach@?$__crt_unique_heap_ptr@U__crt_locale_data@@U__crt_internal_free_policy@@@@QAEPAU__crt_locale_data@@XZ 1004870c f i libucrt:wsetlocale.obj
 0001:00047712       ?detach@?$__crt_unique_heap_ptr@U__crt_locale_pointers@@U__crt_internal_free_policy@@@@QAEPAU__crt_locale_pointers@@XZ 10048712 f i libucrt:wsetlocale.obj
 0001:00047718       ?detach@?$__crt_unique_heap_ptr@U__crt_multibyte_data@@U__crt_internal_free_policy@@@@QAEPAU__crt_multibyte_data@@XZ 10048718 f i libucrt:wsetlocale.obj
 0001:0004771e       ?get@?$__crt_unique_heap_ptr@U__crt_locale_data@@U__crt_internal_free_policy@@@@QBEPAU__crt_locale_data@@XZ 1004871e f i libucrt:wsetlocale.obj
 0001:00047721       ?get@?$__crt_unique_heap_ptr@U__crt_locale_pointers@@U__crt_internal_free_policy@@@@QBEPAU__crt_locale_pointers@@XZ 10048721 f i libucrt:wsetlocale.obj
 0001:00047724       ?get@?$__crt_unique_heap_ptr@U__crt_multibyte_data@@U__crt_internal_free_policy@@@@QBEPAU__crt_multibyte_data@@XZ 10048724 f i libucrt:wsetlocale.obj
 0001:00047727       ?is_valid@?$__crt_unique_heap_ptr@U__crt_locale_data@@U__crt_internal_free_policy@@@@QBE_NXZ 10048727 f i libucrt:wsetlocale.obj
 0001:0004772e       ?is_valid@?$__crt_unique_heap_ptr@U__crt_locale_pointers@@U__crt_internal_free_policy@@@@QBE_NXZ 1004872e f i libucrt:wsetlocale.obj
 0001:00047735       ?is_valid@?$__crt_unique_heap_ptr@U__crt_multibyte_data@@U__crt_internal_free_policy@@@@QBE_NXZ 10048735 f i libucrt:wsetlocale.obj
 0001:0004773c       ?release@?$__crt_unique_heap_ptr@U__crt_locale_data@@U__crt_internal_free_policy@@@@QAEXXZ 1004873c f i libucrt:wsetlocale.obj
 0001:00047752       ?release@?$__crt_unique_heap_ptr@U__crt_locale_pointers@@U__crt_internal_free_policy@@@@QAEXXZ 10048752 f i libucrt:wsetlocale.obj
 0001:00047768       ?release@?$__crt_unique_heap_ptr@U__crt_multibyte_data@@U__crt_internal_free_policy@@@@QAEXXZ 10048768 f i libucrt:wsetlocale.obj
 0001:0004777e       ___acrt_copy_locale_name   1004877e f   libucrt:wsetlocale.obj
 0001:000477fd       ___acrt_set_locale_changed 100487fd f   libucrt:wsetlocale.obj
 0001:0004780a       ___acrt_uninitialize_locale 1004880a f   libucrt:wsetlocale.obj
 0001:0004783d       ___lc_lctowcs              1004883d f   libucrt:wsetlocale.obj
 0001:000478c9       ___lc_wcstolc              100488c9 f   libucrt:wsetlocale.obj
 0001:00047a69       __configthreadlocale       10048a69 f   libucrt:wsetlocale.obj
 0001:00047b1d       __create_locale            10048b1d f   libucrt:wsetlocale.obj
 0001:00047b9c       __expandlocale             10048b9c f   libucrt:wsetlocale.obj
 0001:00048070       __free_locale              10049070 f   libucrt:wsetlocale.obj
 0001:00048156       __get_current_locale       10049156 f   libucrt:wsetlocale.obj
 0001:0004821a       __wcreate_locale           1004921a f   libucrt:wsetlocale.obj
 0001:00048365       __wcscats                  10049365 f   libucrt:wsetlocale.obj
 0001:000483b6       __wsetlocale               100493b6 f   libucrt:wsetlocale.obj
 0001:00048eed       ___p___mb_cur_max          10049eed f   libucrt:nlsdata.obj
 0001:00048fe4       ___acrt_report_runtime_error 10049fe4 f   libucrt:report_runtime_error.obj
 0001:0004913e       __query_app_type           1004a13e f   libucrt:report_runtime_error.obj
 0001:00049144       __set_app_type             1004a144 f   libucrt:report_runtime_error.obj
 0001:0004975b       __i64toa                   1004a75b f   libucrt:xtoa.obj
 0001:000497ae       __i64toa_s                 1004a7ae f   libucrt:xtoa.obj
 0001:000497ff       __i64tow                   1004a7ff f   libucrt:xtoa.obj
 0001:00049852       __i64tow_s                 1004a852 f   libucrt:xtoa.obj
 0001:000498a3       __itoa                     1004a8a3 f   libucrt:xtoa.obj
 0001:000498e7       __itoa_s                   1004a8e7 f   libucrt:xtoa.obj
 0001:00049929       __itow                     1004a929 f   libucrt:xtoa.obj
 0001:0004996d       __itow_s                   1004a96d f   libucrt:xtoa.obj
 0001:000499af       __ltoa                     1004a9af f   libucrt:xtoa.obj
 0001:000499f3       __ltoa_s                   1004a9f3 f   libucrt:xtoa.obj
 0001:00049a35       __ltow                     1004aa35 f   libucrt:xtoa.obj
 0001:00049a79       __ltow_s                   1004aa79 f   libucrt:xtoa.obj
 0001:00049abb       __ui64toa                  1004aabb f   libucrt:xtoa.obj
 0001:00049ae5       __ui64toa_s                1004aae5 f   libucrt:xtoa.obj
 0001:00049b0d       __ui64tow                  1004ab0d f   libucrt:xtoa.obj
 0001:00049b37       __ui64tow_s                1004ab37 f   libucrt:xtoa.obj
 0001:00049b5f       __ultoa                    1004ab5f f   libucrt:xtoa.obj
 0001:00049b85       __ultoa_s                  1004ab85 f   libucrt:xtoa.obj
 0001:00049ba9       __ultow                    1004aba9 f   libucrt:xtoa.obj
 0001:00049bcf       __ultow_s                  1004abcf f   libucrt:xtoa.obj
 0001:00049bf3       __set_error_mode           1004abf3 f   libucrt:set_error_mode.obj
 0001:00049ccf       _wcscat_s                  1004accf f   libucrt:wcscat_s.obj
 0001:00049dd9       _wcscpy_s                  1004add9 f   libucrt:wcscpy_s.obj
 0001:00049f79       _wcsncat_s                 1004af79 f   libucrt:wcsncat_s.obj
 0001:0004a009       _strcat_s                  1004b009 f   libucrt:strcat_s.obj
 0001:0004a190       _strncat_s                 1004b190 f   libucrt:strncat_s.obj
 0001:0004a19d       ___acrt_GetModuleFileNameA 1004b19d f   libucrt:getmodulefilenamea.obj
 0001:0004a355       ??$message_box@$$TABQBDABQBDK@?$__crt_char_traits@D@@SAH$$QA$$TABQBD1$$QAK@Z 1004b355 f i libucrt:crtmbox.obj
 0001:0004a37d       ??$message_box@$$TABQB_WABQB_WK@?$__crt_char_traits@_W@@SAH$$QA$$TABQB_W1$$QAK@Z 1004b37d f i libucrt:crtmbox.obj
 0001:0004a3a5       ??$message_box@PAUHWND__@@ABQBDABQBDABI@?$__crt_char_traits@D@@SAH$$QAPAUHWND__@@ABQBD1ABI@Z 1004b3a5 f i libucrt:crtmbox.obj
 0001:0004a3cd       ??$message_box@PAUHWND__@@ABQB_WABQB_WABI@?$__crt_char_traits@_W@@SAH$$QAPAUHWND__@@ABQB_W1ABI@Z 1004b3cd f i libucrt:crtmbox.obj
 0001:0004a3f5       ??$output_debug_string@ABQBD@?$__crt_char_traits@D@@SAXABQBD@Z 1004b3f5 f i libucrt:crtmbox.obj
 0001:0004a40a       ??$output_debug_string@ABQB_W@?$__crt_char_traits@_W@@SAXABQB_W@Z 1004b40a f i libucrt:crtmbox.obj
 0001:0004a420       ___acrt_show_narrow_message_box 1004b420 f   libucrt:crtmbox.obj
 0001:0004a42d       ___acrt_show_wide_message_box 1004b42d f   libucrt:crtmbox.obj
 0001:0004a63c       _setvbuf                   1004b63c f   libucrt:setvbuf.obj
 0001:0004a6e1       ??$?B$$A6AXH@Z@__crt_fast_encoded_nullptr_t@@QBEP6AXH@ZXZ 1004b6e1 f i libucrt:signal.obj
 0001:0004a7a1       ??$__crt_fast_decode_pointer@P6AXH@Z@@YAP6AXH@ZQ6AXH@Z@Z 1004b7a1 f i libucrt:signal.obj
 0001:0004a7bc       ??$__crt_fast_encode_pointer@P6AXH@Z@@YAP6AXH@ZQ6AXH@Z@Z 1004b7bc f i libucrt:signal.obj
 0001:0004a966       ?initialize@?$dual_state_global@P6AXH@Z@__crt_state_management@@QAEXQ6AXH@Z@Z 1004b966 f i libucrt:signal.obj
 0001:0004aa44       ?value@?$dual_state_global@P6AXH@Z@__crt_state_management@@QAEAAP6AXH@ZXZ 1004ba44 f i libucrt:signal.obj
 0001:0004aa47       ___acrt_get_sigabrt_handler 1004ba47 f   libucrt:signal.obj
 0001:0004aa7a       ___acrt_initialize_signal_handlers 1004ba7a f   libucrt:signal.obj
 0001:0004aa9f       ___fpecode                 1004ba9f f   libucrt:signal.obj
 0001:0004aaaa       ___pxcptinfoptrs           1004baaa f   libucrt:signal.obj
 0001:0004aab5       _raise                     1004bab5 f   libucrt:signal.obj
 0001:0004ad37       _signal                    1004bd37 f   libucrt:signal.obj
 0001:0004af54       __realloc_base             1004bf54 f   libucrt:realloc_base.obj
 0001:0004afd7       ___acrt_initialize_locks   1004bfd7 f   libucrt:locks.obj
 0001:0004b028       ___acrt_lock               1004c028 f   libucrt:locks.obj
 0001:0004b044       ___acrt_uninitialize_locks 1004c044 f   libucrt:locks.obj
 0001:0004b081       ___acrt_unlock             1004c081 f   libucrt:locks.obj
 0001:0004b09d       __lock_locales             1004c09d f   libucrt:locks.obj
 0001:0004b0ae       __unlock_locales           1004c0ae f   libucrt:locks.obj
 0001:0004b2cc       ___acrt_get_begin_thread_init_policy 1004c2cc f   libucrt:win_policies.obj
 0001:0004b322       ___acrt_get_developer_information_policy 1004c322 f   libucrt:win_policies.obj
 0001:0004b378       ___acrt_get_process_end_policy 1004c378 f   libucrt:win_policies.obj
 0001:0004b3b7       ___acrt_get_windowing_model_policy 1004c3b7 f   libucrt:win_policies.obj
 0001:0004b620       __close                    1004c620 f   libucrt:close.obj
 0001:0004b6d2       __close_nolock             1004c6d2 f   libucrt:close.obj
 0001:0004b795       ??$?RU__crt_stdio_stream_data@@@__crt_internal_free_policy@@QBEXQBU__crt_stdio_stream_data@@@Z 1004c795 f i libucrt:stream.obj
 0001:0004b7ab       ??0?$__crt_unique_heap_ptr@U__crt_stdio_stream_data@@U__crt_internal_free_policy@@@@QAE@QAU__crt_stdio_stream_data@@@Z 1004c7ab f i libucrt:stream.obj
 0001:0004b7bf       ??0__crt_stdio_stream@@QAE@XZ 1004c7bf f i libucrt:stream.obj
 0001:0004b7c5       ??1?$__crt_unique_heap_ptr@U__crt_stdio_stream_data@@U__crt_internal_free_policy@@@@QAE@XZ 1004c7c5 f i libucrt:stream.obj
 0001:0004b7db       ?__acrt_stdio_allocate_stream@@YA?AV__crt_stdio_stream@@XZ 1004c7db f   libucrt:stream.obj
 0001:0004b851       ?__acrt_stdio_free_stream@@YAXV__crt_stdio_stream@@@Z 1004c851 f   libucrt:stream.obj
 0001:0004b89a       ?deallocate@__crt_stdio_stream@@QAEXXZ 1004c89a f i libucrt:stream.obj
 0001:0004b8a6       ?detach@?$__crt_unique_heap_ptr@U__crt_stdio_stream_data@@U__crt_internal_free_policy@@@@QAEPAU__crt_stdio_stream_data@@XZ 1004c8a6 f i libucrt:stream.obj
 0001:0004b99f       ?lock@__crt_stdio_stream@@QBEXXZ 1004c99f f i libucrt:stream.obj
 0001:0004b9aa       ?release@?$__crt_unique_heap_ptr@U__crt_stdio_stream_data@@U__crt_internal_free_policy@@@@QAEXXZ 1004c9aa f i libucrt:stream.obj
 0001:0004b9c0       ?try_allocate@__crt_stdio_stream@@QAE_NXZ 1004c9c0 f i libucrt:stream.obj
 0001:0004b9e8       ??$__acrt_stdio_parse_mode@D@@YA?AU__acrt_stdio_stream_mode@@QBD@Z 1004c9e8 f i libucrt:openfile.obj
 0001:0004bca2       ??$__acrt_stdio_parse_mode@_W@@YA?AU__acrt_stdio_stream_mode@@QB_W@Z 1004cca2 f i libucrt:openfile.obj
 0001:0004c0f7       ??$tcsncmp@AAPBDAAY02$$CBDI@?$__crt_char_traits@D@@SAHAAPBDAAY02$$CBD$$QAI@Z 1004d0f7 f i libucrt:openfile.obj
 0001:0004c11a       ??$tcsncmp@AAPB_WAAY02$$CB_WI@?$__crt_char_traits@_W@@SAHAAPB_WAAY02$$CB_W$$QAI@Z 1004d11a f i libucrt:openfile.obj
 0001:0004c13d       ??$tcsnicmp@AAPBDAAY04$$CBDI@?$__crt_char_traits@D@@SAHAAPBDAAY04$$CBD$$QAI@Z 1004d13d f i libucrt:openfile.obj
 0001:0004c160       ??$tcsnicmp@AAPBDAAY06$$CBDI@?$__crt_char_traits@D@@SAHAAPBDAAY06$$CBD$$QAI@Z 1004d160 f i libucrt:openfile.obj
 0001:0004c183       ??$tcsnicmp@AAPBDAAY07$$CBDI@?$__crt_char_traits@D@@SAHAAPBDAAY07$$CBD$$QAI@Z 1004d183 f i libucrt:openfile.obj
 0001:0004c1a6       ??$tcsnicmp@AAPB_WAAY04$$CB_WI@?$__crt_char_traits@_W@@SAHAAPB_WAAY04$$CB_W$$QAI@Z 1004d1a6 f i libucrt:openfile.obj
 0001:0004c1c9       ??$tcsnicmp@AAPB_WAAY06$$CB_WI@?$__crt_char_traits@_W@@SAHAAPB_WAAY06$$CB_W$$QAI@Z 1004d1c9 f i libucrt:openfile.obj
 0001:0004c1ec       ??$tcsnicmp@AAPB_WAAY07$$CB_WI@?$__crt_char_traits@_W@@SAHAAPB_WAAY07$$CB_W$$QAI@Z 1004d1ec f i libucrt:openfile.obj
 0001:0004c20f       ??$tsopen_s@PAHABQBDABHABHH@?$__crt_char_traits@D@@SAH$$QAPAHABQBDABH2$$QAH@Z 1004d20f f i libucrt:openfile.obj
 0001:0004c241       ??$tsopen_s@PAHABQB_WABHABHH@?$__crt_char_traits@_W@@SAH$$QAPAHABQB_WABH2$$QAH@Z 1004d241 f i libucrt:openfile.obj
 0001:0004c273       ?__acrt_stdio_parse_mode_D@@YA_NAAU__acrt_stdio_stream_mode@@@Z 1004d273 f i libucrt:openfile.obj
 0001:0004c294       ?__acrt_stdio_parse_mode_N@@YA_NAAU__acrt_stdio_stream_mode@@@Z 1004d294 f i libucrt:openfile.obj
 0001:0004c2aa       ?__acrt_stdio_parse_mode_R@@YA_NAAU__acrt_stdio_stream_mode@@AA_N@Z 1004d2aa f i libucrt:openfile.obj
 0001:0004c2cf       ?__acrt_stdio_parse_mode_S@@YA_NAAU__acrt_stdio_stream_mode@@AA_N@Z 1004d2cf f i libucrt:openfile.obj
 0001:0004c2f4       ?__acrt_stdio_parse_mode_T@@YA_NAAU__acrt_stdio_stream_mode@@@Z 1004d2f4 f i libucrt:openfile.obj
 0001:0004c31a       ?__acrt_stdio_parse_mode_b@@YA_NAAU__acrt_stdio_stream_mode@@@Z 1004d31a f i libucrt:openfile.obj
 0001:0004c342       ?__acrt_stdio_parse_mode_c@@YA_NAAU__acrt_stdio_stream_mode@@AA_N@Z 1004d342 f i libucrt:openfile.obj
 0001:0004c36c       ?__acrt_stdio_parse_mode_n@@YA_NAAU__acrt_stdio_stream_mode@@AA_N@Z 1004d36c f i libucrt:openfile.obj
 0001:0004c396       ?__acrt_stdio_parse_mode_plus@@YA_NAAU__acrt_stdio_stream_mode@@AA_N@Z 1004d396 f i libucrt:openfile.obj
 0001:0004c3d8       ?__acrt_stdio_parse_mode_t@@YA_NAAU__acrt_stdio_stream_mode@@@Z 1004d3d8 f i libucrt:openfile.obj
 0001:0004c400       ?__acrt_stdio_parse_mode_x@@YA_NAAU__acrt_stdio_stream_mode@@@Z 1004d400 f i libucrt:openfile.obj
 0001:0004c428       __openfile                 1004d428 f   libucrt:openfile.obj
 0001:0004c435       __wopenfile                1004d435 f   libucrt:openfile.obj
 0001:0004cb08       __read                     1004db08 f   libucrt:read.obj
 0001:0004cc54       __read_nolock              1004dc54 f   libucrt:read.obj
 0001:0004d0f2       __utf8_no_of_trailbytes    1004e0f2 f i libucrt:read.obj
 0001:0004d611       ___acrt_stdio_refill_and_read_narrow_nolock 1004e611 f   libucrt:_filbuf.obj
 0001:0004d61e       ___acrt_stdio_refill_and_read_wide_nolock 1004e61e f   libucrt:_filbuf.obj
 0001:0004dda0       __write                    1004eda0 f   libucrt:write.obj
 0001:0004dec2       __write_nolock             1004eec2 f   libucrt:write.obj
 0001:0004e604       ___acrt_stdio_flush_and_write_narrow_nolock 1004f604 f   libucrt:_flsbuf.obj
 0001:0004e611       ___acrt_stdio_flush_and_write_wide_nolock 1004f611 f   libucrt:_flsbuf.obj
 0001:0004e6a0       ___acrt_MultiByteToWideChar 1004f6a0 f   libucrt:multibytetowidechar.obj
 0001:0004e73b       __wremove                  1004f73b f   libucrt:wunlink.obj
 0001:0004e76d       __wunlink                  1004f76d f   libucrt:wunlink.obj
 0001:0004ebda       __lseek                    1004fbda f   libucrt:lseek.obj
 0001:0004ebe7       __lseek_nolock             1004fbe7 f   libucrt:lseek.obj
 0001:0004ebf4       __lseeki64                 1004fbf4 f   libucrt:lseek.obj
 0001:0004ec15       __lseeki64_nolock          1004fc15 f   libucrt:lseek.obj
 0001:0004ec36       __chgsign                  1004fc36 f   libucrt:ieeemisc.obj
 0001:0004ec70       __chgsignf                 1004fc70 f   libucrt:ieeemisc.obj
 0001:0004ec9b       __copysign                 1004fc9b f   libucrt:ieeemisc.obj
 0001:0004eccf       __copysignf                1004fccf f   libucrt:ieeemisc.obj
 0001:0004ecf4       __finite                   1004fcf4 f   libucrt:ieeemisc.obj
 0001:0004ed14       __fpclass                  1004fd14 f   libucrt:ieeemisc.obj
 0001:0004ede1       __isnan                    1004fde1 f   libucrt:ieeemisc.obj
 0001:0004ee24       __logb                     1004fe24 f   libucrt:ieeemisc.obj
 0001:0004ef29       __nextafter                1004ff29 f   libucrt:ieeemisc.obj
 0001:0004ef4f       __scalb                    1004ff4f f   libucrt:ieeemisc.obj
 0001:0004ef6f       __add_exp                  1004ff6f f   libucrt:util.obj
 0001:0004efa9       __decomp                   1004ffa9 f   libucrt:util.obj
 0001:0004f0be       __get_exp                  100500be f   libucrt:util.obj
 0001:0004f0dc       __set_bexp                 100500dc f   libucrt:util.obj
 0001:0004f10f       __set_exp                  1005010f f   libucrt:util.obj
 0001:0004f149       __sptype                   10050149 f   libucrt:util.obj
 0001:0004f1be       ___clrfp_sse2              100501be f   libucrt:fpctrl.obj
 0001:0004f1e7       ___ctrlfp_sse2             100501e7 f   libucrt:fpctrl.obj
 0001:0004f230       ___fclrf_sse2              10050230 f   libucrt:fpctrl.obj
 0001:0004f256       ___get_fpsr_sse2           10050256 f   libucrt:fpctrl.obj
 0001:0004f27b       ___set_fpsr_sse2           1005027b f   libucrt:fpctrl.obj
 0001:0004f30e       ___set_statfp_sse2         1005030e f   libucrt:fpctrl.obj
 0001:0004f32f       ___statfp_sse2             1005032f f   libucrt:fpctrl.obj
 0001:0004f349       __clrfp                    10050349 f   libucrt:fpctrl.obj
 0001:0004f360       __ctrlfp                   10050360 f   libucrt:fpctrl.obj
 0001:0004f397       __set_statfp               10050397 f   libucrt:fpctrl.obj
 0001:0004f408       __statfp                   10050408 f   libucrt:fpctrl.obj
 0001:0004f41e       ??$__crt_fast_decode_pointer@P6AHPAU_exception@@@Z@@YAP6AHPAU_exception@@@ZQ6AH0@Z@Z 1005041e f i libucrt:matherr.obj
 0001:0004f439       ??$__crt_fast_encode_pointer@P6AHPAU_exception@@@Z@@YAP6AHPAU_exception@@@ZQ6AH0@Z@Z 10050439 f i libucrt:matherr.obj
 0001:0004f45f       ?initialize@?$dual_state_global@P6AHPAU_exception@@@Z@__crt_state_management@@QAEXQ6AHPAU_exception@@@Z@Z 1005045f f i libucrt:matherr.obj
 0001:0004f48e       ?value@?$dual_state_global@P6AHPAU_exception@@@Z@__crt_state_management@@QAEAAP6AHPAU_exception@@@ZXZ 1005048e f i libucrt:matherr.obj
 0001:0004f491       ___acrt_has_user_matherr   10050491 f   libucrt:matherr.obj
 0001:0004f4af       ___acrt_initialize_user_matherr 100504af f   libucrt:matherr.obj
 0001:0004f4c1       ___acrt_invoke_user_matherr 100504c1 f   libucrt:matherr.obj
 0001:0004f51c       ___setusermatherr          1005051c f   libucrt:matherr.obj
 0001:00050027       ??$find_first_file_ex@ABQADW4_FINDEX_INFO_LEVELS@@PAU_WIN32_FIND_DATAA@@W4_FINDEX_SEARCH_OPS@@$$TH@?$__crt_char_traits@D@@SAPAXABQAD$$QAW4_FINDEX_INFO_LEVELS@@$$QAPAU_WIN32_FIND_DATAA@@$$QAW4_FINDEX_SEARCH_OPS@@$$QA$$T$$QAH@Z 10051027 f i libucrt:argv_wildcards.obj
 0001:0005005f       ??$find_first_file_ex@ABQA_WW4_FINDEX_INFO_LEVELS@@PAU_WIN32_FIND_DATAW@@W4_FINDEX_SEARCH_OPS@@$$TH@?$__crt_char_traits@_W@@SAPAXABQA_W$$QAW4_FINDEX_INFO_LEVELS@@$$QAPAU_WIN32_FIND_DATAW@@$$QAW4_FINDEX_SEARCH_OPS@@$$QA$$T$$QAH@Z 1005105f f i libucrt:argv_wildcards.obj
 0001:00050094       ??$find_next_file@PAXPAU_WIN32_FIND_DATAA@@@?$__crt_char_traits@D@@SAH$$QAPAX$$QAPAU_WIN32_FIND_DATAA@@@Z 10051094 f i libucrt:argv_wildcards.obj
 0001:000500b2       ??$find_next_file@PAXPAU_WIN32_FIND_DATAW@@@?$__crt_char_traits@_W@@SAH$$QAPAX$$QAPAU_WIN32_FIND_DATAW@@@Z 100510b2 f i libucrt:argv_wildcards.obj
 0001:000500ce       ??$tcsncpy_s@AAPADIAAPADABI@?$__crt_char_traits@D@@SAHAAPAD$$QAI0ABI@Z 100510ce f i libucrt:argv_wildcards.obj
 0001:000500f9       ??$tcsncpy_s@AAPA_WIAAPA_WABI@?$__crt_char_traits@_W@@SAHAAPA_W$$QAI0ABI@Z 100510f9 f i libucrt:argv_wildcards.obj
 0001:00050124       ??$tcsncpy_s@PADABIABQBDABI@?$__crt_char_traits@D@@SAH$$QAPADABIABQBD1@Z 10051124 f i libucrt:argv_wildcards.obj
 0001:0005014f       ??$tcsncpy_s@PADIABQBDABI@?$__crt_char_traits@D@@SAH$$QAPAD$$QAIABQBDABI@Z 1005114f f i libucrt:argv_wildcards.obj
 0001:0005017a       ??$tcsncpy_s@PA_WABIABQB_WABI@?$__crt_char_traits@_W@@SAH$$QAPA_WABIABQB_W1@Z 1005117a f i libucrt:argv_wildcards.obj
 0001:000501a5       ??$tcsncpy_s@PA_WIABQB_WABI@?$__crt_char_traits@_W@@SAH$$QAPA_W$$QAIABQB_WABI@Z 100511a5 f i libucrt:argv_wildcards.obj
 0001:000501d0       ??$tcspbrk@AAPADAAY02$$CBD@?$__crt_char_traits@D@@SAPADAAPADAAY02$$CBD@Z 100511d0 f i libucrt:argv_wildcards.obj
 0001:000501eb       ??$tcspbrk@AAPA_WAAY02$$CB_W@?$__crt_char_traits@_W@@SAPA_WAAPA_WAAY02$$CB_W@Z 100511eb f i libucrt:argv_wildcards.obj
 0001:00050206       ??0?$__crt_unique_handle_t@U__crt_findfile_traits@@@@QAE@QAX@Z 10051206 f i libucrt:argv_wildcards.obj
 0001:0005023a       ??1?$__crt_unique_handle_t@U__crt_findfile_traits@@@@QAE@XZ 1005123a f i libucrt:argv_wildcards.obj
 0001:000503e4       ?close@?$__crt_unique_handle_t@U__crt_findfile_traits@@@@QAEXXZ 100513e4 f i libucrt:argv_wildcards.obj
 0001:00050400       ?close@__crt_findfile_traits@@SA_NPAX@Z 10051400 f i libucrt:argv_wildcards.obj
 0001:00050572       ?get@?$__crt_unique_handle_t@U__crt_findfile_traits@@@@QBEPAXXZ 10051572 f i libucrt:argv_wildcards.obj
 0001:00050575       ?get_invalid_value@__crt_findfile_traits@@SAPAXXZ 10051575 f i libucrt:argv_wildcards.obj
 0001:000505ac       ?strpbrk@@YAPADQADQBD@Z    100515ac f i libucrt:argv_wildcards.obj
 0001:000505b9       ?wcspbrk@@YAPA_WPA_WPB_W@Z 100515b9 f i libucrt:argv_wildcards.obj
 0001:000505c6       ___acrt_expand_narrow_argv_wildcards 100515c6 f   libucrt:argv_wildcards.obj
 0001:000505d3       ___acrt_expand_wide_argv_wildcards 100515d3 f   libucrt:argv_wildcards.obj
 0001:00050665       ??$initialize_from_array@$$BY10BAA@E@?$dual_state_global@PAE@__crt_state_management@@QAAXAAY10BAA@E@Z 10051665 f i libucrt:mbctype.obj
 0001:00050677       ??$initialize_from_array@$$BY10BAB@E@?$dual_state_global@PAE@__crt_state_management@@QAAXAAY10BAB@E@Z 10051677 f i libucrt:mbctype.obj
 0001:000507d6       ?dangerous_get_state_array@?$dual_state_global@PAE@__crt_state_management@@QAEPAPAEXZ 100517d6 f i libucrt:mbctype.obj
 0001:000507d9       ?dangerous_get_state_array@?$dual_state_global@PAU__crt_multibyte_data@@@__crt_state_management@@QAEPAPAU__crt_multibyte_data@@XZ 100517d9 f i libucrt:mbctype.obj
 0001:0005086b       ?initialize@?$dual_state_global@PAU__crt_multibyte_data@@@__crt_state_management@@QAEXQAU__crt_multibyte_data@@@Z 1005186b f i libucrt:mbctype.obj
 0001:00050d5a       ?value@?$dual_state_global@PAE@__crt_state_management@@QAEAAPAEXZ 10051d5a f i libucrt:mbctype.obj
 0001:00050d5d       ___acrt_initialize_multibyte 10051d5d f   libucrt:mbctype.obj
 0001:00050db7       ___acrt_update_thread_multibyte_data 10051db7 f   libucrt:mbctype.obj
 0001:00050dce       ___p__mbcasemap            10051dce f   libucrt:mbctype.obj
 0001:00050dd4       ___p__mbctype              10051dd4 f   libucrt:mbctype.obj
 0001:00050dda       __getmbcp                  10051dda f   libucrt:mbctype.obj
 0001:00050e1d       __setmbcp                  10051e1d f   libucrt:mbctype.obj
 0001:00050e43       __setmbcp_nolock           10051e43 f   libucrt:mbctype.obj
 0001:000511cc       __ismbbalnum               100521cc f   libucrt:ismbbyte.obj
 0001:000511ed       __ismbbalnum_l             100521ed f   libucrt:ismbbyte.obj
 0001:00051210       __ismbbalpha               10052210 f   libucrt:ismbbyte.obj
 0001:00051231       __ismbbalpha_l             10052231 f   libucrt:ismbbyte.obj
 0001:00051254       __ismbbblank               10052254 f   libucrt:ismbbyte.obj
 0001:0005127f       __ismbbblank_l             1005227f f   libucrt:ismbbyte.obj
 0001:000512ac       __ismbbgraph               100522ac f   libucrt:ismbbyte.obj
 0001:000512cd       __ismbbgraph_l             100522cd f   libucrt:ismbbyte.obj
 0001:000512f0       __ismbbkalnum              100522f0 f   libucrt:ismbbyte.obj
 0001:0005130e       __ismbbkalnum_l            1005230e f   libucrt:ismbbyte.obj
 0001:0005132d       __ismbbkana                1005232d f   libucrt:ismbbyte.obj
 0001:00051344       __ismbbkana_l              10052344 f   libucrt:ismbbyte.obj
 0001:000513a9       __ismbbkprint              100523a9 f   libucrt:ismbbyte.obj
 0001:000513c7       __ismbbkprint_l            100523c7 f   libucrt:ismbbyte.obj
 0001:000513e6       __ismbbkpunct              100523e6 f   libucrt:ismbbyte.obj
 0001:00051404       __ismbbkpunct_l            10052404 f   libucrt:ismbbyte.obj
 0001:00051423       __ismbblead                10052423 f   libucrt:ismbbyte.obj
 0001:00051441       __ismbblead_l              10052441 f   libucrt:ismbbyte.obj
 0001:00051460       __ismbbprint               10052460 f   libucrt:ismbbyte.obj
 0001:00051481       __ismbbprint_l             10052481 f   libucrt:ismbbyte.obj
 0001:000514a4       __ismbbpunct               100524a4 f   libucrt:ismbbyte.obj
 0001:000514c2       __ismbbpunct_l             100524c2 f   libucrt:ismbbyte.obj
 0001:000514e1       __ismbbtrail               100524e1 f   libucrt:ismbbyte.obj
 0001:000514ff       __ismbbtrail_l             100524ff f   libucrt:ismbbyte.obj
 0001:0005151e       ___acrt_initialize_command_line 1005251e f   libucrt:argv_data.obj
 0001:0005153d       ___acrt_uninitialize_command_line 1005253d f   libucrt:argv_data.obj
 0001:00051540       ___p___argc                10052540 f   libucrt:argv_data.obj
 0001:00051546       ___p___argv                10052546 f   libucrt:argv_data.obj
 0001:0005154c       ___p___wargv               1005254c f   libucrt:argv_data.obj
 0001:00051552       ___p__acmdln               10052552 f   libucrt:argv_data.obj
 0001:00051558       ___p__pgmptr               10052558 f   libucrt:argv_data.obj
 0001:0005155e       ___p__wcmdln               1005255e f   libucrt:argv_data.obj
 0001:00051564       ___p__wpgmptr              10052564 f   libucrt:argv_data.obj
 0001:0005156a       __get_pgmptr               1005256a f   libucrt:argv_data.obj
 0001:000515a7       __get_wpgmptr              100525a7 f   libucrt:argv_data.obj
 0001:00051662       ___acrt_WideCharToMultiByte 10052662 f   libucrt:widechartomultibyte.obj
 0001:000517f4       ___dcrt_get_narrow_environment_from_os 100527f4 f   libucrt:get_environment_from_os.obj
 0001:0005189b       ___dcrt_get_wide_environment_from_os 1005289b f   libucrt:get_environment_from_os.obj
 0001:0005219f       ??$get_or_create_environment_nolock@$$V@?$__crt_char_traits@D@@SAPAPADXZ 1005319f f i libucrt:setenv.obj
 0001:000521a4       ??$get_or_create_environment_nolock@$$V@?$__crt_char_traits@_W@@SAPAPA_WXZ 100531a4 f i libucrt:setenv.obj
 0001:000521a9       ??$set_environment_variable@ABQADQAD@?$__crt_char_traits@D@@SAHABQAD$$QBQAD@Z 100531a9 f i libucrt:setenv.obj
 0001:000521c7       ??$set_environment_variable@ABQA_WQA_W@?$__crt_char_traits@_W@@SAHABQA_W$$QBQA_W@Z 100531c7 f i libucrt:setenv.obj
 0001:000521e3       ??$tcschr@ABQADD@?$__crt_char_traits@D@@SAPADABQAD$$QAD@Z 100531e3 f i libucrt:setenv.obj
 0001:00052203       ??$tcschr@ABQA_WD@?$__crt_char_traits@_W@@SAPA_WABQA_W$$QAD@Z 10053203 f i libucrt:setenv.obj
 0001:00052228       ??$tcscpy_s@AAPADABIAAPAD@?$__crt_char_traits@D@@SAHAAPADABI0@Z 10053228 f i libucrt:setenv.obj
 0001:0005224d       ??$tcscpy_s@AAPA_WABIAAPA_W@?$__crt_char_traits@_W@@SAHAAPA_WABI0@Z 1005324d f i libucrt:setenv.obj
 0001:00052272       ??$tcscpy_s@ABQADABIABQAD@?$__crt_char_traits@D@@SAHABQADABI0@Z 10053272 f i libucrt:setenv.obj
 0001:00052297       ??$tcscpy_s@ABQA_WABIABQA_W@?$__crt_char_traits@_W@@SAHABQA_WABI0@Z 10053297 f i libucrt:setenv.obj
 0001:000522bc       ??$tcsnicoll@ABQBDAAPADABI@?$__crt_char_traits@D@@SAHABQBDAAPADABI@Z 100532bc f i libucrt:setenv.obj
 0001:000522e1       ??$tcsnicoll@ABQB_WAAPA_WABI@?$__crt_char_traits@_W@@SAHABQB_WAAPA_WABI@Z 100532e1 f i libucrt:setenv.obj
 0001:0005232a       ?strchr@@YAPADQADH@Z       1005332a f i libucrt:setenv.obj
 0001:00052337       ?wcschr@@YAPA_WPA_W_W@Z    10053337 f i libucrt:setenv.obj
 0001:00052344       ___dcrt_set_variable_in_narrow_environment_nolock 10053344 f   libucrt:setenv.obj
 0001:00052351       ___dcrt_set_variable_in_wide_environment_nolock 10053351 f   libucrt:setenv.obj
 0001:0005235e       __recalloc                 1005335e f   libucrt:recalloc.obj
 0001:0005236b       __recalloc_base            1005336b f   libucrt:recalloc.obj
 0001:000523f3       ___acrt_getheap            100533f3 f   libucrt:heap_handle.obj
 0001:000523f9       ___acrt_initialize_heap    100533f9 f   libucrt:heap_handle.obj
 0001:0005240e       ___acrt_uninitialize_heap  1005340e f   libucrt:heap_handle.obj
 0001:0005241a       __get_heap_handle          1005341a f   libucrt:heap_handle.obj
 0001:00052420       ___acrt_execute_initializers 10053420 f   libucrt:shared_initialization.obj
 0001:000524c3       ___acrt_execute_uninitializers 100534c3 f   libucrt:shared_initialization.obj
 0001:0005251d       ??$?B$$A6AHI@Z@__crt_fast_encoded_nullptr_t@@QBEP6AHI@ZXZ 1005351d f i libucrt:new_handler.obj
 0001:0005253b       ??$__crt_fast_decode_pointer@P6AHI@Z@@YAP6AHI@ZQ6AHI@Z@Z 1005353b f i libucrt:new_handler.obj
 0001:00052556       ??$__crt_fast_encode_pointer@P6AHI@Z@@YAP6AHI@ZQ6AHI@Z@Z 10053556 f i libucrt:new_handler.obj
 0001:0005257c       ?_set_new_handler@@YAP6AHI@ZH@Z 1005357c f   libucrt:new_handler.obj
 0001:000525a2       ?initialize@?$dual_state_global@P6AHI@Z@__crt_state_management@@QAEXQ6AHI@Z@Z 100535a2 f i libucrt:new_handler.obj
 0001:000525d1       ?value@?$dual_state_global@P6AHI@Z@__crt_state_management@@QAEAAP6AHI@ZXZ 100535d1 f i libucrt:new_handler.obj
 0001:000525d4       ___acrt_initialize_new_handler 100535d4 f   libucrt:new_handler.obj
 0001:000525e6       __callnewh                 100535e6 f   libucrt:new_handler.obj
 0001:0005263b       __query_new_handler        1005363b f   libucrt:new_handler.obj
 0001:000526a1       __set_new_handler          100536a1 f   libucrt:new_handler.obj
 0001:00052719       ?value@?$dual_state_global@J@__crt_state_management@@QAEAAJXZ 10053719 f i libucrt:new_mode.obj
 0001:0005271c       __query_new_mode           1005371c f   libucrt:new_mode.obj
 0001:00052722       __set_new_mode             10053722 f   libucrt:new_mode.obj
 0001:0005275c       ___pctype_func             1005375c f   libucrt:ctype.obj
 0001:0005278b       ___pwctype_func            1005378b f   libucrt:ctype.obj
 0001:00052791       __iswctype_l               10053791 f   libucrt:iswctype.obj
 0001:000527aa       _iswctype                  100537aa f   libucrt:iswctype.obj
 0001:0005282f       __isctype                  1005382f f   libucrt:isctype.obj
 0001:0005286d       __isctype_l                1005386d f   libucrt:isctype.obj
 0001:0005297b       _wcsncmp                   1005397b f   libucrt:wcsncmp.obj
 0001:00052b6f       ___acrt_DownlevelLCIDToLocaleName 10053b6f f   libucrt:lcidtoname_downlevel.obj
 0001:00052c43       ___acrt_DownlevelLocaleNameToLCID 10053c43 f   libucrt:lcidtoname_downlevel.obj
 0001:00052e2a       __commit                   10053e2a f   libucrt:commit.obj
 0001:00052ec8       ??$?RU__crt_lowio_handle_data@@@__crt_internal_free_policy@@QBEXQBU__crt_lowio_handle_data@@@Z 10053ec8 f i libucrt:osfinfo.obj
 0001:00052ede       ??0?$__crt_unique_heap_ptr@U__crt_lowio_handle_data@@U__crt_internal_free_policy@@@@QAE@QAU__crt_lowio_handle_data@@@Z 10053ede f i libucrt:osfinfo.obj
 0001:00052ef2       ??1?$__crt_unique_heap_ptr@U__crt_lowio_handle_data@@U__crt_internal_free_policy@@@@QAE@XZ 10053ef2 f i libucrt:osfinfo.obj
 0001:00052f08       ??B?$__crt_unique_heap_ptr@U__crt_lowio_handle_data@@U__crt_internal_free_policy@@@@QBE_NXZ 10053f08 f i libucrt:osfinfo.obj
 0001:00052f0f       ?detach@?$__crt_unique_heap_ptr@U__crt_lowio_handle_data@@U__crt_internal_free_policy@@@@QAEPAU__crt_lowio_handle_data@@XZ 10053f0f f i libucrt:osfinfo.obj
 0001:00052f15       ?get@?$__crt_unique_heap_ptr@U__crt_lowio_handle_data@@U__crt_internal_free_policy@@@@QBEPAU__crt_lowio_handle_data@@XZ 10053f15 f i libucrt:osfinfo.obj
 0001:00052f18       ?is_valid@?$__crt_unique_heap_ptr@U__crt_lowio_handle_data@@U__crt_internal_free_policy@@@@QBE_NXZ 10053f18 f i libucrt:osfinfo.obj
 0001:00052f1f       ?release@?$__crt_unique_heap_ptr@U__crt_lowio_handle_data@@U__crt_internal_free_policy@@@@QAEXXZ 10053f1f f i libucrt:osfinfo.obj
 0001:00052f35       ___acrt_lowio_create_handle_array 10053f35 f   libucrt:osfinfo.obj
 0001:00052fcd       ___acrt_lowio_destroy_handle_array 10053fcd f   libucrt:osfinfo.obj
 0001:0005300f       ___acrt_lowio_ensure_fh_exists 1005400f f   libucrt:osfinfo.obj
 0001:000530c8       ___acrt_lowio_lock_fh      100540c8 f   libucrt:osfinfo.obj
 0001:000530f3       ___acrt_lowio_set_os_handle 100540f3 f   libucrt:osfinfo.obj
 0001:000531ac       ___acrt_lowio_unlock_fh    100541ac f   libucrt:osfinfo.obj
 0001:000531d7       __alloc_osfhnd             100541d7 f   libucrt:osfinfo.obj
 0001:00053322       __free_osfhnd              10054322 f   libucrt:osfinfo.obj
 0001:000533d7       __get_osfhandle            100543d7 f   libucrt:osfinfo.obj
 0001:0005345b       __open_osfhandle           1005445b f   libucrt:osfinfo.obj
 0001:000535aa       ___iswcsym                 100545aa f i libucrt:_wctype.obj
 0001:000535d9       ___iswcsymf                100545d9 f i libucrt:_wctype.obj
 0001:00053608       __isleadbyte_l             10054608 f i libucrt:_wctype.obj
 0001:0005364f       __iswalnum_l               1005464f f i libucrt:_wctype.obj
 0001:0005366a       __iswalpha_l               1005466a f i libucrt:_wctype.obj
 0001:00053685       __iswblank_l               10054685 f i libucrt:_wctype.obj
 0001:000536a9       __iswcntrl_l               100546a9 f i libucrt:_wctype.obj
 0001:000536c0       __iswcsym_l                100546c0 f i libucrt:_wctype.obj
 0001:000536ef       __iswcsymf_l               100546ef f i libucrt:_wctype.obj
 0001:0005371e       __iswdigit_l               1005471e f i libucrt:_wctype.obj
 0001:00053735       __iswgraph_l               10054735 f i libucrt:_wctype.obj
 0001:00053750       __iswlower_l               10054750 f i libucrt:_wctype.obj
 0001:00053767       __iswprint_l               10054767 f i libucrt:_wctype.obj
 0001:00053782       __iswpunct_l               10054782 f i libucrt:_wctype.obj
 0001:00053799       __iswspace_l               10054799 f i libucrt:_wctype.obj
 0001:000537b0       __iswupper_l               100547b0 f i libucrt:_wctype.obj
 0001:000537c7       __iswxdigit_l              100547c7 f i libucrt:_wctype.obj
 0001:000537e2       _isleadbyte                100547e2 f i libucrt:_wctype.obj
 0001:000537f9       _iswalnum                  100547f9 f i libucrt:_wctype.obj
 0001:00053814       _iswalpha                  10054814 f i libucrt:_wctype.obj
 0001:0005382f       _iswascii                  1005482f f i libucrt:_wctype.obj
 0001:00053848       _iswblank                  10054848 f i libucrt:_wctype.obj
 0001:0005386c       _iswcntrl                  1005486c f i libucrt:_wctype.obj
 0001:00053883       _iswdigit                  10054883 f i libucrt:_wctype.obj
 0001:0005389a       _iswgraph                  1005489a f i libucrt:_wctype.obj
 0001:000538b5       _iswlower                  100548b5 f i libucrt:_wctype.obj
 0001:000538cc       _iswprint                  100548cc f i libucrt:_wctype.obj
 0001:000538e7       _iswpunct                  100548e7 f i libucrt:_wctype.obj
 0001:000538fe       _iswspace                  100548fe f i libucrt:_wctype.obj
 0001:00053915       _iswupper                  10054915 f i libucrt:_wctype.obj
 0001:0005392c       _iswxdigit                 1005492c f i libucrt:_wctype.obj
 0001:00053947       ??0?$__crt_scoped_stack_ptr@_W@@QAE@U?$__crt_scoped_stack_ptr_tag@_W@@@Z 10054947 f i libucrt:lcmapstringa.obj
 0001:0005395b       ??0?$__crt_scoped_stack_ptr_tag@_W@@QAE@QA_W@Z 1005495b f i libucrt:lcmapstringa.obj
 0001:0005396f       ??1?$__crt_scoped_stack_ptr@_W@@QAE@XZ 1005496f f i libucrt:lcmapstringa.obj
 0001:0005397a       ??B?$__crt_scoped_stack_ptr@_W@@QBE_NXZ 1005497a f i libucrt:lcmapstringa.obj
 0001:00053be8       ?get@?$__crt_scoped_stack_ptr@_W@@QBEPA_WXZ 10054be8 f i libucrt:lcmapstringa.obj
 0001:00053beb       __MallocaComputeSize       10054beb f i libucrt:lcmapstringa.obj
 0001:00053c02       __MarkAllocaS              10054c02 f i libucrt:lcmapstringa.obj
 0001:00053c1d       ___acrt_LCMapStringA       10054c1d f   libucrt:lcmapstringa.obj
 0001:00053c7a       __freea_crt                10054c7a f i libucrt:lcmapstringa.obj
 0001:00053cd9       ?__mbrtowc_utf8@__crt_mbstring@@YAIPA_WPBDIPAU_Mbstatet@@@Z 10054cd9 f   libucrt:mbrtowc.obj
 0001:00053d2b       ?__mbsrtowcs_utf8@__crt_mbstring@@YAIPA_WPAPBDIPAU_Mbstatet@@@Z 10054d2b f   libucrt:mbrtowc.obj
 0001:00054248       _btowc                     10055248 f   libucrt:mbrtowc.obj
 0001:000542b8       _mbrlen                    100552b8 f   libucrt:mbrtowc.obj
 0001:000542f9       _mbrtowc                   100552f9 f   libucrt:mbrtowc.obj
 0001:00054360       _mbsrtowcs                 10055360 f   libucrt:mbrtowc.obj
 0001:0005436d       _mbsrtowcs_s               1005536d f   libucrt:mbrtowc.obj
 0001:00054438       ??$?RG@__crt_internal_free_policy@@QBEXQBG@Z 10055438 f i libucrt:initctype.obj
 0001:0005444e       ??$?RJ@__crt_internal_free_policy@@QBEXQBJ@Z 1005544e f i libucrt:initctype.obj
 0001:00054464       ??0?$__crt_unique_heap_ptr@GU__crt_internal_free_policy@@@@QAE@QAG@Z 10055464 f i libucrt:initctype.obj
 0001:00054478       ??0?$__crt_unique_heap_ptr@JU__crt_internal_free_policy@@@@QAE@QAJ@Z 10055478 f i libucrt:initctype.obj
 0001:0005448c       ??1?$__crt_unique_heap_ptr@GU__crt_internal_free_policy@@@@QAE@XZ 1005548c f i libucrt:initctype.obj
 0001:000544a2       ??1?$__crt_unique_heap_ptr@JU__crt_internal_free_policy@@@@QAE@XZ 100554a2 f i libucrt:initctype.obj
 0001:000544b8       ?detach@?$__crt_unique_heap_ptr@GU__crt_internal_free_policy@@@@QAEPAGXZ 100554b8 f i libucrt:initctype.obj
 0001:000544be       ?detach@?$__crt_unique_heap_ptr@JU__crt_internal_free_policy@@@@QAEPAJXZ 100554be f i libucrt:initctype.obj
 0001:000544c4       ?release@?$__crt_unique_heap_ptr@GU__crt_internal_free_policy@@@@QAEXXZ 100554c4 f i libucrt:initctype.obj
 0001:000544da       ?release@?$__crt_unique_heap_ptr@JU__crt_internal_free_policy@@@@QAEXXZ 100554da f i libucrt:initctype.obj
 0001:000544f0       ____lc_codepage_func       100554f0 f   libucrt:initctype.obj
 0001:00054520       ____lc_collate_cp_func     10055520 f   libucrt:initctype.obj
 0001:00054550       ____lc_locale_name_func    10055550 f   libucrt:initctype.obj
 0001:00054583       ____mb_cur_max_func        10055583 f   libucrt:initctype.obj
 0001:000545b3       ____mb_cur_max_l_func      100555b3 f   libucrt:initctype.obj
 0001:000545d2       ___acrt_locale_initialize_ctype 100555d2 f   libucrt:initctype.obj
 0001:00054b13       ___acrt_add_locale_ref     10055b13 f   libucrt:locale_refcounting.obj
 0001:00054baf       ___acrt_free_locale        10055baf f   libucrt:locale_refcounting.obj
 0001:00054d4b       ___acrt_locale_add_lc_time_reference 10055d4b f   libucrt:locale_refcounting.obj
 0001:00054d7e       ___acrt_locale_free_lc_time_if_unreferenced 10055d7e f   libucrt:locale_refcounting.obj
 0001:00054dba       ___acrt_locale_release_lc_time_reference 10055dba f   libucrt:locale_refcounting.obj
 0001:00054ded       ___acrt_release_locale_ref 10055ded f   libucrt:locale_refcounting.obj
 0001:00054e8e       ___acrt_update_thread_locale_data 10055e8e f   libucrt:locale_refcounting.obj
 0001:00054f22       __updatetlocinfoEx_nolock  10055f22 f   libucrt:locale_refcounting.obj
 0001:00054f86       ___acrt_fp_strflt_to_string 10055f86 f   libucrt:_fptostr.obj
 0001:000568a0       ??0big_integer@__crt_strtox@@QAE@ABU01@@Z 100578a0 f i libucrt:cfout.obj
 0001:000568e0       ??0big_integer@__crt_strtox@@QAE@XZ 100578e0 f i libucrt:cfout.obj
 0001:00056940       ??4big_integer@__crt_strtox@@QAEAAU01@ABU01@@Z 10057940 f i libucrt:cfout.obj
 0001:00056980       ??8__crt_strtox@@YA_NABUbig_integer@0@0@Z 10057980 f i libucrt:cfout.obj
 0001:000569d0       ??9__crt_strtox@@YA_NABUbig_integer@0@0@Z 100579d0 f i libucrt:cfout.obj
 0001:00056a20       ?add_carry@__crt_strtox@@YAIAAIII@Z 10057a20 f i libucrt:cfout.obj
 0001:00056a50       ?add_multiply_carry@__crt_strtox@@YAIAAIIII@Z 10057a50 f i libucrt:cfout.obj
 0001:00056a80       ?bit_scan_reverse@__crt_strtox@@YAII@Z 10057a80 f i libucrt:cfout.obj
 0001:00056ab0       ?count_sequential_high_zeroes@__crt_strtox@@YAII@Z 10057ab0 f i libucrt:cfout.obj
 0001:00056ae0       ?divide@__crt_strtox@@YA_KAAUbig_integer@1@ABU21@@Z 10057ae0 f i libucrt:cfout.obj
 0001:00057090       ?is_zero@__crt_strtox@@YA_NABUbig_integer@1@@Z 10058090 f i libucrt:cfout.obj
 0001:000570b0       ?make_big_integer@__crt_strtox@@YA?AUbig_integer@1@_K@Z 100580b0 f i libucrt:cfout.obj
 0001:000570e0       ?make_big_integer_power_of_two@__crt_strtox@@YA?AUbig_integer@1@I@Z 100580e0 f i libucrt:cfout.obj
 0001:00057140       ?multiply@__crt_strtox@@YA_NAAUbig_integer@1@ABU21@@Z 10058140 f i libucrt:cfout.obj
 0001:00057550       ?multiply@__crt_strtox@@YA_NAAUbig_integer@1@I@Z 10058550 f i libucrt:cfout.obj
 0001:00057650       ?multiply_64_32@__crt_strtox@@YA_K_KI@Z 10058650 f i libucrt:cfout.obj
 0001:00057670       ?multiply_by_power_of_ten@__crt_strtox@@YA_NAAUbig_integer@1@I@Z 10058670 f i libucrt:cfout.obj
 0001:00057ce0       ?multiply_core@__crt_strtox@@YAIQAIII@Z 10058ce0 f i libucrt:cfout.obj
 0001:00057d30       ?shift_left@__crt_strtox@@YA_NAAUbig_integer@1@I@Z 10058d30 f i libucrt:cfout.obj
 0001:00057edb       ___acrt_fltout             10058edb f   libucrt:cfout.obj
 0001:000597c6       __isatty                   1005a7c6 f   libucrt:isatty.obj
 0001:00059831       ??$?RUlconv@@@__crt_internal_free_policy@@QBEXQBUlconv@@@Z 1005a831 f i libucrt:initmon.obj
 0001:00059847       ??0?$__crt_unique_heap_ptr@Ulconv@@U__crt_internal_free_policy@@@@QAE@QAUlconv@@@Z 1005a847 f i libucrt:initmon.obj
 0001:0005985b       ??1?$__crt_unique_heap_ptr@Ulconv@@U__crt_internal_free_policy@@@@QAE@XZ 1005a85b f i libucrt:initmon.obj
 0001:00059871       ?detach@?$__crt_unique_heap_ptr@Ulconv@@U__crt_internal_free_policy@@@@QAEPAUlconv@@XZ 1005a871 f i libucrt:initmon.obj
 0001:00059877       ?release@?$__crt_unique_heap_ptr@Ulconv@@U__crt_internal_free_policy@@@@QAEXXZ 1005a877 f i libucrt:initmon.obj
 0001:0005988d       ___acrt_locale_free_monetary 1005a88d f   libucrt:initmon.obj
 0001:000599ca       ___acrt_locale_initialize_monetary 1005a9ca f   libucrt:initmon.obj
 0001:00059eb7       ___acrt_locale_free_numeric 1005aeb7 f   libucrt:initnum.obj
 0001:00059f3a       ___acrt_locale_initialize_numeric 1005af3a f   libucrt:initnum.obj
 0001:0005a215       ??$?RU__crt_lc_time_data@@@__crt_internal_free_policy@@QBEXQBU__crt_lc_time_data@@@Z 1005b215 f i libucrt:inittime.obj
 0001:0005a2b5       ??0?$__crt_unique_heap_ptr@U__crt_lc_time_data@@U__crt_internal_free_policy@@@@QAE@QAU__crt_lc_time_data@@@Z 1005b2b5 f i libucrt:inittime.obj
 0001:0005a2c9       ??1?$__crt_unique_heap_ptr@U__crt_lc_time_data@@U__crt_internal_free_policy@@@@QAE@XZ 1005b2c9 f i libucrt:inittime.obj
 0001:0005a2df       ??B?$__crt_unique_heap_ptr@U__crt_lc_time_data@@U__crt_internal_free_policy@@@@QBE_NXZ 1005b2df f i libucrt:inittime.obj
 0001:0005a2e6       ?detach@?$__crt_unique_heap_ptr@U__crt_lc_time_data@@U__crt_internal_free_policy@@@@QAEPAU__crt_lc_time_data@@XZ 1005b2e6 f i libucrt:inittime.obj
 0001:0005a332       ?get@?$__crt_unique_heap_ptr@U__crt_lc_time_data@@U__crt_internal_free_policy@@@@QBEPAU__crt_lc_time_data@@XZ 1005b332 f i libucrt:inittime.obj
 0001:0005a6cb       ?is_valid@?$__crt_unique_heap_ptr@U__crt_lc_time_data@@U__crt_internal_free_policy@@@@QBE_NXZ 1005b6cb f i libucrt:inittime.obj
 0001:0005a6d2       ?release@?$__crt_unique_heap_ptr@U__crt_lc_time_data@@U__crt_internal_free_policy@@@@QAEXXZ 1005b6d2 f i libucrt:inittime.obj
 0001:0005a6e8       ___acrt_locale_free_time   1005b6e8 f   libucrt:inittime.obj
 0001:0005a805       ___acrt_locale_initialize_time 1005b805 f   libucrt:inittime.obj
 0001:0005a99d       _wcsncpy_s                 1005b99d f   libucrt:wcsncpy_s.obj
 0001:0005a9aa       _wcscspn                   1005b9aa f   libucrt:wcscspn.obj
 0001:0005aa1b       _wcspbrk                   1005ba1b f   libucrt:wcspbrk.obj
 0001:0005aa7c       __wcsicmp                  1005ba7c f   libucrt:wcsicmp.obj
 0001:0005ab2d       __wcsicmp_l                1005bb2d f   libucrt:wcsicmp.obj
 0001:0005ac41       ___acrt_GetStringTypeA     1005bc41 f   libucrt:getstringtypea.obj
 0001:0005b6b6       ___acrt_get_qualified_locale 1005c6b6 f   libucrt:get_qualified_locale.obj
 0001:0005c2a4       ___acrt_get_qualified_locale_downlevel 1005d2a4 f   libucrt:getqloc_downlevel.obj
 0001:0005c518       _localeconv                1005d518 f   libucrt:localeconv.obj
 0001:0005c75a       __mbstowcs_l               1005d75a f   libucrt:mbstowcs.obj
 0001:0005c767       __mbstowcs_s_l             1005d767 f   libucrt:mbstowcs.obj
 0001:0005c881       _mbstowcs                  1005d881 f   libucrt:mbstowcs.obj
 0001:0005c8b5       _mbstowcs_s                1005d8b5 f   libucrt:mbstowcs.obj
 0001:0005c8dd       ___acrt_OutputDebugStringA@4 1005d8dd f   libucrt:outputdebugstringa.obj
 0001:0005c96a       __wcsnicmp                 1005d96a f   libucrt:wcsnicmp.obj
 0001:0005ca47       __wcsnicmp_l               1005da47 f   libucrt:wcsnicmp.obj
 0001:0005cb90       _strncmp                   1005db90 f   libucrt:strncmp.obj
 0001:0005cc26       __strnicmp                 1005dc26 f   libucrt:strnicmp.obj
 0001:0005ccae       __strnicmp_l               1005dcae f   libucrt:strnicmp.obj
 0001:0005ce37       ??$__vcrt_va_start_verify_argument_type@$$CBH@@YAXXZ 1005de37 f i libucrt:open.obj
 0001:0005d1a8       ??$tsopen_nolock@PAHABQAHABQBDABHABHABHABH@?$__crt_char_traits@D@@SAH$$QAPAHABQAHABQBDABH333@Z 1005e1a8 f i libucrt:open.obj
 0001:0005d1e6       ??$tsopen_nolock@PAHABQAHABQB_WABHABHABHABH@?$__crt_char_traits@_W@@SAH$$QAPAHABQAHABQB_WABH333@Z 1005e1e6 f i libucrt:open.obj
 0001:0005d224       ??$tsopen_nolock@PAHPAHABQBDABHHABHH@?$__crt_char_traits@D@@SAH$$QAPAH0ABQBDABH$$QAH23@Z 1005e224 f i libucrt:open.obj
 0001:0005d262       ??$tsopen_nolock@PAHPAHABQB_WABHHABHH@?$__crt_char_traits@_W@@SAH$$QAPAH0ABQB_WABH$$QAH23@Z 1005e262 f i libucrt:open.obj
 0001:0005da54       __open                     1005ea54 f   libucrt:open.obj
 0001:0005da72       __sopen                    1005ea72 f   libucrt:open.obj
 0001:0005dab4       __sopen_dispatch           1005eab4 f   libucrt:open.obj
 0001:0005dac1       __sopen_nolock             1005eac1 f   libucrt:open.obj
 0001:0005db4d       __sopen_s                  1005eb4d f   libucrt:open.obj
 0001:0005db75       __wopen                    1005eb75 f   libucrt:open.obj
 0001:0005db93       __wsopen                   1005eb93 f   libucrt:open.obj
 0001:0005dbd5       __wsopen_dispatch          1005ebd5 f   libucrt:open.obj
 0001:0005dbe2       __wsopen_nolock            1005ebe2 f   libucrt:open.obj
 0001:0005dfd9       __wsopen_s                 1005efd9 f   libucrt:open.obj
 0001:0005e001       ___p__commode              1005f001 f   libucrt:ncommode.obj
 0001:0005e007       ___acrt_stdio_allocate_buffer_nolock 1005f007 f   libucrt:_getbuf.obj
 0001:0005e183       __putwch                   1005f183 f   libucrt:putwch.obj
 0001:0005e1bd       __putwch_nolock            1005f1bd f   libucrt:putwch.obj
 0001:0005e1fe       _nextafter                 1005f1fe f   libucrt:nextafter.obj
 0001:0005e340       _qsort                     1005f340 f   libucrt:qsort.obj
 0001:0005e971       _strncpy_s                 1005f971 f   libucrt:strncpy_s.obj
 0001:0005e980       _strpbrk                   1005f980 f   libucrt:strpbrk.obj
 0001:0005e9d0       ??$__acrt_convert_wcs_mbs@D_W$$A6AIPA_WPBDIPAU__crt_locale_pointers@@@ZU__crt_win32_buffer_internal_dynamic_resizing@@@@YAHQBDAAV?$__crt_win32_buffer@_WU__crt_win32_buffer_internal_dynamic_resizing@@@@A6AIPA_WPBDIPAU__crt_locale_pointers@@@Z4@Z 1005f9d0 f i libucrt:findfirstfileexa.obj
 0001:0005ea99       ??$__acrt_mbs_to_wcs@U__crt_win32_buffer_internal_dynamic_resizing@@@@YAHQBDAAV?$__crt_win32_buffer@_WU__crt_win32_buffer_internal_dynamic_resizing@@@@PAU__crt_locale_pointers@@@Z 1005fa99 f i libucrt:findfirstfileexa.obj
 0001:0005eabd       ?set_to_nullptr@?$__crt_win32_buffer@_WU__crt_win32_buffer_internal_dynamic_resizing@@@@QAEXXZ 1005fabd f i libucrt:findfirstfileexa.obj
 0001:0005ead9       ___acrt_FindFirstFileExA   1005fad9 f   libucrt:findfirstfileexa.obj
 0001:0005eb58       ??$?0$0BAE@@?$__crt_win32_buffer@DU__crt_win32_buffer_no_resizing@@@@QAE@AAY0BAE@D@Z 1005fb58 f i libucrt:findnextfilea.obj
 0001:0005eb87       ??$?0$0O@@?$__crt_win32_buffer@DU__crt_win32_buffer_no_resizing@@@@QAE@AAY0O@D@Z 1005fb87 f i libucrt:findnextfilea.obj
 0001:0005ebb4       ??$__acrt_convert_wcs_mbs@_WD$$A6AIPADPB_WIPAU__crt_locale_pointers@@@ZU__crt_win32_buffer_no_resizing@@@@YAHQB_WAAV?$__crt_win32_buffer@DU__crt_win32_buffer_no_resizing@@@@A6AIPADPB_WIPAU__crt_locale_pointers@@@Z4@Z 1005fbb4 f i libucrt:findnextfilea.obj
 0001:0005ec7e       ??$__acrt_wcs_to_mbs@U__crt_win32_buffer_no_resizing@@@@YAHQB_WAAV?$__crt_win32_buffer@DU__crt_win32_buffer_no_resizing@@@@PAU__crt_locale_pointers@@@Z 1005fc7e f i libucrt:findnextfilea.obj
 0001:0005eca2       ??1?$__crt_win32_buffer@DU__crt_win32_buffer_no_resizing@@@@QAE@XZ 1005fca2 f i libucrt:findnextfilea.obj
 0001:0005ecaf       ?_deallocate@?$__crt_win32_buffer@DU__crt_win32_buffer_no_resizing@@@@AAEXXZ 1005fcaf f i libucrt:findnextfilea.obj
 0001:0005ecbc       ?allocate@?$__crt_win32_buffer@DU__crt_win32_buffer_no_resizing@@@@QAEHI@Z 1005fcbc f i libucrt:findnextfilea.obj
 0001:0005ecec       ?allocate@__crt_win32_buffer_no_resizing@@SAHQAPAXIABV__crt_win32_buffer_empty_debug_info@@@Z 1005fcec f i libucrt:findnextfilea.obj
 0001:0005ecfc       ?capacity@?$__crt_win32_buffer@DU__crt_win32_buffer_no_resizing@@@@QBEIXZ 1005fcfc f i libucrt:findnextfilea.obj
 0001:0005ed00       ?data@?$__crt_win32_buffer@DU__crt_win32_buffer_no_resizing@@@@QAEPADXZ 1005fd00 f i libucrt:findnextfilea.obj
 0001:0005ed04       ?deallocate@__crt_win32_buffer_no_resizing@@SAXQAXABV__crt_win32_buffer_empty_debug_info@@@Z 1005fd04 f i libucrt:findnextfilea.obj
 0001:0005ed05       ?debug_info@?$__crt_win32_buffer@DU__crt_win32_buffer_no_resizing@@@@QBEABV__crt_win32_buffer_empty_debug_info@@XZ 1005fd05 f i libucrt:findnextfilea.obj
 0001:0005ed08       ?set_to_nullptr@?$__crt_win32_buffer@DU__crt_win32_buffer_no_resizing@@@@QAEXXZ 1005fd08 f i libucrt:findnextfilea.obj
 0001:0005ed21       ?size@?$__crt_win32_buffer@DU__crt_win32_buffer_no_resizing@@@@QAEXI@Z 1005fd21 f i libucrt:findnextfilea.obj
 0001:0005ed33       ___acrt_FindNextFileA      1005fd33 f   libucrt:findnextfilea.obj
 0001:0005eec4       __mbsdec                   1005fec4 f   libucrt:mbsdec.obj
 0001:0005eee0       __mbsdec_l                 1005fee0 f   libucrt:mbsdec.obj
 0001:0005efa4       __wcsnicoll                1005ffa4 f   libucrt:wcsnicol.obj
 0001:0005f09c       __wcsnicoll_l              1006009c f   libucrt:wcsnicol.obj
 0001:0005f201       __strnicoll                10060201 f   libucrt:strnicol.obj
 0001:0005f234       __strnicoll_l              10060234 f   libucrt:strnicol.obj
 0001:0005f330       ___acrt_SetEnvironmentVariableA 10060330 f   libucrt:setenvironmentvariablea.obj
 0001:0005f3ff       __msize                    100603ff f   libucrt:msize.obj
 0001:0005f40c       __msize_base               1006040c f   libucrt:msize.obj
 0001:0005f44b       ___acrt_GetStringTypeW     1006044b f   libucrt:getstringtypew.obj
 0001:0005f46a       ___strncnt                 1006046a f   libucrt:strncnt.obj
 0001:0005f48d       ?__mbrtoc32_utf8@__crt_mbstring@@YAIPA_UPBDIPAU_Mbstatet@@@Z 1006048d f   libucrt:mbrtoc32.obj
 0001:0005f6ae       ?reset_and_return@__crt_mbstring@@YAIIPAU_Mbstatet@@@Z 100606ae f i libucrt:mbrtoc32.obj
 0001:0005f6c7       ?return_illegal_sequence@__crt_mbstring@@YAIPAU_Mbstatet@@@Z 100606c7 f i libucrt:mbrtoc32.obj
 0001:0005f6ed       _mbrtoc32                  100606ed f   libucrt:mbrtoc32.obj
 0001:0005f813       ___acrt_GetLocaleInfoA     10060813 f   libucrt:getlocaleinfoa.obj
 0001:0005fa31       _fegetenv                  10060a31 f   libucrt:fegetenv.obj
 0001:0005fa55       _fesetenv                  10060a55 f   libucrt:fesetenv.obj
 0001:0005fab5       _feholdexcept              10060ab5 f   libucrt:feholdexcept.obj
 0001:0005fb20       __CIlog10                  10060b20 f   libucrt:log10_impl.obj
 0001:0005fb5b       __CIlog10_default          10060b5b f   libucrt:log10_impl.obj
 0001:0005fb6f       __log10_default            10060b6f     libucrt:log10_impl.obj
 0001:0005fc80       _ceil                      10060c80 f   libucrt:ceil_pentium4.obj
 0001:0005fcc0       __ceil_pentium4            10060cc0 f   libucrt:ceil_pentium4.obj
 0001:0005fde4       __towlower_l               10060de4 f   libucrt:towlower.obj
 0001:0005fedf       _towlower                  10060edf f   libucrt:towlower.obj
 0001:0005ff00       ___ascii_strnicmp          10060f00 f   libucrt:_strnicm.obj
 0001:0005ff79       ??$__crt_interlocked_read@H@@YAHPDH@Z 10060f79 f i libucrt:setmode.obj
 0001:0005ff88       ?value@?$dual_state_global@H@__crt_state_management@@QAEAAHXZ 10060f88 f i libucrt:setmode.obj
 0001:0005ff8b       __get_fmode                10060f8b f   libucrt:setmode.obj
 0001:0005ffc2       __set_fmode                10060fc2 f   libucrt:setmode.obj
 0001:0006000e       __setmode                  1006100e f   libucrt:setmode.obj
 0001:00060156       __setmode_nolock           10061156 f   libucrt:setmode.obj
 0001:000603e7       __chsize                   100613e7 f   libucrt:chsize.obj
 0001:0006040a       __chsize_nolock            1006140a f   libucrt:chsize.obj
 0001:000605ff       __chsize_s                 100615ff f   libucrt:chsize.obj
 0001:000606d7       __umask                    100616d7 f   libucrt:umask.obj
 0001:00060705       __umask_s                  10061705 f   libucrt:umask.obj
 0001:00060828       ___dcrt_lowio_ensure_console_output_initialized 10061828 f   libucrt:initcon.obj
 0001:0006084e       ___dcrt_terminate_console_output 1006184e f   libucrt:initcon.obj
 0001:0006086a       ___dcrt_write_console      1006186a f   libucrt:initcon.obj
 0001:000608d4       _nexttoward                100618d4 f   libucrt:nexttoward.obj
 0001:00060e1c       __wcstombs_l               10061e1c f   libucrt:wcstombs.obj
 0001:00060e29       __wcstombs_s_l             10061e29 f   libucrt:wcstombs.obj
 0001:00060f29       _wcstombs                  10061f29 f   libucrt:wcstombs.obj
 0001:00060f49       _wcstombs_s                10061f49 f   libucrt:wcstombs.obj
 0001:00060f71       ___acrt_CompareStringW     10061f71 f   libucrt:comparestringw.obj
 0001:00061308       ___acrt_CompareStringA     10062308 f   libucrt:comparestringa.obj
 0001:00061362       ??$__acrt_fenv_shift_bits@W4__acrt_fenv_abstract_control@@@@YA?AW4__acrt_fenv_abstract_control@@W40@0I@Z 10062362 f i libucrt:_fenvutils.obj
 0001:00061378       ??$__acrt_fenv_shift_bits@W4__acrt_fenv_abstract_status@@@@YA?AW4__acrt_fenv_abstract_status@@W40@0I@Z 10062378 f i libucrt:_fenvutils.obj
 0001:0006138e       ??$__acrt_fenv_translate_bit@W4__acrt_fenv_abstract_control@@W4__acrt_fenv_machine_sse_control@@@@YA?AW4__acrt_fenv_abstract_control@@W4__acrt_fenv_machine_sse_control@@0W40@1@Z 1006238e f i libucrt:_fenvutils.obj
 0001:000613ac       ??$__acrt_fenv_translate_bit@W4__acrt_fenv_abstract_control@@W4__acrt_fenv_machine_x87_control@@@@YA?AW4__acrt_fenv_abstract_control@@W4__acrt_fenv_machine_x87_control@@0W40@1@Z 100623ac f i libucrt:_fenvutils.obj
 0001:000613ca       ??$__acrt_fenv_translate_bit@W4__acrt_fenv_abstract_status@@W4__acrt_fenv_machine_sse_status@@@@YA?AW4__acrt_fenv_abstract_status@@W4__acrt_fenv_machine_sse_status@@0W40@1@Z 100623ca f i libucrt:_fenvutils.obj
 0001:000613e4       ??$__acrt_fenv_translate_bit@W4__acrt_fenv_abstract_status@@W4__acrt_fenv_machine_x87_status@@@@YA?AW4__acrt_fenv_abstract_status@@W4__acrt_fenv_machine_x87_status@@0W40@1@Z 100623e4 f i libucrt:_fenvutils.obj
 0001:000613fe       ??$__acrt_fenv_translate_bit@W4__acrt_fenv_machine_sse_control@@W4__acrt_fenv_abstract_control@@@@YA?AW4__acrt_fenv_machine_sse_control@@W4__acrt_fenv_abstract_control@@0W40@1@Z 100623fe f i libucrt:_fenvutils.obj
 0001:0006141a       ??$__acrt_fenv_translate_bit@W4__acrt_fenv_machine_sse_status@@W4__acrt_fenv_abstract_status@@@@YA?AW4__acrt_fenv_machine_sse_status@@W4__acrt_fenv_abstract_status@@0W40@1@Z 1006241a f i libucrt:_fenvutils.obj
 0001:00061434       ??$__acrt_fenv_translate_bit@W4__acrt_fenv_machine_x87_control@@W4__acrt_fenv_abstract_control@@@@YA?AW4__acrt_fenv_machine_x87_control@@W4__acrt_fenv_abstract_control@@0W40@1@Z 10062434 f i libucrt:_fenvutils.obj
 0001:00061450       ??$__acrt_fenv_translate_bit@W4__acrt_fenv_machine_x87_status@@W4__acrt_fenv_abstract_status@@@@YA?AW4__acrt_fenv_machine_x87_status@@W4__acrt_fenv_abstract_status@@0W40@1@Z 10062450 f i libucrt:_fenvutils.obj
 0001:0006146a       ??$__acrt_fenv_unshift_bits@W4__acrt_fenv_abstract_control@@@@YA?AW4__acrt_fenv_abstract_control@@W40@0I@Z 1006246a f i libucrt:_fenvutils.obj
 0001:00061480       ??$__acrt_fenv_unshift_bits@W4__acrt_fenv_abstract_status@@@@YA?AW4__acrt_fenv_abstract_status@@W40@0I@Z 10062480 f i libucrt:_fenvutils.obj
 0001:00061aab       ??I@YA?AW4__acrt_fenv_abstract_control@@W40@0@Z 10062aab f i libucrt:_fenvutils.obj
 0001:00061abb       ??I@YA?AW4__acrt_fenv_abstract_status@@W40@0@Z 10062abb f i libucrt:_fenvutils.obj
 0001:00061acb       ??I@YA?AW4__acrt_fenv_machine_sse_control@@W40@0@Z 10062acb f i libucrt:_fenvutils.obj
 0001:00061adb       ??I@YA?AW4__acrt_fenv_machine_sse_status@@W40@0@Z 10062adb f i libucrt:_fenvutils.obj
 0001:00061aeb       ??I@YA?AW4__acrt_fenv_machine_x87_control@@W40@0@Z 10062aeb f i libucrt:_fenvutils.obj
 0001:00061afb       ??I@YA?AW4__acrt_fenv_machine_x87_status@@W40@0@Z 10062afb f i libucrt:_fenvutils.obj
 0001:00061b0b       ??U@YA?AW4__acrt_fenv_abstract_control@@W40@0@Z 10062b0b f i libucrt:_fenvutils.obj
 0001:00061b1b       ??U@YA?AW4__acrt_fenv_abstract_status@@W40@0@Z 10062b1b f i libucrt:_fenvutils.obj
 0001:00061b2b       ??U@YA?AW4__acrt_fenv_machine_sse_control@@W40@0@Z 10062b2b f i libucrt:_fenvutils.obj
 0001:00061b3b       ??U@YA?AW4__acrt_fenv_machine_x87_control@@W40@0@Z 10062b3b f i libucrt:_fenvutils.obj
 0001:00061b4b       ??_5@YAAAW4__acrt_fenv_abstract_control@@AAW40@W40@@Z 10062b4b f i libucrt:_fenvutils.obj
 0001:00061b5d       ??_5@YAAAW4__acrt_fenv_abstract_status@@AAW40@W40@@Z 10062b5d f i libucrt:_fenvutils.obj
 0001:00061b6f       ??_5@YAAAW4__acrt_fenv_machine_sse_control@@AAW40@W40@@Z 10062b6f f i libucrt:_fenvutils.obj
 0001:00061b84       ??_5@YAAAW4__acrt_fenv_machine_sse_status@@AAW40@W40@@Z 10062b84 f i libucrt:_fenvutils.obj
 0001:00061b96       ??_5@YAAAW4__acrt_fenv_machine_x87_control@@AAW40@W40@@Z 10062b96 f i libucrt:_fenvutils.obj
 0001:00061bab       ??_5@YAAAW4__acrt_fenv_machine_x87_status@@AAW40@W40@@Z 10062bab f i libucrt:_fenvutils.obj
 0001:00061bbd       ?__acrt_fenv_shift_abstract_sse_control@@YA?AW4__acrt_fenv_abstract_control@@W41@@Z 10062bbd f i libucrt:_fenvutils.obj
 0001:00061be1       ?__acrt_fenv_shift_abstract_sse_status@@YA?AW4__acrt_fenv_abstract_status@@W41@@Z 10062be1 f i libucrt:_fenvutils.obj
 0001:00061bf5       ?__acrt_fenv_shift_abstract_x87_control@@YA?AW4__acrt_fenv_abstract_control@@W41@@Z 10062bf5 f i libucrt:_fenvutils.obj
 0001:00061c19       ?__acrt_fenv_shift_abstract_x87_status@@YA?AW4__acrt_fenv_abstract_status@@W41@@Z 10062c19 f i libucrt:_fenvutils.obj
 0001:00061c2d       ?__acrt_fenv_unshift_abstract_sse_control@@YA?AW4__acrt_fenv_abstract_control@@W41@@Z 10062c2d f i libucrt:_fenvutils.obj
 0001:00061c53       ?__acrt_fenv_unshift_abstract_sse_status@@YA?AW4__acrt_fenv_abstract_status@@W41@@Z 10062c53 f i libucrt:_fenvutils.obj
 0001:00061c67       ?__acrt_fenv_unshift_abstract_x87_control@@YA?AW4__acrt_fenv_abstract_control@@W41@@Z 10062c67 f i libucrt:_fenvutils.obj
 0001:00061c8d       ?__acrt_fenv_unshift_abstract_x87_status@@YA?AW4__acrt_fenv_abstract_status@@W41@@Z 10062c8d f i libucrt:_fenvutils.obj
 0001:00062344       ___acrt_fenv_expand_round_control 10063344 f   libucrt:_fenvutils.obj
 0001:00062387       ___acrt_fenv_get_common_round_control 10063387 f   libucrt:_fenvutils.obj
 0001:000623b1       ___acrt_fenv_get_control   100633b1 f   libucrt:_fenvutils.obj
 0001:00062453       ___acrt_fenv_get_fp_status_word_from_exception_mask 10063453 f   libucrt:_fenvutils.obj
 0001:00062473       ___acrt_fenv_get_status    10063473 f   libucrt:_fenvutils.obj
 0001:00062565       ___acrt_fenv_set_control   10063565 f   libucrt:_fenvutils.obj
 0001:000625e9       ___acrt_fenv_set_status    100635e9 f   libucrt:_fenvutils.obj
 0001:000628b5       ___control87_2             100638b5 f   libucrt:ieee87.obj
 0001:00062e81       ___fpreset_sse2            10063e81 f   libucrt:ieee87.obj
 0001:000630ca       __clearfp                  100640ca f   libucrt:ieee87.obj
 0001:000631e2       __control87                100641e2 f   libucrt:ieee87.obj
 0001:000635a0       __controlfp                100645a0 f   libucrt:ieee87.obj
 0001:000635c0       __fpreset                  100645c0 f   libucrt:ieee87.obj
 0001:000636c3       __set_controlfp            100646c3 f   libucrt:ieee87.obj
 0001:00063759       __statusfp                 10064759 f   libucrt:ieee87.obj
 0001:0006381d       __statusfp2                1006481d f   libucrt:ieee87.obj
 0001:0006389b       ___acrt_initialize_sse2    1006489b f   libucrt:mathfcns.obj
 0001:000638af       __set_SSE2_enable          100648af f   libucrt:mathfcns.obj
 0001:000638e0       __CIlog10_pentium4         100648e0 f   libucrt:log10_pentium4.obj
 0001:000638f8       __log10_pentium4           100648f8     libucrt:log10_pentium4.obj
 0001:00063c40       __fFEXP                    10064c40 f   libucrt:87tran.obj
 0001:00063c97       __rtinfpopse               10064c97     libucrt:87tran.obj
 0001:00063c99       __rtinfnpopse              10064c99     libucrt:87tran.obj
 0001:00063ca9       __fFLN                     10064ca9     libucrt:87tran.obj
 0001:00063d5e       __rtinfpop                 10064d5e     libucrt:87tran.obj
 0001:00063d60       __rtinfnpop                10064d60     libucrt:87tran.obj
 0001:00063d70       __rtforexpinf              10064d70 f   libucrt:87tran.obj
 0001:00063d7d       __ffexpm1                  10064d7d     libucrt:87tran.obj
 0001:00063eb0       __trandisp1                10064eb0 f   libucrt:87disp.obj
 0001:00063f25       __trandisp2                10064f25 f   libucrt:87disp.obj
 0001:00063fbf       __rttospopde               10064fbf     libucrt:87disp.obj
 0001:00063fc4       __rttospop                 10064fc4     libucrt:87disp.obj
 0001:00063fd0       __rtnospop                 10064fd0 f   libucrt:87disp.obj
 0001:00063fe0       __rttosnpop                10064fe0 f   libucrt:87disp.obj
 0001:00063fe1       __rtnospopde               10064fe1     libucrt:87disp.obj
 0001:00063fe8       __rtzeropop                10064fe8     libucrt:87disp.obj
 0001:00063fea       __rtzeronpop               10064fea     libucrt:87disp.obj
 0001:00063ff0       __rtzerospop               10064ff0 f   libucrt:87disp.obj
 0001:00063ffd       __rtonepop                 10064ffd     libucrt:87disp.obj
 0001:00064000       __rtonenpop                10065000 f   libucrt:87disp.obj
 0001:00064010       __tosnan1                  10065010 f   libucrt:87disp.obj
 0001:00064040       __nosnan2                  10065040 f   libucrt:87disp.obj
 0001:00064050       __tosnan2                  10065050 f   libucrt:87disp.obj
 0001:00064080       __nan2                     10065080 f   libucrt:87disp.obj
 0001:000640c0       __rtindfpop                100650c0 f   libucrt:87disp.obj
 0001:000640c2       __rtindfnpop               100650c2     libucrt:87disp.obj
 0001:000640d3       __rttosnpopde              100650d3     libucrt:87disp.obj
 0001:000640e0       __rtatan2inf               100650e0 f   libucrt:87disp.obj
 0001:000640fd       __rtchsifneg               100650fd     libucrt:87disp.obj
 0001:00064199       ___setfflag                10065199 f   libucrt:fp_flags.obj
 0001:000641c0       __twoToTOS                 100651c0 f   libucrt:common.obj
 0001:000641d5       __load_CW                  100651d5 f   libucrt:common.obj
 0001:000641ec       __convertTOStoQNaN         100651ec f   libucrt:common.obj
 0001:00064205       __fload_withFB             10065205 f   libucrt:common.obj
 0001:00064248       __checkTOS_withFB          10065248 f   libucrt:common.obj
 0001:0006425e       __fast_exit                1006525e f   libucrt:common.obj
 0001:0006426b       __math_exit                1006526b f   libucrt:common.obj
 0001:00064295       __check_overflow_exit      10065295 f   libucrt:common.obj
 0001:000642a9       __check_range_exit         100652a9 f   libucrt:common.obj
 0001:000643b0       __startTwoArgErrorHandling 100653b0 f   libucrt:genexcep.obj
 0001:000643c7       __startOneArgErrorHandling 100653c7 f   libucrt:genexcep.obj
 0001:00064417       ___libm_error_support      10065417 f   libucrt:libm_error.obj
 0001:000646b5       ___libm_setusermatherr     100656b5 f   libucrt:libm_error.obj
 0001:000646e5       __ceil_default             100656e5 f   libucrt:ceil.obj
 0001:000647cc       ___acrt_LCMapStringW       100657cc f   libucrt:lcmapstringw.obj
 0001:00064819       ___p__fmode                10065819 f   libucrt:txtmode.obj
 0001:000648b5       __d_int                    100658b5 f   libucrt:_test.obj
 0001:000649ff       __dtest                    100659ff f   libucrt:_test.obj
 0001:00064a7c       __fd_int                   10065a7c f   libucrt:_test.obj
 0001:00064b7e       __fdtest                   10065b7e f   libucrt:_test.obj
 0001:00064bdf       __fperrraise               10065bdf f   libucrt:_test.obj
 0001:00064c0a       __ld_int                   10065c0a f   libucrt:_test.obj
 0001:00064c17       __ldtest                   10065c17 f   libucrt:_test.obj
 0001:00064c24       ?__wcsrtombs_utf8@__crt_mbstring@@YAIPADPAPB_WIPAU_Mbstatet@@@Z 10065c24 f   libucrt:wcrtomb.obj
 0001:000650ce       _wcrtomb                   100660ce f   libucrt:wcrtomb.obj
 0001:0006510b       _wcrtomb_s                 1006610b f   libucrt:wcrtomb.obj
 0001:000651a2       _wcsrtombs                 100661a2 f   libucrt:wcrtomb.obj
 0001:000651af       _wcsrtombs_s               100661af f   libucrt:wcrtomb.obj
 0001:0006526e       _wctob                     1006626e f   libucrt:wcrtomb.obj
 0001:000652e2       __controlfp_s              100662e2 f   libucrt:contrlfp.obj
 0001:00065358       __d_inttype                10066358 f   libucrt:powhlp.obj
 0001:000653dc       __powhlp                   100663dc f   libucrt:powhlp.obj
 0001:00065551       __87except                 10066551 f   libucrt:87except.obj
 0001:0006569d       __frnd                     1006669d f   libucrt:frnd.obj
 0001:000656b8       ??_4@YAAAW4__acrt_fenv_abstract_status@@AAW40@W40@@Z 100666b8 f i libucrt:fegetexceptflag.obj
 0001:000656ca       _fegetexceptflag           100666ca f   libucrt:fegetexceptflag.obj
 0001:00065707       ??S@YA?AW4__acrt_fenv_abstract_status@@W40@@Z 10066707 f i libucrt:fesetexceptflag.obj
 0001:00065716       _fesetexceptflag           10066716 f   libucrt:fesetexceptflag.obj
 0001:00065785       ?__c16rtomb_utf8@__crt_mbstring@@YAIPAD_SPAU_Mbstatet@@@Z 10066785 f   libucrt:c16rtomb.obj
 0001:000658dd       _c16rtomb                  100668dd f   libucrt:c16rtomb.obj
 0001:000658ea       _fetestexcept              100668ea f   libucrt:fetestexcept.obj
 0001:00065914       ?__c32rtomb_utf8@__crt_mbstring@@YAIPAD_UPAU_Mbstatet@@@Z 10066914 f   libucrt:c32rtomb.obj
 0001:000659ee       _c32rtomb                  100669ee f   libucrt:c32rtomb.obj
 0001:00065a00       __FindPESection            10066a00 f   LIBCMT:pesect.obj
 0001:00065a60       __IsNonwritableInCurrentImage 10066a60 f   LIBCMT:pesect.obj
 0001:00065b50       __ValidateImageBase        10066b50 f   LIBCMT:pesect.obj
 0001:00065b90       __aulldvrm                 10066b90 f   LIBCMT:ulldvrm.obj
 0001:00065c4a       ??1type_info@@UAE@XZ       10066c4a f   LIBCMT:std_type_info_static.obj
 0001:00065c51       ??_Etype_info@@UAEPAXI@Z   10066c51 f i LIBCMT:std_type_info_static.obj
 0001:00065c51       ??_Gtype_info@@UAEPAXI@Z   10066c51 f i LIBCMT:std_type_info_static.obj
 0001:00065c80       __SEH_prolog4_GS           10066c80 f   LIBCMT:_sehprolg4gs_.obj
 0001:00065cc9       __SEH_epilog4_GS           10066cc9 f   LIBCMT:_sehprolg4gs_.obj
 0001:00065cf0       __allmul                   10066cf0 f   LIBCMT:llmul.obj
 0001:00065d40       __alldvrm                  10066d40 f   LIBCMT:lldvrm.obj
 0001:00065e60       __aullshr                  10066e60 f   LIBCMT:ullshr.obj
 0001:00065e90       __alloca_probe             10066e90 f   LIBCMT:chkstk.obj
 0001:00065e90       __chkstk                   10066e90 f   LIBCMT:chkstk.obj
 0001:00065ed0       __alloca_probe_16          10066ed0 f   LIBCMT:alloca16.obj
 0001:00065ee6       __alloca_probe_8           10066ee6     LIBCMT:alloca16.obj
 0001:00065f10       __allshl                   10066f10 f   LIBCMT:llshl.obj
 0001:00065f40       __ftol2_sse                10066f40 f   LIBCMT:_ftol2_.obj
 0001:00065f49       __ftol2_pentium4           10066f49 f   LIBCMT:_ftol2_.obj
 0001:00065f5c       __ftol2_sse_excpt          10066f5c f   LIBCMT:_ftol2_.obj
 0001:00065f80       __ftol2                    10066f80 f   LIBCMT:_ftol2_.obj
 0001:00066022       __EH_epilog3               10067022 f   LIBCMT:ehprolg3.obj
 0001:0006603c       __EH_epilog3_GS            1006703c f   LIBCMT:ehprolg3.obj
 0001:00066051       __EH_epilog3_catch_GS      10067051 f   LIBCMT:ehprolg3.obj
 0001:00066066       __EH_prolog3               10067066 f   LIBCMT:ehprolg3.obj
 0001:000660a7       __EH_prolog3_GS            100670a7 f   LIBCMT:ehprolg3.obj
 0001:000660eb       __EH_prolog3_catch         100670eb f   LIBCMT:ehprolg3.obj
 0001:0006612f       __EH_prolog3_catch_GS      1006712f f   LIBCMT:ehprolg3.obj
 0001:00066177       __initialize_default_precision 10067177 f   LIBCMT:default_precision.obj
 0001:000661a0       ??3@YAXPAXI@Z              100671a0 f   LIBCMT:delete_scalar_size.obj
 0001:000661b1       ??3@YAXPAX@Z               100671b1 f   LIBCMT:delete_scalar.obj
 0001:000661b6       _InterlockedPushEntrySList@8 100671b6 f   kernel32:KERNEL32.dll
 0001:000661bc       _InterlockedFlushSList@4   100671bc f   kernel32:KERNEL32.dll
 0001:000661c2       _RtlUnwind@16              100671c2 f   kernel32:KERNEL32.dll
 0001:000661c8       _GetLastError@0            100671c8 f   kernel32:KERNEL32.dll
 0001:000661ce       _SetLastError@4            100671ce f   kernel32:KERNEL32.dll
 0001:000661d4       _EnterCriticalSection@4    100671d4 f   kernel32:KERNEL32.dll
 0001:000661da       _LeaveCriticalSection@4    100671da f   kernel32:KERNEL32.dll
 0001:000661e0       _DeleteCriticalSection@4   100671e0 f   kernel32:KERNEL32.dll
 0001:000661e6       _InitializeCriticalSectionAndSpinCount@8 100671e6 f   kernel32:KERNEL32.dll
 0001:000661ec       _TlsAlloc@0                100671ec f   kernel32:KERNEL32.dll
 0001:000661f2       _TlsGetValue@4             100671f2 f   kernel32:KERNEL32.dll
 0001:000661f8       _TlsSetValue@8             100671f8 f   kernel32:KERNEL32.dll
 0001:000661fe       _TlsFree@4                 100671fe f   kernel32:KERNEL32.dll
 0001:00066204       _FreeLibrary@4             10067204 f   kernel32:KERNEL32.dll
 0001:0006620a       _LoadLibraryExW@12         1006720a f   kernel32:KERNEL32.dll
 0001:00066210       _GetStdHandle@4            10067210 f   kernel32:KERNEL32.dll
 0001:00066216       _GetFileType@4             10067216 f   kernel32:KERNEL32.dll
 0001:0006621c       _GetModuleFileNameW@12     1006721c f   kernel32:KERNEL32.dll
 0001:00066222       _GetModuleHandleExW@12     10067222 f   kernel32:KERNEL32.dll
 0001:00066228       _WriteConsoleW@20          10067228 f   kernel32:KERNEL32.dll
 0001:0006622e       _ExitProcess@4             1006722e f   kernel32:KERNEL32.dll
 0001:00066234       _RaiseException@16         10067234 f   kernel32:KERNEL32.dll
 0001:0006623a       _HeapFree@12               1006723a f   kernel32:KERNEL32.dll
 0001:00066240       _HeapAlloc@12              10067240 f   kernel32:KERNEL32.dll
 0001:00066246       _GetDateFormatW@24         10067246 f   kernel32:KERNEL32.dll
 0001:0006624c       _GetTimeFormatW@24         1006724c f   kernel32:KERNEL32.dll
 0001:00066252       _CompareStringW@24         10067252 f   kernel32:KERNEL32.dll
 0001:00066258       _LCMapStringW@24           10067258 f   kernel32:KERNEL32.dll
 0001:0006625e       _GetLocaleInfoW@16         1006725e f   kernel32:KERNEL32.dll
 0001:00066264       _IsValidLocale@8           10067264 f   kernel32:KERNEL32.dll
 0001:0006626a       _GetUserDefaultLCID@0      1006726a f   kernel32:KERNEL32.dll
 0001:00066270       _EnumSystemLocalesW@8      10067270 f   kernel32:KERNEL32.dll
 0001:00066276       _GetCurrentThread@0        10067276 f   kernel32:KERNEL32.dll
 0001:0006627c       _WriteFile@20              1006727c f   kernel32:KERNEL32.dll
 0001:00066282       _OutputDebugStringW@4      10067282 f   kernel32:KERNEL32.dll
 0001:00066288       _SetConsoleCtrlHandler@8   10067288 f   kernel32:KERNEL32.dll
 0001:0006628e       _HeapReAlloc@16            1006728e f   kernel32:KERNEL32.dll
 0001:00066294       _CloseHandle@4             10067294 f   kernel32:KERNEL32.dll
 0001:0006629a       _ReadFile@20               1006729a f   kernel32:KERNEL32.dll
 0001:000662a0       _GetConsoleMode@8          100672a0 f   kernel32:KERNEL32.dll
 0001:000662a6       _ReadConsoleW@20           100672a6 f   kernel32:KERNEL32.dll
 0001:000662ac       _GetConsoleCP@0            100672ac f   kernel32:KERNEL32.dll
 0001:000662b2       _MultiByteToWideChar@24    100672b2 f   kernel32:KERNEL32.dll
 0001:000662b8       _DeleteFileW@4             100672b8 f   kernel32:KERNEL32.dll
 0001:000662be       _SetFilePointerEx@20       100672be f   kernel32:KERNEL32.dll
 0001:000662c4       _FindClose@4               100672c4 f   kernel32:KERNEL32.dll
 0001:000662ca       _FindFirstFileExW@24       100672ca f   kernel32:KERNEL32.dll
 0001:000662d0       _FindNextFileW@8           100672d0 f   kernel32:KERNEL32.dll
 0001:000662d6       _IsValidCodePage@4         100672d6 f   kernel32:KERNEL32.dll
 0001:000662dc       _GetACP@0                  100672dc f   kernel32:KERNEL32.dll
 0001:000662e2       _GetOEMCP@0                100672e2 f   kernel32:KERNEL32.dll
 0001:000662e8       _GetCPInfo@8               100672e8 f   kernel32:KERNEL32.dll
 0001:000662ee       _GetCommandLineA@0         100672ee f   kernel32:KERNEL32.dll
 0001:000662f4       _GetCommandLineW@0         100672f4 f   kernel32:KERNEL32.dll
 0001:000662fa       _WideCharToMultiByte@32    100672fa f   kernel32:KERNEL32.dll
 0001:00066300       _GetEnvironmentStringsW@0  10067300 f   kernel32:KERNEL32.dll
 0001:00066306       _FreeEnvironmentStringsW@4 10067306 f   kernel32:KERNEL32.dll
 0001:0006630c       _SetEnvironmentVariableW@8 1006730c f   kernel32:KERNEL32.dll
 0001:00066312       _GetProcessHeap@0          10067312 f   kernel32:KERNEL32.dll
 0001:00066318       _FlushFileBuffers@4        10067318 f   kernel32:KERNEL32.dll
 0001:0006631e       _SetStdHandle@8            1006731e f   kernel32:KERNEL32.dll
 0001:00066324       _GetStringTypeW@16         10067324 f   kernel32:KERNEL32.dll
 0001:0006632a       _CreateFileW@28            1006732a f   kernel32:KERNEL32.dll
 0001:00066330       _HeapSize@12               10067330 f   kernel32:KERNEL32.dll
 0001:00066336       _SetEndOfFile@4            10067336 f   kernel32:KERNEL32.dll
 0001:0006633c       _EncodePointer@4           1006733c f   kernel32:KERNEL32.dll
 0001:00066342       _DecodePointer@4           10067342 f   kernel32:KERNEL32.dll
 0001:00066350       _strrchr                   10067350 f   libvcruntime:strrchr.obj
 0001:00066637       _memcmp                    10067637 f   libvcruntime:_memcmp_.obj
 0001:0006a11f       _wcschr                    1006b11f f   libvcruntime:wcschr.obj
 0001:0006a1f8       ?_CallCatchBlock2@@YAPAXPAUEHRegistrationNode@@PBU_s_FuncInfo@@PAXHK@Z 1006b1f8 f   libvcruntime:trnsctrl.obj
 0001:0006a270       ?_CallSETranslator@@YAHPAUEHExceptionRecord@@PAUEHRegistrationNode@@PAX2PBU_s_FuncInfo@@H1@Z 1006b270 f   libvcruntime:trnsctrl.obj
 0001:0006a384       ?_GetRangeOfTrysToCheck@@YAPBU_s_TryBlockMapEntry@@PBU_s_FuncInfo@@HHPAI1@Z 1006b384 f   libvcruntime:trnsctrl.obj
 0001:0006a41a       ?_JumpToContinuation@@YGXPAXPAUEHRegistrationNode@@@Z 1006b41a f   libvcruntime:trnsctrl.obj
 0001:0006a458       ?_UnwindNestedFrames@@YGXPAUEHRegistrationNode@@PAUEHExceptionRecord@@@Z 1006b458 f   libvcruntime:trnsctrl.obj
 0001:0006a4c2       __CatchGuardHandler        1006b4c2 f   libvcruntime:trnsctrl.obj
 0001:0006a4ff       __CreateFrameInfo          1006b4ff f   libvcruntime:trnsctrl.obj
 0001:0006a52c       __FindAndUnlinkFrame       1006b52c f   libvcruntime:trnsctrl.obj
 0001:0006a588       __IsExceptionObjectToBeDestroyed 1006b588 f   libvcruntime:trnsctrl.obj
 0001:0006a5b7       __TranslatorGuardHandler   1006b5b7 f   libvcruntime:trnsctrl.obj
 0001:0006a67d       ___CxxFrameHandler         1006b67d f   libvcruntime:trnsctrl.obj
 0001:0006a6c0       ___CxxFrameHandler2        1006b6c0 f   libvcruntime:trnsctrl.obj
 0001:0006a703       ___CxxFrameHandler3        1006b703 f   libvcruntime:trnsctrl.obj
 0001:0006a746       ___CxxLongjmpUnwind@4      1006b746 f   libvcruntime:trnsctrl.obj
 0001:0006a780       __CallSettingFrame@12      1006b780 f   libvcruntime:lowhelpr.obj
 0001:0006a7a7       __NLG_Return               1006b7a7     libvcruntime:lowhelpr.obj
 0001:0006a7df       ___DestructExceptionObject 1006b7df f   libvcruntime:frame.obj
 0001:0006a898       ??0bad_exception@std@@QAE@ABV01@@Z 1006b898 f i libvcruntime:frame.obj
 0001:0006a8b9       ??0bad_exception@std@@QAE@XZ 1006b8b9 f i libvcruntime:frame.obj
 0001:0006a8d7       ??0exception@std@@QAE@ABV01@@Z 1006b8d7 f i libvcruntime:frame.obj
 0001:0006a90e       ??0exception@std@@QAE@QBDH@Z 1006b90e f i libvcruntime:frame.obj
 0001:0006a932       ??1bad_exception@std@@UAE@XZ 1006b932 f i libvcruntime:frame.obj
 0001:0006a947       ??1exception@std@@UAE@XZ   1006b947 f i libvcruntime:frame.obj
 0001:0006a95c       ??8type_info@@QBE_NABV0@@Z 1006b95c f i libvcruntime:frame.obj
 0001:0006a981       ??_Gbad_exception@std@@UAEPAXI@Z 1006b981 f i libvcruntime:frame.obj
 0001:0006a981       ??_Ebad_exception@std@@UAEPAXI@Z 1006b981 f i libvcruntime:frame.obj
 0001:0006a9b9       ??_Gexception@std@@UAEPAXI@Z 1006b9b9 f i libvcruntime:frame.obj
 0001:0006a9b9       ??_Eexception@std@@UAEPAXI@Z 1006b9b9 f i libvcruntime:frame.obj
 0001:0006b40d       ?_CallMemberFunction0@@YGXQAX0@Z 1006c40d f i libvcruntime:frame.obj
 0001:0006b414       ?_CallMemberFunction1@@YGXQAX00@Z 1006c414 f i libvcruntime:frame.obj
 0001:0006b41b       ?_CallMemberFunction2@@YGXQAX00H@Z 1006c41b f i libvcruntime:frame.obj
 0001:0006b422       ?_ValidateExecute@@YA_NP6GHXZ@Z 1006c422 f i libvcruntime:frame.obj
 0001:0006b431       ?_ValidateRead@@YA_NPBXI@Z 1006c431 f i libvcruntime:frame.obj
 0001:0006b440       ?_ValidateWrite@@YA_NPAXI@Z 1006c440 f i libvcruntime:frame.obj
 0001:0006b44f       ?raw_name@type_info@@QBEPBDXZ 1006c44f f i libvcruntime:frame.obj
 0001:0006b453       ?what@exception@std@@UBEPBDXZ 1006c453 f i libvcruntime:frame.obj
 0001:0006b463       __SetWinRTOutOfMemoryExceptionCallback 1006c463 f   libvcruntime:frame.obj
 0001:0006b473       ___AdjustPointer           1006c473 f   libvcruntime:frame.obj
 0001:0006b4a1       ___BuildCatchObject        1006c4a1 f   libvcruntime:frame.obj
 0001:0006b553       ___BuildCatchObjectHelper  1006c553 f   libvcruntime:frame.obj
 0001:0006b6cc       ___CxxDetectRethrow        1006c6cc f   libvcruntime:frame.obj
 0001:0006b72b       ___CxxExceptionFilter      1006c72b f   libvcruntime:frame.obj
 0001:0006b8ca       ___CxxQueryExceptionSize   1006c8ca f   libvcruntime:frame.obj
 0001:0006b8ce       ___CxxRegisterExceptionObject 1006c8ce f   libvcruntime:frame.obj
 0001:0006b998       ___CxxUnregisterExceptionObject 1006c998 f   libvcruntime:frame.obj
 0001:0006baec       ___FrameUnwindFilter       1006caec f   libvcruntime:frame.obj
 0001:0006bb42       ___FrameUnwindToState      1006cb42 f   libvcruntime:frame.obj
 0001:0006bc3c       ___GetPlatformExceptionInfo 1006cc3c f   libvcruntime:frame.obj
 0001:0006bc9d       ___InternalCxxFrameHandler 1006cc9d f   libvcruntime:frame.obj
 0001:0006bdd8       ___TypeMatch               1006cdd8 f   libvcruntime:frame.obj
 0001:0006be89       ___current_exception       1006ce89 f   libvcruntime:frame.obj
 0001:0006be94       ___current_exception_context 1006ce94 f   libvcruntime:frame.obj
 0001:0006be9f       ___processing_throw        1006ce9f f   libvcruntime:frame.obj
 0001:0006beaa       ___std_terminate           1006ceaa f   libvcruntime:frame.obj
 0001:0006beaf       ___uncaught_exception      1006ceaf f   libvcruntime:frame.obj
 0001:0006bebf       ___uncaught_exceptions     1006cebf f   libvcruntime:frame.obj
 0001:0006beca       __is_exception_typeof      1006ceca f   libvcruntime:frame.obj
 0001:0006bfb0       __get_unexpected           1006cfb0 f   libvcruntime:unexpected.obj
 0001:0006bfc6       _set_unexpected            1006cfc6 f   libvcruntime:unexpected.obj
 0001:0006bfeb       _unexpected                1006cfeb f   libvcruntime:unexpected.obj
 0001:0006c00e       ??$?RD@__crt_public_free_policy@@QBEXQBD@Z 1006d00e f i libvcruntime:std_exception.obj
 0001:0006c022       ??0?$__crt_unique_heap_ptr@DU__crt_public_free_policy@@@@QAE@QAD@Z 1006d022 f i libvcruntime:std_exception.obj
 0001:0006c033       ??1?$__crt_unique_heap_ptr@DU__crt_public_free_policy@@@@QAE@XZ 1006d033 f i libvcruntime:std_exception.obj
 0001:0006c047       ??B?$__crt_unique_heap_ptr@DU__crt_public_free_policy@@@@QBE_NXZ 1006d047 f i libvcruntime:std_exception.obj
 0001:0006c04e       ?detach@?$__crt_unique_heap_ptr@DU__crt_public_free_policy@@@@QAEPADXZ 1006d04e f i libvcruntime:std_exception.obj
 0001:0006c054       ?get@?$__crt_unique_heap_ptr@DU__crt_public_free_policy@@@@QBEPADXZ 1006d054 f i libvcruntime:std_exception.obj
 0001:0006c057       ?is_valid@?$__crt_unique_heap_ptr@DU__crt_public_free_policy@@@@QBE_NXZ 1006d057 f i libvcruntime:std_exception.obj
 0001:0006c05e       ?release@?$__crt_unique_heap_ptr@DU__crt_public_free_policy@@@@QAEXXZ 1006d05e f i libvcruntime:std_exception.obj
 0001:0006c072       ___std_exception_copy      1006d072 f   libvcruntime:std_exception.obj
 0001:0006c0ed       ___std_exception_destroy   1006d0ed f   libvcruntime:std_exception.obj
 0001:0006c113       __CxxThrowException@8      1006d113 f   libvcruntime:throw.obj
 0002:00000000       ___xc_a                    1006f000     LIBCMT:initializers.obj
 0002:00000104       ___xc_z                    1006f104     LIBCMT:initializers.obj
 0002:00000208       ___xi_a                    1006f208     LIBCMT:initializers.obj
 0002:0000030c       ___acrt_stdio_initializer  1006f30c     libucrt:stdio_initializer.obj
 0002:00000310       ___acrt_multibyte_initializer 1006f310     libucrt:multibyte_initializer.obj
 0002:00000314       ___acrt_tran_sse2_initializer 1006f314     libucrt:sse2_initializer.obj
 0002:0000041c       ___xi_z                    1006f41c     LIBCMT:initializers.obj
 0002:00000520       ___xp_a                    1006f520     LIBCMT:initializers.obj
 0002:00000624       ___acrt_locale_terminator  1006f624     libucrt:locale_initializer.obj
 0002:00000628       ___dcrt_console_output_terminator 1006f628     libucrt:console_output_initializer.obj
 0002:00000730       ___acrt_stdio_terminator   1006f730     libucrt:stdio_initializer.obj
 0002:00000834       ___xp_z                    1006f834     LIBCMT:initializers.obj
 0002:00000938       ___xt_a                    1006f938     LIBCMT:initializers.obj
 0002:00000a3c       ___xt_z                    1006fa3c     LIBCMT:initializers.obj
 0002:00000b40       _modified_motor_M          1006fb40     modified_motor.obj
 0002:00000bbc       ??_C@_0BI@PEBACBDB@Error?5creating?5scope?53?6?$AA@ 1006fbbc     modified_motor.obj
 0002:00000bd8       ??_C@_0BM@KFCJENCJ@Logic?5Block?1Rate?5Transition?$AA@ 1006fbd8     modified_motor.obj
 0002:00000bfc       ??_C@_06KFNFIEK@?$CF15?46f?$AA@ 1006fbfc     modified_motor.obj
 0002:00000c04       ??_C@_0BI@PFNCELAG@Error?5creating?5scope?52?6?$AA@ 1006fc04     modified_motor.obj
 0002:00000c20       ??_C@_0BE@LIKMIBDK@motor_subsystem?1Sum?$AA@ 1006fc20     modified_motor.obj
 0002:00000c38       ??_C@_0BI@PHJEPFFP@Error?5creating?5scope?51?6?$AA@ 1006fc38     modified_motor.obj
 0002:00000c54       ??_C@_0CI@EIFAEKLE@motor_subsystem?1Switching?5Logic?1@ 1006fc54     modified_motor.obj
 0002:00000c84       ??_C@_0BI@PBFPDHLE@Error?5creating?5scope?54?6?$AA@ 1006fc84     modified_motor.obj
 0002:00000ca0       ??_C@_0CD@DLKELPNG@motor_subsystem?1Real?5motor?1Q4?5En@ 1006fca0     modified_motor.obj
 0002:00000ccc       ??_C@_04CMIMOENB@ode3?$AA@ 1006fccc     modified_motor.obj
 0002:00000cd4       ??_C@_04EPKDLPPB@tout?$AA@ 1006fcd4     modified_motor.obj
 0002:00000cda       ??_C@_00CNPNBAHC@?$AA@     1006fcda     modified_motor.obj
 0002:00000cdc       ??_C@_03HBFGMJOD@rt_?$AA@  1006fcdc     modified_motor.obj
 0002:00000ce0       ??_C@_07MMCOFBGL@Q4?5Enc?5?$AA@ 1006fce0     modified_motor.obj
 0002:00000cec       ??_C@_0DC@CLEABBNE@modified_motor?1motor_subsystem?1R@ 1006fcec     modified_motor.obj
 0002:00000d28       ??_C@_06EJLBKEAC@Q4?5DA?5?$AA@ 1006fd28     modified_motor.obj
 0002:00000d30       ??_C@_0DB@JPNMBMAM@modified_motor?1motor_subsystem?1R@ 1006fd30     modified_motor.obj
 0002:00000d70       __real@3f50624dd2f1a9fc    1006fd70     modified_motor.obj
 0002:00000d80       __real@3f8015bf9217271a    1006fd80     modified_motor.obj
 0002:00000d90       __real@3fcc71c71c71c71c    1006fd90     modified_motor.obj
 0002:00000da0       __real@3fd5555555555555    1006fda0     modified_motor.obj
 0002:00000db0       __real@3fdc71c71c71c71c    1006fdb0     modified_motor.obj
 0002:00000dc0       __real@3fe0000000000000    1006fdc0     modified_motor.obj
 0002:00000dd0       __real@3fe8000000000000    1006fdd0     modified_motor.obj
 0002:00000de0       __real@3ff0000000000000    1006fde0     modified_motor.obj
 0002:00000df0       __real@4000000000000000    1006fdf0     modified_motor.obj
 0002:00000e00       __real@4008000000000000    1006fe00     modified_motor.obj
 0002:00000e10       __real@400921fb54442d18    1006fe10     modified_motor.obj
 0002:00000e20       __real@4059000000000000    1006fe20     modified_motor.obj
 0002:00000e30       __real@406e000000000000    1006fe30     modified_motor.obj
 0002:00000e40       __real@406f400000000000    1006fe40     modified_motor.obj
 0002:00000e50       __real@4074000000000000    1006fe50     modified_motor.obj
 0002:00000e60       __real@41f0000000000000    1006fe60     modified_motor.obj
 0002:00000e70       __real@bff0000000000000    1006fe70     modified_motor.obj
 0002:00000e80       __real@c00921fb54442d18    1006fe80     modified_motor.obj
 0002:00000e90       __xmm@00000000000000003ff0000000000000 1006fe90     modified_motor.obj
 0002:00000eb0       __xmm@000000630000002b0000004400000003 1006feb0     modified_motor.obj
 0002:00000ed0       __xmm@3f50624dd2f1a9fc0000000000000000 1006fed0     modified_motor.obj
 0002:00000ef0       __xmm@41f00000000000000000000000000000 1006fef0     modified_motor.obj
 0002:00000f10       __xmm@80000000000000008000000000000000 1006ff10     modified_motor.obj
 0002:00000f30       __xmm@bff921fb54442d183ff921fb54442d18 1006ff30     modified_motor.obj
 0002:00000f50       __xmm@c00921fb54442d18400921fb54442d18 1006ff50     modified_motor.obj
 0002:00000f68       __real@3cb0000000000000    1006ff68     rt_matrx.obj
 0002:00001b94       ??_C@_0BF@DCIAKHNG@Imager?1Process?5Image?$AA@ 10070b94     modified_motor_capi.obj
 0002:00001bb0       ??_C@_0P@KJEGDCOI@image_data_sig?$AA@ 10070bb0     modified_motor_capi.obj
 0002:00001bc4       ??_C@_0CE@DMMMGPEO@Logic?5Block?1Generate?5Angles?5List@ 10070bc4     modified_motor_capi.obj
 0002:00001bf0       ??_C@_0CE@BHOBDMIN@Logic?5Block?1Generate?5Angles?5List@ 10070bf0     modified_motor_capi.obj
 0002:00001c1c       ??_C@_0L@KIEDNDAL@num_angles?$AA@ 10070c1c     modified_motor_capi.obj
 0002:00001c2c       ??_C@_0L@DPAFDAOG@target_pos?$AA@ 10070c2c     modified_motor_capi.obj
 0002:00001c3c       ??_C@_0BN@IEEKLGJD@Logic?5Block?1Rate?5Transition1?$AA@ 10070c3c     modified_motor_capi.obj
 0002:00001c60       ??_C@_03EDKEAHHI@a_v?$AA@  10070c60     modified_motor_capi.obj
 0002:00001c64       ??_C@_0BI@PPJJJOCI@UI?1Data?5Type?5Conversion?$AA@ 10070c64     modified_motor_capi.obj
 0002:00001c80       ??_C@_0BJ@PDBHDGNG@UI?1Data?5Type?5Conversion1?$AA@ 10070c80     modified_motor_capi.obj
 0002:00001ca0       ??_C@_0BJ@NIDKGFBF@UI?1Data?5Type?5Conversion2?$AA@ 10070ca0     modified_motor_capi.obj
 0002:00001cc0       ??_C@_0BL@OGMKADHL@motor_subsystem?1Derivative?$AA@ 10070cc0     modified_motor_capi.obj
 0002:00001ce0       ??_C@_0BF@HANIGKEM@motor_subsystem?1Gain?$AA@ 10070ce0     modified_motor_capi.obj
 0002:00001cfc       ??_C@_0BD@EDOBKDOF@motor_subsystem?1KI?$AA@ 10070cfc     modified_motor_capi.obj
 0002:00001d14       ??_C@_0BD@GDMLPJAK@motor_subsystem?1Kd?$AA@ 10070d14     modified_motor_capi.obj
 0002:00001d2c       ??_C@_0BD@ENGFCOFP@motor_subsystem?1Kp?$AA@ 10070d2c     modified_motor_capi.obj
 0002:00001d44       ??_C@_0BL@KJOHLFNI@motor_subsystem?1Integrator?$AA@ 10070d44     modified_motor_capi.obj
 0002:00001d64       ??_C@_0BL@DEKOEKIA@motor_subsystem?1Saturation?$AA@ 10070d64     modified_motor_capi.obj
 0002:00001d84       ??_C@_0O@IMBPJJHP@Voltage_Input?$AA@ 10070d84     modified_motor_capi.obj
 0002:00001d94       ??_C@_06MPGMJKNN@DTheta?$AA@ 10070d94     modified_motor_capi.obj
 0002:00001d9c       ??_C@_0BF@OJHCIB@motor_subsystem?1Sum1?$AA@ 10070d9c     modified_motor_capi.obj
 0002:00001db8       ??_C@_09KNPKHEME@Pos_Input?$AA@ 10070db8     modified_motor_capi.obj
 0002:00001dc4       ??_C@_0BG@ICNKDKJD@Logic?5Block?1Clock?1Sum?$AA@ 10070dc4     modified_motor_capi.obj
 0002:00001de0       ??_C@_0BN@HBGHINNA@Logic?5Block?1Clock?1Unit?5Delay?$AA@ 10070de0     modified_motor_capi.obj
 0002:00001e04       ??_C@_0CK@IOHLNPJ@Logic?5Block?1Position?5Iterator?1It@ 10070e04     modified_motor_capi.obj
 0002:00001e38       ??_C@_0CK@CDMKOODK@Logic?5Block?1Position?5Iterator?1It@ 10070e38     modified_motor_capi.obj
 0002:00001e6c       ??_C@_0BA@HALAHNOG@iter_next_index?$AA@ 10070e6c     modified_motor_capi.obj
 0002:00001e80       ??_C@_0CK@DKNBNPHL@Logic?5Block?1Position?5Iterator?1It@ 10070e80     modified_motor_capi.obj
 0002:00001eb4       ??_C@_0CO@BGJDADHI@Logic?5Block?1Position?5Iterator?1Da@ 10070eb4     modified_motor_capi.obj
 0002:00001eec       ??_C@_0P@HAADPGIL@iter_cur_index?$AA@ 10070eec     modified_motor_capi.obj
 0002:00001f00       ??_C@_0CP@JIJFGNLP@Logic?5Block?1Position?5Iterator?1Da@ 10070f00     modified_motor_capi.obj
 0002:00001f38       ??_C@_0CD@GGFEAJNA@motor_subsystem?1Motor?5Selector?1A@ 10070f38     modified_motor_capi.obj
 0002:00001f64       ??_C@_0BA@LGKDOCFD@Switch?5Position?$AA@ 10070f64     modified_motor_capi.obj
 0002:00001f78       ??_C@_0CF@DOAFCOGE@motor_subsystem?1Motor?5Selector?1G@ 10070f78     modified_motor_capi.obj
 0002:00001fa4       ??_C@_0BA@IGFGONHM@Simulated?5Motor?$AA@ 10070fa4     modified_motor_capi.obj
 0002:00001fb8       ??_C@_0CF@BFCIHNKH@motor_subsystem?1Motor?5Selector?1G@ 10070fb8     modified_motor_capi.obj
 0002:00001fe4       ??_C@_0L@JCPOKFMB@Real?5Motor?$AA@ 10070fe4     modified_motor_capi.obj
 0002:00001ff4       ??_C@_0CK@BFEIMHPI@motor_subsystem?1Real?5motor?1Conve@ 10070ff4     modified_motor_capi.obj
 0002:00002028       ??_C@_0CH@BGLFLFJF@motor_subsystem?1Real?5motor?1Inver@ 10071028     modified_motor_capi.obj
 0002:00002058       ??_C@_0P@MENJPGAI@Position?5?$CIrad?$CJ?$AA@ 10071058     modified_motor_capi.obj
 0002:0000206c       ??_C@_0CG@EIDOGHPC@motor_subsystem?1Real?5motor?1Satur@ 1007106c     modified_motor_capi.obj
 0002:0000209c       ??_C@_0BB@PAPPKBBO@Position?5?$CIsteps?$CJ?$AA@ 1007109c     modified_motor_capi.obj
 0002:000020b0       ??_C@_0CI@NJFMNOCG@motor_subsystem?1Simulated?5Motor?1@ 100710b0     modified_motor_capi.obj
 0002:000020e0       ??_C@_0CL@JPOFIAMI@motor_subsystem?1Simulated?5Motor?1@ 100710e0     modified_motor_capi.obj
 0002:00002114       ??_C@_07OHICEHE@d?1dt?$CIi?$CJ?$AA@ 10071114     modified_motor_capi.obj
 0002:00002120       ??_C@_0CJ@BADCPACO@motor_subsystem?1Simulated?5Motor?1@ 10071120     modified_motor_capi.obj
 0002:00002154       ??_C@_0O@MHBCEDAN@d2?1dt2?$CItheta?$CJ?$AA@ 10071154     modified_motor_capi.obj
 0002:00002164       ??_C@_0CD@HCJNOGIB@motor_subsystem?1Simulated?5Motor?1@ 10071164     modified_motor_capi.obj
 0002:00002190       ??_C@_0CD@CBEEMFJB@motor_subsystem?1Simulated?5Motor?1@ 10071190     modified_motor_capi.obj
 0002:000021bc       ??_C@_0CL@GOLJKPKC@motor_subsystem?1Simulated?5Motor?1@ 100711bc     modified_motor_capi.obj
 0002:000021f0       ??_C@_0CL@FOLFPOJF@motor_subsystem?1Simulated?5Motor?1@ 100711f0     modified_motor_capi.obj
 0002:00002224       ??_C@_01KBJDNOO@i?$AA@     10071224     modified_motor_capi.obj
 0002:00002228       ??_C@_0CM@EGGGNFIH@motor_subsystem?1Simulated?5Motor?1@ 10071228     modified_motor_capi.obj
 0002:0000225c       ??_C@_0M@KBJGNCMD@d?1dt?$CItheta?$CJ?$AA@ 1007125c     modified_motor_capi.obj
 0002:0000226c       ??_C@_0CM@GNELIGEE@motor_subsystem?1Simulated?5Motor?1@ 1007126c     modified_motor_capi.obj
 0002:000022a0       ??_C@_05FECKLAFM@theta?$AA@ 100712a0     modified_motor_capi.obj
 0002:000022a8       ??_C@_0CE@PFCDAKKA@motor_subsystem?1Simulated?5Motor?1@ 100712a8     modified_motor_capi.obj
 0002:000022d4       ??_C@_0CF@BAHOIHFA@motor_subsystem?1Simulated?5Motor?1@ 100712d4     modified_motor_capi.obj
 0002:00002300       ??_C@_03BGPLALFI@Run?$AA@  10071300     modified_motor_capi.obj
 0002:00002304       ??_C@_05LPIJGKJ@Value?$AA@ 10071304     modified_motor_capi.obj
 0002:0000230c       ??_C@_06PBEDFIPD@Switch?$AA@ 1007130c     modified_motor_capi.obj
 0002:00002314       ??_C@_02LNFHGPBG@X0?$AA@   10071314     modified_motor_capi.obj
 0002:00002318       ??_C@_08JDMIDIFH@UI?1Color?$AA@ 10071318     modified_motor_capi.obj
 0002:00002324       ??_C@_07DEAANNMO@UI?1Mode?$AA@ 10071324     modified_motor_capi.obj
 0002:00002330       ??_C@_0M@EIMKDIEM@UI?1Position?$AA@ 10071330     modified_motor_capi.obj
 0002:00002340       ??_C@_04OMOMKKFL@Gain?$AA@ 10071340     modified_motor_capi.obj
 0002:00002348       ??_C@_0BB@CFEOEMDC@InitialCondition?$AA@ 10071348     modified_motor_capi.obj
 0002:0000235c       ??_C@_0L@FBCGKKEN@UpperLimit?$AA@ 1007135c     modified_motor_capi.obj
 0002:0000236c       ??_C@_0L@DGFJOHKP@LowerLimit?$AA@ 1007136c     modified_motor_capi.obj
 0002:0000237c       ??_C@_0BL@PLKMIJPL@Logic?5Block?1Clock?1Constant?$AA@ 1007137c     modified_motor_capi.obj
 0002:0000239c       ??_C@_0CO@NGAAHCCL@Logic?5Block?1Position?5Iterator?1Ta@ 1007139c     modified_motor_capi.obj
 0002:000023d4       ??_C@_0O@LILIEJBO@InitialOutput?$AA@ 100713d4     modified_motor_capi.obj
 0002:000023e4       ??_C@_0CK@LDLMJNHC@Logic?5Block?1Position?5Iterator?1St@ 100713e4     modified_motor_capi.obj
 0002:00002418       ??_C@_0N@DKJJGJMJ@InitialValue?$AA@ 10071418     modified_motor_capi.obj
 0002:00002428       ??_C@_0CO@OPBMOPAD@Logic?5Block?1Position?5Iterator?1St@ 10071428     modified_motor_capi.obj
 0002:00002460       ??_C@_0CI@HAGHOCNO@motor_subsystem?1Motor?5Selector?1C@ 10071460     modified_motor_capi.obj
 0002:00002490       ??_C@_09HLCHFPPJ@Threshold?$AA@ 10071490     modified_motor_capi.obj
 0002:0000249c       ??_C@_0CC@KBAIEEJG@motor_subsystem?1Real?5motor?1Q4?5DA@ 1007149c     modified_motor_capi.obj
 0002:000024c4       ??_C@_02KKFPAPOP@P1?$AA@   100714c4     modified_motor_capi.obj
 0002:000024c8       ??_C@_02IBHCFMCM@P2?$AA@   100714c8     modified_motor_capi.obj
 0002:000024cc       ??_C@_02JIGJGNGN@P3?$AA@   100714cc     modified_motor_capi.obj
 0002:000024d0       ??_C@_02NHCIPLKK@P4?$AA@   100714d0     modified_motor_capi.obj
 0002:000024d4       ??_C@_02MODDMKOL@P5?$AA@   100714d4     modified_motor_capi.obj
 0002:000024d8       ??_C@_02OFBOJJCI@P6?$AA@   100714d8     modified_motor_capi.obj
 0002:000024dc       ??_C@_02PMAFKIGJ@P7?$AA@   100714dc     modified_motor_capi.obj
 0002:000024e0       ??_C@_02HLJNLEKG@P8?$AA@   100714e0     modified_motor_capi.obj
 0002:000024e4       ??_C@_02GCIGIFOH@P9?$AA@   100714e4     modified_motor_capi.obj
 0002:000024e8       ??_C@_03OPFJJGBF@P10?$AA@  100714e8     modified_motor_capi.obj
 0002:000024ec       ??_C@_03PGECKHFE@P11?$AA@  100714ec     modified_motor_capi.obj
 0002:000024f0       ??_C@_03NNGPPEJH@P12?$AA@  100714f0     modified_motor_capi.obj
 0002:000024f4       ??_C@_01LELAEKIP@J?$AA@    100714f4     modified_motor_capi.obj
 0002:000024f8       ??_C@_02GEPLNLCO@Ke?$AA@   100714f8     modified_motor_capi.obj
 0002:000024fc       ??_C@_02DHCCPIDO@Kt?$AA@   100714fc     modified_motor_capi.obj
 0002:00002500       ??_C@_01OCOKONAJ@L?$AA@    10071500     modified_motor_capi.obj
 0002:00002504       ??_C@_01DGKLNCNG@R?$AA@    10071504     modified_motor_capi.obj
 0002:00002508       ??_C@_01OJONOECF@b?$AA@    10071508     modified_motor_capi.obj
 0002:0000250c       ??_C@_0L@OOKOFHMK@image_data?$AA@ 1007150c     modified_motor_capi.obj
 0002:0000251c       ??_C@_06BNJCAIGJ@double?$AA@ 1007151c     modified_motor_capi.obj
 0002:00002524       ??_C@_06CNMIJIPB@real_T?$AA@ 10071524     modified_motor_capi.obj
 0002:0000252c       ??_C@_0M@MPLPCMBL@signed?5char?$AA@ 1007152c     modified_motor_capi.obj
 0002:0000253c       ??_C@_06MOLJCAAB@int8_T?$AA@ 1007153c     modified_motor_capi.obj
 0002:00002544       ??_C@_05KNFBNCOH@float?$AA@ 10071544     modified_motor_capi.obj
 0002:00002560       _serialfifoground          10071560     xpc_datatype_ground.obj
 0002:0000256c       _bcmsg1553ground           1007156c     xpc_datatype_ground.obj
 0002:0000257c       _bcstatground              1007157c     xpc_datatype_ground.obj
 0002:00002594       _bmmsg1553ground           10071594     xpc_datatype_ground.obj
 0002:000025d0       ??_C@_0BI@INNPNFJN@Memory?5Allocation?5Error?$AA@ 100715d0     rtw_modelmap_utils.obj
 0002:000025f0       ??_C@_1HC@IFMGIDHA@?$AAC?$AA?3?$AA?2?$AAP?$AAR?$AAO?$AAG?$AAR?$AAA?$AA?$HO?$AA1?$AA?2?$AAM?$AAA?$AAT?$AAL?$AAA?$AAB?$AA?2?$AAR?$AA2?$AA0?$AA1?$AA7?$AAa?$AA?2?$AAr?$AAt?$AAw?$AA?2?$AAc?$AA?2@ 100715f0     rtw_modelmap_utils.obj
 0002:00002678       ??_C@_1CI@OEAJCJND@?$AAj?$AA?5?$AA?$DN?$AA?$DN?$AA?5?$AAe?$AAn?$AAc?$AAo?$AAd?$AAe?$AAd?$AAP?$AAa?$AAt?$AAh?$AAL?$AAe?$AAn?$AA?$AA@ 10071678     rtw_modelmap_utils.obj
 0002:000026a8       ??_C@_1DC@NFAOIFKB@?$AAe?$AAn?$AAc?$AAo?$AAd?$AAe?$AAd?$AAP?$AAa?$AAt?$AAh?$AA?$FL?$AAj?$AA?9?$AA1?$AA?$FN?$AA?5?$AA?$DN?$AA?$DN?$AA?5?$AA?8?$AA?2?$AA0?$AA?8?$AA?$AA@ 100716a8     rtw_modelmap_utils.obj
 0002:000026e4       ??_C@_1DI@FLNJGPEE@?$AAs?$AAi?$AAg?$AAC?$AAo?$AAm?$AAp?$AAl?$AAe?$AAx?$AAi?$AAt?$AAy?$AA?$FL?$AA?$CK?$AAs?$AAi?$AAg?$AAI?$AAd?$AAx?$AA?$FN?$AA?5?$AA?$CB?$AA?$DN?$AA?5?$AA1?$AA?$AA@ 100716e4     rtw_modelmap_utils.obj
 0002:00002728       ??_C@_1KI@OFELMGBG@?$AA?$CI?$AA?$CI?$AA?$CI?$AAd?$AAa?$AAt?$AAa?$AAT?$AAy?$AAp?$AAe?$AAM?$AAa?$AAp?$AA?$CJ?$AA?$FL?$AA?$CI?$AA?$CI?$AA?$CI?$AAs?$AAt?$AAa?$AAt?$AAe?$AAs?$AA?$CJ?$AA?$FL?$AA?$CI?$AAi?$AA?$CJ?$AA?$FN?$AA?4@ 10071728     rtw_modelmap_utils.obj
 0002:000027f4       ??_C@_1DA@ILCMPHNE@?$AAf?$AAu?$AAl?$AAl?$AAP?$AAa?$AAt?$AAh?$AA?5?$AA?$CB?$AA?$DN?$AA?5?$AA?$CI?$AA?$CI?$AAv?$AAo?$AAi?$AAd?$AA?5?$AA?$CK?$AA?$CJ?$AA0?$AA?$CJ?$AA?$AA@ 100717f4     rtw_modelmap_utils.obj
 0002:00002830       ??_C@_1CI@OEPPFCCA@?$AAp?$AAa?$AAt?$AAh?$AA?5?$AA?$CB?$AA?$DN?$AA?5?$AA?$CI?$AA?$CI?$AAv?$AAo?$AAi?$AAd?$AA?5?$AA?$CK?$AA?$CJ?$AA0?$AA?$CJ?$AA?$AA@ 10071830     rtw_modelmap_utils.obj
 0002:00002860       ??_C@_1FK@GLJIMFHB@?$AA?$CI?$AA?$CI?$AAm?$AAm?$AAi?$AA?$CJ?$AA?9?$AA?$DO?$AAI?$AAn?$AAs?$AAt?$AAa?$AAn?$AAc?$AAe?$AAM?$AAa?$AAp?$AA?4?$AAf?$AAu?$AAl?$AAl?$AAP?$AAa?$AAt?$AAh?$AA?$CJ?$AA?5?$AA?$DN?$AA?$DN@ 10071860     rtw_modelmap_utils.obj
 0002:000028cc       ??_C@_1DG@HPCJGNCE@?$AAm?$AAm?$AAi?$AAP?$AAa?$AAt?$AAh?$AA?$FL?$AAp?$AAa?$AAt?$AAh?$AAL?$AAe?$AAn?$AA?9?$AA1?$AA?$FN?$AA?5?$AA?$DN?$AA?$DN?$AA?5?$AA?8?$AA?2?$AA0?$AA?8?$AA?$AA@ 100718cc     rtw_modelmap_utils.obj
 0002:0000290c       ??_C@_1DM@DBAOGGOO@?$AAm?$AAm?$AAi?$AAP?$AAa?$AAt?$AAh?$AA?$FL?$AAm?$AAm?$AAi?$AAP?$AAa?$AAt?$AAh?$AAL?$AAe?$AAn?$AA?9?$AA1?$AA?$FN?$AA?5?$AA?$DN?$AA?$DN?$AA?5?$AA?8?$AA?2?$AA0?$AA?8?$AA?$AA@ 1007190c     rtw_modelmap_utils.obj
 0002:00002954       ??_C@_1DC@LHIAKAFE@?$AAb?$AAl?$AAo?$AAc?$AAk?$AAP?$AAa?$AAt?$AAh?$AA?5?$AA?$CB?$AA?$DN?$AA?5?$AA?$CI?$AA?$CI?$AAv?$AAo?$AAi?$AAd?$AA?5?$AA?$CK?$AA?$CJ?$AA0?$AA?$CJ?$AA?$AA@ 10071954     rtw_modelmap_utils.obj
 0002:00002990       ??_C@_1GI@KIEJKPGC@?$AAf?$AAu?$AAl?$AAl?$AAS?$AAt?$AAa?$AAt?$AAe?$AAB?$AAl?$AAo?$AAc?$AAk?$AAP?$AAa?$AAt?$AAh?$AA?$FL?$AAf?$AAu?$AAl?$AAl?$AAS?$AAt?$AAa?$AAt?$AAe?$AAB?$AAl?$AAo?$AAc@ 10071990     rtw_modelmap_utils.obj
 0002:00002a10       ??_C@_1EE@DNPIBJHC@?$AA?$CI?$AA?$CI?$AAd?$AAi?$AAm?$AAM?$AAa?$AAp?$AA?$CJ?$AA?$FL?$AA?$CI?$AAm?$AAa?$AAp?$AAI?$AAd?$AAx?$AA?$CJ?$AA?$FN?$AA?4?$AAn?$AAu?$AAm?$AAD?$AAi?$AAm?$AAs?$AA?$CJ?$AA?5?$AA?$DN?$AA?$DN?$AA?5@ 10071a10     rtw_modelmap_utils.obj
 0002:00002a64       ??_C@_06JFOKFOED@CSTATE?$AA@ 10071a64     rtw_modelmap_utils.obj
 0002:00002a6c       ??_C@_06FAENGAMN@DSTATE?$AA@ 10071a6c     rtw_modelmap_utils.obj
 0002:00002a74       ??_C@_1BI@LEBJNOGG@?$AAc?$AAs?$AAv?$AAI?$AAd?$AAx?$AA?5?$AA?$DO?$AA?$DN?$AA?5?$AA0?$AA?$AA@ 10071a74     rtw_modelmap_utils.obj
 0002:00002a90       ??_C@_1BA@KDMGHCHP@?$AAT?$AAI?$AAD?$AA?$DN?$AA?$DN?$AA?9?$AA1?$AA?$AA@ 10071a90     rtw_modelmap_utils.obj
 0002:00002aa4       ??_C@_1DM@DHGKBPCE@?$AAs?$AAi?$AAg?$AAP?$AAa?$AAt?$AAh?$AA?$FL?$AAs?$AAi?$AAg?$AAP?$AAa?$AAt?$AAh?$AAL?$AAe?$AAn?$AA?9?$AA1?$AA?$FN?$AA?5?$AA?$DN?$AA?$DN?$AA?5?$AA?8?$AA?2?$AA0?$AA?8?$AA?$AA@ 10071aa4     rtw_modelmap_utils.obj
 0002:00003350       ??_C@_0DJ@FHKINPLE@Unexpected?5itemKind?5?$DN?5DATA_ITEM?5@ 10072350     rt_logging.obj
 0002:00003394       ??_C@_0DA@IEHFPFCJ@Unexpected?5itemKind?$DN?$CFd?5in?5rt_Pro@ 10072394     rt_logging.obj
 0002:000033d0       ??_C@_0DA@IFLHJPBO@Unexpected?5itemKind?$DN?$CFd?5in?5rt_Pro@ 100723d0     rt_logging.obj
 0002:0000340c       ??_C@_0DA@IAPIIJJL@Unexpected?5itemKind?$DN?$CFd?5in?5rt_Pro@ 1007240c     rt_logging.obj
 0002:00003448       ??_C@_0BE@LCIGPJIG@MATLAB?55?40?5MAT?9file?$AA@ 10072448     rt_logging.obj
 0002:00003460       ??_C@_0FB@PCJEAJIB@?$CK?$CK?$CK?5Log?5variable?5?$CFs?5has?5wrapped?5@ 10072460     rt_logging.obj
 0002:000034c8       ??_C@_0MG@NKMLMOGF@?$CK?$CK?$CK?5To?5avoid?5wrapping?0?5explicitl@ 100724c8     rt_logging.obj
 0002:000035b8       ??_C@_0N@IPAEOLLP@_rtw_tmw?4tmw?$AA@ 100725b8     rt_logging.obj
 0002:000035c8       ??_C@_04HDOCAJNK@?$CFs?$CFs?$AA@ 100725c8     rt_logging.obj
 0002:000035d0       ??_C@_03ELIABIOC@w?$CLb?$AA@ 100725d0     rt_logging.obj
 0002:000035d4       ??_C@_0BF@JPILDDFA@?$CK?$CK?$CK?5Error?5opening?5?$CFs?$AA@ 100725d4     rt_logging.obj
 0002:000035f0       ??_C@_0BK@EEMDELA@unable?5to?5open?5data?5file?6?$AA@ 100725f0     rt_logging.obj
 0002:00003610       ??_C@_04CGFJFPFD@none?$AA@ 10072610     rt_logging.obj
 0002:00003618       ??_C@_0EE@LCGFPNON@?$CK?$CK?$CK?5Error?5creating?5signals?5struc@ 10072618     rt_logging.obj
 0002:0000366c       ??_C@_0CE@NHECEDMK@?$CK?$CK?$CK?5Error?5creating?5log?5variable?5@ 1007266c     rt_logging.obj
 0002:00003698       ??_C@_0DB@IOCGKAGH@?$CK?$CK?$CK?5Errors?5occurred?5when?5startin@ 10072698     rt_logging.obj
 0002:000036d4       ??_C@_0BO@BBLOGEBK@?$CK?$CK?$CK?5Memory?5allocation?5error?4?6?$AA@ 100726d4     rt_logging.obj
 0002:000036f8       ??_C@_0N@LGFBAGEL@?5?$CIreal?5part?$CJ?$AA@ 100726f8     rt_logging.obj
 0002:00003708       ??_C@_0KH@CGNMHNFE@?5?5?5?5varName?5?5?5?5?5?5?5?5?5?5?$DN?5?$CFs?$CFs?6?5?5?5?5@ 10072708     rt_logging.obj
 0002:000037d0       ??_C@_0LE@OALKKEFM@?5?5?5?5varName?5?5?5?5?5?5?5?5?5?5?$DN?5?$CFs?5?$CIcompl@ 100727d0     rt_logging.obj
 0002:000038a8       ??_C@_0KF@JDDLEOKO@?5?5?5?5varName?5?5?5?5?5?5?5?5?5?5?$DN?5?$CFs?6?5?5?5?5nR@ 100728a8     rt_logging.obj
 0002:00003970       ??_C@_0DP@HPDMIOFM@?$CK?$CK?$CK?5Using?5a?5default?5buffer?5of?5si@ 10072970     rt_logging.obj
 0002:000039c0       ??_C@_0KE@JEFOLKNF@?6?$CK?$CK?$CK?5Memory?5required?5to?5log?5vari@ 100729c0     rt_logging.obj
 0002:00003a88       ??_C@_0JP@DKLMHCBI@?$CK?$CK?$CK?5Details?3?6?5?5?5?5?5?5?5varName?5?5?5?5?5@ 10072a88     rt_logging.obj
 0002:00003b48       ??_C@_0CM@CAMILBED@?$CK?$CK?$CK?5Error?5allocating?5memory?5for?5@ 10072b48     rt_logging.obj
 0002:00003b7c       ??_C@_0DF@BBCNMOPM@?$CK?$CK?$CK?5Error?5allocating?5memory?5for?5@ 10072b7c     rt_logging.obj
 0002:00003bc0       ??_C@_0JP@DBCLPCCI@?$CK?$CK?$CK?5Details?3?6?5?5?5?5?5?5?5varName?5?5?5?5?5@ 10072bc0     rt_logging.obj
 0002:00003c80       ??_C@_0FK@DPGAOBGA@?$CK?$CK?$CK?5Error?5allocating?5memory?5for?5@ 10072c80     rt_logging.obj
 0002:00003cec       ??_C@_0BI@GGDNPHLJ@?$CK?$CK?$CK?5Error?5writing?5to?5?$CFs?$AA@ 10072cec     rt_logging.obj
 0002:00003d08       ??_C@_0CB@IBGJGELG@?$CK?$CK?$CK?5Error?5writing?5?$CFs?5due?5to?3?5?$CFs?6@ 10072d08     rt_logging.obj
 0002:00003d30       ??_C@_0CN@FLMCHCPB@?$CK?$CK?$CK?5Error?5writing?5log?5variable?5?$CF@ 10072d30     rt_logging.obj
 0002:00003d68       ??_C@_0DH@GAJCNOJP@?$CK?$CK?$CK?5Error?5writing?5structure?5log?5@ 10072d68     rt_logging.obj
 0002:00003dac       ??_C@_0BD@POEALECL@?$CK?$CK?5created?5?$CFs?5?$CK?$CK?6?6?$AA@ 10072dac     rt_logging.obj
 0002:00003dc8       __real@0000000000000000    10072dc8     rt_logging.obj
 0002:00003dd8       __real@4020000000000000    10072dd8     rt_logging.obj
 0002:00003de8       __real@41dfffffffc00000    10072de8     rt_logging.obj
 0002:00003df8       __real@41efffffffe00000    10072df8     rt_logging.obj
 0002:00003e08       __real@4330000000000000    10072e08     rt_logging.obj
 0002:00003e18       __real@8000000000000000    10072e18     rt_logging.obj
 0002:00003e28       __real@bfbf9add3afd2773    10072e28     rt_logging.obj
 0002:00003e38       __real@c000000000000000    10072e38     rt_logging.obj
 0002:00003e50       __xmm@20202020202020202020202020202020 10072e50     rt_logging.obj
 0002:00003e64       ??_C@_0P@CAGIMKPG@modified_motor?$AA@ 10072e64     xpctarget.obj
 0002:00003e78       _ptsetfilename             10072e78     xpctarget.obj
 0002:00003e7c       _xmlfile                   10072e7c     xpctarget.obj
 0002:00003e84       ??_C@_0L@CHBJKKFC@xpceSetVar?$AA@ 10072e84     xpctarget.obj
 0002:00003e94       ??_C@_03LADEHNAB@6?46?$AA@ 10072e94     xpctarget.obj
 0002:00003e98       __real@3fb999999999999a    10072e98     xpctarget.obj
 0002:00003ea8       __real@408f400000000000    10072ea8     xpctarget.obj
 0002:00003eb8       _modified_motor_BIOMAP     10072eb8     appmappingData.obj
 0002:000040c8       _modified_motor_LBLMAP     100730c8     appmappingData.obj
 0002:000042d8       _modified_motor_SIDMAP     100732d8     appmappingData.obj
 0002:000044e8       _modified_motor_SBIO       100734e8     appmappingData.obj
 0002:00004598       _modified_motor_SLBL       10073598     appmappingData.obj
 0002:00004648       _modified_motor_PTIDSMAP   10073648     appmappingData.obj
 0002:00004808       _modified_motor_PTNAMESMAP 10073808     appmappingData.obj
 0002:000049c8       _modified_motor_SPTMAP     100739c8     appmappingData.obj
 0002:00004aa8       _modified_motor_dtmap      10073aa8     appmappingData.obj
 0002:00004ac0       _appInfo                   10073ac0     appmappingData.obj
 0002:00004d84       ??_C@_0CC@FIFFDAB@?$CFd?5input?5args?5expected?0?5?$CFd?5passe@ 10073d84     daquanserq8.obj
 0002:00004dac       ??_C@_0L@GPCJJFPH@Quanser?5Q8?$AA@ 10073dac     daquanserq8.obj
 0002:00004dbc       ??_C@_0L@MDJMNKPL@Quanser?5Q4?$AA@ 10073dbc     daquanserq8.obj
 0002:00004dcc       ??_C@_0BI@IHCNPKCM@No?5?$CFs?5at?5bus?5?$CFd?5slot?5?$CFd?$AA@ 10073dcc     daquanserq8.obj
 0002:00004de8       ??_C@_0BK@DJPPGIA@Bad?5channel?5in?5?$CFs?5D?1A?3?5?$CFn?$AA@ 10073de8     daquanserq8.obj
 0002:00004e08       ??_C@_0BI@OLGKMIEO@Bad?5range?5in?5?$CFs?5D?1A?3?5?$CFd?$AA@ 10073e08     daquanserq8.obj
 0002:00004e28       __real@4014000000000000    10073e28     daquanserq8.obj
 0002:00004e38       __real@4024000000000000    10073e38     daquanserq8.obj
 0002:00004e48       __real@406999999999999a    10073e48     daquanserq8.obj
 0002:00004e58       __real@407999999999999a    10073e58     daquanserq8.obj
 0002:00004e64       ??_C@_0BL@NBOIGMKP@Q8?1Q4?5encoder?5error?5?$CFx?5?$CFx?6?$AA@ 10073e64     encquanserq8.obj
 0002:00004e84       ??_C@_0CC@DMFKNLL@VendorId?5?$DN?50x?$CFx?0?5DeviceId?5?$DN?50x?$CFx@ 10073e84     xpcruntime:xpcimports.obj
 0002:00004eac       ??_C@_0DH@OHCBLNMG@Subsystem?5Device?5ID?5?$DN?50x?$CFx?6Subsy@ 10073eac     xpcruntime:xpcimports.obj
 0002:00004ef0       ??_C@_0BD@MMMMEFCM@Class?5Code?5?$DN?50x?$CFx?6?$AA@ 10073ef0     xpcruntime:xpcimports.obj
 0002:00004f08       ??_C@_0BE@OLDDDNHM@InterruptLine?5?$DN?5?$CFd?6?$AA@ 10073f08     xpcruntime:xpcimports.obj
 0002:00004f20       ??_C@_0BF@OLKLEKBD@bus?5?$DN?5?$CFd?0?5slot?5?$DN?5?$CFd?6?$AA@ 10073f20     xpcruntime:xpcimports.obj
 0002:00004f3c       ??_C@_0CE@DGLLGDFH@?5?5?5?5Phys?5?5?5Virtual?5?5?5Length?5IO?1M@ 10073f3c     xpcruntime:xpcimports.obj
 0002:00004f68       ??_C@_0BI@FEOPLEMG@?$CF08x?5?$CF08x?5?$CF08x?5?5?5?5?5?5?$CFc?6?$AA@ 10073f68     xpcruntime:xpcimports.obj
 0002:00004f84       ??_C@_0BB@BNNCEDPC@rl32eScopeExists?$AA@ 10073f84     xpcruntime:xpcimports.obj
 0002:00004f98       ??_C@_0BM@FJBFEGFG@rl32eScopeExists?5not?5found?6?$AA@ 10073f98     xpcruntime:xpcimports.obj
 0002:00004fbc       ??_C@_0O@BNNGKJEA@rl32eDefScope?$AA@ 10073fbc     xpcruntime:xpcimports.obj
 0002:00004fcc       ??_C@_0BJ@CDNOENKA@rl32eDefScope?5not?5found?6?$AA@ 10073fcc     xpcruntime:xpcimports.obj
 0002:00004fec       ??_C@_0P@CKNKILDP@rl32eAddSignal?$AA@ 10073fec     xpcruntime:xpcimports.obj
 0002:00005000       ??_C@_0BK@GMJAJBAI@rl32eAddSignal?5not?5found?6?$AA@ 10074000     xpcruntime:xpcimports.obj
 0002:00005020       ??_C@_0BB@LDMIHGCE@rl32eGetSignalNo?$AA@ 10074020     xpcruntime:xpcimports.obj
 0002:00005034       ??_C@_0BM@LGAMBAID@rl32eGetSignalNo?5not?5found?6?$AA@ 10074034     xpcruntime:xpcimports.obj
 0002:00005058       ??_C@_0O@CFDGALBP@rl32eSetScope?$AA@ 10074058     xpcruntime:xpcimports.obj
 0002:00005068       ??_C@_0BJ@JCLHHIN@rl32eSetScope?5not?5found?6?$AA@ 10074068     xpcruntime:xpcimports.obj
 0002:00005088       ??_C@_0P@IKMCBMHH@xpceFSScopeSet?$AA@ 10074088     xpcruntime:xpcimports.obj
 0002:0000509c       ??_C@_0BK@JODJPNNH@xpceFSScopeSet?5not?5found?6?$AA@ 1007409c     xpcruntime:xpcimports.obj
 0002:000050bc       ??_C@_0BE@DLACEEJM@rl32eSetTargetScope?$AA@ 100740bc     xpcruntime:xpcimports.obj
 0002:000050d4       ??_C@_0BP@JCHFMKPJ@rl32eSetTargetScope?5not?5found?6?$AA@ 100740d4     xpcruntime:xpcimports.obj
 0002:000050fc       ??_C@_0BJ@LIDLNDHC@rl32eSetTargetScopeSigFt?$AA@ 100740fc     xpcruntime:xpcimports.obj
 0002:0000511c       ??_C@_0CE@JLGHCFHI@rl32eSetTargetScopeSigFt?5not?5fou@ 1007411c     xpcruntime:xpcimports.obj
 0002:00005148       ??_C@_0BI@JAPOIDNG@rl32eRestartAcquisition?$AA@ 10074148     xpcruntime:xpcimports.obj
 0002:00005164       ??_C@_0CD@LLBEFFBO@rl32eRestartAcquisition?5not?5foun@ 10074164     xpcruntime:xpcimports.obj
 0002:00005190       ??_C@_0P@IEIIADJB@xpceScopeAcqOK?$AA@ 10074190     xpcruntime:xpcimports.obj
 0002:000051a4       ??_C@_0BK@NJCKNFPN@xpceScopeAcqOK?5not?5found?6?$AA@ 100741a4     xpcruntime:xpcimports.obj
 0002:000051c4       ??_C@_0BA@IJINKAHF@xpceRegisterISR?$AA@ 100741c4     xpcruntime:xpcimports.obj
 0002:000051d8       ??_C@_0BL@NNDLOEJE@xpceRegisterISR?5not?5found?6?$AA@ 100741d8     xpcruntime:xpcimports.obj
 0002:000051f8       ??_C@_0BC@NLBADGKF@xpceDeRegisterISR?$AA@ 100741f8     xpcruntime:xpcimports.obj
 0002:00005210       ??_C@_0BN@DCAIKFFD@xpceDeRegisterISR?5not?5found?6?$AA@ 10074210     xpcruntime:xpcimports.obj
 0002:00005234       ??_C@_07JPMEPILD@xpcInpB?$AA@ 10074234     xpcruntime:xpcimports.obj
 0002:00005240       ??_C@_0BD@PGABEJOL@xpcInpB?5not?5found?6?$AA@ 10074240     xpcruntime:xpcimports.obj
 0002:00005258       ??_C@_07KIHBBOKH@xpcInpW?$AA@ 10074258     xpcruntime:xpcimports.obj
 0002:00005264       ??_C@_0BD@FPCJFMCC@xpcInpW?5not?5found?6?$AA@ 10074264     xpcruntime:xpcimports.obj
 0002:0000527c       ??_C@_08KDIAJBOP@xpcInpDW?$AA@ 1007427c     xpcruntime:xpcimports.obj
 0002:00005288       ??_C@_0BE@PIELDNIL@xpcInpDW?5not?5found?6?$AA@ 10074288     xpcruntime:xpcimports.obj
 0002:000052a0       ??_C@_08PJFMOIGO@xpcOutpB?$AA@ 100742a0     xpcruntime:xpcimports.obj
 0002:000052ac       ??_C@_0BE@HCKNCEKF@xpcOutpB?5not?5found?6?$AA@ 100742ac     xpcruntime:xpcimports.obj
 0002:000052c4       ??_C@_08MOOJAOHK@xpcOutpW?$AA@ 100742c4     xpcruntime:xpcimports.obj
 0002:000052d0       ??_C@_0BE@NLIFDBGM@xpcOutpW?5not?5found?6?$AA@ 100742d0     xpcruntime:xpcimports.obj
 0002:000052e8       ??_C@_09FLIEKHJG@xpcOutpDW?$AA@ 100742e8     xpcruntime:xpcimports.obj
 0002:000052f4       ??_C@_0BF@GJKLPNHB@xpcOutpDW?5not?5found?6?$AA@ 100742f4     xpcruntime:xpcimports.obj
 0002:00005310       ??_C@_0BH@EHOLELHH@xpcReserveMemoryRegion?$AA@ 10074310     xpcruntime:xpcimports.obj
 0002:0000532c       ??_C@_0CC@KAAAGPI@xpcReserveMemoryRegion?5not?5found@ 1007432c     xpcruntime:xpcimports.obj
 0002:00005354       ??_C@_0BA@JGPMHGAF@rl32eShowPCIDev?$AA@ 10074354     xpcruntime:xpcimports.obj
 0002:00005368       ??_C@_0BL@DDFFLNHI@rl32eShowPCIDev?5not?5found?6?$AA@ 10074368     xpcruntime:xpcimports.obj
 0002:00005388       ??_C@_0BB@KBCOJPFB@rl32eShowPCIInfo?$AA@ 10074388     xpcruntime:xpcimports.obj
 0002:0000539c       ??_C@_0BM@IFDMAGLO@rl32eShowPCIInfo?5not?5found?6?$AA@ 1007439c     xpcruntime:xpcimports.obj
 0002:000053c0       ??_C@_0BA@BGPAADB@rl32eGetPCIInfo?$AA@ 100743c0     xpcruntime:xpcimports.obj
 0002:000053d4       ??_C@_0BL@IGOMLDCK@rl32eGetPCIInfo?5not?5found?6?$AA@ 100743d4     xpcruntime:xpcimports.obj
 0002:000053f4       ??_C@_0BG@NJPFKFDP@rl32eGetPCIInfoAtSlot?$AA@ 100743f4     xpcruntime:xpcimports.obj
 0002:00005410       ??_C@_0CB@BBKIPMLA@rl32eGetPCIInfoAtSlot?5not?5found?6@ 10074410     xpcruntime:xpcimports.obj
 0002:00005438       ??_C@_0BH@OKBOPNFG@xpceAssignPCIInterrupt?$AA@ 10074438     xpcruntime:xpcimports.obj
 0002:00005454       ??_C@_0CC@CDNDNJBJ@xpceAssignPCIInterrupt?5not?5found@ 10074454     xpcruntime:xpcimports.obj
 0002:0000547c       ??_C@_0BD@PCKOKHO@xpceGetSignalValue?$AA@ 1007447c     xpcruntime:xpcimports.obj
 0002:00005494       ??_C@_0BO@GCBDJHMB@xpceGetSignalValue?5not?5found?6?$AA@ 10074494     xpcruntime:xpcimports.obj
 0002:000054b8       ??_C@_0BB@BJONJAGA@xpceSetParameter?$AA@ 100744b8     xpcruntime:xpcimports.obj
 0002:000054cc       ??_C@_0BM@BJIKDLHA@xpceSetParameter?5not?5found?6?$AA@ 100744cc     xpcruntime:xpcimports.obj
 0002:000054f0       ??_C@_0BB@GNFDFMCM@xpceGetParameter?$AA@ 100744f0     xpcruntime:xpcimports.obj
 0002:00005504       ??_C@_0BM@POHNKBC@xpceGetParameter?5not?5found?6?$AA@ 10074504     xpcruntime:xpcimports.obj
 0002:00005528       ??_C@_0BB@CEIJLFCD@xpceGetParamDims?$AA@ 10074528     xpcruntime:xpcimports.obj
 0002:0000553c       ??_C@_0BM@OABDBKAO@xpceGetParamDims?5not?5found?6?$AA@ 1007453c     xpcruntime:xpcimports.obj
 0002:00005560       ??_C@_0L@OCBLLHBM@xpceGetTET?$AA@ 10074560     xpcruntime:xpcimports.obj
 0002:00005570       ??_C@_0BG@HNOFBOB@xpceGetTET?5not?5found?6?$AA@ 10074570     xpcruntime:xpcimports.obj
 0002:0000558c       ??_C@_0P@OKGNGAGH@xpcIsModelInit?$AA@ 1007458c     xpcruntime:xpcimports.obj
 0002:000055a0       ??_C@_0BK@DHEMLBIM@xpcIsModelInit?5not?5found?6?$AA@ 100745a0     xpcruntime:xpcimports.obj
 0002:000055c0       ??_C@_0BH@KJJLCAOJ@xpcAllocPhysicalMemory?$AA@ 100745c0     xpcruntime:xpcimports.obj
 0002:000055dc       ??_C@_0CC@MOJPNHKL@xpcAllocPhysicalMemory?5not?5found@ 100745dc     xpcruntime:xpcimports.obj
 0002:00005604       ??_C@_0BG@CBNPGAEL@xpcFreePhysicalMemory?$AA@ 10074604     xpcruntime:xpcimports.obj
 0002:00005620       ??_C@_0CB@PKJEBPOG@xpcFreePhysicalMemory?5not?5found?6@ 10074620     xpcruntime:xpcimports.obj
 0002:00005648       ??_C@_0BC@JGKNLICL@xpcGetElapsedTime?$AA@ 10074648     xpcruntime:xpcimports.obj
 0002:00005660       ??_C@_0BN@OEOAHCIO@xpcGetElapsedTime?5not?5found?6?$AA@ 10074660     xpcruntime:xpcimports.obj
 0002:00005684       ??_C@_0M@ICBLMODA@xpcBusyWait?$AA@ 10074684     xpcruntime:xpcimports.obj
 0002:00005694       ??_C@_0BH@FBOPECBI@xpcBusyWait?5not?5found?6?$AA@ 10074694     xpcruntime:xpcimports.obj
 0002:000056b0       ??_C@_0N@LKKJEKKA@TBCreateSpin?$AA@ 100746b0     xpcruntime:xpcimports.obj
 0002:000056c0       ??_C@_0BI@FHKMLKOE@TBCreateSpin?5not?5found?6?$AA@ 100746c0     xpcruntime:xpcimports.obj
 0002:000056dc       ??_C@_0N@HOAJHNBD@TBDeleteSpin?$AA@ 100746dc     xpcruntime:xpcimports.obj
 0002:000056ec       ??_C@_0BI@BKCPAAG@TBDeleteSpin?5not?5found?6?$AA@ 100746ec     xpcruntime:xpcimports.obj
 0002:00005708       ??_C@_0P@DAHDDBJG@TBTakeSpinFast?$AA@ 10074708     xpcruntime:xpcimports.obj
 0002:0000571c       ??_C@_0BK@NKAIBHGB@TBTakeSpinFast?5not?5found?6?$AA@ 1007471c     xpcruntime:xpcimports.obj
 0002:0000573c       ??_C@_0P@FKNAAELA@TBGiveSpinFast?$AA@ 1007473c     xpcruntime:xpcimports.obj
 0002:00005750       ??_C@_0BK@KGPJBJND@TBGiveSpinFast?5not?5found?6?$AA@ 10074750     xpcruntime:xpcimports.obj
 0002:00005770       ??_C@_0BE@IIGBFDHK@xpceCreateSemaphore?$AA@ 10074770     xpcruntime:xpcimports.obj
 0002:00005788       ??_C@_0BP@KFBAFFKJ@xpceCreateSemaphore?5not?5found?6?$AA@ 10074788     xpcruntime:xpcimports.obj
 0002:000057b0       ??_C@_0BC@IFNIONKJ@xpceWaitSemaphore?$AA@ 100747b0     xpcruntime:xpcimports.obj
 0002:000057c8       ??_C@_0BN@NMFAADIO@xpceWaitSemaphore?5not?5found?6?$AA@ 100747c8     xpcruntime:xpcimports.obj
 0002:000057ec       ??_C@_0BE@NNDIOBKE@xpceSignalSemaphore?$AA@ 100747ec     xpcruntime:xpcimports.obj
 0002:00005804       ??_C@_0BP@LBANMHJP@xpceSignalSemaphore?5not?5found?6?$AA@ 10074804     xpcruntime:xpcimports.obj
 0002:0000582c       ??_C@_0BE@MEBEKOIM@xpceDeleteSemaphore?$AA@ 1007482c     xpcruntime:xpcimports.obj
 0002:00005844       ??_C@_0BP@OFNCKOJH@xpceDeleteSemaphore?5not?5found?6?$AA@ 10074844     xpcruntime:xpcimports.obj
 0002:0000586c       ??_C@_0BD@MFNDMBOF@FindUsbVideoDevice?$AA@ 1007486c     xpcruntime:xpcimports.obj
 0002:00005884       ??_C@_0BO@POKLDHMI@FindUsbVideoDevice?5not?5found?6?$AA@ 10074884     xpcruntime:xpcimports.obj
 0002:000058a8       ??_C@_0BA@PLPAPNAB@GetVideoConfigs?$AA@ 100748a8     xpcruntime:xpcimports.obj
 0002:000058bc       ??_C@_0BL@DALDHKHC@GetVideoConfigs?5not?5found?6?$AA@ 100748bc     xpcruntime:xpcimports.obj
 0002:000058dc       ??_C@_0L@GBAEMHMH@StartVideo?$AA@ 100748dc     xpcruntime:xpcimports.obj
 0002:000058ec       ??_C@_0BG@HDCELEBP@StartVideo?5not?5found?6?$AA@ 100748ec     xpcruntime:xpcimports.obj
 0002:00005908       ??_C@_0BA@FDNPOCLN@ReadFrameBuffer?$AA@ 10074908     xpcruntime:xpcimports.obj
 0002:0000591c       ??_C@_0BL@JHGHPNBI@ReadFrameBuffer?5not?5found?6?$AA@ 1007491c     xpcruntime:xpcimports.obj
 0002:0000593c       ??_C@_09FAHCLKAG@StopVideo?$AA@ 1007493c     xpcruntime:xpcimports.obj
 0002:00005948       ??_C@_0BF@NKGKKADL@StopVideo?5not?5found?6?$AA@ 10074948     xpcruntime:xpcimports.obj
 0002:00005964       ??_C@_0O@MCPKDLLL@ConvertUImage?$AA@ 10074964     xpcruntime:xpcimports.obj
 0002:00005974       ??_C@_0BJ@PHJKOAFL@ConvertUImage?5not?5found?6?$AA@ 10074974     xpcruntime:xpcimports.obj
 0002:00005994       ??_C@_0BD@NKCBPBJJ@CreateVideoDisplay?$AA@ 10074994     xpcruntime:xpcimports.obj
 0002:000059ac       ??_C@_0BO@HPPLLNFP@CreateVideoDisplay?5not?5found?6?$AA@ 100749ac     xpcruntime:xpcimports.obj
 0002:000059d0       ??_C@_0BE@KJCKGPHA@DestroyVideoDisplay?$AA@ 100749d0     xpcruntime:xpcimports.obj
 0002:000059e8       ??_C@_0BP@FMGLJAIJ@DestroyVideoDisplay?5not?5found?6?$AA@ 100749e8     xpcruntime:xpcimports.obj
 0002:00005a10       ??_C@_0BC@HCMIMIDN@StartVideoDisplay?$AA@ 10074a10     xpcruntime:xpcimports.obj
 0002:00005a28       ??_C@_0BN@EFIEBGOO@StartVideoDisplay?5not?5found?6?$AA@ 10074a28     xpcruntime:xpcimports.obj
 0002:00005a4c       ??_C@_0BB@JBBLMILG@StopVideoDisplay?$AA@ 10074a4c     xpcruntime:xpcimports.obj
 0002:00005a60       ??_C@_0BM@DBJBPLEL@StopVideoDisplay?5not?5found?6?$AA@ 10074a60     xpcruntime:xpcimports.obj
 0002:00005a84       ??_C@_0M@MFJEGMHC@StreamVideo?$AA@ 10074a84     xpcruntime:xpcimports.obj
 0002:00005a94       ??_C@_0BH@OINCDMLA@StreamVideo?5not?5found?6?$AA@ 10074a94     xpcruntime:xpcimports.obj
 0002:00005ab0       ??_C@_0N@IGGLCIGE@xpceaddEvent?$AA@ 10074ab0     xpcruntime:xpcimports.obj
 0002:00005ac0       ??_C@_0BI@NHJNFMKH@xpceaddEvent?5not?5found?6?$AA@ 10074ac0     xpcruntime:xpcimports.obj
 0002:00005adc       ??_C@_0BB@HDPOIJAB@xpceDAQPostEvent?$AA@ 10074adc     xpcruntime:xpcimports.obj
 0002:00005af0       ??_C@_0BM@IHANBKGN@xpceDAQPostEvent?5not?5found?6?$AA@ 10074af0     xpcruntime:xpcimports.obj
 0002:00005b14       ??_C@_0BH@MBACMOD@xpceDAQUpdateTimeStamp?$AA@ 10074b14     xpcruntime:xpcimports.obj
 0002:00005b30       ??_C@_0CC@DAKBBINL@xpceDAQUpdateTimeStamp?5not?5found@ 10074b30     xpcruntime:xpcimports.obj
 0002:00005b58       ??_C@_0BN@HJOHIFOM@xpceGetIntTimerGranularityNS?$AA@ 10074b58     xpcruntime:xpcimports.obj
 0002:00005b7c       ??_C@_0CI@OADDPMKB@xpceGetIntTimerGranularityNS?5not@ 10074b7c     xpcruntime:xpcimports.obj
 0002:00005bac       ??_C@_0BG@CCHICKPN@slrteSetStepSizeDelta?$AA@ 10074bac     xpcruntime:xpcimports.obj
 0002:00005bc8       ??_C@_0CB@MKHINEIJ@slrteSetStepSizeDelta?5not?5found?6@ 10074bc8     xpcruntime:xpcimports.obj
 0002:00005bf0       ??_C@_0BI@CLNBLDKJ@slrteGetCurrentStepSize?$AA@ 10074bf0     xpcruntime:xpcimports.obj
 0002:00005c0c       ??_C@_0CD@GIOJPGJA@slrteGetCurrentStepSize?5not?5foun@ 10074c0c     xpcruntime:xpcimports.obj
 0002:00005c38       ??_C@_0BE@FCLCBOC@registerPTPTimeRead?$AA@ 10074c38     xpcruntime:xpcimports.obj
 0002:00005c50       ??_C@_0BP@LHPKAJIP@registerPTPTimeRead?5not?5found?6?$AA@ 10074c50     xpcruntime:xpcimports.obj
 0002:00005c78       ??_C@_0BG@KIGCDDJI@unRegisterPTPTimeRead?$AA@ 10074c78     xpcruntime:xpcimports.obj
 0002:00005c94       ??_C@_0CB@MLFFBFCM@unRegisterPTPTimeRead?5not?5found?6@ 10074c94     xpcruntime:xpcimports.obj
 0002:00005cbc       ??_C@_0BB@IPMDDBHK@slTestInitialize?$AA@ 10074cbc     xpcruntime:xpcimports.obj
 0002:00005cd0       ??_C@_0BM@LAJFCCJH@slTestInitialize?5not?5found?6?$AA@ 10074cd0     xpcruntime:xpcimports.obj
 0002:00005cf4       ??_C@_0BF@OOMPMEBC@slTestLogAssessments?$AA@ 10074cf4     xpcruntime:xpcimports.obj
 0002:00005d10       ??_C@_0CA@FGJCEBAG@slTestLogAssessments?5not?5found?6?$AA@ 10074d10     xpcruntime:xpcimports.obj
 0002:00005d38       ??_C@_0BB@HJHKONHO@slTestEvalOnFail?$AA@ 10074d38     xpcruntime:xpcimports.obj
 0002:00005d4c       ??_C@_0BM@JIKCFFNJ@slTestEvalOnFail?5not?5found?6?$AA@ 10074d4c     xpcruntime:xpcimports.obj
 0002:00005d70       ??_C@_0BA@LBHLABFP@slTestTerminate?$AA@ 10074d70     xpcruntime:xpcimports.obj
 0002:00005d84       ??_C@_0BL@EMFGKAPA@slTestTerminate?5not?5found?6?$AA@ 10074d84     xpcruntime:xpcimports.obj
 0002:00005da4       ??_C@_0BE@JPNPBBEO@slTestRegAssessment?$AA@ 10074da4     xpcruntime:xpcimports.obj
 0002:00005dbc       ??_C@_0BP@FBDEJJJH@slTestRegAssessment?5not?5found?6?$AA@ 10074dbc     xpcruntime:xpcimports.obj
 0002:00005de4       ??_C@_0O@NCLGDNIB@slrteSetupMSI?$AA@ 10074de4     xpcruntime:xpcimports.obj
 0002:00005df4       ??_C@_0BJ@HEFMECLM@slrteSetupMSI?5not?5found?6?$AA@ 10074df4     xpcruntime:xpcimports.obj
 0002:00005e14       ??_C@_0BH@BPOLALHD@slrtGetCRBScratchSpace?$AA@ 10074e14     xpcruntime:xpcimports.obj
 0002:00005e30       ??_C@_0CC@KCKAJKKJ@slrtGetCRBScratchSpace?5not?5found@ 10074e30     xpcruntime:xpcimports.obj
 0002:00005e58       ??_C@_0BC@MKFDAKOL@slrtGetSgCRBSpace?$AA@ 10074e58     xpcruntime:xpcimports.obj
 0002:00005e70       ??_C@_0BN@JDPHPLHL@slrtGetSgCRBSpace?5not?5found?6?$AA@ 10074e70     xpcruntime:xpcimports.obj
 0002:00005e94       ??_C@_0P@EPAPKLIF@slrtfsOpenFile?$AA@ 10074e94     xpcruntime:xpcimports.obj
 0002:00005ea8       ??_C@_0BK@FIHCBOHG@slrtfsOpenFile?5not?5found?6?$AA@ 10074ea8     xpcruntime:xpcimports.obj
 0002:00005ec8       ??_C@_0BA@LILAFDDL@slrtfsCloseFile?$AA@ 10074ec8     xpcruntime:xpcimports.obj
 0002:00005edc       ??_C@_0BL@DEGHJFIB@slrtfsCloseFile?5not?5found?6?$AA@ 10074edc     xpcruntime:xpcimports.obj
 0002:00005efc       ??_C@_0BC@OKMJDIEH@slrtfsWriteToFile?$AA@ 10074efc     xpcruntime:xpcimports.obj
 0002:00005f14       ??_C@_0BN@KCFLCLAH@slrtfsWriteToFile?5not?5found?6?$AA@ 10074f14     xpcruntime:xpcimports.obj
 0002:00005f38       ??_C@_0BK@GIPNFFFF@slrtfsGetFileErrorMessage?$AA@ 10074f38     xpcruntime:xpcimports.obj
 0002:00005f58       ??_C@_0CF@BCBLMKLE@slrtfsGetFileErrorMessage?5not?5fo@ 10074f58     xpcruntime:xpcimports.obj
 0002:00005f84       ??_C@_0BD@ICBOKMK@slrtfsGetFileError?$AA@ 10074f84     xpcruntime:xpcimports.obj
 0002:00005f9c       ??_C@_0BO@FNBANAE@slrtfsGetFileError?5not?5found?6?$AA@ 10074f9c     xpcruntime:xpcimports.obj
 0002:00005fc0       ??_C@_0BE@PPAJMHJP@slrtfsOpenFileAsync?$AA@ 10074fc0     xpcruntime:xpcimports.obj
 0002:00005fd8       ??_C@_0BP@HKBMMJOK@slrtfsOpenFileAsync?5not?5found?6?$AA@ 10074fd8     xpcruntime:xpcimports.obj
 0002:00006000       ??_C@_0BF@IGNDIBPF@slrtfsCloseFileAsync?$AA@ 10075000     xpcruntime:xpcimports.obj
 0002:0000601c       ??_C@_0CA@GJPFDBKN@slrtfsCloseFileAsync?5not?5found?6?$AA@ 1007501c     xpcruntime:xpcimports.obj
 0002:00006044       ??_C@_0BE@IOLEBNB@slrtfsGetFileStatus?$AA@ 10075044     xpcruntime:xpcimports.obj
 0002:0000605c       ??_C@_0BP@PEFHDGHL@slrtfsGetFileStatus?5not?5found?6?$AA@ 1007505c     xpcruntime:xpcimports.obj
 0002:00006084       ??_C@_0M@HKIJIMG@slrtfsFread?$AA@ 10075084     xpcruntime:xpcimports.obj
 0002:00006094       ??_C@_0BH@OOKBGONO@slrtfsFread?5not?5found?6?$AA@ 10075094     xpcruntime:xpcimports.obj
 0002:000060b0       ??_C@_0BE@OGCMPLAP@slrtGetDefaultDrive?$AA@ 100750b0     xpcruntime:xpcimports.obj
 0002:000060c8       ??_C@_0BP@HKFGLHOE@slrtGetDefaultDrive?5not?5found?6?$AA@ 100750c8     xpcruntime:xpcimports.obj
 0002:000060f0       ??_C@_0N@NAJIKFFI@slrtLogEvent?$AA@ 100750f0     xpcruntime:xpcimports.obj
 0002:00006100       ??_C@_0BI@NKCEACND@slrtLogEvent?5not?5found?6?$AA@ 10075100     xpcruntime:xpcimports.obj
 0002:0000611c       ??_C@_0N@IDKFJOHI@getlasterror?$AA@ 1007511c     xpcruntime:xpcimports.obj
 0002:0000612c       ??_C@_0BI@MIHMCHGL@getlasterror?5not?5found?6?$AA@ 1007512c     xpcruntime:xpcimports.obj
 0002:00006148       ??_C@_0P@OKHGKJKN@geterrorstring?$AA@ 10075148     xpcruntime:xpcimports.obj
 0002:0000615c       ??_C@_0BK@NOHFDMLP@geterrorstring?5not?5found?6?$AA@ 1007515c     xpcruntime:xpcimports.obj
 0002:0000617c       ??_C@_0BD@HNFFKMGJ@slrtGetCPUTCelsius?$AA@ 1007517c     xpcruntime:xpcimports.obj
 0002:00006194       ??_C@_0BO@LHBFKLIH@slrtGetCPUTCelsius?5not?5found?6?$AA@ 10075194     xpcruntime:xpcimports.obj
 0002:000061b8       ??_C@_0M@OONCNCLM@slrtWarning?$AA@ 100751b8     xpcruntime:xpcimports.obj
 0002:000061c8       ??_C@_0BH@ICKGIEMB@slrtWarning?5not?5found?6?$AA@ 100751c8     xpcruntime:xpcimports.obj
 0002:000061e4       ??_C@_0N@EAAOMIIE@isUsedByRTIP?$AA@ 100751e4     xpcruntime:xpcimports.obj
 0002:000061f4       ??_C@_0BI@GNHHHICK@isUsedByRTIP?5not?5found?6?$AA@ 100751f4     xpcruntime:xpcimports.obj
 0002:00006210       ??_C@_0BC@HLDKJAG@SetIPTASKPriority?$AA@ 10075210     xpcruntime:xpcimports.obj
 0002:00006228       ??_C@_0BN@OGKMHHAE@SetIPTASKPriority?5not?5found?6?$AA@ 10075228     xpcruntime:xpcimports.obj
 0002:0000624c       ??_C@_0O@LHENMBDD@OpenInterface?$AA@ 1007524c     xpcruntime:xpcimports.obj
 0002:0000625c       ??_C@_0BJ@PFGDBKHB@OpenInterface?5not?5found?6?$AA@ 1007525c     xpcruntime:xpcimports.obj
 0002:0000627c       ??_C@_0P@IINFELKD@CloseInterface?$AA@ 1007527c     xpcruntime:xpcimports.obj
 0002:00006290       ??_C@_0BK@PAPDNDBK@CloseInterface?5not?5found?6?$AA@ 10075290     xpcruntime:xpcimports.obj
 0002:000062b0       ??_C@_05LEFIAAOI@SetIP?$AA@ 100752b0     xpcruntime:xpcimports.obj
 0002:000062b8       ??_C@_0BB@CGLIBAMM@SetIP?5not?5found?6?$AA@ 100752b8     xpcruntime:xpcimports.obj
 0002:000062cc       ??_C@_0BA@HIJJHHMD@AddGatewayRoute?$AA@ 100752cc     xpcruntime:xpcimports.obj
 0002:000062e0       ??_C@_0BL@BFCFMDMN@AddGatewayRoute?5not?5found?6?$AA@ 100752e0     xpcruntime:xpcimports.obj
 0002:00006300       ??_C@_0M@PHMABFPI@DeleteRoute?$AA@ 10075300     xpcruntime:xpcimports.obj
 0002:00006310       ??_C@_0BH@JPJGLLID@DeleteRoute?5not?5found?6?$AA@ 10075310     xpcruntime:xpcimports.obj
 0002:0000632c       ??_C@_0BA@FCDIMKIJ@GetHostTarIPAdd?$AA@ 1007532c     xpcruntime:xpcimports.obj
 0002:00006340       ??_C@_0BL@MBKDGKBO@GetHostTarIPAdd?5not?5found?6?$AA@ 10075340     xpcruntime:xpcimports.obj
 0002:00006360       ??_C@_0M@HPMIPIBI@GetDCUUsage?$AA@ 10075360     xpcruntime:xpcimports.obj
 0002:00006370       ??_C@_0BH@EBLJKCJC@GetDCUUsage?5not?5found?6?$AA@ 10075370     xpcruntime:xpcimports.obj
 0002:0000638c       ??_C@_06MPKMECK@accept?$AA@ 1007538c     xpcruntime:xpcimports.obj
 0002:00006394       ??_C@_0BC@GBGIEMNO@accept?5not?5found?6?$AA@ 10075394     xpcruntime:xpcimports.obj
 0002:000063ac       ??_C@_04NPNJNMMP@bind?$AA@ 100753ac     xpcruntime:xpcimports.obj
 0002:000063b4       ??_C@_0BA@DAJNENLO@bind?5not?5found?6?$AA@ 100753b4     xpcruntime:xpcimports.obj
 0002:000063c8       ??_C@_0L@CKHNIFCM@setsockopt?$AA@ 100753c8     xpcruntime:xpcimports.obj
 0002:000063d8       ??_C@_0BG@MFIIOMFE@setsockopt?5not?5found?6?$AA@ 100753d8     xpcruntime:xpcimports.obj
 0002:000063f4       ??_C@_0M@ODDJDCDK@closesocket?$AA@ 100753f4     xpcruntime:xpcimports.obj
 0002:00006404       ??_C@_0BH@JHGHMIL@closesocket?5not?5found?6?$AA@ 10075404     xpcruntime:xpcimports.obj
 0002:00006420       ??_C@_07KAIBNCHO@connect?$AA@ 10075420     xpcruntime:xpcimports.obj
 0002:0000642c       ??_C@_0BD@MKLLMBM@connect?5not?5found?6?$AA@ 1007542c     xpcruntime:xpcimports.obj
 0002:00006444       ??_C@_0M@PBPOCKDG@ioctlsocket?$AA@ 10075444     xpcruntime:xpcimports.obj
 0002:00006454       ??_C@_0BH@NFCNHHIH@ioctlsocket?5not?5found?6?$AA@ 10075454     xpcruntime:xpcimports.obj
 0002:00006470       ??_C@_06OODDLKLE@listen?$AA@ 10075470     xpcruntime:xpcimports.obj
 0002:00006478       ??_C@_0BC@NHBILEKI@listen?5not?5found?6?$AA@ 10075478     xpcruntime:xpcimports.obj
 0002:00006490       ??_C@_08HMBBGFHE@recvfrom?$AA@ 10075490     xpcruntime:xpcimports.obj
 0002:0000649c       ??_C@_0BE@BJAJFFLF@recvfrom?5not?5found?6?$AA@ 1007549c     xpcruntime:xpcimports.obj
 0002:000064b4       ??_C@_06MEPBGKEC@sendto?$AA@ 100754b4     xpcruntime:xpcimports.obj
 0002:000064bc       ??_C@_0BC@BHPIMDJO@sendto?5not?5found?6?$AA@ 100754bc     xpcruntime:xpcimports.obj
 0002:000064d4       ??_C@_09JKBDEEOB@inet_addr?$AA@ 100754d4     xpcruntime:xpcimports.obj
 0002:000064e0       ??_C@_0BF@HKJPGECN@inet_addr?5not?5found?6?$AA@ 100754e0     xpcruntime:xpcimports.obj
 0002:000064fc       ??_C@_06HBELJPBO@socket?$AA@ 100754fc     xpcruntime:xpcimports.obj
 0002:00006504       ??_C@_0BC@NAGFFJGA@socket?5not?5found?6?$AA@ 10075504     xpcruntime:xpcimports.obj
 0002:0000651c       ??_C@_09ICJIFGNC@GetSocket?$AA@ 1007551c     xpcruntime:xpcimports.obj
 0002:00006528       ??_C@_0BF@KDBCKMOJ@GetSocket?5not?5found?6?$AA@ 10075528     xpcruntime:xpcimports.obj
 0002:00006544       ??_C@_0P@KJEGJMJI@GetSocketState?$AA@ 10075544     xpcruntime:xpcimports.obj
 0002:00006558       ??_C@_0BK@IALBJHEB@GetSocketState?5not?5found?6?$AA@ 10075558     xpcruntime:xpcimports.obj
 0002:00006578       ??_C@_0L@MEAJHNHB@SocketSend?$AA@ 10075578     xpcruntime:xpcimports.obj
 0002:00006588       ??_C@_0BG@EOCMBFJA@SocketSend?5not?5found?6?$AA@ 10075588     xpcruntime:xpcimports.obj
 0002:000065a4       ??_C@_0O@PFPCLEMF@SocketReceive?$AA@ 100755a4     xpcruntime:xpcimports.obj
 0002:000065b4       ??_C@_0BJ@HIBADDFO@SocketReceive?5not?5found?6?$AA@ 100755b4     xpcruntime:xpcimports.obj
 0002:000065d4       ??_C@_0BD@OOGFNAIK@CreateServerSocket?$AA@ 100755d4     xpcruntime:xpcimports.obj
 0002:000065ec       ??_C@_0BO@GKIJHIPH@CreateServerSocket?5not?5found?6?$AA@ 100755ec     xpcruntime:xpcimports.obj
 0002:00006610       ??_C@_0BB@KGHJGFFO@OpenServerListen?$AA@ 10075610     xpcruntime:xpcimports.obj
 0002:00006624       ??_C@_0BM@NFMMLIO@OpenServerListen?5not?5found?6?$AA@ 10075624     xpcruntime:xpcimports.obj
 0002:00006648       ??_C@_0BE@BAJLDJAH@ConnectServerSocket?$AA@ 10075648     xpcruntime:xpcimports.obj
 0002:00006660       ??_C@_0BP@KJNODIKE@ConnectServerSocket?5not?5found?6?$AA@ 10075660     xpcruntime:xpcimports.obj
 0002:00006688       ??_C@_0BC@PLKKJDIM@CloseServerSocket?$AA@ 10075688     xpcruntime:xpcimports.obj
 0002:000066a0       ??_C@_0BN@KEJEPNMB@CloseServerSocket?5not?5found?6?$AA@ 100756a0     xpcruntime:xpcimports.obj
 0002:000066c4       ??_C@_0BD@MCLPKCPP@CreateClientSocket?$AA@ 100756c4     xpcruntime:xpcimports.obj
 0002:000066dc       ??_C@_0BO@DILAGPFN@CreateClientSocket?5not?5found?6?$AA@ 100756dc     xpcruntime:xpcimports.obj
 0002:00006700       ??_C@_0BB@DAPKNNLG@BindClientSocket?$AA@ 10075700     xpcruntime:xpcimports.obj
 0002:00006714       ??_C@_0BM@LLLMMDFN@BindClientSocket?5not?5found?6?$AA@ 10075714     xpcruntime:xpcimports.obj
 0002:00006738       ??_C@_0BE@DMEBELHC@ConnectClientSocket?$AA@ 10075738     xpcruntime:xpcimports.obj
 0002:00006750       ??_C@_0BP@PLOHCPAO@ConnectClientSocket?5not?5found?6?$AA@ 10075750     xpcruntime:xpcimports.obj
 0002:00006778       ??_C@_0BC@NHHAOBPJ@CloseClientSocket?$AA@ 10075778     xpcruntime:xpcimports.obj
 0002:00006790       ??_C@_0BN@PGKNOKGL@CloseClientSocket?5not?5found?6?$AA@ 10075790     xpcruntime:xpcimports.obj
 0002:00006868       __pRawDllMain              10075868     LIBCMT:dll_dllmain.obj
 0002:00006868       __pDefaultRawDllMain       10075868     LIBCMT:dll_dllmain.obj
 0002:00006880       ??_C@_1BC@DNHGCMLG@?$AAa?$AAd?$AAv?$AAa?$AAp?$AAi?$AA3?$AA2?$AA?$AA@ 10075880     libvcruntime:winapi_downlevel.obj
 0002:00006898       ??_C@_1DM@KHCHBNEB@?$AAa?$AAp?$AAi?$AA?9?$AAm?$AAs?$AA?9?$AAw?$AAi?$AAn?$AA?9?$AAc?$AAo?$AAr?$AAe?$AA?9?$AAf?$AAi?$AAb?$AAe?$AAr?$AAs?$AA?9?$AAl?$AA1?$AA?9?$AA1?$AA?9?$AA1?$AA?$AA@ 10075898     libvcruntime:winapi_downlevel.obj
 0002:000068e0       ??_C@_1DK@LPPGFMPP@?$AAa?$AAp?$AAi?$AA?9?$AAm?$AAs?$AA?9?$AAw?$AAi?$AAn?$AA?9?$AAc?$AAo?$AAr?$AAe?$AA?9?$AAs?$AAy?$AAn?$AAc?$AAh?$AA?9?$AAl?$AA1?$AA?9?$AA2?$AA?9?$AA0?$AA?$AA@ 100758e0     libvcruntime:winapi_downlevel.obj
 0002:00006928       ??_C@_1BC@GDMECMAK@?$AAk?$AAe?$AAr?$AAn?$AAe?$AAl?$AA3?$AA2?$AA?$AA@ 10075928     libvcruntime:winapi_downlevel.obj
 0002:00006944       ??_C@_0O@BAMBGLIE@EventRegister?$AA@ 10075944     libvcruntime:winapi_downlevel.obj
 0002:00006958       ??_C@_0BE@BJEEGHGK@EventSetInformation?$AA@ 10075958     libvcruntime:winapi_downlevel.obj
 0002:00006974       ??_C@_0BA@FAKLIPIC@EventUnregister?$AA@ 10075974     libvcruntime:winapi_downlevel.obj
 0002:0000698c       ??_C@_0BD@PKLHJPHD@EventWriteTransfer?$AA@ 1007598c     libvcruntime:winapi_downlevel.obj
 0002:000069b0       ??_C@_08KNHFBNJ@FlsAlloc?$AA@ 100759b0     libvcruntime:winapi_downlevel.obj
 0002:000069c8       ??_C@_07PEJMOBNF@FlsFree?$AA@ 100759c8     libvcruntime:winapi_downlevel.obj
 0002:000069e0       ??_C@_0M@GDNOONDI@FlsGetValue?$AA@ 100759e0     libvcruntime:winapi_downlevel.obj
 0002:000069fc       ??_C@_0M@JCPCPOEF@FlsSetValue?$AA@ 100759fc     libvcruntime:winapi_downlevel.obj
 0002:00006a18       ??_C@_0BM@HCFOFFN@InitializeCriticalSectionEx?$AA@ 10075a18     libvcruntime:winapi_downlevel.obj
 0002:00006c20       ??_C@_08EHJDFFNH@__based?$CI?$AA@ 10075c20     libvcruntime:undname.obj
 0002:00006c2c       ??_C@_07KOLFKCDI@__cdecl?$AA@ 10075c2c     libvcruntime:undname.obj
 0002:00006c38       ??_C@_08GHMPAG@__pascal?$AA@ 10075c38     libvcruntime:undname.obj
 0002:00006c44       ??_C@_09IFJBGAPI@__stdcall?$AA@ 10075c44     libvcruntime:undname.obj
 0002:00006c50       ??_C@_0L@NPHFGOKO@__thiscall?$AA@ 10075c50     libvcruntime:undname.obj
 0002:00006c60       ??_C@_0L@JMKHOMEK@__fastcall?$AA@ 10075c60     libvcruntime:undname.obj
 0002:00006c70       ??_C@_0N@BCKKPABJ@__vectorcall?$AA@ 10075c70     libvcruntime:undname.obj
 0002:00006c80       ??_C@_09HIJEGCPM@__clrcall?$AA@ 10075c80     libvcruntime:undname.obj
 0002:00006c8c       ??_C@_06GHPCKEAG@__eabi?$AA@ 10075c8c     libvcruntime:undname.obj
 0002:00006c94       ??_C@_07JOMMBBKO@__ptr64?$AA@ 10075c94     libvcruntime:undname.obj
 0002:00006ca0       ??_C@_0L@PILCLIHE@__restrict?$AA@ 10075ca0     libvcruntime:undname.obj
 0002:00006cb0       ??_C@_0M@GFIIJFMG@__unaligned?$AA@ 10075cb0     libvcruntime:undname.obj
 0002:00006cc0       ??_C@_09DHDLOLLB@restrict?$CI?$AA@ 10075cc0     libvcruntime:undname.obj
 0002:00006ccc       ??_C@_04NIHEBCM@?5new?$AA@ 10075ccc     libvcruntime:undname.obj
 0002:00006cd4       ??_C@_07FPCDHGMM@?5delete?$AA@ 10075cd4     libvcruntime:undname.obj
 0002:00006ce0       ??_C@_01NEMOKFLO@?$DN?$AA@ 10075ce0     libvcruntime:undname.obj
 0002:00006ce4       ??_C@_02GPIOPFAK@?$DO?$DO?$AA@ 10075ce4     libvcruntime:undname.obj
 0002:00006ce8       ??_C@_02FODMEDOG@?$DM?$DM?$AA@ 10075ce8     libvcruntime:undname.obj
 0002:00006cec       ??_C@_01DCLJPIOD@?$CB?$AA@ 10075cec     libvcruntime:undname.obj
 0002:00006cf0       ??_C@_02EGOFBIJA@?$DN?$DN?$AA@ 10075cf0     libvcruntime:undname.obj
 0002:00006cf4       ??_C@_02FDNJECIE@?$CB?$DN?$AA@ 10075cf4     libvcruntime:undname.obj
 0002:00006cf8       ??_C@_02GPECMEKF@?$FL?$FN?$AA@ 10075cf8     libvcruntime:undname.obj
 0002:00006cfc       ??_C@_08LHJFAFGD@operator?$AA@ 10075cfc     libvcruntime:undname.obj
 0002:00006d08       ??_C@_02HBOOOICD@?9?$DO?$AA@ 10075d08     libvcruntime:undname.obj
 0002:00006d0c       ??_C@_01NBENCBCI@?$CK?$AA@ 10075d0c     libvcruntime:undname.obj
 0002:00006d10       ??_C@_02ECNGHCIF@?$CL?$CL?$AA@ 10075d10     libvcruntime:undname.obj
 0002:00006d14       ??_C@_02BAABKJLB@?9?9?$AA@ 10075d14     libvcruntime:undname.obj
 0002:00006d18       ??_C@_01JOAMLHOP@?9?$AA@   10075d18     libvcruntime:undname.obj
 0002:00006d1c       ??_C@_01MIFGBAGJ@?$CL?$AA@ 10075d1c     libvcruntime:undname.obj
 0002:00006d20       ??_C@_01HNPIGOCE@?$CG?$AA@ 10075d20     libvcruntime:undname.obj
 0002:00006d24       ??_C@_03MNHNFDLC@?9?$DO?$CK?$AA@ 10075d24     libvcruntime:undname.obj
 0002:00006d28       ??_C@_01KMDKNFGN@?1?$AA@   10075d28     libvcruntime:undname.obj
 0002:00006d2c       ??_C@_01FGNFDNOH@?$CF?$AA@ 10075d2c     libvcruntime:undname.obj
 0002:00006d30       ??_C@_01MNNFJEPP@?$DM?$AA@ 10075d30     libvcruntime:undname.obj
 0002:00006d34       ??_C@_02EHCHHCKH@?$DM?$DN?$AA@ 10075d34     libvcruntime:undname.obj
 0002:00006d38       ??_C@_01PPODPGHN@?$DO?$AA@ 10075d38     libvcruntime:undname.obj
 0002:00006d3c       ??_C@_02EEKDKGMJ@?$DO?$DN?$AA@ 10075d3c     libvcruntime:undname.obj
 0002:00006d40       ??_C@_01IHBHIGKO@?0?$AA@   10075d40     libvcruntime:undname.obj
 0002:00006d44       ??_C@_02HCKGKOFO@?$CI?$CJ?$AA@ 10075d44     libvcruntime:undname.obj
 0002:00006d48       ??_C@_01PJKLJHI@?$HO?$AA@  10075d48     libvcruntime:undname.obj
 0002:00006d4c       ??_C@_01JKBOJNNK@?$FO?$AA@ 10075d4c     libvcruntime:undname.obj
 0002:00006d50       ??_C@_01DNKMNLPK@?$HM?$AA@ 10075d50     libvcruntime:undname.obj
 0002:00006d54       ??_C@_02PPKAJPJL@?$CG?$CG?$AA@ 10075d54     libvcruntime:undname.obj
 0002:00006d58       ??_C@_02NONPIBCD@?$HM?$HM?$AA@ 10075d58     libvcruntime:undname.obj
 0002:00006d5c       ??_C@_02FPIMKNGF@?$CK?$DN?$AA@ 10075d5c     libvcruntime:undname.obj
 0002:00006d60       ??_C@_02FOEOMHFC@?$CL?$DN?$AA@ 10075d60     libvcruntime:undname.obj
 0002:00006d64       ??_C@_02FKMDLLOA@?9?$DN?$AA@ 10075d64     libvcruntime:undname.obj
 0002:00006d68       ??_C@_02FJEHGPIO@?1?$DN?$AA@ 10075d68     libvcruntime:undname.obj
 0002:00006d6c       ??_C@_02FENAOKFI@?$CF?$DN?$AA@ 10075d6c     libvcruntime:undname.obj
 0002:00006d70       ??_C@_03IKFCCPFF@?$DO?$DO?$DN?$AA@ 10075d70     libvcruntime:undname.obj
 0002:00006d74       ??_C@_03CDNPDDLA@?$DM?$DM?$DN?$AA@ 10075d74     libvcruntime:undname.obj
 0002:00006d78       ??_C@_02FGJGFEAB@?$CG?$DN?$AA@ 10075d78     libvcruntime:undname.obj
 0002:00006d7c       ??_C@_02DHLNPPGH@?$HM?$DN?$AA@ 10075d7c     libvcruntime:undname.obj
 0002:00006d80       ??_C@_02MHEGNOJ@?$FO?$DN?$AA@ 10075d80     libvcruntime:undname.obj
 0002:00006d84       ??_C@_09IFPLHPGF@?$GAvftable?8?$AA@ 10075d84     libvcruntime:undname.obj
 0002:00006d90       ??_C@_09BLBHBJP@?$GAvbtable?8?$AA@ 10075d90     libvcruntime:undname.obj
 0002:00006d9c       ??_C@_07FEEIOKP@?$GAvcall?8?$AA@ 10075d9c     libvcruntime:undname.obj
 0002:00006da8       ??_C@_08LLFFHHDJ@?$GAtypeof?8?$AA@ 10075da8     libvcruntime:undname.obj
 0002:00006db4       ??_C@_0BF@KDPPACIK@?$GAlocal?5static?5guard?8?$AA@ 10075db4     libvcruntime:undname.obj
 0002:00006dd0       ??_C@_08OBABFOLI@?$GAstring?8?$AA@ 10075dd0     libvcruntime:undname.obj
 0002:00006ddc       ??_C@_0BD@JDLKDPAB@?$GAvbase?5destructor?8?$AA@ 10075ddc     libvcruntime:undname.obj
 0002:00006df4       ??_C@_0BN@DEGPLNFK@?$GAvector?5deleting?5destructor?8?$AA@ 10075df4     libvcruntime:undname.obj
 0002:00006e18       ??_C@_0BO@OBMKPJIG@?$GAdefault?5constructor?5closure?8?$AA@ 10075e18     libvcruntime:undname.obj
 0002:00006e3c       ??_C@_0BN@IMDCHIKM@?$GAscalar?5deleting?5destructor?8?$AA@ 10075e3c     libvcruntime:undname.obj
 0002:00006e60       ??_C@_0BO@PFGOCPJJ@?$GAvector?5constructor?5iterator?8?$AA@ 10075e60     libvcruntime:undname.obj
 0002:00006e84       ??_C@_0BN@LFPFMEDL@?$GAvector?5destructor?5iterator?8?$AA@ 10075e84     libvcruntime:undname.obj
 0002:00006ea8       ??_C@_0CE@IKBNEHA@?$GAvector?5vbase?5constructor?5iterat@ 10075ea8     libvcruntime:undname.obj
 0002:00006ed4       ??_C@_0BL@NILFHHPC@?$GAvirtual?5displacement?5map?8?$AA@ 10075ed4     libvcruntime:undname.obj
 0002:00006ef4       ??_C@_0CB@JONCMFFK@?$GAeh?5vector?5constructor?5iterator?8@ 10075ef4     libvcruntime:undname.obj
 0002:00006f1c       ??_C@_0CA@GCEOPDGL@?$GAeh?5vector?5destructor?5iterator?8?$AA@ 10075f1c     libvcruntime:undname.obj
 0002:00006f44       ??_C@_0CH@OOJPLCPH@?$GAeh?5vector?5vbase?5constructor?5ite@ 10075f44     libvcruntime:undname.obj
 0002:00006f74       ??_C@_0BL@LLKPOHJI@?$GAcopy?5constructor?5closure?8?$AA@ 10075f74     libvcruntime:undname.obj
 0002:00006f94       ??_C@_0BA@KBCDOMBN@?$GAudt?5returning?8?$AA@ 10075f94     libvcruntime:undname.obj
 0002:00006fa8       ??_C@_03KLGMFNMG@?$GAEH?$AA@ 10075fa8     libvcruntime:undname.obj
 0002:00006fac       ??_C@_05KHLCHHI@?$GARTTI?$AA@ 10075fac     libvcruntime:undname.obj
 0002:00006fb4       ??_C@_0BA@KKLDJDLB@?$GAlocal?5vftable?8?$AA@ 10075fb4     libvcruntime:undname.obj
 0002:00006fc8       ??_C@_0CE@IIHCMGGL@?$GAlocal?5vftable?5constructor?5closu@ 10075fc8     libvcruntime:undname.obj
 0002:00006ff4       ??_C@_06FHBGPFGH@?5new?$FL?$FN?$AA@ 10075ff4     libvcruntime:undname.obj
 0002:00006ffc       ??_C@_09LBNFPBCA@?5delete?$FL?$FN?$AA@ 10075ffc     libvcruntime:undname.obj
 0002:00007008       ??_C@_0P@HJKNJFNN@?$GAomni?5callsig?8?$AA@ 10076008     libvcruntime:undname.obj
 0002:0000701c       ??_C@_0BL@CNOONJFP@?$GAplacement?5delete?5closure?8?$AA@ 1007601c     libvcruntime:undname.obj
 0002:0000703c       ??_C@_0BN@CKNJLHMB@?$GAplacement?5delete?$FL?$FN?5closure?8?$AA@ 1007603c     libvcruntime:undname.obj
 0002:00007060       ??_C@_0CG@CFDHKGGD@?$GAmanaged?5vector?5constructor?5iter@ 10076060     libvcruntime:undname.obj
 0002:00007090       ??_C@_0CF@IMGKMJNO@?$GAmanaged?5vector?5destructor?5itera@ 10076090     libvcruntime:undname.obj
 0002:000070bc       ??_C@_0CG@HLDDJMAG@?$GAeh?5vector?5copy?5constructor?5iter@ 100760bc     libvcruntime:undname.obj
 0002:000070ec       ??_C@_0CM@FCBBDIGB@?$GAeh?5vector?5vbase?5copy?5constructo@ 100760ec     libvcruntime:undname.obj
 0002:00007120       ??_C@_0BL@CLIPGLGB@?$GAdynamic?5initializer?5for?5?8?$AA@ 10076120     libvcruntime:undname.obj
 0002:00007140       ??_C@_0CB@PDBIFEP@?$GAdynamic?5atexit?5destructor?5for?5?8@ 10076140     libvcruntime:undname.obj
 0002:00007168       ??_C@_0CD@CGAJBKEJ@?$GAvector?5copy?5constructor?5iterato@ 10076168     libvcruntime:undname.obj
 0002:00007194       ??_C@_0CJ@GJELGAMM@?$GAvector?5vbase?5copy?5constructor?5i@ 10076194     libvcruntime:undname.obj
 0002:000071c8       ??_C@_0CL@FGIJHLCE@?$GAmanaged?5vector?5copy?5constructor@ 100761c8     libvcruntime:undname.obj
 0002:000071fc       ??_C@_0BM@PMGGMLDN@?$GAlocal?5static?5thread?5guard?8?$AA@ 100761fc     libvcruntime:undname.obj
 0002:00007220       ??_C@_0N@BDNMDMOL@operator?5?$CC?$CC?5?$AA@ 10076220     libvcruntime:undname.obj
 0002:00007230       ??_C@_0BC@DAFEJGAK@?5Type?5Descriptor?8?$AA@ 10076230     libvcruntime:undname.obj
 0002:00007248       ??_C@_0BM@LDKODKLH@?5Base?5Class?5Descriptor?5at?5?$CI?$AA@ 10076248     libvcruntime:undname.obj
 0002:0000726c       ??_C@_0BD@LGICGFMM@?5Base?5Class?5Array?8?$AA@ 1007626c     libvcruntime:undname.obj
 0002:00007284       ??_C@_0BN@MECKDCOJ@?5Class?5Hierarchy?5Descriptor?8?$AA@ 10076284     libvcruntime:undname.obj
 0002:000072a8       ??_C@_0BK@CFCOFLF@?5Complete?5Object?5Locator?8?$AA@ 100762a8     libvcruntime:undname.obj
 0002:000072c8       ??_C@_04HEJADOOB@CV?3?5?$AA@ 100762c8     libvcruntime:undname.obj
 0002:000072d0       ??_C@_02MOLJINC@?3?3?$AA@  100762d0     libvcruntime:undname.obj
 0002:000072d4       ??_C@_0BE@JAEOCHPE@template?9parameter?9?$AA@ 100762d4     libvcruntime:undname.obj
 0002:000072ec       ??_C@_0O@KHGCOMHP@generic?9type?9?$AA@ 100762ec     libvcruntime:undname.obj
 0002:000072fc       ??_C@_01NLNLIGKH@?$GA?$AA@ 100762fc     libvcruntime:undname.obj
 0002:00007300       ??_C@_01GEODFPGF@?8?$AA@   10076300     libvcruntime:undname.obj
 0002:00007304       ??_C@_0BG@JNJLAMPM@?$GAanonymous?5namespace?8?$AA@ 10076304     libvcruntime:undname.obj
 0002:00007320       ??_C@_02OHHJMEON@?8?8?$AA@ 10076320     libvcruntime:undname.obj
 0002:00007324       ??_C@_0BN@IBLMMFAP@?$GAnon?9type?9template?9parameter?$AA@ 10076324     libvcruntime:undname.obj
 0002:00007348       ??_C@_04GKJNKENE@void?$AA@ 10076348     libvcruntime:undname.obj
 0002:00007350       ??_C@_0BE@EODMJLIF@?$GAtemplate?9parameter?$AA@ 10076350     libvcruntime:undname.obj
 0002:00007368       ??_C@_03KHICJKCI@?4?4?4?$AA@ 10076368     libvcruntime:undname.obj
 0002:0000736c       ??_C@_04HIBGFPH@NULL?$AA@  1007636c     libvcruntime:undname.obj
 0002:00007374       ??_C@_02DPKJAMEF@?$CFd?$AA@ 10076374     libvcruntime:undname.obj
 0002:00007378       ??_C@_0BK@IHCCFNEL@?$GAtemplate?9type?9parameter?9?$AA@ 10076378     libvcruntime:undname.obj
 0002:00007398       ??_C@_0BK@OFCNNNKO@?$GAgeneric?9class?9parameter?9?$AA@ 10076398     libvcruntime:undname.obj
 0002:000073b8       ??_C@_0BL@NGJBLFIL@?$GAgeneric?9method?9parameter?9?$AA@ 100763b8     libvcruntime:undname.obj
 0002:000073d8       ??_C@_03OPGICMGF@?$HN?8?5?$AA@ 100763d8     libvcruntime:undname.obj
 0002:000073dc       ??_C@_02IGFCGPIL@?$HN?8?$AA@ 100763dc     libvcruntime:undname.obj
 0002:000073e0       ??_C@_01CLKCMJKC@?5?$AA@   100763e0     libvcruntime:undname.obj
 0002:000073e4       ??_C@_0N@CBHHHENL@?$GAvtordispex?$HL?$AA@ 100763e4     libvcruntime:undname.obj
 0002:000073f4       ??_C@_0L@GHPFDFH@?$GAvtordisp?$HL?$AA@ 100763f4     libvcruntime:undname.obj
 0002:00007404       ??_C@_0L@HNGCOGAE@?$GAadjustor?$HL?$AA@ 10076404     libvcruntime:undname.obj
 0002:00007414       ??_C@_0CB@KJDOOODE@?$GAlocal?5static?5destructor?5helper?8@ 10076414     libvcruntime:undname.obj
 0002:0000743c       ??_C@_0DB@ILEFOCIJ@?$GAtemplate?5static?5data?5member?5con@ 1007643c     libvcruntime:undname.obj
 0002:00007478       ??_C@_0DA@HGFJFBBE@?$GAtemplate?5static?5data?5member?5des@ 10076478     libvcruntime:undname.obj
 0002:000074b4       ??_C@_07PGOEDBHP@static?5?$AA@ 100764b4     libvcruntime:undname.obj
 0002:000074c0       ??_C@_08NIEOINHE@virtual?5?$AA@ 100764c0     libvcruntime:undname.obj
 0002:000074cc       ??_C@_09LAPHOOG@private?3?5?$AA@ 100764cc     libvcruntime:undname.obj
 0002:000074d8       ??_C@_0M@GAIFPFIP@protected?3?5?$AA@ 100764d8     libvcruntime:undname.obj
 0002:000074e8       ??_C@_08GPDDCMKI@public?3?5?$AA@ 100764e8     libvcruntime:undname.obj
 0002:000074f4       ??_C@_08KJLFOPNE@?$FLthunk?$FN?3?$AA@ 100764f4     libvcruntime:undname.obj
 0002:00007500       ??_C@_0M@DHNBOJMP@extern?5?$CCC?$CC?5?$AA@ 10076500     libvcruntime:undname.obj
 0002:00007510       ??_C@_02KCKGHPCA@?$CJ?5?$AA@ 10076510     libvcruntime:undname.obj
 0002:00007514       ??_C@_05CIHEBHNO@char?5?$AA@ 10076514     libvcruntime:undname.obj
 0002:0000751c       ??_C@_06EHJMALKF@short?5?$AA@ 1007651c     libvcruntime:undname.obj
 0002:00007524       ??_C@_04LAHKHJMA@int?5?$AA@ 10076524     libvcruntime:undname.obj
 0002:0000752c       ??_C@_05CJIMAING@long?5?$AA@ 1007652c     libvcruntime:undname.obj
 0002:00007534       ??_C@_09EBBEKKIH@unsigned?5?$AA@ 10076534     libvcruntime:undname.obj
 0002:00007540       ??_C@_05BEFAKPML@void?5?$AA@ 10076540     libvcruntime:undname.obj
 0002:00007548       ??_C@_08PABEKFH@volatile?$AA@ 10076548     libvcruntime:undname.obj
 0002:00007554       ??_C@_0BA@LKIJLKPP@std?3?3nullptr_t?5?$AA@ 10076554     libvcruntime:undname.obj
 0002:00007568       ??_C@_0P@GCOCNKDM@std?3?3nullptr_t?$AA@ 10076568     libvcruntime:undname.obj
 0002:0000757c       ??_C@_0L@EGPHHEKN@?$DMellipsis?$DO?$AA@ 1007657c     libvcruntime:undname.obj
 0002:0000758c       ??_C@_04EENFHACM@?0?4?4?4?$AA@ 1007658c     libvcruntime:undname.obj
 0002:00007594       ??_C@_0M@ELJOJFFH@?0?$DMellipsis?$DO?$AA@ 10076594     libvcruntime:undname.obj
 0002:000075a4       ??_C@_07HDJPLPEK@?5throw?$CI?$AA@ 100765a4     libvcruntime:undname.obj
 0002:000075b0       ??_C@_03PBJBJNON@cpu?$AA@  100765b0     libvcruntime:undname.obj
 0002:000075b4       ??_C@_03DCBBJBAA@amp?$AA@  100765b4     libvcruntime:undname.obj
 0002:000075b8       ??_C@_02KEGNLNML@?0?5?$AA@ 100765b8     libvcruntime:undname.obj
 0002:000075bc       ??_C@_04ENMBGAPA@char?$AA@ 100765bc     libvcruntime:undname.obj
 0002:000075c4       ??_C@_05BFKKPKCG@short?$AA@ 100765c4     libvcruntime:undname.obj
 0002:000075cc       ??_C@_03JBIPMCLC@int?$AA@  100765cc     libvcruntime:undname.obj
 0002:000075d0       ??_C@_04GOKPGOLB@long?$AA@ 100765d0     libvcruntime:undname.obj
 0002:000075d8       ??_C@_04DDKJGDCM@bool?$AA@ 100765d8     libvcruntime:undname.obj
 0002:000075e0       ??_C@_06EBGKOKIG@__int8?$AA@ 100765e0     libvcruntime:undname.obj
 0002:000075e8       ??_C@_07ICFHOGAF@__int16?$AA@ 100765e8     libvcruntime:undname.obj
 0002:000075f4       ??_C@_07OFLPPHGP@__int32?$AA@ 100765f4     libvcruntime:undname.obj
 0002:00007600       ??_C@_07LFCOJCAC@__int64?$AA@ 10076600     libvcruntime:undname.obj
 0002:0000760c       ??_C@_08GAHOLHEO@__int128?$AA@ 1007660c     libvcruntime:undname.obj
 0002:00007618       ??_C@_09EEKGDCPH@?$DMunknown?$DO?$AA@ 10076618     libvcruntime:undname.obj
 0002:00007624       ??_C@_08HBIPOFJB@char16_t?$AA@ 10076624     libvcruntime:undname.obj
 0002:00007630       ??_C@_08IECNCBKG@char32_t?$AA@ 10076630     libvcruntime:undname.obj
 0002:0000763c       ??_C@_07CLGGIAMF@wchar_t?$AA@ 1007663c     libvcruntime:undname.obj
 0002:00007648       ??_C@_06GCICPBLB@__w64?5?$AA@ 10076648     libvcruntime:undname.obj
 0002:00007650       ??_C@_07NFANNNEC@UNKNOWN?$AA@ 10076650     libvcruntime:undname.obj
 0002:0000765c       ??_C@_07EDHNAJHC@signed?5?$AA@ 1007665c     libvcruntime:undname.obj
 0002:00007668       ??_C@_05BNCCCJPP@const?$AA@ 10076668     libvcruntime:undname.obj
 0002:00007670       ??_C@_09EFNPDFFP@?5volatile?$AA@ 10076670     libvcruntime:undname.obj
 0002:0000767c       ??_C@_0P@GCIFDJCJ@?$GAunknown?5ecsu?8?$AA@ 1007667c     libvcruntime:undname.obj
 0002:00007690       ??_C@_06MOJHIBMG@union?5?$AA@ 10076690     libvcruntime:undname.obj
 0002:00007698       ??_C@_07DIBCDNGL@struct?5?$AA@ 10076698     libvcruntime:undname.obj
 0002:000076a4       ??_C@_06LJBABKPM@class?5?$AA@ 100766a4     libvcruntime:undname.obj
 0002:000076ac       ??_C@_08KOFANOFK@coclass?5?$AA@ 100766ac     libvcruntime:undname.obj
 0002:000076b8       ??_C@_0N@DLIEFKNA@cointerface?5?$AA@ 100766b8     libvcruntime:undname.obj
 0002:000076c8       ??_C@_05LJGMCFOG@enum?5?$AA@ 100766c8     libvcruntime:undname.obj
 0002:000076d0       ??_C@_09GAIEOBLP@volatile?5?$AA@ 100766d0     libvcruntime:undname.obj
 0002:000076dc       ??_C@_06LIJLOJAG@const?5?$AA@ 100766dc     libvcruntime:undname.obj
 0002:000076e4       ??_C@_02KJPKDIBN@?$CG?5?$AA@ 100766e4     libvcruntime:undname.obj
 0002:000076e8       ??_C@_03PCKGMOPB@?$CG?$CG?5?$AA@ 100766e8     libvcruntime:undname.obj
 0002:000076ec       ??_C@_0M@EALIELKG@cli?3?3array?$DM?$AA@ 100766ec     libvcruntime:undname.obj
 0002:000076fc       ??_C@_0O@GKABPPIF@cli?3?3pin_ptr?$DM?$AA@ 100766fc     libvcruntime:undname.obj
 0002:0000770c       ??_C@_02GOGNNPBN@?$CJ?$FL?$AA@ 1007670c     libvcruntime:undname.obj
 0002:00007710       ??_C@_06EEGAIFAK@?$HLflat?$HN?$AA@ 10076710     libvcruntime:undname.obj
 0002:00007718       ??_C@_05JIBOFOHK@?$HLfor?5?$AA@ 10076718     libvcruntime:undname.obj
 0002:00007720       ??_C@_02MDINNEEG@s?5?$AA@  10076720     libvcruntime:undname.obj
 0002:00007728       ??_7DNameNode@@6B@         10076728     libvcruntime:undname.obj
 0002:0000773c       ??_7charNode@@6B@          1007673c     libvcruntime:undname.obj
 0002:00007750       ??_7pcharNode@@6B@         10076750     libvcruntime:undname.obj
 0002:00007764       ??_7pDNameNode@@6B@        10076764     libvcruntime:undname.obj
 0002:00007778       ??_7DNameStatusNode@@6B@   10076778     libvcruntime:undname.obj
 0002:0000778c       ??_7pairNode@@6B@          1007678c     libvcruntime:undname.obj
 0002:0000779c       ??_C@_04OKOHEJBO@?5?$DP?$DP?5?$AA@ 1007679c     libvcruntime:undname.obj
 0002:000077a8       _standard_lookup_table     100767a8     libucrt:output.obj
 0002:00007818       _format_validation_lookup_table 10076818     libucrt:output.obj
 0002:00007888       ??_C@_1O@CEDCILHN@?$AA?$CI?$AAn?$AAu?$AAl?$AAl?$AA?$CJ?$AA?$AA@ 10076888     libucrt:output.obj
 0002:00007898       ??_C@_06OJHGLDPL@?$CInull?$CJ?$AA@ 10076898     libucrt:output.obj
 0002:0000854c       ??_C@_0CK@CFPGFGGO@Assertion?5failed?3?5?$CFTs?0?5file?5?$CFTs?0@ 1007754c     libucrt:assert.obj
 0002:00008580       ??_C@_1FE@LHBLIKM@?$AAA?$AAs?$AAs?$AAe?$AAr?$AAt?$AAi?$AAo?$AAn?$AA?5?$AAf?$AAa?$AAi?$AAl?$AAe?$AAd?$AA?3?$AA?5?$AA?$CF?$AAT?$AAs?$AA?0?$AA?5?$AAf?$AAi?$AAl?$AAe?$AA?5?$AA?$CF?$AAT?$AAs?$AA?0@ 10077580     libucrt:assert.obj
 0002:000085e4       ??_C@_0CF@GOGNBNAK@Microsoft?5Visual?5C?$CL?$CL?5Runtime?5Lib@ 100775e4     libucrt:assert.obj
 0002:00008610       ??_C@_1EK@MBDPDCGA@?$AAM?$AAi?$AAc?$AAr?$AAo?$AAs?$AAo?$AAf?$AAt?$AA?5?$AAV?$AAi?$AAs?$AAu?$AAa?$AAl?$AA?5?$AAC?$AA?$CL?$AA?$CL?$AA?5?$AAR?$AAu?$AAn?$AAt?$AAi?$AAm?$AAe?$AA?5?$AAL?$AAi?$AAb@ 10077610     libucrt:assert.obj
 0002:00008668       ??_C@_0BC@LAIDCHCH@Assertion?5failed?$CB?$AA@ 10077668     libucrt:assert.obj
 0002:00008680       ??_C@_1CE@OJBNHDMO@?$AAA?$AAs?$AAs?$AAe?$AAr?$AAt?$AAi?$AAo?$AAn?$AA?5?$AAf?$AAa?$AAi?$AAl?$AAe?$AAd?$AA?$CB?$AA?$AA@ 10077680     libucrt:assert.obj
 0002:000086ac       ??_C@_09KLGCKDOD@Program?3?5?$AA@ 100776ac     libucrt:assert.obj
 0002:000086b8       ??_C@_1BE@PHKBBGE@?$AAP?$AAr?$AAo?$AAg?$AAr?$AAa?$AAm?$AA?3?$AA?5?$AA?$AA@ 100776b8     libucrt:assert.obj
 0002:000086d0       ??_C@_06IGPBOHMJ@File?3?5?$AA@ 100776d0     libucrt:assert.obj
 0002:000086d8       ??_C@_1O@HEMHKNDC@?$AAF?$AAi?$AAl?$AAe?$AA?3?$AA?5?$AA?$AA@ 100776d8     libucrt:assert.obj
 0002:000086e8       ??_C@_06FIEBOLOH@Line?3?5?$AA@ 100776e8     libucrt:assert.obj
 0002:000086f0       ??_C@_1O@KCAFKHJE@?$AAL?$AAi?$AAn?$AAe?$AA?3?$AA?5?$AA?$AA@ 100776f0     libucrt:assert.obj
 0002:00008700       ??_C@_0N@MEECIJGN@Expression?3?5?$AA@ 10077700     libucrt:assert.obj
 0002:00008710       ??_C@_1BK@PEDCIPMA@?$AAE?$AAx?$AAp?$AAr?$AAe?$AAs?$AAs?$AAi?$AAo?$AAn?$AA?3?$AA?5?$AA?$AA@ 10077710     libucrt:assert.obj
 0002:00008730       ??_C@_0HA@OJHAGA@For?5information?5on?5how?5your?5prog@ 10077730     libucrt:assert.obj
 0002:000087b8       ??_C@_1OA@EGMLFBHJ@?$AAF?$AAo?$AAr?$AA?5?$AAi?$AAn?$AAf?$AAo?$AAr?$AAm?$AAa?$AAt?$AAi?$AAo?$AAn?$AA?5?$AAo?$AAn?$AA?5?$AAh?$AAo?$AAw?$AA?5?$AAy?$AAo?$AAu?$AAr?$AA?5?$AAp?$AAr?$AAo?$AAg@ 100777b8     libucrt:assert.obj
 0002:000088c4       ??_C@_0DN@EBBNMLME@?$CIPress?5Retry?5to?5debug?5the?5applic@ 100778c4     libucrt:assert.obj
 0002:00008910       ??_C@_1HK@POCJMFGK@?$AA?$CI?$AAP?$AAr?$AAe?$AAs?$AAs?$AA?5?$AAR?$AAe?$AAt?$AAr?$AAy?$AA?5?$AAt?$AAo?$AA?5?$AAd?$AAe?$AAb?$AAu?$AAg?$AA?5?$AAt?$AAh?$AAe?$AA?5?$AAa?$AAp?$AAp?$AAl?$AAi?$AAc@ 10077910     libucrt:assert.obj
 0002:000089a4       ??_C@_17LGKOMLJ@?$AA?4?$AA?4?$AA?4?$AA?$AA@ 100779a4     libucrt:assert.obj
 0002:000089b0       ??_C@_01EEMJAFIK@?6?$AA@   100779b0     libucrt:assert.obj
 0002:000089b4       ??_C@_13LBAGMAIH@?$AA?6?$AA?$AA@ 100779b4     libucrt:assert.obj
 0002:000089b8       ??_C@_02PHMGELLB@?6?6?$AA@ 100779b8     libucrt:assert.obj
 0002:000089bc       ??_C@_15IABLJNFO@?$AA?6?$AA?6?$AA?$AA@ 100779bc     libucrt:assert.obj
 0002:000089c4       ??_C@_0BH@DNAGHKFM@?$DMprogram?5name?5unknown?$DO?$AA@ 100779c4     libucrt:assert.obj
 0002:000089e0       ??_C@_1CO@EAEJAADC@?$AA?$DM?$AAp?$AAr?$AAo?$AAg?$AAr?$AAa?$AAm?$AA?5?$AAn?$AAa?$AAm?$AAe?$AA?5?$AAu?$AAn?$AAk?$AAn?$AAo?$AAw?$AAn?$AA?$DO?$AA?$AA@ 100779e0     libucrt:assert.obj
 0002:00008a18       _RtlNtPathSeperatorString  10077a18     libucrt:exit.obj
 0002:00008a24       ??_C@_13FPGAJAPJ@?$AA?2?$AA?$AA@ 10077a24     libucrt:exit.obj
 0002:00008a28       _RtlDosPathSeperatorsString 10077a28     libucrt:exit.obj
 0002:00008a34       ??_C@_15MNCACJLI@?$AA?2?$AA?1?$AA?$AA@ 10077a34     libucrt:exit.obj
 0002:00008a3c       _RtlAlternateDosPathSeperatorString 10077a3c     libucrt:exit.obj
 0002:00008a48       ??_C@_13CGOKJPIL@?$AA?1?$AA?$AA@ 10077a48     libucrt:exit.obj
 0002:00008a4c       ??_C@_1BI@BGOHAHKC@?$AAm?$AAs?$AAc?$AAo?$AAr?$AAe?$AAe?$AA?4?$AAd?$AAl?$AAl?$AA?$AA@ 10077a4c     libucrt:exit.obj
 0002:00008a68       ??_C@_0P@MIGLKIOC@CorExitProcess?$AA@ 10077a68     libucrt:exit.obj
 0002:00008b98       ??_C@_03KHJOGHMM@exp?$AA@  10077b98     libucrt:fpexcept.obj
 0002:00008b9c       ??_C@_03JGHBODFD@pow?$AA@  10077b9c     libucrt:fpexcept.obj
 0002:00008ba0       ??_C@_03MGHMBJCF@log?$AA@  10077ba0     libucrt:fpexcept.obj
 0002:00008ba4       ??_C@_05HGHHAHAP@log10?$AA@ 10077ba4     libucrt:fpexcept.obj
 0002:00008bac       ??_C@_04COOMCNPB@sinh?$AA@ 10077bac     libucrt:fpexcept.obj
 0002:00008bb4       ??_C@_04HPJJNFIM@cosh?$AA@ 10077bb4     libucrt:fpexcept.obj
 0002:00008bbc       ??_C@_04FJHINJAO@tanh?$AA@ 10077bbc     libucrt:fpexcept.obj
 0002:00008bc4       ??_C@_04FIHNOPOL@asin?$AA@ 10077bc4     libucrt:fpexcept.obj
 0002:00008bcc       ??_C@_04PDIFKINK@acos?$AA@ 10077bcc     libucrt:fpexcept.obj
 0002:00008bd4       ??_C@_04MLLJIGOK@atan?$AA@ 10077bd4     libucrt:fpexcept.obj
 0002:00008bdc       ??_C@_05KNGEOGJB@atan2?$AA@ 10077bdc     libucrt:fpexcept.obj
 0002:00008be4       ??_C@_04EIAKFFMI@sqrt?$AA@ 10077be4     libucrt:fpexcept.obj
 0002:00008bec       ??_C@_03BLEJJJBH@sin?$AA@  10077bec     libucrt:fpexcept.obj
 0002:00008bf0       ??_C@_03LALBNOCG@cos?$AA@  10077bf0     libucrt:fpexcept.obj
 0002:00008bf4       ??_C@_03IIINPABG@tan?$AA@  10077bf4     libucrt:fpexcept.obj
 0002:00008bf8       ??_C@_04GFPJNGEK@ceil?$AA@ 10077bf8     libucrt:fpexcept.obj
 0002:00008c00       ??_C@_05PBJFFIGL@floor?$AA@ 10077c00     libucrt:fpexcept.obj
 0002:00008c08       ??_C@_04ODHECPBC@fabs?$AA@ 10077c08     libucrt:fpexcept.obj
 0002:00008c10       ??_C@_04EHEDPDJG@modf?$AA@ 10077c10     libucrt:fpexcept.obj
 0002:00008c18       ??_C@_05CEJMAHNP@ldexp?$AA@ 10077c18     libucrt:fpexcept.obj
 0002:00008c20       ??_C@_05KBKMEMPO@_cabs?$AA@ 10077c20     libucrt:fpexcept.obj
 0002:00008c28       ??_C@_06MEIMCGCF@_hypot?$AA@ 10077c28     libucrt:fpexcept.obj
 0002:00008c30       ??_C@_04KEPJIHGP@fmod?$AA@ 10077c30     libucrt:fpexcept.obj
 0002:00008c38       ??_C@_05GKKHEGJL@frexp?$AA@ 10077c38     libucrt:fpexcept.obj
 0002:00008c40       ??_C@_03MJLDFKDL@_y0?$AA@  10077c40     libucrt:fpexcept.obj
 0002:00008c44       ??_C@_03NAKIGLHK@_y1?$AA@  10077c44     libucrt:fpexcept.obj
 0002:00008c48       ??_C@_03ONILCKOB@_yn?$AA@  10077c48     libucrt:fpexcept.obj
 0002:00008c4c       ??_C@_05JGDBENOH@_logb?$AA@ 10077c4c     libucrt:fpexcept.obj
 0002:00008c54       ??_C@_0L@KDOEJCKC@_nextafter?$AA@ 10077c54     libucrt:fpexcept.obj
 0002:00008c68       ___acrt_exception_action_table 10077c68     libucrt:exception_filter.obj
 0002:00008d14       ___acrt_signal_action_table_count 10077d14     libucrt:exception_filter.obj
 0002:00008d18       ___acrt_signal_action_table_size 10077d18     libucrt:exception_filter.obj
 0002:00008d1c       ___acrt_signal_action_first_fpe_index 10077d1c     libucrt:exception_filter.obj
 0002:00008d20       ___acrt_signal_action_fpe_count 10077d20     libucrt:exception_filter.obj
 0002:00008dc4       __Fenv1                    10077dc4     libucrt:atox.obj
 0002:00008fd8       ??_C@_1EA@JGEFHKEI@?$AAa?$AAp?$AAi?$AA?9?$AAm?$AAs?$AA?9?$AAw?$AAi?$AAn?$AA?9?$AAc?$AAo?$AAr?$AAe?$AA?9?$AAd?$AAa?$AAt?$AAe?$AAt?$AAi?$AAm?$AAe?$AA?9?$AAl?$AA1?$AA?9?$AA1?$AA?9?$AA1?$AA?$AA@ 10077fd8     libucrt:winapi_thunks.obj
 0002:00009024       ??_C@_1DI@IJCEHOCB@?$AAa?$AAp?$AAi?$AA?9?$AAm?$AAs?$AA?9?$AAw?$AAi?$AAn?$AA?9?$AAc?$AAo?$AAr?$AAe?$AA?9?$AAf?$AAi?$AAl?$AAe?$AA?9?$AAl?$AA1?$AA?9?$AA2?$AA?9?$AA2?$AA?$AA@ 10078024     libucrt:winapi_thunks.obj
 0002:00009068       ??_C@_1EI@MPIAOHOC@?$AAa?$AAp?$AAi?$AA?9?$AAm?$AAs?$AA?9?$AAw?$AAi?$AAn?$AA?9?$AAc?$AAo?$AAr?$AAe?$AA?9?$AAl?$AAo?$AAc?$AAa?$AAl?$AAi?$AAz?$AAa?$AAt?$AAi?$AAo?$AAn?$AA?9?$AAl?$AA1?$AA?9@ 10078068     libucrt:winapi_thunks.obj
 0002:000090c0       ??_C@_1FK@FPHCKFIE@?$AAa?$AAp?$AAi?$AA?9?$AAm?$AAs?$AA?9?$AAw?$AAi?$AAn?$AA?9?$AAc?$AAo?$AAr?$AAe?$AA?9?$AAl?$AAo?$AAc?$AAa?$AAl?$AAi?$AAz?$AAa?$AAt?$AAi?$AAo?$AAn?$AA?9?$AAo?$AAb?$AAs@ 100780c0     libucrt:winapi_thunks.obj
 0002:00009130       ??_C@_1EM@DILCGIIO@?$AAa?$AAp?$AAi?$AA?9?$AAm?$AAs?$AA?9?$AAw?$AAi?$AAn?$AA?9?$AAc?$AAo?$AAr?$AAe?$AA?9?$AAp?$AAr?$AAo?$AAc?$AAe?$AAs?$AAs?$AAt?$AAh?$AAr?$AAe?$AAa?$AAd?$AAs?$AA?9?$AAl@ 10078130     libucrt:winapi_thunks.obj
 0002:0000918c       ??_C@_1DM@LNCGDDPN@?$AAa?$AAp?$AAi?$AA?9?$AAm?$AAs?$AA?9?$AAw?$AAi?$AAn?$AA?9?$AAc?$AAo?$AAr?$AAe?$AA?9?$AAs?$AAt?$AAr?$AAi?$AAn?$AAg?$AA?9?$AAl?$AA1?$AA?9?$AA1?$AA?9?$AA0?$AA?$AA@ 1007818c     libucrt:winapi_thunks.obj
 0002:000091d4       ??_C@_1DO@FPAPJEMD@?$AAa?$AAp?$AAi?$AA?9?$AAm?$AAs?$AA?9?$AAw?$AAi?$AAn?$AA?9?$AAc?$AAo?$AAr?$AAe?$AA?9?$AAs?$AAy?$AAs?$AAi?$AAn?$AAf?$AAo?$AA?9?$AAl?$AA1?$AA?9?$AA2?$AA?9?$AA1?$AA?$AA@ 100781d4     libucrt:winapi_thunks.obj
 0002:00009220       ??_C@_1DK@NDHNAHIO@?$AAa?$AAp?$AAi?$AA?9?$AAm?$AAs?$AA?9?$AAw?$AAi?$AAn?$AA?9?$AAc?$AAo?$AAr?$AAe?$AA?9?$AAw?$AAi?$AAn?$AAr?$AAt?$AA?9?$AAl?$AA1?$AA?9?$AA1?$AA?9?$AA0?$AA?$AA@ 10078220     libucrt:winapi_thunks.obj
 0002:00009268       ??_C@_1DM@KGHDGBCM@?$AAa?$AAp?$AAi?$AA?9?$AAm?$AAs?$AA?9?$AAw?$AAi?$AAn?$AA?9?$AAc?$AAo?$AAr?$AAe?$AA?9?$AAx?$AAs?$AAt?$AAa?$AAt?$AAe?$AA?9?$AAl?$AA2?$AA?9?$AA1?$AA?9?$AA0?$AA?$AA@ 10078268     libucrt:winapi_thunks.obj
 0002:000092b0       ??_C@_1EO@IJIOEFOH@?$AAa?$AAp?$AAi?$AA?9?$AAm?$AAs?$AA?9?$AAw?$AAi?$AAn?$AA?9?$AAr?$AAt?$AAc?$AAo?$AAr?$AAe?$AA?9?$AAn?$AAt?$AAu?$AAs?$AAe?$AAr?$AA?9?$AAw?$AAi?$AAn?$AAd?$AAo?$AAw?$AA?9@ 100782b0     libucrt:winapi_thunks.obj
 0002:00009310       ??_C@_1FG@HHGEKANL@?$AAa?$AAp?$AAi?$AA?9?$AAm?$AAs?$AA?9?$AAw?$AAi?$AAn?$AA?9?$AAs?$AAe?$AAc?$AAu?$AAr?$AAi?$AAt?$AAy?$AA?9?$AAs?$AAy?$AAs?$AAt?$AAe?$AAm?$AAf?$AAu?$AAn?$AAc?$AAt?$AAi@ 10078310     libucrt:winapi_thunks.obj
 0002:00009378       ??_C@_1EG@DBIOJECG@?$AAe?$AAx?$AAt?$AA?9?$AAm?$AAs?$AA?9?$AAw?$AAi?$AAn?$AA?9?$AAn?$AAt?$AAu?$AAs?$AAe?$AAr?$AA?9?$AAd?$AAi?$AAa?$AAl?$AAo?$AAg?$AAb?$AAo?$AAx?$AA?9?$AAl?$AA1?$AA?9?$AA1@ 10078378     libucrt:winapi_thunks.obj
 0002:000093d0       ??_C@_1EO@FIHMJCLF@?$AAe?$AAx?$AAt?$AA?9?$AAm?$AAs?$AA?9?$AAw?$AAi?$AAn?$AA?9?$AAn?$AAt?$AAu?$AAs?$AAe?$AAr?$AA?9?$AAw?$AAi?$AAn?$AAd?$AAo?$AAw?$AAs?$AAt?$AAa?$AAt?$AAi?$AAo?$AAn?$AA?9@ 100783d0     libucrt:winapi_thunks.obj
 0002:00009430       ??_C@_1M@OAIMIKLP@?$AAn?$AAt?$AAd?$AAl?$AAl?$AA?$AA@ 10078430     libucrt:winapi_thunks.obj
 0002:00009440       ??_C@_1EG@DPGNFKGC@?$AAa?$AAp?$AAi?$AA?9?$AAm?$AAs?$AA?9?$AAw?$AAi?$AAn?$AA?9?$AAa?$AAp?$AAp?$AAm?$AAo?$AAd?$AAe?$AAl?$AA?9?$AAr?$AAu?$AAn?$AAt?$AAi?$AAm?$AAe?$AA?9?$AAl?$AA1?$AA?9?$AA1@ 10078440     libucrt:winapi_thunks.obj
 0002:00009494       ??_C@_1O@BCCLBEOE@?$AAu?$AAs?$AAe?$AAr?$AA3?$AA2?$AA?$AA@ 10078494     libucrt:winapi_thunks.obj
 0002:000094a4       ??_C@_1BA@PFFKHIOG@?$AAa?$AAp?$AAi?$AA?9?$AAm?$AAs?$AA?9?$AA?$AA@ 100784a4     libucrt:winapi_thunks.obj
 0002:000094b8       ??_C@_1BA@IAIFMGEF@?$AAe?$AAx?$AAt?$AA?9?$AAm?$AAs?$AA?9?$AA?$AA@ 100784b8     libucrt:winapi_thunks.obj
 0002:000094d0       ??_C@_0BA@FHFNEAED@AreFileApisANSI?$AA@ 100784d0     libucrt:winapi_thunks.obj
 0002:000094f0       ??_C@_0BA@IHGNDAEB@CompareStringEx?$AA@ 100784f0     libucrt:winapi_thunks.obj
 0002:00009510       ??_C@_0BE@LJANKFHF@EnumSystemLocalesEx?$AA@ 10078510     libucrt:winapi_thunks.obj
 0002:00009564       ??_C@_0BA@HNOPNCHB@GetActiveWindow?$AA@ 10078564     libucrt:winapi_thunks.obj
 0002:00009584       ??_C@_0BA@EPCJIIPD@GetDateFormatEx?$AA@ 10078584     libucrt:winapi_thunks.obj
 0002:000095a4       ??_C@_0BJ@DIBIJBHA@GetEnabledXStateFeatures?$AA@ 100785a4     libucrt:winapi_thunks.obj
 0002:000095d0       ??_C@_0BD@HHGDFDBJ@GetLastActivePopup?$AA@ 100785d0     libucrt:winapi_thunks.obj
 0002:000095f4       ??_C@_0BA@ONOKGCMP@GetLocaleInfoEx?$AA@ 100785f4     libucrt:winapi_thunks.obj
 0002:00009614       ??_C@_0BI@DFKBFLJE@GetProcessWindowStation?$AA@ 10078614     libucrt:winapi_thunks.obj
 0002:00009634       ??_C@_0BP@FPNJPEJC@GetSystemTimePreciseAsFileTime?$AA@ 10078634     libucrt:winapi_thunks.obj
 0002:00009668       ??_C@_0BA@CIJJKCJJ@GetTimeFormatEx?$AA@ 10078668     libucrt:winapi_thunks.obj
 0002:00009688       ??_C@_0BJ@PBCCBIPI@GetUserDefaultLocaleName?$AA@ 10078688     libucrt:winapi_thunks.obj
 0002:000096b4       ??_C@_0BK@DEKFELLI@GetUserObjectInformationW?$AA@ 100786b4     libucrt:winapi_thunks.obj
 0002:000096e0       ??_C@_0BG@IKLDMBLM@GetXStateFeaturesMask?$AA@ 100786e0     libucrt:winapi_thunks.obj
 0002:00009714       ??_C@_0BC@CELBKLLA@IsValidLocaleName?$AA@ 10078714     libucrt:winapi_thunks.obj
 0002:00009738       ??_C@_0O@KKBNKAPF@LCMapStringEx?$AA@ 10078738     libucrt:winapi_thunks.obj
 0002:00009754       ??_C@_0BB@CDHDDLLP@LCIDToLocaleName?$AA@ 10078754     libucrt:winapi_thunks.obj
 0002:00009774       ??_C@_0BB@HBDEELFH@LocaleNameToLCID?$AA@ 10078774     libucrt:winapi_thunks.obj
 0002:00009794       ??_C@_0BE@KINNKFDA@LocateXStateFeature?$AA@ 10078794     libucrt:winapi_thunks.obj
 0002:000097b8       ??_C@_0M@CHKKJDAI@MessageBoxA?$AA@ 100787b8     libucrt:winapi_thunks.obj
 0002:000097d4       ??_C@_0M@DLDCCGNP@MessageBoxW?$AA@ 100787d4     libucrt:winapi_thunks.obj
 0002:000097e8       ??_C@_0N@PPOMPGGK@RoInitialize?$AA@ 100787e8     libucrt:winapi_thunks.obj
 0002:000097fc       ??_C@_0P@LLFHBIJD@RoUninitialize?$AA@ 100787fc     libucrt:winapi_thunks.obj
 0002:00009814       ??_C@_0CF@OJOFEIGO@AppPolicyGetProcessTerminationMe@ 10078814     libucrt:winapi_thunks.obj
 0002:00009844       ??_C@_0CF@NNDFDCOC@AppPolicyGetThreadInitialization@ 10078844     libucrt:winapi_thunks.obj
 0002:00009874       ??_C@_0CE@OICFMIKE@AppPolicyGetShowDeveloperDiagnos@ 10078874     libucrt:winapi_thunks.obj
 0002:000098a4       ??_C@_0BL@ODDJNEDA@AppPolicyGetWindowingModel?$AA@ 100788a4     libucrt:winapi_thunks.obj
 0002:000098d0       ??_C@_0BI@BKLFFAPO@SetThreadStackGuarantee?$AA@ 100788d0     libucrt:winapi_thunks.obj
 0002:000098f8       ??_C@_0BC@JEAENNKH@SystemFunction036?$AA@ 100788f8     libucrt:winapi_thunks.obj
 0002:00009910       ??_C@_03OEIAHPBN@INF?$AA@  10078910     libucrt:cvt.obj
 0002:00009914       ??_C@_03OJHLLCGB@inf?$AA@  10078914     libucrt:cvt.obj
 0002:00009918       ??_C@_03LKNCIKJB@NAN?$AA@  10078918     libucrt:cvt.obj
 0002:0000991c       ??_C@_03LHCJEHON@nan?$AA@  1007891c     libucrt:cvt.obj
 0002:00009920       ??_C@_09OFJJIMPC@NAN?$CISNAN?$CJ?$AA@ 10078920     libucrt:cvt.obj
 0002:0000992c       ??_C@_09IPFBKMDL@nan?$CIsnan?$CJ?$AA@ 1007892c     libucrt:cvt.obj
 0002:00009938       ??_C@_08IKHNHAJ@NAN?$CIIND?$CJ?$AA@ 10078938     libucrt:cvt.obj
 0002:00009944       ??_C@_08OFCDMILK@nan?$CIind?$CJ?$AA@ 10078944     libucrt:cvt.obj
 0002:00009950       ??_C@_05KLBDPFGC@e?$CL000?$AA@ 10078950     libucrt:cvt.obj
 0002:000099f0       ___lc_category             100789f0     libucrt:wsetlocale.obj
 0002:00009a48       ??_C@_1O@GIFLHMA@?$AAL?$AAC?$AA_?$AAA?$AAL?$AAL?$AA?$AA@ 10078a48     libucrt:wsetlocale.obj
 0002:00009a58       ??_C@_1BG@PPOMIBNJ@?$AAL?$AAC?$AA_?$AAC?$AAO?$AAL?$AAL?$AAA?$AAT?$AAE?$AA?$AA@ 10078a58     libucrt:wsetlocale.obj
 0002:00009a74       ??_C@_1BC@FFJGAPJM@?$AAL?$AAC?$AA_?$AAC?$AAT?$AAY?$AAP?$AAE?$AA?$AA@ 10078a74     libucrt:wsetlocale.obj
 0002:00009a8c       ??_C@_1BI@PCKFNJFB@?$AAL?$AAC?$AA_?$AAM?$AAO?$AAN?$AAE?$AAT?$AAA?$AAR?$AAY?$AA?$AA@ 10078a8c     libucrt:wsetlocale.obj
 0002:00009aa8       ??_C@_1BG@ENIEDKID@?$AAL?$AAC?$AA_?$AAN?$AAU?$AAM?$AAE?$AAR?$AAI?$AAC?$AA?$AA@ 10078aa8     libucrt:wsetlocale.obj
 0002:00009ac4       ??_C@_1BA@HAAOMIIG@?$AAL?$AAC?$AA_?$AAT?$AAI?$AAM?$AAE?$AA?$AA@ 10078ac4     libucrt:wsetlocale.obj
 0002:00009ad8       ??_C@_15NBPDDFIP@?$AA?$DN?$AA?$DL?$AA?$AA@ 10078ad8     libucrt:wsetlocale.obj
 0002:00009ae0       ??_C@_13PJJBFPED@?$AA?$DL?$AA?$AA@ 10078ae0     libucrt:wsetlocale.obj
 0002:00009ae4       ??_C@_13NMPKAAJP@?$AA?$DN?$AA?$AA@ 10078ae4     libucrt:wsetlocale.obj
 0002:00009ae8       ??_C@_13FHBKNHDA@?$AAC?$AA?$AA@ 10078ae8     libucrt:wsetlocale.obj
 0002:00009aec       ??_C@_19MPDNHKDG@?$AAu?$AAt?$AAf?$AA8?$AA?$AA@ 10078aec     libucrt:wsetlocale.obj
 0002:00009af8       ??_C@_1M@FPEIIFAM@?$AAu?$AAt?$AAf?$AA?9?$AA8?$AA?$AA@ 10078af8     libucrt:wsetlocale.obj
 0002:00009b08       ??_C@_17MBJJLFDM@?$AA_?$AA?4?$AA?0?$AA?$AA@ 10078b08     libucrt:wsetlocale.obj
 0002:00009b14       ??_C@_13ENNFDPBH@?$AA_?$AA?$AA@ 10078b14     libucrt:wsetlocale.obj
 0002:00009b18       ??_C@_13JOFGPIOO@?$AA?4?$AA?$AA@ 10078b18     libucrt:wsetlocale.obj
 0002:00009b20       ___lc_time_c               10078b20     libucrt:nlsdata.obj
 0002:00009ccc       ??_C@_03KOEHGMDN@Sun?$AA@  10078ccc     libucrt:nlsdata.obj
 0002:00009cd0       ??_C@_03PDAGKDH@Mon?$AA@   10078cd0     libucrt:nlsdata.obj
 0002:00009cd4       ??_C@_03NAGEINEP@Tue?$AA@  10078cd4     libucrt:nlsdata.obj
 0002:00009cd8       ??_C@_03MHOMLAJA@Wed?$AA@  10078cd8     libucrt:nlsdata.obj
 0002:00009cdc       ??_C@_03IOFIKPDN@Thu?$AA@  10078cdc     libucrt:nlsdata.obj
 0002:00009ce0       ??_C@_03IDIOELNC@Fri?$AA@  10078ce0     libucrt:nlsdata.obj
 0002:00009ce4       ??_C@_03FEFJNEK@Sat?$AA@   10078ce4     libucrt:nlsdata.obj
 0002:00009ce8       ??_C@_06OOPIFAJ@Sunday?$AA@ 10078ce8     libucrt:nlsdata.obj
 0002:00009cf0       ??_C@_06JLEDEDGH@Monday?$AA@ 10078cf0     libucrt:nlsdata.obj
 0002:00009cf8       ??_C@_07BAAGCFCM@Tuesday?$AA@ 10078cf8     libucrt:nlsdata.obj
 0002:00009d04       ??_C@_09DLIGFAKA@Wednesday?$AA@ 10078d04     libucrt:nlsdata.obj
 0002:00009d10       ??_C@_08HACCIKIA@Thursday?$AA@ 10078d10     libucrt:nlsdata.obj
 0002:00009d1c       ??_C@_06JECMNKMI@Friday?$AA@ 10078d1c     libucrt:nlsdata.obj
 0002:00009d24       ??_C@_08INBOOONO@Saturday?$AA@ 10078d24     libucrt:nlsdata.obj
 0002:00009d30       ??_C@_03JIHJHPIE@Jan?$AA@  10078d30     libucrt:nlsdata.obj
 0002:00009d34       ??_C@_03HJBDCHOM@Feb?$AA@  10078d34     libucrt:nlsdata.obj
 0002:00009d38       ??_C@_03ODNJBKGA@Mar?$AA@  10078d38     libucrt:nlsdata.obj
 0002:00009d3c       ??_C@_03LEOLGMJP@Apr?$AA@  10078d3c     libucrt:nlsdata.obj
 0002:00009d40       ??_C@_03CNMDKL@May?$AA@    10078d40     libucrt:nlsdata.obj
 0002:00009d44       ??_C@_03IDFGHECI@Jun?$AA@  10078d44     libucrt:nlsdata.obj
 0002:00009d48       ??_C@_03LBGABGKK@Jul?$AA@  10078d48     libucrt:nlsdata.obj
 0002:00009d4c       ??_C@_03IFJFEIGA@Aug?$AA@  10078d4c     libucrt:nlsdata.obj
 0002:00009d50       ??_C@_03GGCAPAJC@Sep?$AA@  10078d50     libucrt:nlsdata.obj
 0002:00009d54       ??_C@_03BMAOKBAD@Oct?$AA@  10078d54     libucrt:nlsdata.obj
 0002:00009d58       ??_C@_03JPJOFNIA@Nov?$AA@  10078d58     libucrt:nlsdata.obj
 0002:00009d5c       ??_C@_03MKABNOCG@Dec?$AA@  10078d5c     libucrt:nlsdata.obj
 0002:00009d60       ??_C@_07CGJPFGJA@January?$AA@ 10078d60     libucrt:nlsdata.obj
 0002:00009d6c       ??_C@_08GNJGEPFN@February?$AA@ 10078d6c     libucrt:nlsdata.obj
 0002:00009d78       ??_C@_05HPCKOFNC@March?$AA@ 10078d78     libucrt:nlsdata.obj
 0002:00009d80       ??_C@_05DMJDNLEJ@April?$AA@ 10078d80     libucrt:nlsdata.obj
 0002:00009d88       ??_C@_04CNLMGBGM@June?$AA@ 10078d88     libucrt:nlsdata.obj
 0002:00009d90       ??_C@_04MIEPOIFP@July?$AA@ 10078d90     libucrt:nlsdata.obj
 0002:00009d98       ??_C@_06LBBHFDDG@August?$AA@ 10078d98     libucrt:nlsdata.obj
 0002:00009da0       ??_C@_09BHHEALKD@September?$AA@ 10078da0     libucrt:nlsdata.obj
 0002:00009dac       ??_C@_07JJNFCEND@October?$AA@ 10078dac     libucrt:nlsdata.obj
 0002:00009db8       ??_C@_08HCHEGEOA@November?$AA@ 10078db8     libucrt:nlsdata.obj
 0002:00009dc4       ??_C@_08EDHMEBNP@December?$AA@ 10078dc4     libucrt:nlsdata.obj
 0002:00009dd0       ??_C@_02DEDBPAFC@AM?$AA@   10078dd0     libucrt:nlsdata.obj
 0002:00009dd4       ??_C@_02CJNFDJBF@PM?$AA@   10078dd4     libucrt:nlsdata.obj
 0002:00009dd8       ??_C@_08BPBNCDIB@MM?1dd?1yy?$AA@ 10078dd8     libucrt:nlsdata.obj
 0002:00009de4       ??_C@_0BE@CKGJFCPC@dddd?0?5MMMM?5dd?0?5yyyy?$AA@ 10078de4     libucrt:nlsdata.obj
 0002:00009dfc       ??_C@_08JCCMCCIL@HH?3mm?3ss?$AA@ 10078dfc     libucrt:nlsdata.obj
 0002:00009e08       ??_C@_17MBGCMIPB@?$AAS?$AAu?$AAn?$AA?$AA@ 10078e08     libucrt:nlsdata.obj
 0002:00009e14       ??_C@_17KBOMKBF@?$AAM?$AAo?$AAn?$AA?$AA@ 10078e14     libucrt:nlsdata.obj
 0002:00009e20       ??_C@_17BMKGEGOJ@?$AAT?$AAu?$AAe?$AA?$AA@ 10078e20     libucrt:nlsdata.obj
 0002:00009e2c       ??_C@_17CJEDCEPE@?$AAW?$AAe?$AAd?$AA?$AA@ 10078e2c     libucrt:nlsdata.obj
 0002:00009e38       ??_C@_17PDPHAADD@?$AAT?$AAh?$AAu?$AA?$AA@ 10078e38     libucrt:nlsdata.obj
 0002:00009e44       ??_C@_17HFOLPPLP@?$AAF?$AAr?$AAi?$AA?$AA@ 10078e44     libucrt:nlsdata.obj
 0002:00009e50       ??_C@_17GGIBDPIH@?$AAS?$AAa?$AAt?$AA?$AA@ 10078e50     libucrt:nlsdata.obj
 0002:00009e5c       ??_C@_1O@IHNHDHPB@?$AAS?$AAu?$AAn?$AAd?$AAa?$AAy?$AA?$AA@ 10078e5c     libucrt:nlsdata.obj
 0002:00009e6c       ??_C@_1O@MMNBFLIA@?$AAM?$AAo?$AAn?$AAd?$AAa?$AAy?$AA?$AA@ 10078e6c     libucrt:nlsdata.obj
 0002:00009e7c       ??_C@_1BA@ENFBFFEK@?$AAT?$AAu?$AAe?$AAs?$AAd?$AAa?$AAy?$AA?$AA@ 10078e7c     libucrt:nlsdata.obj
 0002:00009e90       ??_C@_1BE@EBOGMDOH@?$AAW?$AAe?$AAd?$AAn?$AAe?$AAs?$AAd?$AAa?$AAy?$AA?$AA@ 10078e90     libucrt:nlsdata.obj
 0002:00009ea8       ??_C@_1BC@HHMNLIHE@?$AAT?$AAh?$AAu?$AAr?$AAs?$AAd?$AAa?$AAy?$AA?$AA@ 10078ea8     libucrt:nlsdata.obj
 0002:00009ec0       ??_C@_1O@PDICJHAG@?$AAF?$AAr?$AAi?$AAd?$AAa?$AAy?$AA?$AA@ 10078ec0     libucrt:nlsdata.obj
 0002:00009ed0       ??_C@_1BC@ENMNNPAJ@?$AAS?$AAa?$AAt?$AAu?$AAr?$AAd?$AAa?$AAy?$AA?$AA@ 10078ed0     libucrt:nlsdata.obj
 0002:00009ee8       ??_C@_17DKNBKCHM@?$AAJ?$AAa?$AAn?$AA?$AA@ 10078ee8     libucrt:nlsdata.obj
 0002:00009ef4       ??_C@_17LMDJEKJN@?$AAF?$AAe?$AAb?$AA?$AA@ 10078ef4     libucrt:nlsdata.obj
 0002:00009f00       ??_C@_17CKNLEDEC@?$AAM?$AAa?$AAr?$AA?$AA@ 10078f00     libucrt:nlsdata.obj
 0002:00009f0c       ??_C@_17LFPOIHDD@?$AAA?$AAp?$AAr?$AA?$AA@ 10078f0c     libucrt:nlsdata.obj
 0002:00009f18       ??_C@_17PNNKMEED@?$AAM?$AAa?$AAy?$AA?$AA@ 10078f18     libucrt:nlsdata.obj
 0002:00009f24       ??_C@_17KCJGOCPB@?$AAJ?$AAu?$AAn?$AA?$AA@ 10078f24     libucrt:nlsdata.obj
 0002:00009f30       ??_C@_17IJPCKHK@?$AAJ?$AAu?$AAl?$AA?$AA@ 10078f30     libucrt:nlsdata.obj
 0002:00009f3c       ??_C@_17ICPELBCN@?$AAA?$AAu?$AAg?$AA?$AA@ 10078f3c     libucrt:nlsdata.obj
 0002:00009f48       ??_C@_17HCHCOKMG@?$AAS?$AAe?$AAp?$AA?$AA@ 10078f48     libucrt:nlsdata.obj
 0002:00009f54       ??_C@_17FNLKOI@?$AAO?$AAc?$AAt?$AA?$AA@ 10078f54     libucrt:nlsdata.obj
 0002:00009f60       ??_C@_17BBDMLCIG@?$AAN?$AAo?$AAv?$AA?$AA@ 10078f60     libucrt:nlsdata.obj
 0002:00009f6c       ??_C@_17EGKACKIF@?$AAD?$AAe?$AAc?$AA?$AA@ 10078f6c     libucrt:nlsdata.obj
 0002:00009f78       ??_C@_1BA@EFMEIEBA@?$AAJ?$AAa?$AAn?$AAu?$AAa?$AAr?$AAy?$AA?$AA@ 10078f78     libucrt:nlsdata.obj
 0002:00009f8c       ??_C@_1BC@JGDDFFAM@?$AAF?$AAe?$AAb?$AAr?$AAu?$AAa?$AAr?$AAy?$AA?$AA@ 10078f8c     libucrt:nlsdata.obj
 0002:00009fa4       ??_C@_1M@IKEENEDF@?$AAM?$AAa?$AAr?$AAc?$AAh?$AA?$AA@ 10078fa4     libucrt:nlsdata.obj
 0002:00009fb4       ??_C@_1M@GJNLMHFD@?$AAA?$AAp?$AAr?$AAi?$AAl?$AA?$AA@ 10078fb4     libucrt:nlsdata.obj
 0002:00009fc4       ??_C@_19EPFLPGAP@?$AAJ?$AAu?$AAn?$AAe?$AA?$AA@ 10078fc4     libucrt:nlsdata.obj
 0002:00009fd0       ??_C@_19BIFMLPCD@?$AAJ?$AAu?$AAl?$AAy?$AA?$AA@ 10078fd0     libucrt:nlsdata.obj
 0002:00009fdc       ??_C@_1O@PAHLKOAC@?$AAA?$AAu?$AAg?$AAu?$AAs?$AAt?$AA?$AA@ 10078fdc     libucrt:nlsdata.obj
 0002:00009fec       ??_C@_1BE@DKAAMBJL@?$AAS?$AAe?$AAp?$AAt?$AAe?$AAm?$AAb?$AAe?$AAr?$AA?$AA@ 10078fec     libucrt:nlsdata.obj
 0002:0000a004       ??_C@_1BA@EPANDLNG@?$AAO?$AAc?$AAt?$AAo?$AAb?$AAe?$AAr?$AA?$AA@ 10079004     libucrt:nlsdata.obj
 0002:0000a018       ??_C@_1BC@BGLIFPF@?$AAN?$AAo?$AAv?$AAe?$AAm?$AAb?$AAe?$AAr?$AA?$AA@ 10079018     libucrt:nlsdata.obj
 0002:0000a030       ??_C@_1BC@FEMKIFH@?$AAD?$AAe?$AAc?$AAe?$AAm?$AAb?$AAe?$AAr?$AA?$AA@ 10079030     libucrt:nlsdata.obj
 0002:0000a048       ??_C@_15ODEHAHHF@?$AAA?$AAM?$AA?$AA@ 10079048     libucrt:nlsdata.obj
 0002:0000a050       ??_C@_15CLMNNGEL@?$AAP?$AAM?$AA?$AA@ 10079050     libucrt:nlsdata.obj
 0002:0000a058       ??_C@_1BC@IEBCMHCM@?$AAM?$AAM?$AA?1?$AAd?$AAd?$AA?1?$AAy?$AAy?$AA?$AA@ 10079058     libucrt:nlsdata.obj
 0002:0000a070       ??_C@_1CI@KNAKOEBC@?$AAd?$AAd?$AAd?$AAd?$AA?0?$AA?5?$AAM?$AAM?$AAM?$AAM?$AA?5?$AAd?$AAd?$AA?0?$AA?5?$AAy?$AAy?$AAy?$AAy?$AA?$AA@ 10079070     libucrt:nlsdata.obj
 0002:0000a0a0       ??_C@_1BC@GDGBMEMK@?$AAH?$AAH?$AA?3?$AAm?$AAm?$AA?3?$AAs?$AAs?$AA?$AA@ 100790a0     libucrt:nlsdata.obj
 0002:0000a0b8       ??_C@_1M@BMHNFIME@?$AAe?$AAn?$AA?9?$AAU?$AAS?$AA?$AA@ 100790b8     libucrt:nlsdata.obj
 0002:0000a0c8       ??_C@_1DE@JNGNBFGO@?$AAR?$AAu?$AAn?$AAt?$AAi?$AAm?$AAe?$AA?5?$AAE?$AAr?$AAr?$AAo?$AAr?$AA?$CB?$AA?6?$AA?6?$AAP?$AAr?$AAo?$AAg?$AAr?$AAa?$AAm?$AA?3?$AA?5?$AA?$AA@ 100790c8     libucrt:report_runtime_error.obj
 0002:0000a108       ?ccs@?1???$__acrt_stdio_parse_mode@D@@YA?AU__acrt_stdio_stream_mode@@QBD@Z@4QBDB 10079108     libucrt:openfile.obj
 0002:0000a10c       ?utf8_encoding@?1???$__acrt_stdio_parse_mode@D@@YA?AU__acrt_stdio_stream_mode@@QBD@Z@4QBDB 1007910c     libucrt:openfile.obj
 0002:0000a114       ?utf16_encoding@?1???$__acrt_stdio_parse_mode@D@@YA?AU__acrt_stdio_stream_mode@@QBD@Z@4QBDB 10079114     libucrt:openfile.obj
 0002:0000a120       ?unicode_encoding@?1???$__acrt_stdio_parse_mode@D@@YA?AU__acrt_stdio_stream_mode@@QBD@Z@4QBDB 10079120     libucrt:openfile.obj
 0002:0000a128       ?ccs@?1???$__acrt_stdio_parse_mode@_W@@YA?AU__acrt_stdio_stream_mode@@QB_W@Z@4QB_WB 10079128     libucrt:openfile.obj
 0002:0000a130       ?utf8_encoding@?1???$__acrt_stdio_parse_mode@_W@@YA?AU__acrt_stdio_stream_mode@@QB_W@Z@4QB_WB 10079130     libucrt:openfile.obj
 0002:0000a13c       ?utf16_encoding@?1???$__acrt_stdio_parse_mode@_W@@YA?AU__acrt_stdio_stream_mode@@QB_W@Z@4QB_WB 1007913c     libucrt:openfile.obj
 0002:0000a150       ?unicode_encoding@?1???$__acrt_stdio_parse_mode@_W@@YA?AU__acrt_stdio_stream_mode@@QB_W@Z@4QB_WB 10079150     libucrt:openfile.obj
 0002:0000a160       __d_inf                    10079160     libucrt:util.obj
 0002:0000a170       __d_ind                    10079170     libucrt:util.obj
 0002:0000a180       __d_max                    10079180     libucrt:util.obj
 0002:0000a190       __d_min                    10079190     libucrt:util.obj
 0002:0000a1a0       __d_mzero                  100791a0     libucrt:util.obj
 0002:0000a1e0       ??_C@_1M@HPNHIDJI@?$AAj?$AAa?$AA?9?$AAJ?$AAP?$AA?$AA@ 100791e0     libucrt:mbctype.obj
 0002:0000a1f0       ??_C@_1M@BIBDDEMK@?$AAz?$AAh?$AA?9?$AAC?$AAN?$AA?$AA@ 100791f0     libucrt:mbctype.obj
 0002:0000a200       ??_C@_1M@JLOOOEGK@?$AAk?$AAo?$AA?9?$AAK?$AAR?$AA?$AA@ 10079200     libucrt:mbctype.obj
 0002:0000a210       ??_C@_1M@CLNBBOPM@?$AAz?$AAh?$AA?9?$AAT?$AAW?$AA?$AA@ 10079210     libucrt:mbctype.obj
 0002:0000a220       ___newctype                10079220     libucrt:ctype.obj
 0002:0000a5c0       ___newclmap                100795c0     libucrt:ctype.obj
 0002:0000a790       ___newcumap                10079790     libucrt:ctype.obj
 0002:0000a960       __wctype                   10079960     libucrt:ctype.obj
 0002:0000b45c       ??_C@_15EMKDOKLE@?$AAa?$AAr?$AA?$AA@ 1007a45c     libucrt:lcidtoname_downlevel.obj
 0002:0000b464       ??_C@_15KNPADPLH@?$AAb?$AAg?$AA?$AA@ 1007a464     libucrt:lcidtoname_downlevel.obj
 0002:0000b46c       ??_C@_15EDMHLDMO@?$AAc?$AAa?$AA?$AA@ 1007a46c     libucrt:lcidtoname_downlevel.obj
 0002:0000b474       ??_C@_1O@BPEAJADD@?$AAz?$AAh?$AA?9?$AAC?$AAH?$AAS?$AA?$AA@ 1007a474     libucrt:lcidtoname_downlevel.obj
 0002:0000b484       ??_C@_15LJNHCMNK@?$AAc?$AAs?$AA?$AA@ 1007a484     libucrt:lcidtoname_downlevel.obj
 0002:0000b48c       ??_C@_15FOMCIDHG@?$AAd?$AAa?$AA?$AA@ 1007a48c     libucrt:lcidtoname_downlevel.obj
 0002:0000b494       ??_C@_15NBKABECB@?$AAd?$AAe?$AA?$AA@ 1007a494     libucrt:lcidtoname_downlevel.obj
 0002:0000b49c       ??_C@_15GHPEIIAO@?$AAe?$AAl?$AA?$AA@ 1007a49c     libucrt:lcidtoname_downlevel.obj
 0002:0000b4a4       ??_C@_15MNPNEAIF@?$AAe?$AAn?$AA?$AA@ 1007a4a4     libucrt:lcidtoname_downlevel.obj
 0002:0000b4ac       ??_C@_15GPIOMPMH@?$AAe?$AAs?$AA?$AA@ 1007a4ac     libucrt:lcidtoname_downlevel.obj
 0002:0000b4b4       ??_C@_15NGLOAKJC@?$AAf?$AAi?$AA?$AA@ 1007a4b4     libucrt:lcidtoname_downlevel.obj
 0002:0000b4bc       ??_C@_15FBKGNKAM@?$AAf?$AAr?$AA?$AA@ 1007a4bc     libucrt:lcidtoname_downlevel.obj
 0002:0000b4c4       ??_C@_15KGGCNEFK@?$AAh?$AAe?$AA?$AA@ 1007a4c4     libucrt:lcidtoname_downlevel.obj
 0002:0000b4cc       ??_C@_15PGHLIDMF@?$AAh?$AAu?$AA?$AA@ 1007a4cc     libucrt:lcidtoname_downlevel.obj
 0002:0000b4d4       ??_C@_15BIEMAPLM@?$AAi?$AAs?$AA?$AA@ 1007a4d4     libucrt:lcidtoname_downlevel.obj
 0002:0000b4dc       ??_C@_15IFJLDHAF@?$AAi?$AAt?$AA?$AA@ 1007a4dc     libucrt:lcidtoname_downlevel.obj
 0002:0000b4e4       ??_C@_15GEMIOCAG@?$AAj?$AAa?$AA?$AA@ 1007a4e4     libucrt:lcidtoname_downlevel.obj
 0002:0000b4ec       ??_C@_15EPELEGJA@?$AAk?$AAo?$AA?$AA@ 1007a4ec     libucrt:lcidtoname_downlevel.obj
 0002:0000b4f4       ??_C@_15NDDHIMN@?$AAn?$AAl?$AA?$AA@ 1007a4f4     libucrt:lcidtoname_downlevel.obj
 0002:0000b4fc       ??_C@_15BPIGNHCD@?$AAn?$AAo?$AA?$AA@ 1007a4fc     libucrt:lcidtoname_downlevel.obj
 0002:0000b504       ??_C@_15DEOPBLCG@?$AAp?$AAl?$AA?$AA@ 1007a504     libucrt:lcidtoname_downlevel.obj
 0002:0000b50c       ??_C@_15KBECGEFG@?$AAp?$AAt?$AA?$AA@ 1007a50c     libucrt:lcidtoname_downlevel.obj
 0002:0000b514       ??_C@_15GLJCBFMD@?$AAr?$AAo?$AA?$AA@ 1007a514     libucrt:lcidtoname_downlevel.obj
 0002:0000b51c       ??_C@_15FEDGKCDI@?$AAr?$AAu?$AA?$AA@ 1007a51c     libucrt:lcidtoname_downlevel.obj
 0002:0000b524       ??_C@_15GLKMLLHM@?$AAh?$AAr?$AA?$AA@ 1007a524     libucrt:lcidtoname_downlevel.obj
 0002:0000b52c       ??_C@_15CPKMFBDB@?$AAs?$AAk?$AA?$AA@ 1007a52c     libucrt:lcidtoname_downlevel.obj
 0002:0000b534       ??_C@_15BAAIOGMK@?$AAs?$AAq?$AA?$AA@ 1007a534     libucrt:lcidtoname_downlevel.obj
 0002:0000b53c       ??_C@_15INNPNOHD@?$AAs?$AAv?$AA?$AA@ 1007a53c     libucrt:lcidtoname_downlevel.obj
 0002:0000b544       ??_C@_15CABMMOGH@?$AAt?$AAh?$AA?$AA@ 1007a544     libucrt:lcidtoname_downlevel.obj
 0002:0000b54c       ??_C@_15BPLIHJJM@?$AAt?$AAr?$AA?$AA@ 1007a54c     libucrt:lcidtoname_downlevel.obj
 0002:0000b554       ??_C@_15NEOEKKDJ@?$AAu?$AAr?$AA?$AA@ 1007a554     libucrt:lcidtoname_downlevel.obj
 0002:0000b55c       ??_C@_15NFICGAJK@?$AAi?$AAd?$AA?$AA@ 1007a55c     libucrt:lcidtoname_downlevel.obj
 0002:0000b564       ??_C@_15PJPFLCCM@?$AAu?$AAk?$AA?$AA@ 1007a564     libucrt:lcidtoname_downlevel.obj
 0002:0000b56c       ??_C@_15HPJPHDM@?$AAb?$AAe?$AA?$AA@ 1007a56c     libucrt:lcidtoname_downlevel.obj
 0002:0000b574       ??_C@_15LCHLGJII@?$AAs?$AAl?$AA?$AA@ 1007a574     libucrt:lcidtoname_downlevel.obj
 0002:0000b57c       ??_C@_15PCFJPHHO@?$AAe?$AAt?$AA?$AA@ 1007a57c     libucrt:lcidtoname_downlevel.obj
 0002:0000b584       ??_C@_15HPFPGODN@?$AAl?$AAv?$AA?$AA@ 1007a584     libucrt:lcidtoname_downlevel.obj
 0002:0000b58c       ??_C@_15NFFGKGLG@?$AAl?$AAt?$AA?$AA@ 1007a58c     libucrt:lcidtoname_downlevel.obj
 0002:0000b594       ??_C@_15BDAKCCHN@?$AAf?$AAa?$AA?$AA@ 1007a594     libucrt:lcidtoname_downlevel.obj
 0002:0000b59c       ??_C@_15NFGIAIAJ@?$AAv?$AAi?$AA?$AA@ 1007a59c     libucrt:lcidtoname_downlevel.obj
 0002:0000b5a4       ??_C@_15LMKNDMHN@?$AAh?$AAy?$AA?$AA@ 1007a5a4     libucrt:lcidtoname_downlevel.obj
 0002:0000b5ac       ??_C@_15IJBHMCFL@?$AAa?$AAz?$AA?$AA@ 1007a5ac     libucrt:lcidtoname_downlevel.obj
 0002:0000b5b4       ??_C@_15EKOFJABL@?$AAe?$AAu?$AA?$AA@ 1007a5b4     libucrt:lcidtoname_downlevel.obj
 0002:0000b5bc       ??_C@_15BGHADCNK@?$AAm?$AAk?$AA?$AA@ 1007a5bc     libucrt:lcidtoname_downlevel.obj
 0002:0000b5c4       ??_C@_15JDNICKHM@?$AAa?$AAf?$AA?$AA@ 1007a5c4     libucrt:lcidtoname_downlevel.obj
 0002:0000b5cc       ??_C@_15KPJEDBKD@?$AAk?$AAa?$AA?$AA@ 1007a5cc     libucrt:lcidtoname_downlevel.obj
 0002:0000b5d4       ??_C@_15PDNFFFEO@?$AAf?$AAo?$AA?$AA@ 1007a5d4     libucrt:lcidtoname_downlevel.obj
 0002:0000b5dc       ??_C@_15OMLEGLOC@?$AAh?$AAi?$AA?$AA@ 1007a5dc     libucrt:lcidtoname_downlevel.obj
 0002:0000b5e4       ??_C@_15IDNNENKK@?$AAm?$AAs?$AA?$AA@ 1007a5e4     libucrt:lcidtoname_downlevel.obj
 0002:0000b5ec       ??_C@_15MACJNBMH@?$AAk?$AAk?$AA?$AA@ 1007a5ec     libucrt:lcidtoname_downlevel.obj
 0002:0000b5f4       ??_C@_15DKDJEOND@?$AAk?$AAy?$AA?$AA@ 1007a5f4     libucrt:lcidtoname_downlevel.obj
 0002:0000b5fc       ??_C@_15DFGDLJBG@?$AAs?$AAw?$AA?$AA@ 1007a5fc     libucrt:lcidtoname_downlevel.obj
 0002:0000b604       ??_C@_15BBFAICNG@?$AAu?$AAz?$AA?$AA@ 1007a604     libucrt:lcidtoname_downlevel.obj
 0002:0000b60c       ??_C@_15DKNDCGEA@?$AAt?$AAt?$AA?$AA@ 1007a60c     libucrt:lcidtoname_downlevel.obj
 0002:0000b614       ??_C@_15MGIFMDPL@?$AAp?$AAa?$AA?$AA@ 1007a614     libucrt:lcidtoname_downlevel.obj
 0002:0000b61c       ??_C@_15HCNDBBA@?$AAg?$AAu?$AA?$AA@ 1007a61c     libucrt:lcidtoname_downlevel.obj
 0002:0000b624       ??_C@_15FNBEIBON@?$AAt?$AAa?$AA?$AA@ 1007a624     libucrt:lcidtoname_downlevel.obj
 0002:0000b62c       ??_C@_15NCHGBGLK@?$AAt?$AAe?$AA?$AA@ 1007a62c     libucrt:lcidtoname_downlevel.obj
 0002:0000b634       ??_C@_15PHPHCBPF@?$AAk?$AAn?$AA?$AA@ 1007a634     libucrt:lcidtoname_downlevel.obj
 0002:0000b63c       ??_C@_15DLGBCKMP@?$AAm?$AAr?$AA?$AA@ 1007a63c     libucrt:lcidtoname_downlevel.obj
 0002:0000b644       ??_C@_15EABBLBFF@?$AAs?$AAa?$AA?$AA@ 1007a644     libucrt:lcidtoname_downlevel.obj
 0002:0000b64c       ??_C@_15CBKOMCOI@?$AAm?$AAn?$AA?$AA@ 1007a64c     libucrt:lcidtoname_downlevel.obj
 0002:0000b654       ??_C@_15CKDMCJAF@?$AAg?$AAl?$AA?$AA@ 1007a654     libucrt:lcidtoname_downlevel.obj
 0002:0000b65c       ??_C@_17CNJFBPG@?$AAk?$AAo?$AAk?$AA?$AA@ 1007a65c     libucrt:lcidtoname_downlevel.obj
 0002:0000b668       ??_C@_17FFBJICPL@?$AAs?$AAy?$AAr?$AA?$AA@ 1007a668     libucrt:lcidtoname_downlevel.obj
 0002:0000b674       ??_C@_17KPNDCPAF@?$AAd?$AAi?$AAv?$AA?$AA@ 1007a674     libucrt:lcidtoname_downlevel.obj
 0002:0000b680       ??_C@_11LOCGONAA@?$AA?$AA@ 1007a680     libucrt:lcidtoname_downlevel.obj
 0002:0000b684       ??_C@_1M@OKAHONE@?$AAa?$AAr?$AA?9?$AAS?$AAA?$AA?$AA@ 1007a684     libucrt:lcidtoname_downlevel.obj
 0002:0000b694       ??_C@_1M@FFFIGIGK@?$AAb?$AAg?$AA?9?$AAB?$AAG?$AA?$AA@ 1007a694     libucrt:lcidtoname_downlevel.obj
 0002:0000b6a4       ??_C@_1M@BJNKEDC@?$AAc?$AAa?$AA?9?$AAE?$AAS?$AA?$AA@ 1007a6a4     libucrt:lcidtoname_downlevel.obj
 0002:0000b6b4       ??_C@_1M@IJJHFJHA@?$AAc?$AAs?$AA?9?$AAC?$AAZ?$AA?$AA@ 1007a6b4     libucrt:lcidtoname_downlevel.obj
 0002:0000b6c4       ??_C@_1M@CLPEOBGI@?$AAd?$AAa?$AA?9?$AAD?$AAK?$AA?$AA@ 1007a6c4     libucrt:lcidtoname_downlevel.obj
 0002:0000b6d4       ??_C@_1M@MCMADGCB@?$AAd?$AAe?$AA?9?$AAD?$AAE?$AA?$AA@ 1007a6d4     libucrt:lcidtoname_downlevel.obj
 0002:0000b6e4       ??_C@_1M@OOCKEMAM@?$AAe?$AAl?$AA?9?$AAG?$AAR?$AA?$AA@ 1007a6e4     libucrt:lcidtoname_downlevel.obj
 0002:0000b6f4       ??_C@_1M@DDNJFGID@?$AAf?$AAi?$AA?9?$AAF?$AAI?$AA?$AA@ 1007a6f4     libucrt:lcidtoname_downlevel.obj
 0002:0000b704       ??_C@_1M@GLIPPMAC@?$AAf?$AAr?$AA?9?$AAF?$AAR?$AA?$AA@ 1007a704     libucrt:lcidtoname_downlevel.obj
 0002:0000b714       ??_C@_1M@GFMCHPE@?$AAh?$AAe?$AA?9?$AAI?$AAL?$AA?$AA@ 1007a714     libucrt:lcidtoname_downlevel.obj
 0002:0000b724       ??_C@_1M@MHLPGNKM@?$AAh?$AAu?$AA?9?$AAH?$AAU?$AA?$AA@ 1007a724     libucrt:lcidtoname_downlevel.obj
 0002:0000b734       ??_C@_1M@LPDDNNPN@?$AAi?$AAs?$AA?9?$AAI?$AAS?$AA?$AA@ 1007a734     libucrt:lcidtoname_downlevel.obj
 0002:0000b744       ??_C@_1M@MADIPODN@?$AAi?$AAt?$AA?9?$AAI?$AAT?$AA?$AA@ 1007a744     libucrt:lcidtoname_downlevel.obj
 0002:0000b754       ??_C@_1M@IHBJJGG@?$AAn?$AAl?$AA?9?$AAN?$AAL?$AA?$AA@ 1007a754     libucrt:lcidtoname_downlevel.obj
 0002:0000b764       ??_C@_1M@EANAGDL@?$AAn?$AAb?$AA?9?$AAN?$AAO?$AA?$AA@ 1007a764     libucrt:lcidtoname_downlevel.obj
 0002:0000b774       ??_C@_1M@NEIEMEGP@?$AAp?$AAl?$AA?9?$AAP?$AAL?$AA?$AA@ 1007a774     libucrt:lcidtoname_downlevel.obj
 0002:0000b784       ??_C@_1M@BOCFIGEP@?$AAp?$AAt?$AA?9?$AAB?$AAR?$AA?$AA@ 1007a784     libucrt:lcidtoname_downlevel.obj
 0002:0000b794       ??_C@_1M@IMPFOPBG@?$AAr?$AAo?$AA?9?$AAR?$AAO?$AA?$AA@ 1007a794     libucrt:lcidtoname_downlevel.obj
 0002:0000b7a4       ??_C@_1M@IDNNEJMM@?$AAr?$AAu?$AA?9?$AAR?$AAU?$AA?$AA@ 1007a7a4     libucrt:lcidtoname_downlevel.obj
 0002:0000b7b4       ??_C@_1M@LILEEOGM@?$AAh?$AAr?$AA?9?$AAH?$AAR?$AA?$AA@ 1007a7b4     libucrt:lcidtoname_downlevel.obj
 0002:0000b7c4       ??_C@_1M@FKIFEHPB@?$AAs?$AAk?$AA?9?$AAS?$AAK?$AA?$AA@ 1007a7c4     libucrt:lcidtoname_downlevel.obj
 0002:0000b7d4       ??_C@_1M@LJMAMNPJ@?$AAs?$AAq?$AA?9?$AAA?$AAL?$AA?$AA@ 1007a7d4     libucrt:lcidtoname_downlevel.obj
 0002:0000b7e4       ??_C@_1M@GIAKDKJK@?$AAs?$AAv?$AA?9?$AAS?$AAE?$AA?$AA@ 1007a7e4     libucrt:lcidtoname_downlevel.obj
 0002:0000b7f4       ??_C@_1M@MKJKIKCL@?$AAt?$AAh?$AA?9?$AAT?$AAH?$AA?$AA@ 1007a7f4     libucrt:lcidtoname_downlevel.obj
 0002:0000b804       ??_C@_1M@MFLCCMPB@?$AAt?$AAr?$AA?9?$AAT?$AAR?$AA?$AA@ 1007a804     libucrt:lcidtoname_downlevel.obj
 0002:0000b814       ??_C@_1M@OIJHDKJN@?$AAu?$AAr?$AA?9?$AAP?$AAK?$AA?$AA@ 1007a814     libucrt:lcidtoname_downlevel.obj
 0002:0000b824       ??_C@_1M@LHIPCIEK@?$AAi?$AAd?$AA?9?$AAI?$AAD?$AA?$AA@ 1007a824     libucrt:lcidtoname_downlevel.obj
 0002:0000b834       ??_C@_1M@MFMOBGI@?$AAu?$AAk?$AA?9?$AAU?$AAA?$AA?$AA@ 1007a834     libucrt:lcidtoname_downlevel.obj
 0002:0000b844       ??_C@_1M@OBGLJIPL@?$AAb?$AAe?$AA?9?$AAB?$AAY?$AA?$AA@ 1007a844     libucrt:lcidtoname_downlevel.obj
 0002:0000b854       ??_C@_1M@BCFAJEAD@?$AAs?$AAl?$AA?9?$AAS?$AAI?$AA?$AA@ 1007a854     libucrt:lcidtoname_downlevel.obj
 0002:0000b864       ??_C@_1M@FKFFEDDN@?$AAe?$AAt?$AA?9?$AAE?$AAE?$AA?$AA@ 1007a864     libucrt:lcidtoname_downlevel.obj
 0002:0000b874       ??_C@_1M@KGKKAACI@?$AAl?$AAv?$AA?9?$AAL?$AAV?$AA?$AA@ 1007a874     libucrt:lcidtoname_downlevel.obj
 0002:0000b884       ??_C@_1M@IFGBIJO@?$AAl?$AAt?$AA?9?$AAL?$AAT?$AA?$AA@ 1007a884     libucrt:lcidtoname_downlevel.obj
 0002:0000b894       ??_C@_1M@FGEAHEDM@?$AAf?$AAa?$AA?9?$AAI?$AAR?$AA?$AA@ 1007a894     libucrt:lcidtoname_downlevel.obj
 0002:0000b8a4       ??_C@_1M@KBMAIBFN@?$AAv?$AAi?$AA?9?$AAV?$AAN?$AA?$AA@ 1007a8a4     libucrt:lcidtoname_downlevel.obj
 0002:0000b8b4       ??_C@_1M@GPCBKDJK@?$AAh?$AAy?$AA?9?$AAA?$AAM?$AA?$AA@ 1007a8b4     libucrt:lcidtoname_downlevel.obj
 0002:0000b8c4       ??_C@_1BG@BECMDDJB@?$AAa?$AAz?$AA?9?$AAA?$AAZ?$AA?9?$AAL?$AAa?$AAt?$AAn?$AA?$AA@ 1007a8c4     libucrt:lcidtoname_downlevel.obj
 0002:0000b8e0       ??_C@_1M@MAOFCAEA@?$AAe?$AAu?$AA?9?$AAE?$AAS?$AA?$AA@ 1007a8e0     libucrt:lcidtoname_downlevel.obj
 0002:0000b8f0       ??_C@_1M@IGHABKPI@?$AAm?$AAk?$AA?9?$AAM?$AAK?$AA?$AA@ 1007a8f0     libucrt:lcidtoname_downlevel.obj
 0002:0000b900       ??_C@_1M@IAIGNEJG@?$AAt?$AAn?$AA?9?$AAZ?$AAA?$AA?$AA@ 1007a900     libucrt:lcidtoname_downlevel.obj
 0002:0000b910       ??_C@_1M@IIJCOJFA@?$AAx?$AAh?$AA?9?$AAZ?$AAA?$AA?$AA@ 1007a910     libucrt:lcidtoname_downlevel.obj
 0002:0000b920       ??_C@_1M@LGPJHNJH@?$AAz?$AAu?$AA?9?$AAZ?$AAA?$AA?$AA@ 1007a920     libucrt:lcidtoname_downlevel.obj
 0002:0000b930       ??_C@_1M@HOKAOIO@?$AAa?$AAf?$AA?9?$AAZ?$AAA?$AA?$AA@ 1007a930     libucrt:lcidtoname_downlevel.obj
 0002:0000b940       ??_C@_1M@DPCLHLIE@?$AAk?$AAa?$AA?9?$AAG?$AAE?$AA?$AA@ 1007a940     libucrt:lcidtoname_downlevel.obj
 0002:0000b950       ??_C@_1M@BLKMHJBI@?$AAf?$AAo?$AA?9?$AAF?$AAO?$AA?$AA@ 1007a950     libucrt:lcidtoname_downlevel.obj
 0002:0000b960       ??_C@_1M@LGGJAPPB@?$AAh?$AAi?$AA?9?$AAI?$AAN?$AA?$AA@ 1007a960     libucrt:lcidtoname_downlevel.obj
 0002:0000b970       ??_C@_1M@FIKPIHFE@?$AAm?$AAt?$AA?9?$AAM?$AAT?$AA?$AA@ 1007a970     libucrt:lcidtoname_downlevel.obj
 0002:0000b980       ??_C@_1M@HEGGPBFA@?$AAs?$AAe?$AA?9?$AAN?$AAO?$AA?$AA@ 1007a980     libucrt:lcidtoname_downlevel.obj
 0002:0000b990       ??_C@_1M@EIBJEEPA@?$AAm?$AAs?$AA?9?$AAM?$AAY?$AA?$AA@ 1007a990     libucrt:lcidtoname_downlevel.obj
 0002:0000b9a0       ??_C@_1M@FHLBGMPP@?$AAk?$AAk?$AA?9?$AAK?$AAZ?$AA?$AA@ 1007a9a0     libucrt:lcidtoname_downlevel.obj
 0002:0000b9b0       ??_C@_1M@NGJJLCGI@?$AAk?$AAy?$AA?9?$AAK?$AAG?$AA?$AA@ 1007a9b0     libucrt:lcidtoname_downlevel.obj
 0002:0000b9c0       ??_C@_1M@GIENNBFC@?$AAs?$AAw?$AA?9?$AAK?$AAE?$AA?$AA@ 1007a9c0     libucrt:lcidtoname_downlevel.obj
 0002:0000b9d0       ??_C@_1BG@NDGMJIMJ@?$AAu?$AAz?$AA?9?$AAU?$AAZ?$AA?9?$AAL?$AAa?$AAt?$AAn?$AA?$AA@ 1007a9d0     libucrt:lcidtoname_downlevel.obj
 0002:0000b9ec       ??_C@_1M@IDCCIHBC@?$AAt?$AAt?$AA?9?$AAR?$AAU?$AA?$AA@ 1007a9ec     libucrt:lcidtoname_downlevel.obj
 0002:0000b9fc       ??_C@_1M@LOICPMOJ@?$AAb?$AAn?$AA?9?$AAI?$AAN?$AA?$AA@ 1007a9fc     libucrt:lcidtoname_downlevel.obj
 0002:0000ba0c       ??_C@_1M@KPKKNEAH@?$AAp?$AAa?$AA?9?$AAI?$AAN?$AA?$AA@ 1007aa0c     libucrt:lcidtoname_downlevel.obj
 0002:0000ba1c       ??_C@_1M@PJGPPBOG@?$AAg?$AAu?$AA?9?$AAI?$AAN?$AA?$AA@ 1007aa1c     libucrt:lcidtoname_downlevel.obj
 0002:0000ba2c       ??_C@_1M@KMKMOPHI@?$AAt?$AAa?$AA?9?$AAI?$AAN?$AA?$AA@ 1007aa2c     libucrt:lcidtoname_downlevel.obj
 0002:0000ba3c       ??_C@_1M@KFEHEPAC@?$AAt?$AAe?$AA?9?$AAI?$AAN?$AA?$AA@ 1007aa3c     libucrt:lcidtoname_downlevel.obj
 0002:0000ba4c       ??_C@_1M@CDCLMGHI@?$AAk?$AAn?$AA?9?$AAI?$AAN?$AA?$AA@ 1007aa4c     libucrt:lcidtoname_downlevel.obj
 0002:0000ba5c       ??_C@_1M@MIODLDKF@?$AAm?$AAl?$AA?9?$AAI?$AAN?$AA?$AA@ 1007aa5c     libucrt:lcidtoname_downlevel.obj
 0002:0000ba6c       ??_C@_1M@PBIEACPO@?$AAm?$AAr?$AA?9?$AAI?$AAN?$AA?$AA@ 1007aa6c     libucrt:lcidtoname_downlevel.obj
 0002:0000ba7c       ??_C@_1M@NIDEAGPH@?$AAs?$AAa?$AA?9?$AAI?$AAN?$AA?$AA@ 1007aa7c     libucrt:lcidtoname_downlevel.obj
 0002:0000ba8c       ??_C@_1M@FHIHCBIO@?$AAm?$AAn?$AA?9?$AAM?$AAN?$AA?$AA@ 1007aa8c     libucrt:lcidtoname_downlevel.obj
 0002:0000ba9c       ??_C@_1M@JAIJPENP@?$AAc?$AAy?$AA?9?$AAG?$AAB?$AA?$AA@ 1007aa9c     libucrt:lcidtoname_downlevel.obj
 0002:0000baac       ??_C@_1M@PHGFBEPN@?$AAg?$AAl?$AA?9?$AAE?$AAS?$AA?$AA@ 1007aaac     libucrt:lcidtoname_downlevel.obj
 0002:0000babc       ??_C@_1O@KPIPDNCP@?$AAk?$AAo?$AAk?$AA?9?$AAI?$AAN?$AA?$AA@ 1007aabc     libucrt:lcidtoname_downlevel.obj
 0002:0000bacc       ??_C@_1O@KNHJLDJA@?$AAs?$AAy?$AAr?$AA?9?$AAS?$AAY?$AA?$AA@ 1007aacc     libucrt:lcidtoname_downlevel.obj
 0002:0000badc       ??_C@_1O@MKEKBLAH@?$AAd?$AAi?$AAv?$AA?9?$AAM?$AAV?$AA?$AA@ 1007aadc     libucrt:lcidtoname_downlevel.obj
 0002:0000baec       ??_C@_1O@OHDCKDDF@?$AAq?$AAu?$AAz?$AA?9?$AAB?$AAO?$AA?$AA@ 1007aaec     libucrt:lcidtoname_downlevel.obj
 0002:0000bafc       ??_C@_1M@LEPJNLFD@?$AAn?$AAs?$AA?9?$AAZ?$AAA?$AA?$AA@ 1007aafc     libucrt:lcidtoname_downlevel.obj
 0002:0000bb0c       ??_C@_1M@OMLEIIJB@?$AAm?$AAi?$AA?9?$AAN?$AAZ?$AA?$AA@ 1007ab0c     libucrt:lcidtoname_downlevel.obj
 0002:0000bb1c       ??_C@_1M@PMPEAILG@?$AAa?$AAr?$AA?9?$AAI?$AAQ?$AA?$AA@ 1007ab1c     libucrt:lcidtoname_downlevel.obj
 0002:0000bb2c       ??_C@_1M@CNKPNOEE@?$AAd?$AAe?$AA?9?$AAC?$AAH?$AA?$AA@ 1007ab2c     libucrt:lcidtoname_downlevel.obj
 0002:0000bb3c       ??_C@_1M@LKMGMLKO@?$AAe?$AAn?$AA?9?$AAG?$AAB?$AA?$AA@ 1007ab3c     libucrt:lcidtoname_downlevel.obj
 0002:0000bb4c       ??_C@_1M@PGKJFFGL@?$AAe?$AAs?$AA?9?$AAM?$AAX?$AA?$AA@ 1007ab4c     libucrt:lcidtoname_downlevel.obj
 0002:0000bb5c       ??_C@_1M@DNNANBDC@?$AAf?$AAr?$AA?9?$AAB?$AAE?$AA?$AA@ 1007ab5c     libucrt:lcidtoname_downlevel.obj
 0002:0000bb6c       ??_C@_1M@HLGMDFHM@?$AAi?$AAt?$AA?9?$AAC?$AAH?$AA?$AA@ 1007ab6c     libucrt:lcidtoname_downlevel.obj
 0002:0000bb7c       ??_C@_1M@CLLBGJH@?$AAn?$AAl?$AA?9?$AAB?$AAE?$AA?$AA@ 1007ab7c     libucrt:lcidtoname_downlevel.obj
 0002:0000bb8c       ??_C@_1M@BODBOGLF@?$AAn?$AAn?$AA?9?$AAN?$AAO?$AA?$AA@ 1007ab8c     libucrt:lcidtoname_downlevel.obj
 0002:0000bb9c       ??_C@_1M@HFFAHKAD@?$AAp?$AAt?$AA?9?$AAP?$AAT?$AA?$AA@ 1007ab9c     libucrt:lcidtoname_downlevel.obj
 0002:0000bbac       ??_C@_1BG@LNOAKHIE@?$AAs?$AAr?$AA?9?$AAS?$AAP?$AA?9?$AAL?$AAa?$AAt?$AAn?$AA?$AA@ 1007abac     libucrt:lcidtoname_downlevel.obj
 0002:0000bbc8       ??_C@_1M@HBMHBGAK@?$AAs?$AAv?$AA?9?$AAF?$AAI?$AA?$AA@ 1007abc8     libucrt:lcidtoname_downlevel.obj
 0002:0000bbd8       ??_C@_1BG@DGCJGJBE@?$AAa?$AAz?$AA?9?$AAA?$AAZ?$AA?9?$AAC?$AAy?$AAr?$AAl?$AA?$AA@ 1007abd8     libucrt:lcidtoname_downlevel.obj
 0002:0000bbf4       ??_C@_1M@KEJDAAHB@?$AAs?$AAe?$AA?9?$AAS?$AAE?$AA?$AA@ 1007abf4     libucrt:lcidtoname_downlevel.obj
 0002:0000bc04       ??_C@_1M@HEIBJJAD@?$AAm?$AAs?$AA?9?$AAB?$AAN?$AA?$AA@ 1007ac04     libucrt:lcidtoname_downlevel.obj
 0002:0000bc14       ??_C@_1BG@PBGJMCEM@?$AAu?$AAz?$AA?9?$AAU?$AAZ?$AA?9?$AAC?$AAy?$AAr?$AAl?$AA?$AA@ 1007ac14     libucrt:lcidtoname_downlevel.obj
 0002:0000bc30       ??_C@_1O@LAOBCMDF@?$AAq?$AAu?$AAz?$AA?9?$AAE?$AAC?$AA?$AA@ 1007ac30     libucrt:lcidtoname_downlevel.obj
 0002:0000bc40       ??_C@_1M@POEEMAIO@?$AAa?$AAr?$AA?9?$AAE?$AAG?$AA?$AA@ 1007ac40     libucrt:lcidtoname_downlevel.obj
 0002:0000bc50       ??_C@_1M@EFAKDEDL@?$AAz?$AAh?$AA?9?$AAH?$AAK?$AA?$AA@ 1007ac50     libucrt:lcidtoname_downlevel.obj
 0002:0000bc60       ??_C@_1M@HKKIJHGI@?$AAd?$AAe?$AA?9?$AAA?$AAT?$AA?$AA@ 1007ac60     libucrt:lcidtoname_downlevel.obj
 0002:0000bc70       ??_C@_1M@KBFBEHJF@?$AAe?$AAn?$AA?9?$AAA?$AAU?$AA?$AA@ 1007ac70     libucrt:lcidtoname_downlevel.obj
 0002:0000bc80       ??_C@_1M@MNPLFAAH@?$AAe?$AAs?$AA?9?$AAE?$AAS?$AA?$AA@ 1007ac80     libucrt:lcidtoname_downlevel.obj
 0002:0000bc90       ??_C@_1M@HJOOJFMA@?$AAf?$AAr?$AA?9?$AAC?$AAA?$AA?$AA@ 1007ac90     libucrt:lcidtoname_downlevel.obj
 0002:0000bca0       ??_C@_1BG@JPOFPNAB@?$AAs?$AAr?$AA?9?$AAS?$AAP?$AA?9?$AAC?$AAy?$AAr?$AAl?$AA?$AA@ 1007aca0     libucrt:lcidtoname_downlevel.obj
 0002:0000bcbc       ??_C@_1M@LNFOCMOB@?$AAs?$AAe?$AA?9?$AAF?$AAI?$AA?$AA@ 1007acbc     libucrt:lcidtoname_downlevel.obj
 0002:0000bccc       ??_C@_1O@MGJBOAMB@?$AAq?$AAu?$AAz?$AA?9?$AAP?$AAE?$AA?$AA@ 1007accc     libucrt:lcidtoname_downlevel.obj
 0002:0000bcdc       ??_C@_1M@GJINLBOK@?$AAa?$AAr?$AA?9?$AAL?$AAY?$AA?$AA@ 1007acdc     libucrt:lcidtoname_downlevel.obj
 0002:0000bcec       ??_C@_1M@GGMNHJNL@?$AAz?$AAh?$AA?9?$AAS?$AAG?$AA?$AA@ 1007acec     libucrt:lcidtoname_downlevel.obj
 0002:0000bcfc       ??_C@_1M@HOIKODND@?$AAd?$AAe?$AA?9?$AAL?$AAU?$AA?$AA@ 1007acfc     libucrt:lcidtoname_downlevel.obj
 0002:0000bd0c       ??_C@_1M@DDOCCGFG@?$AAe?$AAn?$AA?9?$AAC?$AAA?$AA?$AA@ 1007ad0c     libucrt:lcidtoname_downlevel.obj
 0002:0000bd1c       ??_C@_1M@BNOEMJLF@?$AAe?$AAs?$AA?9?$AAG?$AAT?$AA?$AA@ 1007ad1c     libucrt:lcidtoname_downlevel.obj
 0002:0000bd2c       ??_C@_1M@EOGNKEK@?$AAf?$AAr?$AA?9?$AAC?$AAH?$AA?$AA@ 1007ad2c     libucrt:lcidtoname_downlevel.obj
 0002:0000bd3c       ??_C@_1M@FLIDJFHL@?$AAh?$AAr?$AA?9?$AAB?$AAA?$AA?$AA@ 1007ad3c     libucrt:lcidtoname_downlevel.obj
 0002:0000bd4c       ??_C@_1O@FMCELNAJ@?$AAs?$AAm?$AAj?$AA?9?$AAN?$AAO?$AA?$AA@ 1007ad4c     libucrt:lcidtoname_downlevel.obj
 0002:0000bd5c       ??_C@_1M@JHGLJMGJ@?$AAa?$AAr?$AA?9?$AAD?$AAZ?$AA?$AA@ 1007ad5c     libucrt:lcidtoname_downlevel.obj
 0002:0000bd6c       ??_C@_1M@JKKFDCNP@?$AAz?$AAh?$AA?9?$AAM?$AAO?$AA?$AA@ 1007ad6c     libucrt:lcidtoname_downlevel.obj
 0002:0000bd7c       ??_C@_1M@GEEFALPE@?$AAd?$AAe?$AA?9?$AAL?$AAI?$AA?$AA@ 1007ad7c     libucrt:lcidtoname_downlevel.obj
 0002:0000bd8c       ??_C@_1M@IGEOFBG@?$AAe?$AAn?$AA?9?$AAN?$AAZ?$AA?$AA@ 1007ad8c     libucrt:lcidtoname_downlevel.obj
 0002:0000bd9c       ??_C@_1M@KDBONEHP@?$AAe?$AAs?$AA?9?$AAC?$AAR?$AA?$AA@ 1007ad9c     libucrt:lcidtoname_downlevel.obj
 0002:0000bdac       ??_C@_1M@FHMDOHNN@?$AAf?$AAr?$AA?9?$AAL?$AAU?$AA?$AA@ 1007adac     libucrt:lcidtoname_downlevel.obj
 0002:0000bdbc       ??_C@_1BG@NFKKMAFG@?$AAb?$AAs?$AA?9?$AAB?$AAA?$AA?9?$AAL?$AAa?$AAt?$AAn?$AA?$AA@ 1007adbc     libucrt:lcidtoname_downlevel.obj
 0002:0000bdd8       ??_C@_1O@IMNBEMCI@?$AAs?$AAm?$AAj?$AA?9?$AAS?$AAE?$AA?$AA@ 1007add8     libucrt:lcidtoname_downlevel.obj
 0002:0000bde8       ??_C@_1M@DHHMBNDP@?$AAa?$AAr?$AA?9?$AAM?$AAA?$AA?$AA@ 1007ade8     libucrt:lcidtoname_downlevel.obj
 0002:0000bdf8       ??_C@_1M@BNBLJCGH@?$AAe?$AAn?$AA?9?$AAI?$AAE?$AA?$AA@ 1007adf8     libucrt:lcidtoname_downlevel.obj
 0002:0000be08       ??_C@_1M@GEPAFMDL@?$AAe?$AAs?$AA?9?$AAP?$AAA?$AA?$AA@ 1007ae08     libucrt:lcidtoname_downlevel.obj
 0002:0000be18       ??_C@_1M@OJONDMDL@?$AAf?$AAr?$AA?9?$AAM?$AAC?$AA?$AA@ 1007ae18     libucrt:lcidtoname_downlevel.obj
 0002:0000be28       ??_C@_1BG@OBCNFJB@?$AAs?$AAr?$AA?9?$AAB?$AAA?$AA?9?$AAL?$AAa?$AAt?$AAn?$AA?$AA@ 1007ae28     libucrt:lcidtoname_downlevel.obj
 0002:0000be44       ??_C@_1O@KEMEEGPO@?$AAs?$AAm?$AAa?$AA?9?$AAN?$AAO?$AA?$AA@ 1007ae44     libucrt:lcidtoname_downlevel.obj
 0002:0000be54       ??_C@_1M@ELMGFODK@?$AAa?$AAr?$AA?9?$AAT?$AAN?$AA?$AA@ 1007ae54     libucrt:lcidtoname_downlevel.obj
 0002:0000be64       ??_C@_1M@BHDLHFAF@?$AAe?$AAn?$AA?9?$AAZ?$AAA?$AA?$AA@ 1007ae64     libucrt:lcidtoname_downlevel.obj
 0002:0000be74       ??_C@_1M@BMGIGLIF@?$AAe?$AAs?$AA?9?$AAD?$AAO?$AA?$AA@ 1007ae74     libucrt:lcidtoname_downlevel.obj
 0002:0000be84       ??_C@_1BG@CMBHIPBE@?$AAs?$AAr?$AA?9?$AAB?$AAA?$AA?9?$AAC?$AAy?$AAr?$AAl?$AA?$AA@ 1007ae84     libucrt:lcidtoname_downlevel.obj
 0002:0000bea0       ??_C@_1O@HEDBLHNP@?$AAs?$AAm?$AAa?$AA?9?$AAS?$AAE?$AA?$AA@ 1007aea0     libucrt:lcidtoname_downlevel.obj
 0002:0000beb0       ??_C@_1M@DAGCADIM@?$AAa?$AAr?$AA?9?$AAO?$AAM?$AA?$AA@ 1007aeb0     libucrt:lcidtoname_downlevel.obj
 0002:0000bec0       ??_C@_1M@FODLMICG@?$AAe?$AAn?$AA?9?$AAJ?$AAM?$AA?$AA@ 1007aec0     libucrt:lcidtoname_downlevel.obj
 0002:0000bed0       ??_C@_1M@DNMLCIHB@?$AAe?$AAs?$AA?9?$AAV?$AAE?$AA?$AA@ 1007aed0     libucrt:lcidtoname_downlevel.obj
 0002:0000bee0       ??_C@_1O@EOKHMKJK@?$AAs?$AAm?$AAs?$AA?9?$AAF?$AAI?$AA?$AA@ 1007aee0     libucrt:lcidtoname_downlevel.obj
 0002:0000bef0       ??_C@_1M@CAFJMKOF@?$AAa?$AAr?$AA?9?$AAY?$AAE?$AA?$AA@ 1007aef0     libucrt:lcidtoname_downlevel.obj
 0002:0000bf00       ??_C@_1M@CBFHIJLI@?$AAe?$AAn?$AA?9?$AAC?$AAB?$AA?$AA@ 1007af00     libucrt:lcidtoname_downlevel.obj
 0002:0000bf10       ??_C@_1M@BGNFLDN@?$AAe?$AAs?$AA?9?$AAC?$AAO?$AA?$AA@ 1007af10     libucrt:lcidtoname_downlevel.obj
 0002:0000bf20       ??_C@_1O@JMPHMAMC@?$AAs?$AAm?$AAn?$AA?9?$AAF?$AAI?$AA?$AA@ 1007af20     libucrt:lcidtoname_downlevel.obj
 0002:0000bf30       ??_C@_1M@JLANABKE@?$AAa?$AAr?$AA?9?$AAS?$AAY?$AA?$AA@ 1007af30     libucrt:lcidtoname_downlevel.obj
 0002:0000bf40       ??_C@_1M@HPKGCFGN@?$AAe?$AAn?$AA?9?$AAB?$AAZ?$AA?$AA@ 1007af40     libucrt:lcidtoname_downlevel.obj
 0002:0000bf50       ??_C@_1M@OLJCMLGM@?$AAe?$AAs?$AA?9?$AAP?$AAE?$AA?$AA@ 1007af50     libucrt:lcidtoname_downlevel.obj
 0002:0000bf60       ??_C@_1M@MKKGFKLE@?$AAa?$AAr?$AA?9?$AAJ?$AAO?$AA?$AA@ 1007af60     libucrt:lcidtoname_downlevel.obj
 0002:0000bf70       ??_C@_1M@EKPGLDNI@?$AAe?$AAn?$AA?9?$AAT?$AAT?$AA?$AA@ 1007af70     libucrt:lcidtoname_downlevel.obj
 0002:0000bf80       ??_C@_1M@OONGHFHE@?$AAe?$AAs?$AA?9?$AAA?$AAR?$AA?$AA@ 1007af80     libucrt:lcidtoname_downlevel.obj
 0002:0000bf90       ??_C@_1M@OOJFGBHE@?$AAa?$AAr?$AA?9?$AAL?$AAB?$AA?$AA@ 1007af90     libucrt:lcidtoname_downlevel.obj
 0002:0000bfa0       ??_C@_1M@GCEJHNEG@?$AAe?$AAn?$AA?9?$AAZ?$AAW?$AA?$AA@ 1007afa0     libucrt:lcidtoname_downlevel.obj
 0002:0000bfb0       ??_C@_1M@JNOCAHJI@?$AAe?$AAs?$AA?9?$AAE?$AAC?$AA?$AA@ 1007afb0     libucrt:lcidtoname_downlevel.obj
 0002:0000bfc0       ??_C@_1M@JEFHPGGB@?$AAa?$AAr?$AA?9?$AAK?$AAW?$AA?$AA@ 1007afc0     libucrt:lcidtoname_downlevel.obj
 0002:0000bfd0       ??_C@_1M@MLKIBJOJ@?$AAe?$AAn?$AA?9?$AAP?$AAH?$AA?$AA@ 1007afd0     libucrt:lcidtoname_downlevel.obj
 0002:0000bfe0       ??_C@_1M@BDNIPEND@?$AAe?$AAs?$AA?9?$AAC?$AAL?$AA?$AA@ 1007afe0     libucrt:lcidtoname_downlevel.obj
 0002:0000bff0       ??_C@_1M@MPNMEKBD@?$AAa?$AAr?$AA?9?$AAA?$AAE?$AA?$AA@ 1007aff0     libucrt:lcidtoname_downlevel.obj
 0002:0000c000       ??_C@_1M@KBJALCPI@?$AAe?$AAs?$AA?9?$AAU?$AAY?$AA?$AA@ 1007b000     libucrt:lcidtoname_downlevel.obj
 0002:0000c010       ??_C@_1M@LLCCOAGA@?$AAa?$AAr?$AA?9?$AAB?$AAH?$AA?$AA@ 1007b010     libucrt:lcidtoname_downlevel.obj
 0002:0000c020       ??_C@_1M@PBFNCDEL@?$AAe?$AAs?$AA?9?$AAP?$AAY?$AA?$AA@ 1007b020     libucrt:lcidtoname_downlevel.obj
 0002:0000c030       ??_C@_1M@EDGINPNP@?$AAa?$AAr?$AA?9?$AAQ?$AAA?$AA?$AA@ 1007b030     libucrt:lcidtoname_downlevel.obj
 0002:0000c040       ??_C@_1M@MKDBIIJI@?$AAe?$AAs?$AA?9?$AAB?$AAO?$AA?$AA@ 1007b040     libucrt:lcidtoname_downlevel.obj
 0002:0000c050       ??_C@_1M@CPKKEBLD@?$AAe?$AAs?$AA?9?$AAS?$AAV?$AA?$AA@ 1007b050     libucrt:lcidtoname_downlevel.obj
 0002:0000c060       ??_C@_1M@NDBGMMJL@?$AAe?$AAs?$AA?9?$AAH?$AAN?$AA?$AA@ 1007b060     libucrt:lcidtoname_downlevel.obj
 0002:0000c070       ??_C@_1M@JIJIBHDP@?$AAe?$AAs?$AA?9?$AAN?$AAI?$AA?$AA@ 1007b070     libucrt:lcidtoname_downlevel.obj
 0002:0000c080       ??_C@_1M@CGFMKEEK@?$AAe?$AAs?$AA?9?$AAP?$AAR?$AA?$AA@ 1007b080     libucrt:lcidtoname_downlevel.obj
 0002:0000c090       ??_C@_1O@ICJHKIIK@?$AAz?$AAh?$AA?9?$AAC?$AAH?$AAT?$AA?$AA@ 1007b090     libucrt:lcidtoname_downlevel.obj
 0002:0000c0a0       ??_C@_15CLNEJCE@?$AAs?$AAr?$AA?$AA@ 1007b0a0     libucrt:lcidtoname_downlevel.obj
 0002:0000c934       ??_C@_1M@KAHEKEIG@?$AAa?$AAf?$AA?9?$AAz?$AAa?$AA?$AA@ 1007b934     libucrt:lcidtoname_downlevel.obj
 0002:0000c944       ??_C@_1M@GIECOABL@?$AAa?$AAr?$AA?9?$AAa?$AAe?$AA?$AA@ 1007b944     libucrt:lcidtoname_downlevel.obj
 0002:0000c954       ??_C@_1M@BMLMEKGI@?$AAa?$AAr?$AA?9?$AAb?$AAh?$AA?$AA@ 1007b954     libucrt:lcidtoname_downlevel.obj
 0002:0000c964       ??_C@_1M@DAPFDGGB@?$AAa?$AAr?$AA?9?$AAd?$AAz?$AA?$AA@ 1007b964     libucrt:lcidtoname_downlevel.obj
 0002:0000c974       ??_C@_1M@FJNKGKIG@?$AAa?$AAr?$AA?9?$AAe?$AAg?$AA?$AA@ 1007b974     libucrt:lcidtoname_downlevel.obj
 0002:0000c984       ??_C@_1M@FLGKKCLO@?$AAa?$AAr?$AA?9?$AAi?$AAq?$AA?$AA@ 1007b984     libucrt:lcidtoname_downlevel.obj
 0002:0000c994       ??_C@_1M@GNDIPALM@?$AAa?$AAr?$AA?9?$AAj?$AAo?$AA?$AA@ 1007b994     libucrt:lcidtoname_downlevel.obj
 0002:0000c9a4       ??_C@_1M@DDMJFMGJ@?$AAa?$AAr?$AA?9?$AAk?$AAw?$AA?$AA@ 1007b9a4     libucrt:lcidtoname_downlevel.obj
 0002:0000c9b4       ??_C@_1M@EJALMLHM@?$AAa?$AAr?$AA?9?$AAl?$AAb?$AA?$AA@ 1007b9b4     libucrt:lcidtoname_downlevel.obj
 0002:0000c9c4       ??_C@_1M@MOBDBLOC@?$AAa?$AAr?$AA?9?$AAl?$AAy?$AA?$AA@ 1007b9c4     libucrt:lcidtoname_downlevel.obj
 0002:0000c9d4       ??_C@_1M@JAOCLHDH@?$AAa?$AAr?$AA?9?$AAm?$AAa?$AA?$AA@ 1007b9d4     libucrt:lcidtoname_downlevel.obj
 0002:0000c9e4       ??_C@_1M@JHPMKJIE@?$AAa?$AAr?$AA?9?$AAo?$AAm?$AA?$AA@ 1007b9e4     libucrt:lcidtoname_downlevel.obj
 0002:0000c9f4       ??_C@_1M@OEPGHFNH@?$AAa?$AAr?$AA?9?$AAq?$AAa?$AA?$AA@ 1007b9f4     libucrt:lcidtoname_downlevel.obj
 0002:0000ca04       ??_C@_1M@KJDONENM@?$AAa?$AAr?$AA?9?$AAs?$AAa?$AA?$AA@ 1007ba04     libucrt:lcidtoname_downlevel.obj
 0002:0000ca14       ??_C@_1M@DMJDKLKM@?$AAa?$AAr?$AA?9?$AAs?$AAy?$AA?$AA@ 1007ba14     libucrt:lcidtoname_downlevel.obj
 0002:0000ca24       ??_C@_1M@OMFIPEDC@?$AAa?$AAr?$AA?9?$AAt?$AAn?$AA?$AA@ 1007ba24     libucrt:lcidtoname_downlevel.obj
 0002:0000ca34       ??_C@_1M@IHMHGAON@?$AAa?$AAr?$AA?9?$AAy?$AAe?$AA?$AA@ 1007ba34     libucrt:lcidtoname_downlevel.obj
 0002:0000ca44       ??_C@_1BG@KDCPGJGB@?$AAa?$AAz?$AA?9?$AAa?$AAz?$AA?9?$AAc?$AAy?$AAr?$AAl?$AA?$AA@ 1007ba44     libucrt:lcidtoname_downlevel.obj
 0002:0000ca60       ??_C@_1BG@IBCKDDOE@?$AAa?$AAz?$AA?9?$AAa?$AAz?$AA?9?$AAl?$AAa?$AAt?$AAn?$AA?$AA@ 1007ba60     libucrt:lcidtoname_downlevel.obj
 0002:0000ca7c       ??_C@_1M@EGPFDCPD@?$AAb?$AAe?$AA?9?$AAb?$AAy?$AA?$AA@ 1007ba7c     libucrt:lcidtoname_downlevel.obj
 0002:0000ca8c       ??_C@_1M@PCMGMCGC@?$AAb?$AAg?$AA?9?$AAb?$AAg?$AA?$AA@ 1007ba8c     libucrt:lcidtoname_downlevel.obj
 0002:0000ca9c       ??_C@_1M@BJBMFGOB@?$AAb?$AAn?$AA?9?$AAi?$AAn?$AA?$AA@ 1007ba9c     libucrt:lcidtoname_downlevel.obj
 0002:0000caac       ??_C@_1BG@EAKMMACD@?$AAb?$AAs?$AA?9?$AAb?$AAa?$AA?9?$AAl?$AAa?$AAt?$AAn?$AA?$AA@ 1007baac     libucrt:lcidtoname_downlevel.obj
 0002:0000cac8       ??_C@_1M@KGADAODK@?$AAc?$AAa?$AA?9?$AAe?$AAs?$AA?$AA@ 1007bac8     libucrt:lcidtoname_downlevel.obj
 0002:0000cad8       ??_C@_1M@COAJPDHI@?$AAc?$AAs?$AA?9?$AAc?$AAz?$AA?$AA@ 1007bad8     libucrt:lcidtoname_downlevel.obj
 0002:0000cae8       ??_C@_1M@DHBHFONH@?$AAc?$AAy?$AA?9?$AAg?$AAb?$AA?$AA@ 1007bae8     libucrt:lcidtoname_downlevel.obj
 0002:0000caf8       ??_C@_1M@IMGKELGA@?$AAd?$AAa?$AA?9?$AAd?$AAk?$AA?$AA@ 1007baf8     libucrt:lcidtoname_downlevel.obj
 0002:0000cb08       ??_C@_1M@NNDGDNGA@?$AAd?$AAe?$AA?9?$AAa?$AAt?$AA?$AA@ 1007bb08     libucrt:lcidtoname_downlevel.obj
 0002:0000cb18       ??_C@_1M@IKDBHEEM@?$AAd?$AAe?$AA?9?$AAc?$AAh?$AA?$AA@ 1007bb18     libucrt:lcidtoname_downlevel.obj
 0002:0000cb28       ??_C@_1M@GFFOJMCJ@?$AAd?$AAe?$AA?9?$AAd?$AAe?$AA?$AA@ 1007bb28     libucrt:lcidtoname_downlevel.obj
 0002:0000cb38       ??_C@_1M@MDNLKBPM@?$AAd?$AAe?$AA?9?$AAl?$AAi?$AA?$AA@ 1007bb38     libucrt:lcidtoname_downlevel.obj
 0002:0000cb48       ??_C@_1M@NJBEEJNL@?$AAd?$AAe?$AA?9?$AAl?$AAu?$AA?$AA@ 1007bb48     libucrt:lcidtoname_downlevel.obj
 0002:0000cb58       ??_C@_1O@GNNELBAP@?$AAd?$AAi?$AAv?$AA?9?$AAm?$AAv?$AA?$AA@ 1007bb58     libucrt:lcidtoname_downlevel.obj
 0002:0000cb68       ??_C@_1M@EJLEOGAE@?$AAe?$AAl?$AA?9?$AAg?$AAr?$AA?$AA@ 1007bb68     libucrt:lcidtoname_downlevel.obj
 0002:0000cb78       ??_C@_1M@GMPONJN@?$AAe?$AAn?$AA?9?$AAa?$AAu?$AA?$AA@ 1007bb78     libucrt:lcidtoname_downlevel.obj
 0002:0000cb88       ??_C@_1M@NIDIIPGF@?$AAe?$AAn?$AA?9?$AAb?$AAz?$AA?$AA@ 1007bb88     libucrt:lcidtoname_downlevel.obj
 0002:0000cb98       ??_C@_1M@JEHMIMFO@?$AAe?$AAn?$AA?9?$AAc?$AAa?$AA?$AA@ 1007bb98     libucrt:lcidtoname_downlevel.obj
 0002:0000cba8       ??_C@_1M@IGMJCDLA@?$AAe?$AAn?$AA?9?$AAc?$AAb?$AA?$AA@ 1007bba8     libucrt:lcidtoname_downlevel.obj
 0002:0000cbb8       ??_C@_1M@BNFIGBKG@?$AAe?$AAn?$AA?9?$AAg?$AAb?$AA?$AA@ 1007bbb8     libucrt:lcidtoname_downlevel.obj
 0002:0000cbc8       ??_C@_1M@LKIFDIGP@?$AAe?$AAn?$AA?9?$AAi?$AAe?$AA?$AA@ 1007bbc8     libucrt:lcidtoname_downlevel.obj
 0002:0000cbd8       ??_C@_1M@PJKFGCCO@?$AAe?$AAn?$AA?9?$AAj?$AAm?$AA?$AA@ 1007bbd8     libucrt:lcidtoname_downlevel.obj
 0002:0000cbe8       ??_C@_1M@KPPKEPBO@?$AAe?$AAn?$AA?9?$AAn?$AAz?$AA?$AA@ 1007bbe8     libucrt:lcidtoname_downlevel.obj
 0002:0000cbf8       ??_C@_1M@GMDGLDOB@?$AAe?$AAn?$AA?9?$AAp?$AAh?$AA?$AA@ 1007bbf8     libucrt:lcidtoname_downlevel.obj
 0002:0000cc08       ??_C@_1M@ONGIBJNA@?$AAe?$AAn?$AA?9?$AAt?$AAt?$AA?$AA@ 1007bc08     libucrt:lcidtoname_downlevel.obj
 0002:0000cc18       ??_C@_1M@LLODPCMM@?$AAe?$AAn?$AA?9?$AAu?$AAs?$AA?$AA@ 1007bc18     libucrt:lcidtoname_downlevel.obj
 0002:0000cc28       ??_C@_1M@LAKFNPAN@?$AAe?$AAn?$AA?9?$AAz?$AAa?$AA?$AA@ 1007bc28     libucrt:lcidtoname_downlevel.obj
 0002:0000cc38       ??_C@_1M@MFNHNHEO@?$AAe?$AAn?$AA?9?$AAz?$AAw?$AA?$AA@ 1007bc38     libucrt:lcidtoname_downlevel.obj
 0002:0000cc48       ??_C@_1M@EJEINPHM@?$AAe?$AAs?$AA?9?$AAa?$AAr?$AA?$AA@ 1007bc48     libucrt:lcidtoname_downlevel.obj
 0002:0000cc58       ??_C@_1M@GNKPCCJA@?$AAe?$AAs?$AA?9?$AAb?$AAo?$AA?$AA@ 1007bc58     libucrt:lcidtoname_downlevel.obj
 0002:0000cc68       ??_C@_1M@LEEGFONL@?$AAe?$AAs?$AA?9?$AAc?$AAl?$AA?$AA@ 1007bc68     libucrt:lcidtoname_downlevel.obj
 0002:0000cc78       ??_C@_1M@KGPDPBDF@?$AAe?$AAs?$AA?9?$AAc?$AAo?$AA?$AA@ 1007bc78     libucrt:lcidtoname_downlevel.obj
 0002:0000cc88       ??_C@_1M@EIAHOHH@?$AAe?$AAs?$AA?9?$AAc?$AAr?$AA?$AA@ 1007bc88     libucrt:lcidtoname_downlevel.obj
 0002:0000cc98       ??_C@_1M@LLPGMBIN@?$AAe?$AAs?$AA?9?$AAd?$AAo?$AA?$AA@ 1007bc98     libucrt:lcidtoname_downlevel.obj
 0002:0000cca8       ??_C@_1M@DKHMKNJA@?$AAe?$AAs?$AA?9?$AAe?$AAc?$AA?$AA@ 1007bca8     libucrt:lcidtoname_downlevel.obj
 0002:0000ccb8       ??_C@_1M@GKGFPKAP@?$AAe?$AAs?$AA?9?$AAe?$AAs?$AA?$AA@ 1007bcb8     libucrt:lcidtoname_downlevel.obj
 0002:0000ccc8       ??_C@_1M@LKHKGDLN@?$AAe?$AAs?$AA?9?$AAg?$AAt?$AA?$AA@ 1007bcc8     libucrt:lcidtoname_downlevel.obj
 0002:0000ccd8       ??_C@_1M@HEIIGGJD@?$AAe?$AAs?$AA?9?$AAh?$AAn?$AA?$AA@ 1007bcd8     libucrt:lcidtoname_downlevel.obj
 0002:0000cce8       ??_C@_1M@FBDHPPGD@?$AAe?$AAs?$AA?9?$AAm?$AAx?$AA?$AA@ 1007bce8     libucrt:lcidtoname_downlevel.obj
 0002:0000ccf8       ??_C@_1M@DPAGLNDH@?$AAe?$AAs?$AA?9?$AAn?$AAi?$AA?$AA@ 1007bcf8     libucrt:lcidtoname_downlevel.obj
 0002:0000cd08       ??_C@_1M@MDGOPGDD@?$AAe?$AAs?$AA?9?$AAp?$AAa?$AA?$AA@ 1007bd08     libucrt:lcidtoname_downlevel.obj
 0002:0000cd18       ??_C@_1M@EMAMGBGE@?$AAe?$AAs?$AA?9?$AAp?$AAe?$AA?$AA@ 1007bd18     libucrt:lcidtoname_downlevel.obj
 0002:0000cd28       ??_C@_1M@IBMCAOEC@?$AAe?$AAs?$AA?9?$AAp?$AAr?$AA?$AA@ 1007bd28     libucrt:lcidtoname_downlevel.obj
 0002:0000cd38       ??_C@_1M@FGMDIJED@?$AAe?$AAs?$AA?9?$AAp?$AAy?$AA?$AA@ 1007bd38     libucrt:lcidtoname_downlevel.obj
 0002:0000cd48       ??_C@_1M@IIDEOLLL@?$AAe?$AAs?$AA?9?$AAs?$AAv?$AA?$AA@ 1007bd48     libucrt:lcidtoname_downlevel.obj
 0002:0000cd58       ??_C@_1M@GAOBIPA@?$AAe?$AAs?$AA?9?$AAu?$AAy?$AA?$AA@ 1007bd58     libucrt:lcidtoname_downlevel.obj
 0002:0000cd68       ??_C@_1M@JKFFICHJ@?$AAe?$AAs?$AA?9?$AAv?$AAe?$AA?$AA@ 1007bd68     libucrt:lcidtoname_downlevel.obj
 0002:0000cd78       ??_C@_1M@PNMLOJDF@?$AAe?$AAt?$AA?9?$AAe?$AAe?$AA?$AA@ 1007bd78     libucrt:lcidtoname_downlevel.obj
 0002:0000cd88       ??_C@_1M@GHHLIKEI@?$AAe?$AAu?$AA?9?$AAe?$AAs?$AA?$AA@ 1007bd88     libucrt:lcidtoname_downlevel.obj
 0002:0000cd98       ??_C@_1M@PBNONODE@?$AAf?$AAa?$AA?9?$AAi?$AAr?$AA?$AA@ 1007bd98     libucrt:lcidtoname_downlevel.obj
 0002:0000cda8       ??_C@_1M@JEEHPMIL@?$AAf?$AAi?$AA?9?$AAf?$AAi?$AA?$AA@ 1007bda8     libucrt:lcidtoname_downlevel.obj
 0002:0000cdb8       ??_C@_1M@LMDCNDBA@?$AAf?$AAo?$AA?9?$AAf?$AAo?$AA?$AA@ 1007bdb8     libucrt:lcidtoname_downlevel.obj
 0002:0000cdc8       ??_C@_1M@JKEOHLDK@?$AAf?$AAr?$AA?9?$AAb?$AAe?$AA?$AA@ 1007bdc8     libucrt:lcidtoname_downlevel.obj
 0002:0000cdd8       ??_C@_1M@NOHADPMI@?$AAf?$AAr?$AA?9?$AAc?$AAa?$AA?$AA@ 1007bdd8     libucrt:lcidtoname_downlevel.obj
 0002:0000cde8       ??_C@_1M@KDHIHAEC@?$AAf?$AAr?$AA?9?$AAc?$AAh?$AA?$AA@ 1007bde8     libucrt:lcidtoname_downlevel.obj
 0002:0000cdf8       ??_C@_1M@MMBBFGAK@?$AAf?$AAr?$AA?9?$AAf?$AAr?$AA?$AA@ 1007bdf8     libucrt:lcidtoname_downlevel.obj
 0002:0000ce08       ??_C@_1M@PAFNENNF@?$AAf?$AAr?$AA?9?$AAl?$AAu?$AA?$AA@ 1007be08     libucrt:lcidtoname_downlevel.obj
 0002:0000ce18       ??_C@_1M@EOHDJGDD@?$AAf?$AAr?$AA?9?$AAm?$AAc?$AA?$AA@ 1007be18     libucrt:lcidtoname_downlevel.obj
 0002:0000ce28       ??_C@_1M@FAPLLOPF@?$AAg?$AAl?$AA?9?$AAe?$AAs?$AA?$AA@ 1007be28     libucrt:lcidtoname_downlevel.obj
 0002:0000ce38       ??_C@_1M@FOPBFLOO@?$AAg?$AAu?$AA?9?$AAi?$AAn?$AA?$AA@ 1007be38     libucrt:lcidtoname_downlevel.obj
 0002:0000ce48       ??_C@_1M@KBMCINPM@?$AAh?$AAe?$AA?9?$AAi?$AAl?$AA?$AA@ 1007be48     libucrt:lcidtoname_downlevel.obj
 0002:0000ce58       ??_C@_1M@BBPHKFPJ@?$AAh?$AAi?$AA?9?$AAi?$AAn?$AA?$AA@ 1007be58     libucrt:lcidtoname_downlevel.obj
 0002:0000ce68       ??_C@_1M@PMBNDPHD@?$AAh?$AAr?$AA?9?$AAb?$AAa?$AA?$AA@ 1007be68     libucrt:lcidtoname_downlevel.obj
 0002:0000ce78       ??_C@_1M@BPCKOEGE@?$AAh?$AAr?$AA?9?$AAh?$AAr?$AA?$AA@ 1007be78     libucrt:lcidtoname_downlevel.obj
 0002:0000ce88       ??_C@_1M@GACBMHKE@?$AAh?$AAu?$AA?9?$AAh?$AAu?$AA?$AA@ 1007be88     libucrt:lcidtoname_downlevel.obj
 0002:0000ce98       ??_C@_1M@MILPAJJC@?$AAh?$AAy?$AA?9?$AAa?$AAm?$AA?$AA@ 1007be98     libucrt:lcidtoname_downlevel.obj
 0002:0000cea8       ??_C@_1M@BABBICEC@?$AAi?$AAd?$AA?9?$AAi?$AAd?$AA?$AA@ 1007bea8     libucrt:lcidtoname_downlevel.obj
 0002:0000ceb8       ??_C@_1M@BIKNHHPF@?$AAi?$AAs?$AA?9?$AAi?$AAs?$AA?$AA@ 1007beb8     libucrt:lcidtoname_downlevel.obj
