 custom_pwm_slrt

 Timestamp is 5e458ea6 (Thu Feb 13 13:00:06 2020)

 Preferred load address is 10000000

 Start         Length     Name                   Class
 0001:00000000 00061928H .text$mn                CODE
 0002:00000000 00000104H .CRT$XCA                DATA
 0002:00000104 00000104H .CRT$XCZ                DATA
 0002:00000208 00000104H .CRT$XIA                DATA
 0002:0000030c 00000110H .CRT$XIC                DATA
 0002:0000041c 00000104H .CRT$XIZ                DATA
 0002:00000520 00000104H .CRT$XPA                DATA
 0002:00000624 0000010cH .CRT$XPX                DATA
 0002:00000730 00000104H .CRT$XPXA               DATA
 0002:00000834 00000104H .CRT$XPZ                DATA
 0002:00000938 00000104H .CRT$XTA                DATA
 0002:00000a3c 00000104H .CRT$XTZ                DATA
 0002:00000b40 0000cb30H .rdata                  DATA
 0002:0000d670 00000390H .rdata$r                DATA
 0002:0000da00 00000110H .rdata$sxdata           DATA
 0002:0000db10 000001a4H .rdata$zzzdbg           DATA
 0002:0000dcb4 00000104H .rtc$IAA                DATA
 0002:0000ddb8 00000104H .rtc$IZZ                DATA
 0002:0000debc 00000104H .rtc$TAA                DATA
 0002:0000dfc0 00000108H .rtc$TZZ                DATA
 0002:0000e0c8 00000ae8H .xdata$x                DATA
 0002:0000ebb0 000001e4H .edata                  DATA
 0003:00000000 00000df0H .data                   DATA
 0003:00000df0 000001f0H .data$r                 DATA
 0003:00000fe0 00013110H .bss                    DATA
 0004:00000000 000001ccH .idata$5                DATA
 0004:000001cc 00000014H .idata$2                DATA
 0004:000001e0 00000014H .idata$3                DATA
 0004:000001f4 000001ccH .idata$4                DATA
 0004:000003c0 00000817H .idata$6                DATA
 0005:00000000 000002bfH .gfids$y                DATA
 0006:00000000 00000104H .00cfg                  DATA

  Address         Publics by Value              Rva+Base       Lib:Object

 0000:00000000       ___guard_iat_table         00000000     <absolute>
 0000:00000000       ___dynamic_value_reloc_table 00000000     <absolute>
 0000:00000000       __except_list              00000000     <absolute>
 0000:00000000       ___guard_longjmp_table     00000000     <absolute>
 0000:00000000       ___guard_fids_count        00000000     <absolute>
 0000:00000000       ___guard_longjmp_count     00000000     <absolute>
 0000:00000000       ___guard_iat_count         00000000     <absolute>
 0000:00000000       ___guard_fids_table        00000000     <absolute>
 0000:00000003       ___safe_se_handler_count   00000003     <absolute>
 0000:00000100       ___guard_flags             00000100     <absolute>
 0000:00000000       ___ImageBase               10000000     <linker-defined>
 0001:00005f20       _MdlInitialize             10006f20 f   custom_pwm.obj
 0001:00005f30       _MdlInitializeSampleTimes  10006f30 f   custom_pwm.obj
 0001:00005f40       _MdlInitializeSizes        10006f40 f   custom_pwm.obj
 0001:00005f50       _MdlOutputs                10006f50 f   custom_pwm.obj
 0001:00005f60       _MdlStart                  10006f60 f   custom_pwm.obj
 0001:00005f70       _MdlTerminate              10006f70 f   custom_pwm.obj
 0001:00005f80       _MdlUpdate                 10006f80 f   custom_pwm.obj
 0001:00005f90       ___local_stdio_printf_options 10006f90 f i custom_pwm.obj
 0001:00005fa0       __vfprintf_l               10006fa0 f i custom_pwm.obj
 0001:00005fd0       _custom_pwm                10006fd0 f   custom_pwm.obj
 0001:00006640       _printf                    10007640 f i custom_pwm.obj
 0001:00006680       _rt_modd_snf               10007680 f   custom_pwm.obj
 0001:00006940       _custom_pwm_GetCAPIStaticMap 10007940 f   custom_pwm_capi.obj
 0001:00006950       _custom_pwm_InitializeDataMapInfo 10007950 f   custom_pwm_capi.obj
 0001:000069e0       _rtGetInf                  100079e0 f   rtGetInf.obj
 0001:00006a10       _rtGetInfF                 10007a10 f   rtGetInf.obj
 0001:00006a30       _rtGetMinusInf             10007a30 f   rtGetInf.obj
 0001:00006a60       _rtGetMinusInfF            10007a60 f   rtGetInf.obj
 0001:00006a80       _rtGetNaN                  10007a80 f   rtGetNaN.obj
 0001:00006ab0       _rtGetNaNF                 10007ab0 f   rtGetNaN.obj
 0001:00006ad0       _rtIsInf                   10007ad0 f   rt_nonfinite.obj
 0001:00006b10       _rtIsInfF                  10007b10 f   rt_nonfinite.obj
 0001:00006b50       _rtIsNaN                   10007b50 f   rt_nonfinite.obj
 0001:00006b70       _rtIsNaNF                  10007b70 f   rt_nonfinite.obj
 0001:00006b90       _rt_InitInfAndNaN          10007b90 f   rt_nonfinite.obj
 0001:00006bf0       _rt_CleanUpForStateLogWithMMI 10007bf0 f   rt_logging_mmi.obj
 0001:00006d00       _rt_FillStateSigInfoFromMMI 10007d00 f   rt_logging_mmi.obj
 0001:000070a0       _rtwCAPI_CountSysRan       100080a0 f   rtw_modelmap_utils.obj
 0001:00007140       _rtwCAPI_EncodePath        10008140 f   rtw_modelmap_utils.obj
 0001:00007240       _rtwCAPI_FillSysRan        10008240 f   rtw_modelmap_utils.obj
 0001:00007330       _rtwCAPI_FreeFullPaths     10008330 f   rtw_modelmap_utils.obj
 0001:000073c0       _rtwCAPI_GetFullStateBlockPath 100083c0 f   rtw_modelmap_utils.obj
 0001:00007570       _rtwCAPI_GetNumContStateRecords 10008570 f   rtw_modelmap_utils.obj
 0001:00007630       _rtwCAPI_GetNumSigLogRecords 10008630 f   rtw_modelmap_utils.obj
 0001:00007680       _rtwCAPI_GetNumSigLogRecordsForRTWLogging 10008680 f   rtw_modelmap_utils.obj
 0001:00007720       _rtwCAPI_GetNumStateRecords 10008720 f   rtw_modelmap_utils.obj
 0001:00007770       _rtwCAPI_GetNumStateRecordsForRTWLogging 10008770 f   rtw_modelmap_utils.obj
 0001:00007810       _rtwCAPI_GetSigAddrFromMap 10008810 f   rtw_modelmap_utils.obj
 0001:000078d0       _rtwCAPI_GetSigLogRecordInfo 100088d0 f   rtw_modelmap_utils.obj
 0001:00007d00       _rtwCAPI_GetStateRecordInfo 10008d00 f   rtw_modelmap_utils.obj
 0001:000081b0       _rtwCAPI_GetStateWidth     100091b0 f   rtw_modelmap_utils.obj
 0001:00008210       _rtwCAPI_HasStates         10009210 f   rtw_modelmap_utils.obj
 0001:00008280       _rtwCAPI_UpdateFullPaths   10009280 f   rtw_modelmap_utils.obj
 0001:00008460       __vsnprintf_l              10009460 f i rt_logging.obj
 0001:000084a0       __vsprintf_l               100094a0 f i rt_logging.obj
 0001:000084e0       _fprintf                   100094e0 f i rt_logging.obj
 0001:00008df0       _rt_CreateLogVar           10009df0 f   rt_logging.obj
 0001:00008e80       _rt_CreateLogVarWithConvert 10009e80 f   rt_logging.obj
 0001:00009800       _rt_CreateStructLogVar     1000a800 f   rt_logging.obj
 0001:0000a560       _rt_GetMxIdFromDTypeId     1000b560 f   rt_logging.obj
 0001:0000a590       _rt_GetMxIdFromDTypeIdForRSim 1000b590 f   rt_logging.obj
 0001:0000ce60       _rt_StartDataLogging       1000de60 f   rt_logging.obj
 0001:0000d320       _rt_StartDataLoggingWithStartTime 1000e320 f   rt_logging.obj
 0001:0000dc80       _rt_StopDataLogging        1000ec80 f   rt_logging.obj
 0001:0000dca0       _rt_StopDataLoggingImpl    1000eca0 f   rt_logging.obj
 0001:0000dfd0       _rt_UpdateLogVar           1000efd0 f   rt_logging.obj
 0001:0000f0f0       _rt_UpdateStructLogVar     100100f0 f   rt_logging.obj
 0001:0000f180       _rt_UpdateTXXFYLogVars     10010180 f   rt_logging.obj
 0001:0000f4b0       _rt_UpdateTXYLogVars       100104b0 f   rt_logging.obj
 0001:0000f700       _sprintf                   10010700 f i rt_logging.obj
 0001:0000f740       _DllMain@12                10010740 f   xpctarget.obj
 0001:0000f750       _SLRTSetErrorStatus        10010750 f   xpctarget.obj
 0001:0000f770       _changeStepSize            10010770 f   xpctarget.obj
 0001:0000f7e0       _custom_pwm_ChangeStepSize 100107e0 f   xpctarget.obj
 0001:0000f850       _getDLMVersion             10010850 f   xpctarget.obj
 0001:0000f860       _getRefMdlPath             10010860 f   xpctarget.obj
 0001:0000f8e0       _getRefMdlSignalNumber     100108e0 f   xpctarget.obj
 0001:0000f990       _getrlmdlinfo              10010990 f   xpctarget.obj
 0001:0000fb70       _updateDiscreteEvents      10010b70 f   xpctarget.obj
 0001:0000fb80       _getNumRef                 10010b80 f   appmappingData.obj
 0001:0000fb90       _vprintf                   10010b90 f i legacy_stdio.obj
 0001:0000fbd0       _GetPCIDeviceFull          10010bd0 f   xpcruntime:xpcimports.obj
 0001:0000fc10       _ShowPCIDevice             10010c10 f   xpcruntime:xpcimports.obj
 0001:000103d0       _xpcGetPciConfigAtSlot     100113d0 f   xpcruntime:xpcimports.obj
 0001:000106e0       _xpcInitProcs              100116e0 f   xpcruntime:xpcimports.obj
 0001:00011a40       _xpceuploadevent           10012a40 f   xpcruntime:xpcimports.obj
 0001:00011a41       ___raise_securityfailure   10012a41 f   LIBCMT:gs_report.obj
 0001:00011a73       ___report_gsfailure        10012a73 f   LIBCMT:gs_report.obj
 0001:00011bac       ___report_rangecheckfailure 10012bac f   LIBCMT:gs_report.obj
 0001:00011bbb       ___report_securityfailure  10012bbb f   LIBCMT:gs_report.obj
 0001:00011cbf       ___report_securityfailureEx 10012cbf f   LIBCMT:gs_report.obj
 0001:00011e1a       @__security_check_cookie@4 10012e1a f   LIBCMT:_secchk_.obj
 0001:00011e30       __ftoui3                   10012e30 f   LIBCMT:_ftol3_.obj
 0001:00011e3f       __ftoul3                   10012e3f f   LIBCMT:_ftol3_.obj
 0001:00011e4e       __ftol3                    10012e4e f   LIBCMT:_ftol3_.obj
 0001:00011e5b       __ftol3_NaN                10012e5b f   LIBCMT:_ftol3_.obj
 0001:00011e73       __ftol3_work               10012e73 f   LIBCMT:_ftol3_.obj
 0001:00011ef9       __ftol3_common             10012ef9 f   LIBCMT:_ftol3_.obj
 0001:00011fbb       __ftol3_arg_error          10012fbb f   LIBCMT:_ftol3_.obj
 0001:00011fcd       __ftol3_except             10012fcd f   LIBCMT:_ftol3_.obj
 0001:00012011       __dtoui3                   10013011 f   LIBCMT:_ftol3_.obj
 0001:00012020       __dtoul3                   10013020 f   LIBCMT:_ftol3_.obj
 0001:0001202f       __dtol3                    1001302f f   LIBCMT:_ftol3_.obj
 0001:0001203c       __dtol3_NaN                1001303c f   LIBCMT:_ftol3_.obj
 0001:00012059       __dtol3_work               10013059 f   LIBCMT:_ftol3_.obj
 0001:00012140       __ultod3                   10013140 f   LIBCMT:_ftol3_.obj
 0001:00012180       __ltod3                    10013180 f   LIBCMT:_ftol3_.obj
 0001:00012284       ___isa_available_init      10013284 f   LIBCMT:_cpu_disp_.obj
 0001:0001284c       __CRT_INIT@12              1001384c f   LIBCMT:dll_dllmain.obj
 0001:00012857       __DllMainCRTStartup@12     10013857 f   LIBCMT:dll_dllmain.obj
 0001:00012882       ??$__crt_fast_decode_pointer@PAP6AXXZ@@YAPAP6AXXZQAP6AXXZ@Z 10013882 f i LIBCMT:utility.obj
 0001:0001289b       ??$__crt_fast_encode_pointer@PAP6AXXZ@@YAPAP6AXXZQAP6AXXZ@Z 1001389b f i LIBCMT:utility.obj
 0001:000128bf       ?__crt_rotate_pointer_value@@YAIIH@Z 100138bf f i LIBCMT:utility.obj
 0001:000128cf       ?configure_argv@__scrt_narrow_argv_policy@@SAHXZ 100138cf f i LIBCMT:utility.obj
 0001:00012973       _NtCurrentTeb              10013973 f i LIBCMT:utility.obj
 0001:0001297a       ___scrt_acquire_startup_lock 1001397a f   LIBCMT:utility.obj
 0001:000129bc       ___scrt_dllmain_after_initialize_c 100139bc f   LIBCMT:utility.obj
 0001:000129f1       ___scrt_dllmain_before_initialize_c 100139f1 f   LIBCMT:utility.obj
 0001:00012a02       ___scrt_dllmain_crt_thread_attach 10013a02 f   LIBCMT:utility.obj
 0001:00012a28       ___scrt_dllmain_crt_thread_detach 10013a28 f   LIBCMT:utility.obj
 0001:00012a38       ___scrt_dllmain_exception_filter 10013a38 f   LIBCMT:utility.obj
 0001:00012a77       ___scrt_dllmain_uninitialize_c 10013a77 f   LIBCMT:utility.obj
 0001:00012aa2       ___scrt_dllmain_uninitialize_critical 10013aa2 f   LIBCMT:utility.obj
 0001:00012ab2       ___scrt_initialize_crt     10013ab2 f   LIBCMT:utility.obj
 0001:00012af9       ___scrt_initialize_onexit_tables 10013af9 f   LIBCMT:utility.obj
 0001:00012bb5       ___scrt_is_nonwritable_in_current_image 10013bb5 f   LIBCMT:utility.obj
 0001:00012c61       ___scrt_release_startup_lock 10013c61 f   LIBCMT:utility.obj
 0001:00012c85       ___scrt_uninitialize_crt   10013c85 f   LIBCMT:utility.obj
 0001:00012cb7       __onexit                   10013cb7 f   LIBCMT:utility.obj
 0001:00012d00       _at_quick_exit             10013d00 f   LIBCMT:utility.obj
 0001:00012d3d       _atexit                    10013d3d f   LIBCMT:utility.obj
 0001:00012d57       ___security_init_cookie    10013d57 f   LIBCMT:gs_support.obj
 0001:00012e1a       ?__scrt_initialize_type_info@@YAXXZ 10013e1a f   LIBCMT:tncleanup.obj
 0001:00012e29       ?__scrt_uninitialize_type_info@@YAXXZ 10013e29 f   LIBCMT:tncleanup.obj
 0001:00012e38       ___local_stdio_scanf_options 10013e38 f i LIBCMT:default_local_stdio_options.obj
 0001:00012e3e       ___scrt_initialize_default_local_stdio_options 10013e3e f   LIBCMT:default_local_stdio_options.obj
 0001:00012e62       ___scrt_get_dyn_tls_init_callback 10013e62 f   LIBCMT:dyn_tls_init.obj
 0001:00012e68       ___scrt_fastfail           10013e68 f   LIBCMT:utility_desktop.obj
 0001:00012fc9       ___scrt_get_show_window_mode 10013fc9 f   LIBCMT:utility_desktop.obj
 0001:00013008       ___scrt_initialize_winrt   10014008 f   LIBCMT:utility_desktop.obj
 0001:0001300b       ___scrt_is_managed_app     1001400b f   LIBCMT:utility_desktop.obj
 0001:00013060       ___scrt_set_unhandled_exception_filter 10014060 f   LIBCMT:utility_desktop.obj
 0001:0001306f       ___scrt_unhandled_exception_filter@4 1001406f f   LIBCMT:utility_desktop.obj
 0001:000130c0       __crt_debugger_hook        100140c0 f   LIBCMT:utility_desktop.obj
 0001:000130ca       __RTC_Initialize           100140ca f   LIBCMT:_initsect_.obj
 0001:000130ff       __RTC_Terminate            100140ff f   LIBCMT:_initsect_.obj
 0001:00013134       @_guard_check_icall@4      10014134 f i LIBCMT:checkcfg.obj
 0001:00013140       __SEH_prolog4              10014140 f   LIBCMT:_sehprolg4_.obj
 0001:00013186       __SEH_epilog4              10014186 f   LIBCMT:_sehprolg4_.obj
 0001:000131b1       __get_startup_argv_mode    100141b1 f   LIBCMT:argv_mode.obj
 0001:000131b5       ___scrt_is_ucrt_dll_in_use 100141b5 f   LIBCMT:ucrt_detection.obj
 0001:000131c4       @_guard_check_icall_nop@4  100141c4 f i LIBCMT:guard_support.obj
 0001:000131c5       __guard_icall_checks_enforced 100141c5 f i LIBCMT:guard_support.obj
 0001:000131dc       _GetModuleHandleA@4        100141dc f   kernel32:KERNEL32.dll
 0001:000131e2       _GetProcAddress@8          100141e2 f   kernel32:KERNEL32.dll
 0001:000131e8       _UnhandledExceptionFilter@4 100141e8 f   kernel32:KERNEL32.dll
 0001:000131ee       _SetUnhandledExceptionFilter@4 100141ee f   kernel32:KERNEL32.dll
 0001:000131f4       _GetCurrentProcess@0       100141f4 f   kernel32:KERNEL32.dll
 0001:000131fa       _TerminateProcess@8        100141fa f   kernel32:KERNEL32.dll
 0001:00013200       _IsProcessorFeaturePresent@4 10014200 f   kernel32:KERNEL32.dll
 0001:00013206       _QueryPerformanceCounter@4 10014206 f   kernel32:KERNEL32.dll
 0001:0001320c       _GetCurrentProcessId@0     1001420c f   kernel32:KERNEL32.dll
 0001:00013212       _GetCurrentThreadId@0      10014212 f   kernel32:KERNEL32.dll
 0001:00013218       _GetSystemTimeAsFileTime@4 10014218 f   kernel32:KERNEL32.dll
 0001:0001321e       _InitializeSListHead@4     1001421e f   kernel32:KERNEL32.dll
 0001:00013224       _IsDebuggerPresent@0       10014224 f   kernel32:KERNEL32.dll
 0001:0001322a       _GetStartupInfoW@4         1001422a f   kernel32:KERNEL32.dll
 0001:00013230       _GetModuleHandleW@4        10014230 f   kernel32:KERNEL32.dll
 0001:00013240       _memset                    10014240 f   libvcruntime:memset.obj
 0001:000133f0       _memcpy                    100143f0 f   libvcruntime:memcpy.obj
 0001:00013ad0       _memmove                   10014ad0 f   libvcruntime:memmove.obj
 0001:000141b0       _strchr                    100151b0 f   libvcruntime:strchr.obj
 0001:0001421e       ___from_strstr_to_strchr   1001521e     libvcruntime:strchr.obj
 0001:00014370       __except_handler4          10015370 f   libvcruntime:_chandler4_.obj
 0001:0001452f       ___vcrt_initialize         1001552f f   libvcruntime:initialization.obj
 0001:00014562       ___vcrt_thread_attach      10015562 f   libvcruntime:initialization.obj
 0001:0001456f       ___vcrt_thread_detach      1001556f f   libvcruntime:initialization.obj
 0001:0001457c       ___vcrt_uninitialize       1001557c f   libvcruntime:initialization.obj
 0001:000145a2       ___vcrt_uninitialize_critical 100155a2 f   libvcruntime:initialization.obj
 0001:000145bd       ??$?RD@__crt_internal_free_policy@@QBEXQBD@Z 100155bd f i libvcruntime:std_type_info.obj
 0001:000145d1       ??$?RX@__crt_internal_free_policy@@QBEXQBX@Z 100155d1 f i libvcruntime:std_type_info.obj
 0001:000145e5       ??$__crt_interlocked_compare_exchange_pointer@$$CBD$$T$$T@@YAPBDPDSBD$$T1@Z 100155e5 f i libvcruntime:std_type_info.obj
 0001:000145fb       ??$__crt_interlocked_compare_exchange_pointer@$$CBDPAD$$T@@YAPBDPDSBDQAD$$T@Z 100155fb f i libvcruntime:std_type_info.obj
 0001:00014611       ??$__crt_interlocked_read_pointer@$$CBD@@YAPBDPDSBD@Z 10015611 f i libvcruntime:std_type_info.obj
 0001:00014625       ??0?$__crt_unique_heap_ptr@DU__crt_internal_free_policy@@@@QAE@QAD@Z 10015625 f i libvcruntime:std_type_info.obj
 0001:00014636       ??0?$__crt_unique_heap_ptr@XU__crt_internal_free_policy@@@@QAE@QAX@Z 10015636 f i libvcruntime:std_type_info.obj
 0001:00014647       ??1?$__crt_unique_heap_ptr@DU__crt_internal_free_policy@@@@QAE@XZ 10015647 f i libvcruntime:std_type_info.obj
 0001:0001465b       ??1?$__crt_unique_heap_ptr@XU__crt_internal_free_policy@@@@QAE@XZ 1001565b f i libvcruntime:std_type_info.obj
 0001:0001467b       ??B?$__crt_unique_heap_ptr@DU__crt_internal_free_policy@@@@QBE_NXZ 1001567b f i libvcruntime:std_type_info.obj
 0001:00014682       ??B?$__crt_unique_heap_ptr@XU__crt_internal_free_policy@@@@QBE_NXZ 10015682 f i libvcruntime:std_type_info.obj
 0001:000146b1       ?detach@?$__crt_unique_heap_ptr@XU__crt_internal_free_policy@@@@QAEPAXXZ 100156b1 f i libvcruntime:std_type_info.obj
 0001:000146b7       ?get@?$__crt_unique_heap_ptr@DU__crt_internal_free_policy@@@@QBEPADXZ 100156b7 f i libvcruntime:std_type_info.obj
 0001:000146ba       ?get@?$__crt_unique_heap_ptr@XU__crt_internal_free_policy@@@@QBEPAXXZ 100156ba f i libvcruntime:std_type_info.obj
 0001:000146bd       ?is_valid@?$__crt_unique_heap_ptr@DU__crt_internal_free_policy@@@@QBE_NXZ 100156bd f i libvcruntime:std_type_info.obj
 0001:000146c4       ?is_valid@?$__crt_unique_heap_ptr@XU__crt_internal_free_policy@@@@QBE_NXZ 100156c4 f i libvcruntime:std_type_info.obj
 0001:000146cb       ?release@?$__crt_unique_heap_ptr@DU__crt_internal_free_policy@@@@QAEXXZ 100156cb f i libvcruntime:std_type_info.obj
 0001:000146df       ?release@?$__crt_unique_heap_ptr@XU__crt_internal_free_policy@@@@QAEXXZ 100156df f i libvcruntime:std_type_info.obj
 0001:000146f3       ___std_type_info_compare   100156f3 f   libvcruntime:std_type_info.obj
 0001:0001473e       ___std_type_info_destroy_list 1001573e f   libvcruntime:std_type_info.obj
 0001:00014769       ___std_type_info_hash      10015769 f   libvcruntime:std_type_info.obj
 0001:00014798       ___std_type_info_name      10015798 f   libvcruntime:std_type_info.obj
 0001:000148a0       __local_unwind4            100158a0 f   libvcruntime:_exsup4_.obj
 0001:00014976       __seh_longjmp_unwind4@4    10015976 f   libvcruntime:_exsup4_.obj
 0001:0001499e       @_EH4_CallFilterFunc@8     1001599e f   libvcruntime:_exsup4_.obj
 0001:000149b5       @_EH4_TransferToHandler@8  100159b5 f   libvcruntime:_exsup4_.obj
 0001:000149ce       @_EH4_GlobalUnwind2@8      100159ce f   libvcruntime:_exsup4_.obj
 0001:000149e7       @_EH4_LocalUnwind@16       100159e7 f   libvcruntime:_exsup4_.obj
 0001:00014a55       ___except_validate_context_record 10015a55 f   libvcruntime:jbcxrval.obj
 0001:00014a56       ___except_validate_jump_buffer 10015a56 f   libvcruntime:jbcxrval.obj
 0001:00014a57       ??$?RU__vcrt_ptd@@@__crt_internal_free_policy@@QBEXQBU__vcrt_ptd@@@Z 10015a57 f i libvcruntime:per_thread_data.obj
 0001:00014a6b       ??0?$__crt_unique_heap_ptr@U__vcrt_ptd@@U__crt_internal_free_policy@@@@QAE@QAU__vcrt_ptd@@@Z 10015a6b f i libvcruntime:per_thread_data.obj
 0001:00014a8e       ??1?$__crt_unique_heap_ptr@U__vcrt_ptd@@U__crt_internal_free_policy@@@@QAE@XZ 10015a8e f i libvcruntime:per_thread_data.obj
 0001:00014aad       ??B?$__crt_unique_heap_ptr@U__vcrt_ptd@@U__crt_internal_free_policy@@@@QBE_NXZ 10015aad f i libvcruntime:per_thread_data.obj
 0001:00014ab4       ?detach@?$__crt_unique_heap_ptr@U__vcrt_ptd@@U__crt_internal_free_policy@@@@QAEPAU__vcrt_ptd@@XZ 10015ab4 f i libvcruntime:per_thread_data.obj
 0001:00014aba       ?get@?$__crt_unique_heap_ptr@U__vcrt_ptd@@U__crt_internal_free_policy@@@@QBEPAU__vcrt_ptd@@XZ 10015aba f i libvcruntime:per_thread_data.obj
 0001:00014abd       ?is_valid@?$__crt_unique_heap_ptr@U__vcrt_ptd@@U__crt_internal_free_policy@@@@QBE_NXZ 10015abd f i libvcruntime:per_thread_data.obj
 0001:00014ac4       ?release@?$__crt_unique_heap_ptr@U__vcrt_ptd@@U__crt_internal_free_policy@@@@QAEXXZ 10015ac4 f i libvcruntime:per_thread_data.obj
 0001:00014af8       ___vcrt_freefls@4          10015af8 f   libvcruntime:per_thread_data.obj
 0001:00014b1b       ___vcrt_freeptd            10015b1b f   libvcruntime:per_thread_data.obj
 0001:00014b5e       ___vcrt_getptd             10015b5e f   libvcruntime:per_thread_data.obj
 0001:00014b6f       ___vcrt_getptd_noexit      10015b6f f   libvcruntime:per_thread_data.obj
 0001:00014c25       ___vcrt_initialize_ptd     10015c25 f   libvcruntime:per_thread_data.obj
 0001:00014c64       ___vcrt_uninitialize_ptd   10015c64 f   libvcruntime:per_thread_data.obj
 0001:00014c85       ___vcrt_initialize_locks   10015c85 f   libvcruntime:locks.obj
 0001:00014cd0       ___vcrt_lock               10015cd0 f   libvcruntime:locks.obj
 0001:00014cea       ___vcrt_uninitialize_locks 10015cea f   libvcruntime:locks.obj
 0001:00014d24       ___vcrt_unlock             10015d24 f   libvcruntime:locks.obj
 0001:00014d3e       ??$?BX@__crt_fast_encoded_nullptr_t@@QBEPAXXZ 10015d3e f i libvcruntime:winapi_downlevel.obj
 0001:00014d5c       ??$__crt_fast_decode_pointer@PAX@@YAPAXQAX@Z 10015d5c f i libvcruntime:winapi_downlevel.obj
 0001:00014d75       ??$__crt_fast_encode_pointer@PAX@@YAPAXQAX@Z 10015d75 f i libvcruntime:winapi_downlevel.obj
 0001:00014d99       ??$__crt_interlocked_compare_exchange_pointer@UHINSTANCE__@@$$T$$T@@YAPAUHINSTANCE__@@PDSAU0@$$T1@Z 10015d99 f i libvcruntime:winapi_downlevel.obj
 0001:00014daf       ??$__crt_interlocked_compare_exchange_pointer@X$$T$$T@@YAPAXPDSAX$$T1@Z 10015daf f i libvcruntime:winapi_downlevel.obj
 0001:00014dc5       ??$__crt_interlocked_exchange_pointer@UHINSTANCE__@@PAU1@@@YAPAUHINSTANCE__@@PDSAU0@QAU0@@Z 10015dc5 f i libvcruntime:winapi_downlevel.obj
 0001:00014dd5       ??$__crt_interlocked_exchange_pointer@UHINSTANCE__@@PAX@@YAPAUHINSTANCE__@@PDSAU0@QAX@Z 10015dd5 f i libvcruntime:winapi_downlevel.obj
 0001:00014de5       ??$__crt_interlocked_exchange_pointer@XPAX@@YAPAXPDSAXQAX@Z 10015de5 f i libvcruntime:winapi_downlevel.obj
 0001:00014df5       ??$__crt_interlocked_read_pointer@UHINSTANCE__@@@@YAPAUHINSTANCE__@@PDSAU0@@Z 10015df5 f i libvcruntime:winapi_downlevel.obj
 0001:00014e09       ??$__crt_interlocked_read_pointer@X@@YAPAXPDSAX@Z 10015e09 f i libvcruntime:winapi_downlevel.obj
 0001:00014e1d       ?__crt_fast_encode_pointer@@YA?AU__crt_fast_encoded_nullptr_t@@$$T@Z 10015e1d f i libvcruntime:winapi_downlevel.obj
 0001:00015161       ___vcrt_EventRegister      10016161 f   libvcruntime:winapi_downlevel.obj
 0001:000151b1       ___vcrt_EventSetInformation 100161b1 f   libvcruntime:winapi_downlevel.obj
 0001:00015204       ___vcrt_EventUnregister    10016204 f   libvcruntime:winapi_downlevel.obj
 0001:0001524c       ___vcrt_EventWriteTransfer 1001624c f   libvcruntime:winapi_downlevel.obj
 0001:000152a7       ___vcrt_FlsAlloc           100162a7 f   libvcruntime:winapi_downlevel.obj
 0001:000152ef       ___vcrt_FlsFree            100162ef f   libvcruntime:winapi_downlevel.obj
 0001:00015337       ___vcrt_FlsGetValue        10016337 f   libvcruntime:winapi_downlevel.obj
 0001:0001537f       ___vcrt_FlsSetValue        1001637f f   libvcruntime:winapi_downlevel.obj
 0001:000153cb       ___vcrt_InitializeCriticalSectionEx 100163cb f   libvcruntime:winapi_downlevel.obj
 0001:00015422       ___vcrt_initialize_winapi_thunks 10016422 f   libvcruntime:winapi_downlevel.obj
 0001:0001546a       ___vcrt_uninitialize_winapi_thunks 1001646a f   libvcruntime:winapi_downlevel.obj
 0001:000154a8       ??$?B$$A6AXXZ@__crt_fast_encoded_nullptr_t@@QBEP6AXXZXZ 100164a8 f i libvcruntime:purevirt_data.obj
 0001:000154c6       ??$__crt_fast_encode_pointer@P6AXXZ@@YAP6AXXZQ6AXXZ@Z 100164c6 f i libvcruntime:purevirt_data.obj
 0001:000154ea       ___vcrt_initialize_pure_virtual_call_handler 100164ea f   libvcruntime:purevirt_data.obj
 0001:0001550e       ??$__vcrt_va_start_verify_argument_type@QBD@@YAXXZ 1001650e f i libvcruntime:undname.obj
 0001:0001550f       ??0Block@_HeapManager@@QAE@XZ 1001650f f i libvcruntime:undname.obj
 0001:00015515       ??0DName@@QAE@AAPBDD@Z     10016515 f   libvcruntime:undname.obj
 0001:000155fc       ??0DName@@QAE@ABV0@@Z      100165fc f i libvcruntime:undname.obj
 0001:00015617       ??0DName@@QAE@D@Z          10016617 f   libvcruntime:undname.obj
 0001:0001564e       ??0DName@@QAE@PAV0@@Z      1001664e f   libvcruntime:undname.obj
 0001:000156ae       ??0DName@@QAE@PBD@Z        100166ae f   libvcruntime:undname.obj
 0001:000156f6       ??0DName@@QAE@W4DNameStatus@@@Z 100166f6 f   libvcruntime:undname.obj
 0001:00015749       ??0DName@@QAE@XZ           10016749 f i libvcruntime:undname.obj
 0001:0001575e       ??0DName@@QAE@_J@Z         1001675e f   libvcruntime:undname.obj
 0001:00015818       ??0DName@@QAE@_K@Z         10016818 f   libvcruntime:undname.obj
 0001:000158a2       ??0DNameNode@@IAE@XZ       100168a2 f   libvcruntime:undname.obj
 0001:000158ad       ??0DNameStatusNode@@AAE@W4DNameStatus@@@Z 100168ad f   libvcruntime:undname.obj
 0001:000158d8       ??0Replicator@@QAE@XZ      100168d8 f i libvcruntime:undname.obj
 0001:000158de       ??0UnDecorator@@QAE@PADPBDHP6APADJ@ZK@Z 100168de f i libvcruntime:undname.obj
 0001:00015961       ??0charNode@@QAE@D@Z       10016961 f   libvcruntime:undname.obj
 0001:0001597b       ??0pDNameNode@@QAE@PAVDName@@@Z 1001697b f   libvcruntime:undname.obj
 0001:000159ad       ??0pairNode@@QAE@PAVDNameNode@@0@Z 100169ad f   libvcruntime:undname.obj
 0001:000159d3       ??0pcharNode@@QAE@PBDH@Z   100169d3 f   libvcruntime:undname.obj
 0001:00015a42       ??2@YAPAXIAAV_HeapManager@@H@Z 10016a42 f i libvcruntime:undname.obj
 0001:00015a5c       ??4DName@@QAEAAV0@ABV0@@Z  10016a5c f   libvcruntime:undname.obj
 0001:00015a77       ??4DName@@QAEAAV0@D@Z      10016a77 f i libvcruntime:undname.obj
 0001:00015aae       ??4DName@@QAEAAV0@PAV0@@Z  10016aae f   libvcruntime:undname.obj
 0001:00015b09       ??4DName@@QAEAAV0@PBD@Z    10016b09 f   libvcruntime:undname.obj
 0001:00015b47       ??4DName@@QAEAAV0@W4DNameStatus@@@Z 10016b47 f   libvcruntime:undname.obj
 0001:00015b89       ??AReplicator@@QBE?AVDName@@H@Z 10016b89 f   libvcruntime:undname.obj
 0001:00015bd4       ??BUnDecorator@@QAEPADXZ   10016bd4 f i libvcruntime:undname.obj
 0001:00015dab       ??H@YA?AVDName@@DABV0@@Z   10016dab f i libvcruntime:undname.obj
 0001:00015dd8       ??H@YA?AVDName@@PBDABV0@@Z 10016dd8 f i libvcruntime:undname.obj
 0001:00015e05       ??H@YA?AVDName@@W4DNameStatus@@ABV0@@Z 10016e05 f i libvcruntime:undname.obj
 0001:00015e32       ??HDName@@QBE?AV0@ABV0@@Z  10016e32 f   libvcruntime:undname.obj
 0001:00015e5c       ??HDName@@QBE?AV0@D@Z      10016e5c f   libvcruntime:undname.obj
 0001:00015e86       ??HDName@@QBE?AV0@PAV0@@Z  10016e86 f   libvcruntime:undname.obj
 0001:00015eb0       ??HDName@@QBE?AV0@PBD@Z    10016eb0 f   libvcruntime:undname.obj
 0001:00015eda       ??HDName@@QBE?AV0@W4DNameStatus@@@Z 10016eda f   libvcruntime:undname.obj
 0001:00015f04       ??YDName@@QAEAAV0@ABV0@@Z  10016f04 f   libvcruntime:undname.obj
 0001:00015f57       ??YDName@@QAEAAV0@D@Z      10016f57 f   libvcruntime:undname.obj
 0001:00015fbb       ??YDName@@QAEAAV0@PAV0@@Z  10016fbb f   libvcruntime:undname.obj
 0001:00016039       ??YDName@@QAEAAV0@PBD@Z    10017039 f   libvcruntime:undname.obj
 0001:000160b2       ??YDName@@QAEAAV0@W4DNameStatus@@@Z 100170b2 f   libvcruntime:undname.obj
 0001:00016102       ??YReplicator@@QAEAAV0@ABVDName@@@Z 10017102 f   libvcruntime:undname.obj
 0001:0001615e       ??_5DName@@QAEAAV0@ABV0@@Z 1001715e f   libvcruntime:undname.obj
 0001:00016181       ?Constructor@_HeapManager@@QAEXP6APAXI@ZP6AXPAX@Z@Z 10017181 f i libvcruntime:undname.obj
 0001:000161a5       ?Destructor@_HeapManager@@QAEXXZ 100171a5 f i libvcruntime:undname.obj
 0001:000161ec       ?UScore@UnDecorator@@SAPBDW4Tokens@@@Z 100171ec f   libvcruntime:undname.obj
 0001:00016210       ?append@DName@@AAEXPAVDNameNode@@@Z 10017210 f   libvcruntime:undname.obj
 0001:00016267       ?composeDeclaration@UnDecorator@@CA?AVDName@@ABV2@@Z 10017267 f i libvcruntime:undname.obj
 0001:000172a2       ?doAccessSpecifiers@UnDecorator@@SAHXZ 100182a2 f i libvcruntime:undname.obj
 0001:000172b3       ?doAllocationLanguage@UnDecorator@@SAHXZ 100182b3 f i libvcruntime:undname.obj
 0001:000172c4       ?doAllocationModel@UnDecorator@@SAHXZ 100182c4 f i libvcruntime:undname.obj
 0001:000172d5       ?doEcsu@UnDecorator@@SAHXZ 100182d5 f i libvcruntime:undname.obj
 0001:000172e6       ?doEllipsis@UnDecorator@@SAHXZ 100182e6 f i libvcruntime:undname.obj
 0001:000172f7       ?doFunctionReturns@UnDecorator@@SAHXZ 100182f7 f i libvcruntime:undname.obj
 0001:00017308       ?doMSKeywords@UnDecorator@@SAHXZ 10018308 f i libvcruntime:undname.obj
 0001:00017318       ?doMemberTypes@UnDecorator@@SAHXZ 10018318 f i libvcruntime:undname.obj
 0001:00017329       ?doNameOnly@UnDecorator@@SAHXZ 10018329 f i libvcruntime:undname.obj
 0001:00017336       ?doNoIdentCharCheck@UnDecorator@@SAHXZ 10018336 f i libvcruntime:undname.obj
 0001:00017343       ?doPchar@DName@@AAEXPBDH@Z 10018343 f   libvcruntime:undname.obj
 0001:000173ef       ?doPtr64@UnDecorator@@SAHXZ 100183ef f i libvcruntime:undname.obj
 0001:00017400       ?doRestrictionSpec@UnDecorator@@SAHXZ 10018400 f i libvcruntime:undname.obj
 0001:00017411       ?doThisTypes@UnDecorator@@SAHXZ 10018411 f i libvcruntime:undname.obj
 0001:00017427       ?doThrowTypes@UnDecorator@@SAHXZ 10018427 f i libvcruntime:undname.obj
 0001:00017438       ?doTypeOnly@UnDecorator@@SAHXZ 10018438 f i libvcruntime:undname.obj
 0001:00017445       ?doUnderScore@UnDecorator@@SAHXZ 10018445 f i libvcruntime:undname.obj
 0001:00017452       ?getArgumentList@UnDecorator@@CA?AVDName@@XZ 10018452 f   libvcruntime:undname.obj
 0001:000175a1       ?getArgumentTypes@UnDecorator@@CA?AVDName@@XZ 100185a1 f   libvcruntime:undname.obj
 0001:000176b9       ?getArrayType@UnDecorator@@CA?AVDName@@ABV2@@Z 100186b9 f i libvcruntime:undname.obj
 0001:0001793b       ?getBasedType@UnDecorator@@CA?AVDName@@XZ 1001893b f   libvcruntime:undname.obj
 0001:000179fa       ?getBasicDataType@UnDecorator@@CA?AVDName@@ABV2@@Z 100189fa f   libvcruntime:undname.obj
 0001:00017ee4       ?getCallIndex@UnDecorator@@CA?AVDName@@XZ 10018ee4 f i libvcruntime:undname.obj
 0001:00017efd       ?getCallingConvention@UnDecorator@@CA?AVDName@@XZ 10018efd f   libvcruntime:undname.obj
 0001:00017feb       ?getDataIndirectType@UnDecorator@@CA?AVDName@@ABV2@PBD0H@Z 10018feb f   libvcruntime:undname.obj
 0001:00018796       ?getDataIndirectType@UnDecorator@@CA?AVDName@@XZ 10019796 f i libvcruntime:undname.obj
 0001:000187dd       ?getDataType@UnDecorator@@CA?AVDName@@PAV2@@Z 100197dd f   libvcruntime:undname.obj
 0001:000188e3       ?getDecoratedName@UnDecorator@@CA?AVDName@@XZ 100198e3 f   libvcruntime:undname.obj
 0001:00018bc2       ?getDimension@UnDecorator@@CA?AVDName@@_N@Z 10019bc2 f   libvcruntime:undname.obj
 0001:00018d46       ?getDispatchTarget@UnDecorator@@CA?AVDName@@XZ 10019d46 f   libvcruntime:undname.obj
 0001:00018db7       ?getDisplacement@UnDecorator@@CA?AVDName@@XZ 10019db7 f i libvcruntime:undname.obj
 0001:00018dd0       ?getECSUDataType@UnDecorator@@CA?AVDName@@XZ 10019dd0 f   libvcruntime:undname.obj
 0001:00018f34       ?getECSUName@UnDecorator@@CA?AVDName@@XZ 10019f34 f i libvcruntime:undname.obj
 0001:00018f49       ?getEnumType@UnDecorator@@CA?AVDName@@XZ 10019f49 f i libvcruntime:undname.obj
 0001:00019070       ?getExtendedDataIndirectType@UnDecorator@@CA?AVDName@@AAPBDAA_NH@Z 1001a070 f   libvcruntime:undname.obj
 0001:00019283       ?getExternalDataType@UnDecorator@@CA?AVDName@@ABV2@@Z 1001a283 f i libvcruntime:undname.obj
 0001:0001931a       ?getFunctionIndirectType@UnDecorator@@CA?AVDName@@ABV2@@Z 1001a31a f   libvcruntime:undname.obj
 0001:00019825       ?getGuardNumber@UnDecorator@@CA?AVDName@@XZ 1001a825 f i libvcruntime:undname.obj
 0001:0001983e       ?getLastChar@DName@@QBEDXZ 1001a83e f i libvcruntime:undname.obj
 0001:00019864       ?getLastChar@DNameStatusNode@@UBEDXZ 1001a864 f i libvcruntime:undname.obj
 0001:00019873       ?getLastChar@charNode@@UBEDXZ 1001a873 f i libvcruntime:undname.obj
 0001:00019877       ?getLastChar@pDNameNode@@UBEDXZ 1001a877 f i libvcruntime:undname.obj
 0001:00019888       ?getLastChar@pairNode@@UBEDXZ 1001a888 f i libvcruntime:undname.obj
 0001:000198c7       ?getLastChar@pcharNode@@UBEDXZ 1001a8c7 f i libvcruntime:undname.obj
 0001:000198dd       ?getLexicalFrame@UnDecorator@@CA?AVDName@@XZ 1001a8dd f i libvcruntime:undname.obj
 0001:00019929       ?getMemory@_HeapManager@@QAEPAXIH@Z 1001a929 f   libvcruntime:undname.obj
 0001:000199da       ?getNumberOfDimensions@UnDecorator@@CAHXZ 1001a9da f   libvcruntime:undname.obj
 0001:00019a53       ?getOperatorName@UnDecorator@@CA?AVDName@@_NPA_N@Z 1001aa53 f i libvcruntime:undname.obj
 0001:0001a203       ?getPointerType@UnDecorator@@CA?AVDName@@ABV2@0@Z 1001b203 f i libvcruntime:undname.obj
 0001:0001a228       ?getPointerTypeArray@UnDecorator@@CA?AVDName@@ABV2@0@Z 1001b228 f i libvcruntime:undname.obj
 0001:0001a24d       ?getPrimaryDataType@UnDecorator@@CA?AVDName@@ABV2@@Z 1001b24d f   libvcruntime:undname.obj
 0001:0001a4be       ?getPtrRefDataType@UnDecorator@@CA?AVDName@@ABV2@H@Z 1001b4be f   libvcruntime:undname.obj
 0001:0001a600       ?getPtrRefType@UnDecorator@@CA?AVDName@@ABV2@0PBD@Z 1001b600 f   libvcruntime:undname.obj
 0001:0001a73b       ?getReferenceType@UnDecorator@@CA?AVDName@@ABV2@0PBD@Z 1001b73b f i libvcruntime:undname.obj
 0001:0001a75e       ?getRestrictionSpec@UnDecorator@@CA?AVDName@@XZ 1001b75e f   libvcruntime:undname.obj
 0001:0001a88c       ?getReturnType@UnDecorator@@CA?AVDName@@PAV2@@Z 1001b88c f   libvcruntime:undname.obj
 0001:0001a8c6       ?getScope@UnDecorator@@CA?AVDName@@XZ 1001b8c6 f   libvcruntime:undname.obj
 0001:0001ad9b       ?getScopedName@UnDecorator@@CA?AVDName@@XZ 1001bd9b f   libvcruntime:undname.obj
 0001:0001aed4       ?getSignedDimension@UnDecorator@@CA?AVDName@@XZ 1001bed4 f   libvcruntime:undname.obj
 0001:0001af3b       ?getStorageConvention@UnDecorator@@CA?AVDName@@XZ 1001bf3b f i libvcruntime:undname.obj
 0001:0001af50       ?getString@DName@@QBEPADPAD0@Z 1001bf50 f i libvcruntime:undname.obj
 0001:0001af87       ?getString@DName@@QBEPADPADH@Z 1001bf87 f i libvcruntime:undname.obj
 0001:0001aff2       ?getString@DNameStatusNode@@UBEPADPAD0@Z 1001bff2 f i libvcruntime:undname.obj
 0001:0001b022       ?getString@charNode@@UBEPADPAD0@Z 1001c022 f i libvcruntime:undname.obj
 0001:0001b03c       ?getString@pDNameNode@@UBEPADPAD0@Z 1001c03c f i libvcruntime:undname.obj
 0001:0001b058       ?getString@pairNode@@UBEPADPAD0@Z 1001c058 f i libvcruntime:undname.obj
 0001:0001b0ad       ?getString@pcharNode@@UBEPADPAD0@Z 1001c0ad f i libvcruntime:undname.obj
 0001:0001b0ce       ?getStringEncoding@UnDecorator@@CA?AVDName@@PADH@Z 1001c0ce f   libvcruntime:undname.obj
 0001:0001b199       ?getStringHelper@@YAPADPAD00H@Z 1001c199 f i libvcruntime:undname.obj
 0001:0001b1dd       ?getSymbolName@UnDecorator@@CA?AVDName@@XZ 1001c1dd f i libvcruntime:undname.obj
 0001:0001b237       ?getTemplateArgumentList@UnDecorator@@CA?AVDName@@XZ 1001c237 f   libvcruntime:undname.obj
 0001:0001b584       ?getTemplateConstant@UnDecorator@@CA?AVDName@@XZ 1001c584 f   libvcruntime:undname.obj
 0001:0001b999       ?getTemplateName@UnDecorator@@CA?AVDName@@_N@Z 1001c999 f   libvcruntime:undname.obj
 0001:0001bb44       ?getThisType@UnDecorator@@CA?AVDName@@XZ 1001cb44 f i libvcruntime:undname.obj
 0001:0001bb8c       ?getThrowTypes@UnDecorator@@CA?AVDName@@XZ 1001cb8c f   libvcruntime:undname.obj
 0001:0001bc38       ?getTypeEncoding@UnDecorator@@CAHXZ 1001cc38 f i libvcruntime:undname.obj
 0001:0001c034       ?getVCallThunkType@UnDecorator@@CA?AVDName@@XZ 1001d034 f i libvcruntime:undname.obj
 0001:0001c07d       ?getVbTableType@UnDecorator@@CA?AVDName@@ABV2@@Z 1001d07d f i libvcruntime:undname.obj
 0001:0001c097       ?getVdispMapType@UnDecorator@@CA?AVDName@@ABV2@@Z 1001d097 f i libvcruntime:undname.obj
 0001:0001c102       ?getVfTableType@UnDecorator@@CA?AVDName@@ABV2@@Z 1001d102 f i libvcruntime:undname.obj
 0001:0001c2c0       ?getZName@UnDecorator@@CA?AVDName@@_N0@Z 1001d2c0 f   libvcruntime:undname.obj
 0001:0001c590       ?haveTemplateParameters@UnDecorator@@SAHXZ 1001d590 f i libvcruntime:undname.obj
 0001:0001c59d       ?isArray@DName@@QBEHXZ     1001d59d f i libvcruntime:undname.obj
 0001:0001c5a9       ?isComArray@DName@@QBEHXZ  1001d5a9 f i libvcruntime:undname.obj
 0001:0001c5b5       ?isEmpty@DName@@QBEHXZ     1001d5b5 f i libvcruntime:undname.obj
 0001:0001c5bf       ?isFull@Replicator@@QBEHXZ 1001d5bf f i libvcruntime:undname.obj
 0001:0001c5ca       ?isNoTE@DName@@QBEHXZ      1001d5ca f i libvcruntime:undname.obj
 0001:0001c5d6       ?isPinPtr@DName@@QBEHXZ    1001d5d6 f i libvcruntime:undname.obj
 0001:0001c5e2       ?isPtrRef@DName@@QBEHXZ    1001d5e2 f i libvcruntime:undname.obj
 0001:0001c5ee       ?isUDC@DName@@QBEHXZ       1001d5ee f i libvcruntime:undname.obj
 0001:0001c603       ?isUDTThunk@DName@@QBEHXZ  1001d603 f i libvcruntime:undname.obj
 0001:0001c618       ?isVCallThunk@DName@@QBEHXZ 1001d618 f i libvcruntime:undname.obj
 0001:0001c624       ?isValid@DName@@QBEHXZ     1001d624 f i libvcruntime:undname.obj
 0001:0001c630       ?length@DName@@QBEHXZ      1001d630 f i libvcruntime:undname.obj
 0001:0001c655       ?length@DNameStatusNode@@UBEHXZ 1001d655 f i libvcruntime:undname.obj
 0001:0001c659       ?length@charNode@@UBEHXZ   1001d659 f i libvcruntime:undname.obj
 0001:0001c65d       ?length@pDNameNode@@UBEHXZ 1001d65d f i libvcruntime:undname.obj
 0001:0001c66e       ?length@pairNode@@UBEHXZ   1001d66e f i libvcruntime:undname.obj
 0001:0001c6ca       ?length@pcharNode@@UBEHXZ  1001d6ca f i libvcruntime:undname.obj
 0001:0001c6ce       ?make@DNameStatusNode@@SAPAV1@W4DNameStatus@@@Z 1001d6ce f i libvcruntime:undname.obj
 0001:0001c775       ?setIsArray@DName@@QAEXXZ  1001d775 f i libvcruntime:undname.obj
 0001:0001c77f       ?setIsComArray@DName@@QAEXXZ 1001d77f f i libvcruntime:undname.obj
 0001:0001c789       ?setIsNoTE@DName@@QAEXXZ   1001d789 f i libvcruntime:undname.obj
 0001:0001c793       ?setIsPinPtr@DName@@QAEXXZ 1001d793 f i libvcruntime:undname.obj
 0001:0001c79d       ?setIsUDC@DName@@QAEXXZ    1001d79d f i libvcruntime:undname.obj
 0001:0001c7ad       ?setIsVCallThunk@DName@@QAEXXZ 1001d7ad f i libvcruntime:undname.obj
 0001:0001c7b7       ?setPtrRef@DName@@QAEAAV1@XZ 1001d7b7 f i libvcruntime:undname.obj
 0001:0001c7c3       ?status@DName@@QBE?AW4DNameStatus@@XZ 1001d7c3 f i libvcruntime:undname.obj
 0001:0001c848       ___unDName                 1001d848 f   libvcruntime:undname.obj
 0001:0001c902       ___unDNameEx               1001d902 f   libvcruntime:undname.obj
 0001:0001c9bc       __vsprintf_s_l             1001d9bc f i libvcruntime:undname.obj
 0001:0001c9f4       _sprintf_s                 1001d9f4 f i libvcruntime:undname.obj
 0001:0001ca20       __global_unwind2           1001da20 f   libvcruntime:_exsup_.obj
 0001:0001ca85       __local_unwind2            1001da85 f   libvcruntime:_exsup_.obj
 0001:0001cb09       __abnormal_termination     1001db09 f   libvcruntime:_exsup_.obj
 0001:0001cb2c       __NLG_Notify1              1001db2c f   libvcruntime:_exsup_.obj
 0001:0001cb35       __NLG_Notify               1001db35 f   libvcruntime:_exsup_.obj
 0001:0001cb4c       __NLG_Dispatch             1001db4c     libvcruntime:_exsup_.obj
 0001:0001cb4c       __NLG_Dispatch2            1001db4c     libvcruntime:_exsup_.obj
 0001:0001cb54       __NLG_Call                 1001db54 f   libvcruntime:_exsup_.obj
 0001:0001cb56       __NLG_Return2              1001db56     libvcruntime:_exsup_.obj
 0001:0001cba4       ??$__crt_fast_decode_pointer@P6AXXZ@@YAP6AXXZQ6AXXZ@Z 1001dba4 f i libvcruntime:purevirt.obj
 0001:0001cbbd       ??$__crt_interlocked_compare_exchange_pointer@$$A6AXXZ$$T$$T@@YAP6AXXZPDS6AXXZ$$T1@Z 1001dbbd f i libvcruntime:purevirt.obj
 0001:0001cbd3       ??$__crt_interlocked_exchange_pointer@$$A6AXXZP6AXXZ@@YAP6AXXZPDS6AXXZQ6AXXZ@Z 1001dbd3 f i libvcruntime:purevirt.obj
 0001:0001cbe3       ??$__crt_interlocked_read_pointer@$$A6AXXZ@@YAP6AXXZPDS6AXXZ@Z 1001dbe3 f i libvcruntime:purevirt.obj
 0001:0001cbf7       __get_purecall_handler     1001dbf7 f   libvcruntime:purevirt.obj
 0001:0001cc1d       __purecall                 1001dc1d f   libvcruntime:purevirt.obj
 0001:0001cc3e       __set_purecall_handler     1001dc3e f   libvcruntime:purevirt.obj
 0001:0001cc6c       _malloc                    1001dc6c f   libucrt:malloc.obj
 0001:0001cc79       ??$?RPAU__crt_stdio_stream_data@@@__crt_internal_free_policy@@QBEXQBQAU__crt_stdio_stream_data@@@Z 1001dc79 f i libucrt:_file.obj
 0001:0001cc8f       ??0?$__crt_unique_heap_ptr@PAU__crt_stdio_stream_data@@U__crt_internal_free_policy@@@@QAE@QAPAU__crt_stdio_stream_data@@@Z 1001dc8f f i libucrt:_file.obj
 0001:0001cca3       ??0__crt_stdio_stream@@QAE@QAU_iobuf@@@Z 1001dca3 f i libucrt:_file.obj
 0001:0001ccb7       ??1?$__crt_unique_heap_ptr@PAU__crt_stdio_stream_data@@U__crt_internal_free_policy@@@@QAE@XZ 1001dcb7 f i libucrt:_file.obj
 0001:0001cccd       ??C__crt_stdio_stream@@QBEPAU__crt_stdio_stream_data@@XZ 1001dccd f i libucrt:_file.obj
 0001:0001ccd0       ?detach@?$__crt_unique_heap_ptr@PAU__crt_stdio_stream_data@@U__crt_internal_free_policy@@@@QAEPAPAU__crt_stdio_stream_data@@XZ 1001dcd0 f i libucrt:_file.obj
 0001:0001ccd6       ?release@?$__crt_unique_heap_ptr@PAU__crt_stdio_stream_data@@U__crt_internal_free_policy@@@@QAEXXZ 1001dcd6 f i libucrt:_file.obj
 0001:0001ccec       ___acrt_initialize_stdio   1001dcec f   libucrt:_file.obj
 0001:0001cde6       ___acrt_iob_func           1001dde6 f   libucrt:_file.obj
 0001:0001cdfa       ___acrt_uninitialize_stdio 1001ddfa f   libucrt:_file.obj
 0001:0001ce59       __get_stream_buffer_pointers 1001de59 f   libucrt:_file.obj
 0001:0001ceb0       __lock_file                1001deb0 f   libucrt:_file.obj
 0001:0001cec9       __unlock_file              1001dec9 f   libucrt:_file.obj
 0001:0001cee2       ??$?0ABV?$stream_output_adapter@D@__crt_stdio_output@@AB_KABQBDABQAU__crt_locale_pointers@@ABQAD@?$format_validation_base@DV?$stream_output_adapter@D@__crt_stdio_output@@@__crt_stdio_output@@IAE@ABV?$stream_output_adapter@D@1@AB_KABQBDABQAU__crt_locale_pointers@@ABQAD@Z 1001dee2 f i libucrt:output.obj
 0001:0001cf0d       ??$?0ABV?$stream_output_adapter@D@__crt_stdio_output@@AB_KABQBDABQAU__crt_locale_pointers@@ABQAD@?$positional_parameter_base@DV?$stream_output_adapter@D@__crt_stdio_output@@@__crt_stdio_output@@IAE@ABV?$stream_output_adapter@D@1@AB_KABQBDABQAU__crt_locale_pointers@@ABQAD@Z 1001df0d f i libucrt:output.obj
 0001:0001cf67       ??$?0ABV?$stream_output_adapter@D@__crt_stdio_output@@AB_KABQBDABQAU__crt_locale_pointers@@ABQAD@?$standard_base@DV?$stream_output_adapter@D@__crt_stdio_output@@@__crt_stdio_output@@IAE@ABV?$stream_output_adapter@D@1@AB_KABQBDABQAU__crt_locale_pointers@@ABQAD@Z 1001df67 f i libucrt:output.obj
 0001:0001cfa9       ??$?0ABV?$stream_output_adapter@_W@__crt_stdio_output@@AB_KABQB_WABQAU__crt_locale_pointers@@ABQAD@?$format_validation_base@_WV?$stream_output_adapter@_W@__crt_stdio_output@@@__crt_stdio_output@@IAE@ABV?$stream_output_adapter@_W@1@AB_KABQB_WABQAU__crt_locale_pointers@@ABQAD@Z 1001dfa9 f i libucrt:output.obj
 0001:0001cfd4       ??$?0ABV?$stream_output_adapter@_W@__crt_stdio_output@@AB_KABQB_WABQAU__crt_locale_pointers@@ABQAD@?$positional_parameter_base@_WV?$stream_output_adapter@_W@__crt_stdio_output@@@__crt_stdio_output@@IAE@ABV?$stream_output_adapter@_W@1@AB_KABQB_WABQAU__crt_locale_pointers@@ABQAD@Z 1001dfd4 f i libucrt:output.obj
 0001:0001d02e       ??$?0ABV?$stream_output_adapter@_W@__crt_stdio_output@@AB_KABQB_WABQAU__crt_locale_pointers@@ABQAD@?$standard_base@_WV?$stream_output_adapter@_W@__crt_stdio_output@@@__crt_stdio_output@@IAE@ABV?$stream_output_adapter@_W@1@AB_KABQB_WABQAU__crt_locale_pointers@@ABQAD@Z 1001e02e f i libucrt:output.obj
 0001:0001d070       ??$?0ABV?$string_output_adapter@D@__crt_stdio_output@@AB_KABQBDABQAU__crt_locale_pointers@@ABQAD@?$format_validation_base@DV?$string_output_adapter@D@__crt_stdio_output@@@__crt_stdio_output@@IAE@ABV?$string_output_adapter@D@1@AB_KABQBDABQAU__crt_locale_pointers@@ABQAD@Z 1001e070 f i libucrt:output.obj
 0001:0001d09b       ??$?0ABV?$string_output_adapter@D@__crt_stdio_output@@AB_KABQBDABQAU__crt_locale_pointers@@ABQAD@?$positional_parameter_base@DV?$string_output_adapter@D@__crt_stdio_output@@@__crt_stdio_output@@IAE@ABV?$string_output_adapter@D@1@AB_KABQBDABQAU__crt_locale_pointers@@ABQAD@Z 1001e09b f i libucrt:output.obj
 0001:0001d0f5       ??$?0ABV?$string_output_adapter@D@__crt_stdio_output@@AB_KABQBDABQAU__crt_locale_pointers@@ABQAD@?$standard_base@DV?$string_output_adapter@D@__crt_stdio_output@@@__crt_stdio_output@@IAE@ABV?$string_output_adapter@D@1@AB_KABQBDABQAU__crt_locale_pointers@@ABQAD@Z 1001e0f5 f i libucrt:output.obj
 0001:0001d137       ??$?0ABV?$string_output_adapter@_W@__crt_stdio_output@@AB_KABQB_WABQAU__crt_locale_pointers@@ABQAD@?$format_validation_base@_WV?$string_output_adapter@_W@__crt_stdio_output@@@__crt_stdio_output@@IAE@ABV?$string_output_adapter@_W@1@AB_KABQB_WABQAU__crt_locale_pointers@@ABQAD@Z 1001e137 f i libucrt:output.obj
 0001:0001d162       ??$?0ABV?$string_output_adapter@_W@__crt_stdio_output@@AB_KABQB_WABQAU__crt_locale_pointers@@ABQAD@?$positional_parameter_base@_WV?$string_output_adapter@_W@__crt_stdio_output@@@__crt_stdio_output@@IAE@ABV?$string_output_adapter@_W@1@AB_KABQB_WABQAU__crt_locale_pointers@@ABQAD@Z 1001e162 f i libucrt:output.obj
 0001:0001d1bc       ??$?0ABV?$string_output_adapter@_W@__crt_stdio_output@@AB_KABQB_WABQAU__crt_locale_pointers@@ABQAD@?$standard_base@_WV?$string_output_adapter@_W@__crt_stdio_output@@@__crt_stdio_output@@IAE@ABV?$string_output_adapter@_W@1@AB_KABQB_WABQAU__crt_locale_pointers@@ABQAD@Z 1001e1bc f i libucrt:output.obj
 0001:0001d1fe       ??$?RV<lambda_3a2a6cca1b0f7007a3db339dcecd1562>@@AAV<lambda_e38011a3ba6e07c7dbcef4d549f26102>@@V<lambda_b2332a2b562101f3c3c34baab19e0511>@@@?$__crt_seh_guarded_call@H@@QAEH$$QAV<lambda_3a2a6cca1b0f7007a3db339dcecd1562>@@AAV<lambda_e38011a3ba6e07c7dbcef4d549f26102>@@$$QAV<lambda_b2332a2b562101f3c3c34baab19e0511>@@@Z 1001e1fe f i libucrt:output.obj
 0001:0001d263       ??$?RV<lambda_75d23329f2fb3d02b2e1cf5509bb1caf>@@AAV<lambda_c4f131f91cb4ec00a5b0a26aa161b8b4>@@V<lambda_114dc79c86b00c313cb0b6b3b001aaf8>@@@?$__crt_seh_guarded_call@H@@QAEH$$QAV<lambda_75d23329f2fb3d02b2e1cf5509bb1caf>@@AAV<lambda_c4f131f91cb4ec00a5b0a26aa161b8b4>@@$$QAV<lambda_114dc79c86b00c313cb0b6b3b001aaf8>@@@Z 1001e263 f i libucrt:output.obj
 0001:0001d2c8       ??$?RV<lambda_80d7abc6eae2375db70be92ccaaf9b57>@@AAV<lambda_df52180bf14694d51fdefd82613e8f07>@@V<lambda_4fa1155033dff2042363dba4e2dc3802>@@@?$__crt_seh_guarded_call@H@@QAEH$$QAV<lambda_80d7abc6eae2375db70be92ccaaf9b57>@@AAV<lambda_df52180bf14694d51fdefd82613e8f07>@@$$QAV<lambda_4fa1155033dff2042363dba4e2dc3802>@@@Z 1001e2c8 f i libucrt:output.obj
 0001:0001d32d       ??$?RV<lambda_b4329732a1a72698597872ef534ad66d>@@AAV<lambda_96392db5b14a27f72535a2156da24b09>@@V<lambda_0f47277b42e3e84c3311fed419af0b3c>@@@?$__crt_seh_guarded_call@H@@QAEH$$QAV<lambda_b4329732a1a72698597872ef534ad66d>@@AAV<lambda_96392db5b14a27f72535a2156da24b09>@@$$QAV<lambda_0f47277b42e3e84c3311fed419af0b3c>@@@Z 1001e32d f i libucrt:output.obj
 0001:0001d392       ??$?RV<lambda_b7f50223258ab9fcc98080d45d02b1a4>@@AAV<lambda_42506531d319a600ce771deb5a236a10>@@V<lambda_31f843250ba6188c6e1f35d2bec6db0e>@@@?$__crt_seh_guarded_call@H@@QAEH$$QAV<lambda_b7f50223258ab9fcc98080d45d02b1a4>@@AAV<lambda_42506531d319a600ce771deb5a236a10>@@$$QAV<lambda_31f843250ba6188c6e1f35d2bec6db0e>@@@Z 1001e392 f i libucrt:output.obj
 0001:0001d3f7       ??$?RV<lambda_cc35d49d909def412005bd38ddc96b77>@@AAV<lambda_d6a382b8dd98a6801a8abd6c28bdff2d>@@V<lambda_148068cfb9786d9714740654406e93d5>@@@?$__crt_seh_guarded_call@H@@QAEH$$QAV<lambda_cc35d49d909def412005bd38ddc96b77>@@AAV<lambda_d6a382b8dd98a6801a8abd6c28bdff2d>@@$$QAV<lambda_148068cfb9786d9714740654406e93d5>@@@Z 1001e3f7 f i libucrt:output.obj
 0001:0001d45c       ??$__acrt_lock_stream_and_call@V<lambda_42506531d319a600ce771deb5a236a10>@@@@YAHQAU_iobuf@@$$QAV<lambda_42506531d319a600ce771deb5a236a10>@@@Z 1001e45c f i libucrt:output.obj
 0001:0001d48e       ??$__acrt_lock_stream_and_call@V<lambda_96392db5b14a27f72535a2156da24b09>@@@@YAHQAU_iobuf@@$$QAV<lambda_96392db5b14a27f72535a2156da24b09>@@@Z 1001e48e f i libucrt:output.obj
 0001:0001d4c0       ??$__acrt_lock_stream_and_call@V<lambda_c4f131f91cb4ec00a5b0a26aa161b8b4>@@@@YAHQAU_iobuf@@$$QAV<lambda_c4f131f91cb4ec00a5b0a26aa161b8b4>@@@Z 1001e4c0 f i libucrt:output.obj
 0001:0001d4f2       ??$__acrt_lock_stream_and_call@V<lambda_d6a382b8dd98a6801a8abd6c28bdff2d>@@@@YAHQAU_iobuf@@$$QAV<lambda_d6a382b8dd98a6801a8abd6c28bdff2d>@@@Z 1001e4f2 f i libucrt:output.obj
 0001:0001d524       ??$__acrt_lock_stream_and_call@V<lambda_df52180bf14694d51fdefd82613e8f07>@@@@YAHQAU_iobuf@@$$QAV<lambda_df52180bf14694d51fdefd82613e8f07>@@@Z 1001e524 f i libucrt:output.obj
 0001:0001d556       ??$__acrt_lock_stream_and_call@V<lambda_e38011a3ba6e07c7dbcef4d549f26102>@@@@YAHQAU_iobuf@@$$QAV<lambda_e38011a3ba6e07c7dbcef4d549f26102>@@@Z 1001e556 f i libucrt:output.obj
 0001:0001d588       ??$__crt_interlocked_read@J@@YAJPDJ@Z 1001e588 f i libucrt:output.obj
 0001:0001e7cb       ??$count@D@formatting_buffer@__crt_stdio_output@@QBEIXZ 1001f7cb f i libucrt:output.obj
 0001:0001e7e9       ??$count@_W@formatting_buffer@__crt_stdio_output@@QBEIXZ 1001f7e9 f i libucrt:output.obj
 0001:0001e808       ??$data@D@formatting_buffer@__crt_stdio_output@@QAEPADXZ 1001f808 f i libucrt:output.obj
 0001:0001e818       ??$data@_W@formatting_buffer@__crt_stdio_output@@QAEPA_WXZ 1001f818 f i libucrt:output.obj
 0001:0001e828       ??$ensure_buffer_is_big_enough@D@formatting_buffer@__crt_stdio_output@@QAE_NI@Z 1001f828 f i libucrt:output.obj
 0001:0001e8cf       ??$extract_argument_from_va_list@C_J@?$positional_parameter_base@DV?$stream_output_adapter@D@__crt_stdio_output@@@__crt_stdio_output@@IAE_NAA_J@Z 1001f8cf f i libucrt:output.obj
 0001:0001e96d       ??$extract_argument_from_va_list@C_J@?$positional_parameter_base@DV?$string_output_adapter@D@__crt_stdio_output@@@__crt_stdio_output@@IAE_NAA_J@Z 1001f96d f i libucrt:output.obj
 0001:0001ea0b       ??$extract_argument_from_va_list@C_J@?$positional_parameter_base@_WV?$stream_output_adapter@_W@__crt_stdio_output@@@__crt_stdio_output@@IAE_NAA_J@Z 1001fa0b f i libucrt:output.obj
 0001:0001eaa9       ??$extract_argument_from_va_list@C_J@?$positional_parameter_base@_WV?$string_output_adapter@_W@__crt_stdio_output@@@__crt_stdio_output@@IAE_NAA_J@Z 1001faa9 f i libucrt:output.obj
 0001:0001eb47       ??$extract_argument_from_va_list@C_J@?$standard_base@DV?$stream_output_adapter@D@__crt_stdio_output@@@__crt_stdio_output@@IAE_NAA_J@Z 1001fb47 f i libucrt:output.obj
 0001:0001eb6d       ??$extract_argument_from_va_list@C_J@?$standard_base@DV?$string_output_adapter@D@__crt_stdio_output@@@__crt_stdio_output@@IAE_NAA_J@Z 1001fb6d f i libucrt:output.obj
 0001:0001eb93       ??$extract_argument_from_va_list@C_J@?$standard_base@_WV?$stream_output_adapter@_W@__crt_stdio_output@@@__crt_stdio_output@@IAE_NAA_J@Z 1001fb93 f i libucrt:output.obj
 0001:0001ebb9       ??$extract_argument_from_va_list@C_J@?$standard_base@_WV?$string_output_adapter@_W@__crt_stdio_output@@@__crt_stdio_output@@IAE_NAA_J@Z 1001fbb9 f i libucrt:output.obj
 0001:0001ebdf       ??$extract_argument_from_va_list@E_J@?$positional_parameter_base@DV?$stream_output_adapter@D@__crt_stdio_output@@@__crt_stdio_output@@IAE_NAA_J@Z 1001fbdf f i libucrt:output.obj
 0001:0001ec7d       ??$extract_argument_from_va_list@E_J@?$positional_parameter_base@DV?$string_output_adapter@D@__crt_stdio_output@@@__crt_stdio_output@@IAE_NAA_J@Z 1001fc7d f i libucrt:output.obj
 0001:0001ed1b       ??$extract_argument_from_va_list@E_J@?$positional_parameter_base@_WV?$stream_output_adapter@_W@__crt_stdio_output@@@__crt_stdio_output@@IAE_NAA_J@Z 1001fd1b f i libucrt:output.obj
 0001:0001edb9       ??$extract_argument_from_va_list@E_J@?$positional_parameter_base@_WV?$string_output_adapter@_W@__crt_stdio_output@@@__crt_stdio_output@@IAE_NAA_J@Z 1001fdb9 f i libucrt:output.obj
 0001:0001ee57       ??$extract_argument_from_va_list@E_J@?$standard_base@DV?$stream_output_adapter@D@__crt_stdio_output@@@__crt_stdio_output@@IAE_NAA_J@Z 1001fe57 f i libucrt:output.obj
 0001:0001ee7d       ??$extract_argument_from_va_list@E_J@?$standard_base@DV?$string_output_adapter@D@__crt_stdio_output@@@__crt_stdio_output@@IAE_NAA_J@Z 1001fe7d f i libucrt:output.obj
 0001:0001eea3       ??$extract_argument_from_va_list@E_J@?$standard_base@_WV?$stream_output_adapter@_W@__crt_stdio_output@@@__crt_stdio_output@@IAE_NAA_J@Z 1001fea3 f i libucrt:output.obj
 0001:0001eec9       ??$extract_argument_from_va_list@E_J@?$standard_base@_WV?$string_output_adapter@_W@__crt_stdio_output@@@__crt_stdio_output@@IAE_NAA_J@Z 1001fec9 f i libucrt:output.obj
 0001:0001eeef       ??$extract_argument_from_va_list@F_J@?$positional_parameter_base@DV?$stream_output_adapter@D@__crt_stdio_output@@@__crt_stdio_output@@IAE_NAA_J@Z 1001feef f i libucrt:output.obj
 0001:0001ef8d       ??$extract_argument_from_va_list@F_J@?$positional_parameter_base@DV?$string_output_adapter@D@__crt_stdio_output@@@__crt_stdio_output@@IAE_NAA_J@Z 1001ff8d f i libucrt:output.obj
 0001:0001f02b       ??$extract_argument_from_va_list@F_J@?$positional_parameter_base@_WV?$stream_output_adapter@_W@__crt_stdio_output@@@__crt_stdio_output@@IAE_NAA_J@Z 1002002b f i libucrt:output.obj
 0001:0001f0c9       ??$extract_argument_from_va_list@F_J@?$positional_parameter_base@_WV?$string_output_adapter@_W@__crt_stdio_output@@@__crt_stdio_output@@IAE_NAA_J@Z 100200c9 f i libucrt:output.obj
 0001:0001f167       ??$extract_argument_from_va_list@F_J@?$standard_base@DV?$stream_output_adapter@D@__crt_stdio_output@@@__crt_stdio_output@@IAE_NAA_J@Z 10020167 f i libucrt:output.obj
 0001:0001f18d       ??$extract_argument_from_va_list@F_J@?$standard_base@DV?$string_output_adapter@D@__crt_stdio_output@@@__crt_stdio_output@@IAE_NAA_J@Z 1002018d f i libucrt:output.obj
 0001:0001f1b3       ??$extract_argument_from_va_list@F_J@?$standard_base@_WV?$stream_output_adapter@_W@__crt_stdio_output@@@__crt_stdio_output@@IAE_NAA_J@Z 100201b3 f i libucrt:output.obj
 0001:0001f1d9       ??$extract_argument_from_va_list@F_J@?$standard_base@_WV?$string_output_adapter@_W@__crt_stdio_output@@@__crt_stdio_output@@IAE_NAA_J@Z 100201d9 f i libucrt:output.obj
 0001:0001f1ff       ??$extract_argument_from_va_list@GD@?$positional_parameter_base@DV?$stream_output_adapter@D@__crt_stdio_output@@@__crt_stdio_output@@IAE_NAAD@Z 100201ff f i libucrt:output.obj
 0001:0001f29c       ??$extract_argument_from_va_list@GD@?$positional_parameter_base@DV?$string_output_adapter@D@__crt_stdio_output@@@__crt_stdio_output@@IAE_NAAD@Z 1002029c f i libucrt:output.obj
 0001:0001f339       ??$extract_argument_from_va_list@GD@?$standard_base@DV?$stream_output_adapter@D@__crt_stdio_output@@@__crt_stdio_output@@IAE_NAAD@Z 10020339 f i libucrt:output.obj
 0001:0001f359       ??$extract_argument_from_va_list@GD@?$standard_base@DV?$string_output_adapter@D@__crt_stdio_output@@@__crt_stdio_output@@IAE_NAAD@Z 10020359 f i libucrt:output.obj
 0001:0001f379       ??$extract_argument_from_va_list@G_J@?$positional_parameter_base@DV?$stream_output_adapter@D@__crt_stdio_output@@@__crt_stdio_output@@IAE_NAA_J@Z 10020379 f i libucrt:output.obj
 0001:0001f417       ??$extract_argument_from_va_list@G_J@?$positional_parameter_base@DV?$string_output_adapter@D@__crt_stdio_output@@@__crt_stdio_output@@IAE_NAA_J@Z 10020417 f i libucrt:output.obj
 0001:0001f4b5       ??$extract_argument_from_va_list@G_J@?$positional_parameter_base@_WV?$stream_output_adapter@_W@__crt_stdio_output@@@__crt_stdio_output@@IAE_NAA_J@Z 100204b5 f i libucrt:output.obj
 0001:0001f553       ??$extract_argument_from_va_list@G_J@?$positional_parameter_base@_WV?$string_output_adapter@_W@__crt_stdio_output@@@__crt_stdio_output@@IAE_NAA_J@Z 10020553 f i libucrt:output.obj
 0001:0001f5f1       ??$extract_argument_from_va_list@G_J@?$standard_base@DV?$stream_output_adapter@D@__crt_stdio_output@@@__crt_stdio_output@@IAE_NAA_J@Z 100205f1 f i libucrt:output.obj
 0001:0001f617       ??$extract_argument_from_va_list@G_J@?$standard_base@DV?$string_output_adapter@D@__crt_stdio_output@@@__crt_stdio_output@@IAE_NAA_J@Z 10020617 f i libucrt:output.obj
 0001:0001f63d       ??$extract_argument_from_va_list@G_J@?$standard_base@_WV?$stream_output_adapter@_W@__crt_stdio_output@@@__crt_stdio_output@@IAE_NAA_J@Z 1002063d f i libucrt:output.obj
 0001:0001f663       ??$extract_argument_from_va_list@G_J@?$standard_base@_WV?$string_output_adapter@_W@__crt_stdio_output@@@__crt_stdio_output@@IAE_NAA_J@Z 10020663 f i libucrt:output.obj
 0001:0001f689       ??$extract_argument_from_va_list@H_J@?$positional_parameter_base@DV?$stream_output_adapter@D@__crt_stdio_output@@@__crt_stdio_output@@IAE_NAA_J@Z 10020689 f i libucrt:output.obj
 0001:0001f725       ??$extract_argument_from_va_list@H_J@?$positional_parameter_base@DV?$string_output_adapter@D@__crt_stdio_output@@@__crt_stdio_output@@IAE_NAA_J@Z 10020725 f i libucrt:output.obj
 0001:0001f7c1       ??$extract_argument_from_va_list@H_J@?$positional_parameter_base@_WV?$stream_output_adapter@_W@__crt_stdio_output@@@__crt_stdio_output@@IAE_NAA_J@Z 100207c1 f i libucrt:output.obj
 0001:0001f85d       ??$extract_argument_from_va_list@H_J@?$positional_parameter_base@_WV?$string_output_adapter@_W@__crt_stdio_output@@@__crt_stdio_output@@IAE_NAA_J@Z 1002085d f i libucrt:output.obj
 0001:0001f8f9       ??$extract_argument_from_va_list@H_J@?$standard_base@DV?$stream_output_adapter@D@__crt_stdio_output@@@__crt_stdio_output@@IAE_NAA_J@Z 100208f9 f i libucrt:output.obj
 0001:0001f91e       ??$extract_argument_from_va_list@H_J@?$standard_base@DV?$string_output_adapter@D@__crt_stdio_output@@@__crt_stdio_output@@IAE_NAA_J@Z 1002091e f i libucrt:output.obj
 0001:0001f943       ??$extract_argument_from_va_list@H_J@?$standard_base@_WV?$stream_output_adapter@_W@__crt_stdio_output@@@__crt_stdio_output@@IAE_NAA_J@Z 10020943 f i libucrt:output.obj
 0001:0001f968       ??$extract_argument_from_va_list@H_J@?$standard_base@_WV?$string_output_adapter@_W@__crt_stdio_output@@@__crt_stdio_output@@IAE_NAA_J@Z 10020968 f i libucrt:output.obj
 0001:0001f98d       ??$extract_argument_from_va_list@I_J@?$positional_parameter_base@DV?$stream_output_adapter@D@__crt_stdio_output@@@__crt_stdio_output@@IAE_NAA_J@Z 1002098d f i libucrt:output.obj
 0001:0001fa34       ??$extract_argument_from_va_list@I_J@?$positional_parameter_base@DV?$string_output_adapter@D@__crt_stdio_output@@@__crt_stdio_output@@IAE_NAA_J@Z 10020a34 f i libucrt:output.obj
 0001:0001fadb       ??$extract_argument_from_va_list@I_J@?$positional_parameter_base@_WV?$stream_output_adapter@_W@__crt_stdio_output@@@__crt_stdio_output@@IAE_NAA_J@Z 10020adb f i libucrt:output.obj
 0001:0001fb82       ??$extract_argument_from_va_list@I_J@?$positional_parameter_base@_WV?$string_output_adapter@_W@__crt_stdio_output@@@__crt_stdio_output@@IAE_NAA_J@Z 10020b82 f i libucrt:output.obj
 0001:0001fc29       ??$extract_argument_from_va_list@I_J@?$standard_base@DV?$stream_output_adapter@D@__crt_stdio_output@@@__crt_stdio_output@@IAE_NAA_J@Z 10020c29 f i libucrt:output.obj
 0001:0001fc4e       ??$extract_argument_from_va_list@I_J@?$standard_base@DV?$string_output_adapter@D@__crt_stdio_output@@@__crt_stdio_output@@IAE_NAA_J@Z 10020c4e f i libucrt:output.obj
 0001:0001fc73       ??$extract_argument_from_va_list@I_J@?$standard_base@_WV?$stream_output_adapter@_W@__crt_stdio_output@@@__crt_stdio_output@@IAE_NAA_J@Z 10020c73 f i libucrt:output.obj
 0001:0001fc98       ??$extract_argument_from_va_list@I_J@?$standard_base@_WV?$string_output_adapter@_W@__crt_stdio_output@@@__crt_stdio_output@@IAE_NAA_J@Z 10020c98 f i libucrt:output.obj
 0001:0001fcbd       ??$extract_argument_from_va_list@PADPAD@?$positional_parameter_base@DV?$stream_output_adapter@D@__crt_stdio_output@@@__crt_stdio_output@@IAE_NAAPAD@Z 10020cbd f i libucrt:output.obj
 0001:0001fd5a       ??$extract_argument_from_va_list@PADPAD@?$positional_parameter_base@DV?$string_output_adapter@D@__crt_stdio_output@@@__crt_stdio_output@@IAE_NAAPAD@Z 10020d5a f i libucrt:output.obj
 0001:0001fdf7       ??$extract_argument_from_va_list@PADPAD@?$positional_parameter_base@_WV?$stream_output_adapter@_W@__crt_stdio_output@@@__crt_stdio_output@@IAE_NAAPAD@Z 10020df7 f i libucrt:output.obj
 0001:0001fe94       ??$extract_argument_from_va_list@PADPAD@?$positional_parameter_base@_WV?$string_output_adapter@_W@__crt_stdio_output@@@__crt_stdio_output@@IAE_NAAPAD@Z 10020e94 f i libucrt:output.obj
 0001:0001ff31       ??$extract_argument_from_va_list@PADPAD@?$standard_base@DV?$stream_output_adapter@D@__crt_stdio_output@@@__crt_stdio_output@@IAE_NAAPAD@Z 10020f31 f i libucrt:output.obj
 0001:0001ff51       ??$extract_argument_from_va_list@PADPAD@?$standard_base@DV?$string_output_adapter@D@__crt_stdio_output@@@__crt_stdio_output@@IAE_NAAPAD@Z 10020f51 f i libucrt:output.obj
 0001:0001ff71       ??$extract_argument_from_va_list@PADPAD@?$standard_base@_WV?$stream_output_adapter@_W@__crt_stdio_output@@@__crt_stdio_output@@IAE_NAAPAD@Z 10020f71 f i libucrt:output.obj
 0001:0001ff91       ??$extract_argument_from_va_list@PADPAD@?$standard_base@_WV?$string_output_adapter@_W@__crt_stdio_output@@@__crt_stdio_output@@IAE_NAAPAD@Z 10020f91 f i libucrt:output.obj
 0001:0001ffb1       ??$extract_argument_from_va_list@PAUansi_string@?1??type_case_Z@?$output_processor@DV?$stream_output_adapter@D@__crt_stdio_output@@V?$format_validation_base@DV?$stream_output_adapter@D@__crt_stdio_output@@@2@@__crt_stdio_output@@AAE_NXZ@PAU1?1??234@AAE_NXZ@@?$standard_base@DV?$stream_output_adapter@D@__crt_stdio_output@@@__crt_stdio_output@@IAE_NAAPAUansi_string@?1??type_case_Z@?$output_processor@DV?$stream_output_adapter@D@__crt_stdio_output@@V?$format_validation_base@DV?$stream_output_adapter@D@__crt_stdio_output@@@2@@1@AAE_NXZ@@Z 10020fb1 f i libucrt:output.obj
 0001:0001ffd1       ??$extract_argument_from_va_list@PAUansi_string@?1??type_case_Z@?$output_processor@DV?$stream_output_adapter@D@__crt_stdio_output@@V?$positional_parameter_base@DV?$stream_output_adapter@D@__crt_stdio_output@@@2@@__crt_stdio_output@@AAE_NXZ@PAU1?1??234@AAE_NXZ@@?$positional_parameter_base@DV?$stream_output_adapter@D@__crt_stdio_output@@@__crt_stdio_output@@IAE_NAAPAUansi_string@?1??type_case_Z@?$output_processor@DV?$stream_output_adapter@D@__crt_stdio_output@@V?$positional_parameter_base@DV?$stream_output_adapter@D@__crt_stdio_output@@@2@@1@AAE_NXZ@@Z 10020fd1 f i libucrt:output.obj
 0001:0002006e       ??$extract_argument_from_va_list@PAUansi_string@?1??type_case_Z@?$output_processor@DV?$stream_output_adapter@D@__crt_stdio_output@@V?$positional_parameter_base@DV?$stream_output_adapter@D@__crt_stdio_output@@@2@@__crt_stdio_output@@AAE_NXZ@PAU1?1??234@AAE_NXZ@@?$standard_base@DV?$stream_output_adapter@D@__crt_stdio_output@@@__crt_stdio_output@@IAE_NAAPAUansi_string@?1??type_case_Z@?$output_processor@DV?$stream_output_adapter@D@__crt_stdio_output@@V?$positional_parameter_base@DV?$stream_output_adapter@D@__crt_stdio_output@@@2@@1@AAE_NXZ@@Z 1002106e f i libucrt:output.obj
 0001:0002008e       ??$extract_argument_from_va_list@PAUansi_string@?1??type_case_Z@?$output_processor@DV?$stream_output_adapter@D@__crt_stdio_output@@V?$standard_base@DV?$stream_output_adapter@D@__crt_stdio_output@@@2@@__crt_stdio_output@@AAE_NXZ@PAU1?1??234@AAE_NXZ@@?$standard_base@DV?$stream_output_adapter@D@__crt_stdio_output@@@__crt_stdio_output@@IAE_NAAPAUansi_string@?1??type_case_Z@?$output_processor@DV?$stream_output_adapter@D@__crt_stdio_output@@V?$standard_base@DV?$stream_output_adapter@D@__crt_stdio_output@@@2@@1@AAE_NXZ@@Z 1002108e f i libucrt:output.obj
 0001:000200ae       ??$extract_argument_from_va_list@PAUansi_string@?1??type_case_Z@?$output_processor@DV?$string_output_adapter@D@__crt_stdio_output@@V?$format_validation_base@DV?$string_output_adapter@D@__crt_stdio_output@@@2@@__crt_stdio_output@@AAE_NXZ@PAU1?1??234@AAE_NXZ@@?$standard_base@DV?$string_output_adapter@D@__crt_stdio_output@@@__crt_stdio_output@@IAE_NAAPAUansi_string@?1??type_case_Z@?$output_processor@DV?$string_output_adapter@D@__crt_stdio_output@@V?$format_validation_base@DV?$string_output_adapter@D@__crt_stdio_output@@@2@@1@AAE_NXZ@@Z 100210ae f i libucrt:output.obj
 0001:000200ce       ??$extract_argument_from_va_list@PAUansi_string@?1??type_case_Z@?$output_processor@DV?$string_output_adapter@D@__crt_stdio_output@@V?$positional_parameter_base@DV?$string_output_adapter@D@__crt_stdio_output@@@2@@__crt_stdio_output@@AAE_NXZ@PAU1?1??234@AAE_NXZ@@?$positional_parameter_base@DV?$string_output_adapter@D@__crt_stdio_output@@@__crt_stdio_output@@IAE_NAAPAUansi_string@?1??type_case_Z@?$output_processor@DV?$string_output_adapter@D@__crt_stdio_output@@V?$positional_parameter_base@DV?$string_output_adapter@D@__crt_stdio_output@@@2@@1@AAE_NXZ@@Z 100210ce f i libucrt:output.obj
 0001:0002016b       ??$extract_argument_from_va_list@PAUansi_string@?1??type_case_Z@?$output_processor@DV?$string_output_adapter@D@__crt_stdio_output@@V?$positional_parameter_base@DV?$string_output_adapter@D@__crt_stdio_output@@@2@@__crt_stdio_output@@AAE_NXZ@PAU1?1??234@AAE_NXZ@@?$standard_base@DV?$string_output_adapter@D@__crt_stdio_output@@@__crt_stdio_output@@IAE_NAAPAUansi_string@?1??type_case_Z@?$output_processor@DV?$string_output_adapter@D@__crt_stdio_output@@V?$positional_parameter_base@DV?$string_output_adapter@D@__crt_stdio_output@@@2@@1@AAE_NXZ@@Z 1002116b f i libucrt:output.obj
 0001:0002018b       ??$extract_argument_from_va_list@PAUansi_string@?1??type_case_Z@?$output_processor@DV?$string_output_adapter@D@__crt_stdio_output@@V?$standard_base@DV?$string_output_adapter@D@__crt_stdio_output@@@2@@__crt_stdio_output@@AAE_NXZ@PAU1?1??234@AAE_NXZ@@?$standard_base@DV?$string_output_adapter@D@__crt_stdio_output@@@__crt_stdio_output@@IAE_NAAPAUansi_string@?1??type_case_Z@?$output_processor@DV?$string_output_adapter@D@__crt_stdio_output@@V?$standard_base@DV?$string_output_adapter@D@__crt_stdio_output@@@2@@1@AAE_NXZ@@Z 1002118b f i libucrt:output.obj
 0001:000201ab       ??$extract_argument_from_va_list@PAUansi_string@?1??type_case_Z@?$output_processor@_WV?$stream_output_adapter@_W@__crt_stdio_output@@V?$format_validation_base@_WV?$stream_output_adapter@_W@__crt_stdio_output@@@2@@__crt_stdio_output@@AAE_NXZ@PAU1?1??234@AAE_NXZ@@?$standard_base@_WV?$stream_output_adapter@_W@__crt_stdio_output@@@__crt_stdio_output@@IAE_NAAPAUansi_string@?1??type_case_Z@?$output_processor@_WV?$stream_output_adapter@_W@__crt_stdio_output@@V?$format_validation_base@_WV?$stream_output_adapter@_W@__crt_stdio_output@@@2@@1@AAE_NXZ@@Z 100211ab f i libucrt:output.obj
 0001:000201cb       ??$extract_argument_from_va_list@PAUansi_string@?1??type_case_Z@?$output_processor@_WV?$stream_output_adapter@_W@__crt_stdio_output@@V?$positional_parameter_base@_WV?$stream_output_adapter@_W@__crt_stdio_output@@@2@@__crt_stdio_output@@AAE_NXZ@PAU1?1??234@AAE_NXZ@@?$positional_parameter_base@_WV?$stream_output_adapter@_W@__crt_stdio_output@@@__crt_stdio_output@@IAE_NAAPAUansi_string@?1??type_case_Z@?$output_processor@_WV?$stream_output_adapter@_W@__crt_stdio_output@@V?$positional_parameter_base@_WV?$stream_output_adapter@_W@__crt_stdio_output@@@2@@1@AAE_NXZ@@Z 100211cb f i libucrt:output.obj
 0001:00020268       ??$extract_argument_from_va_list@PAUansi_string@?1??type_case_Z@?$output_processor@_WV?$stream_output_adapter@_W@__crt_stdio_output@@V?$positional_parameter_base@_WV?$stream_output_adapter@_W@__crt_stdio_output@@@2@@__crt_stdio_output@@AAE_NXZ@PAU1?1??234@AAE_NXZ@@?$standard_base@_WV?$stream_output_adapter@_W@__crt_stdio_output@@@__crt_stdio_output@@IAE_NAAPAUansi_string@?1??type_case_Z@?$output_processor@_WV?$stream_output_adapter@_W@__crt_stdio_output@@V?$positional_parameter_base@_WV?$stream_output_adapter@_W@__crt_stdio_output@@@2@@1@AAE_NXZ@@Z 10021268 f i libucrt:output.obj
 0001:00020288       ??$extract_argument_from_va_list@PAUansi_string@?1??type_case_Z@?$output_processor@_WV?$stream_output_adapter@_W@__crt_stdio_output@@V?$standard_base@_WV?$stream_output_adapter@_W@__crt_stdio_output@@@2@@__crt_stdio_output@@AAE_NXZ@PAU1?1??234@AAE_NXZ@@?$standard_base@_WV?$stream_output_adapter@_W@__crt_stdio_output@@@__crt_stdio_output@@IAE_NAAPAUansi_string@?1??type_case_Z@?$output_processor@_WV?$stream_output_adapter@_W@__crt_stdio_output@@V?$standard_base@_WV?$stream_output_adapter@_W@__crt_stdio_output@@@2@@1@AAE_NXZ@@Z 10021288 f i libucrt:output.obj
 0001:000202a8       ??$extract_argument_from_va_list@PAUansi_string@?1??type_case_Z@?$output_processor@_WV?$string_output_adapter@_W@__crt_stdio_output@@V?$format_validation_base@_WV?$string_output_adapter@_W@__crt_stdio_output@@@2@@__crt_stdio_output@@AAE_NXZ@PAU1?1??234@AAE_NXZ@@?$standard_base@_WV?$string_output_adapter@_W@__crt_stdio_output@@@__crt_stdio_output@@IAE_NAAPAUansi_string@?1??type_case_Z@?$output_processor@_WV?$string_output_adapter@_W@__crt_stdio_output@@V?$format_validation_base@_WV?$string_output_adapter@_W@__crt_stdio_output@@@2@@1@AAE_NXZ@@Z 100212a8 f i libucrt:output.obj
 0001:000202c8       ??$extract_argument_from_va_list@PAUansi_string@?1??type_case_Z@?$output_processor@_WV?$string_output_adapter@_W@__crt_stdio_output@@V?$positional_parameter_base@_WV?$string_output_adapter@_W@__crt_stdio_output@@@2@@__crt_stdio_output@@AAE_NXZ@PAU1?1??234@AAE_NXZ@@?$positional_parameter_base@_WV?$string_output_adapter@_W@__crt_stdio_output@@@__crt_stdio_output@@IAE_NAAPAUansi_string@?1??type_case_Z@?$output_processor@_WV?$string_output_adapter@_W@__crt_stdio_output@@V?$positional_parameter_base@_WV?$string_output_adapter@_W@__crt_stdio_output@@@2@@1@AAE_NXZ@@Z 100212c8 f i libucrt:output.obj
 0001:00020365       ??$extract_argument_from_va_list@PAUansi_string@?1??type_case_Z@?$output_processor@_WV?$string_output_adapter@_W@__crt_stdio_output@@V?$positional_parameter_base@_WV?$string_output_adapter@_W@__crt_stdio_output@@@2@@__crt_stdio_output@@AAE_NXZ@PAU1?1??234@AAE_NXZ@@?$standard_base@_WV?$string_output_adapter@_W@__crt_stdio_output@@@__crt_stdio_output@@IAE_NAAPAUansi_string@?1??type_case_Z@?$output_processor@_WV?$string_output_adapter@_W@__crt_stdio_output@@V?$positional_parameter_base@_WV?$string_output_adapter@_W@__crt_stdio_output@@@2@@1@AAE_NXZ@@Z 10021365 f i libucrt:output.obj
 0001:00020385       ??$extract_argument_from_va_list@PAUansi_string@?1??type_case_Z@?$output_processor@_WV?$string_output_adapter@_W@__crt_stdio_output@@V?$standard_base@_WV?$string_output_adapter@_W@__crt_stdio_output@@@2@@__crt_stdio_output@@AAE_NXZ@PAU1?1??234@AAE_NXZ@@?$standard_base@_WV?$string_output_adapter@_W@__crt_stdio_output@@@__crt_stdio_output@@IAE_NAAPAUansi_string@?1??type_case_Z@?$output_processor@_WV?$string_output_adapter@_W@__crt_stdio_output@@V?$standard_base@_WV?$string_output_adapter@_W@__crt_stdio_output@@@2@@1@AAE_NXZ@@Z 10021385 f i libucrt:output.obj
 0001:000203a5       ??$extract_argument_from_va_list@PAXPAX@?$positional_parameter_base@DV?$stream_output_adapter@D@__crt_stdio_output@@@__crt_stdio_output@@IAE_NAAPAX@Z 100213a5 f i libucrt:output.obj
 0001:00020442       ??$extract_argument_from_va_list@PAXPAX@?$positional_parameter_base@DV?$string_output_adapter@D@__crt_stdio_output@@@__crt_stdio_output@@IAE_NAAPAX@Z 10021442 f i libucrt:output.obj
 0001:000204df       ??$extract_argument_from_va_list@PAXPAX@?$positional_parameter_base@_WV?$stream_output_adapter@_W@__crt_stdio_output@@@__crt_stdio_output@@IAE_NAAPAX@Z 100214df f i libucrt:output.obj
 0001:0002057c       ??$extract_argument_from_va_list@PAXPAX@?$positional_parameter_base@_WV?$string_output_adapter@_W@__crt_stdio_output@@@__crt_stdio_output@@IAE_NAAPAX@Z 1002157c f i libucrt:output.obj
 0001:00020619       ??$extract_argument_from_va_list@PAXPAX@?$standard_base@DV?$stream_output_adapter@D@__crt_stdio_output@@@__crt_stdio_output@@IAE_NAAPAX@Z 10021619 f i libucrt:output.obj
 0001:00020639       ??$extract_argument_from_va_list@PAXPAX@?$standard_base@DV?$string_output_adapter@D@__crt_stdio_output@@@__crt_stdio_output@@IAE_NAAPAX@Z 10021639 f i libucrt:output.obj
 0001:00020659       ??$extract_argument_from_va_list@PAXPAX@?$standard_base@_WV?$stream_output_adapter@_W@__crt_stdio_output@@@__crt_stdio_output@@IAE_NAAPAX@Z 10021659 f i libucrt:output.obj
 0001:00020679       ??$extract_argument_from_va_list@PAXPAX@?$standard_base@_WV?$string_output_adapter@_W@__crt_stdio_output@@@__crt_stdio_output@@IAE_NAAPAX@Z 10021679 f i libucrt:output.obj
 0001:00020699       ??$extract_argument_from_va_list@U_CRT_DOUBLE@@U1@@?$positional_parameter_base@DV?$stream_output_adapter@D@__crt_stdio_output@@@__crt_stdio_output@@IAE_NAAU_CRT_DOUBLE@@@Z 10021699 f i libucrt:output.obj
 0001:0002074a       ??$extract_argument_from_va_list@U_CRT_DOUBLE@@U1@@?$positional_parameter_base@DV?$string_output_adapter@D@__crt_stdio_output@@@__crt_stdio_output@@IAE_NAAU_CRT_DOUBLE@@@Z 1002174a f i libucrt:output.obj
 0001:000207fb       ??$extract_argument_from_va_list@U_CRT_DOUBLE@@U1@@?$positional_parameter_base@_WV?$stream_output_adapter@_W@__crt_stdio_output@@@__crt_stdio_output@@IAE_NAAU_CRT_DOUBLE@@@Z 100217fb f i libucrt:output.obj
 0001:000208ac       ??$extract_argument_from_va_list@U_CRT_DOUBLE@@U1@@?$positional_parameter_base@_WV?$string_output_adapter@_W@__crt_stdio_output@@@__crt_stdio_output@@IAE_NAAU_CRT_DOUBLE@@@Z 100218ac f i libucrt:output.obj
 0001:0002095d       ??$extract_argument_from_va_list@U_CRT_DOUBLE@@U1@@?$standard_base@DV?$stream_output_adapter@D@__crt_stdio_output@@@__crt_stdio_output@@IAE_NAAU_CRT_DOUBLE@@@Z 1002195d f i libucrt:output.obj
 0001:00020985       ??$extract_argument_from_va_list@U_CRT_DOUBLE@@U1@@?$standard_base@DV?$string_output_adapter@D@__crt_stdio_output@@@__crt_stdio_output@@IAE_NAAU_CRT_DOUBLE@@@Z 10021985 f i libucrt:output.obj
 0001:000209ad       ??$extract_argument_from_va_list@U_CRT_DOUBLE@@U1@@?$standard_base@_WV?$stream_output_adapter@_W@__crt_stdio_output@@@__crt_stdio_output@@IAE_NAAU_CRT_DOUBLE@@@Z 100219ad f i libucrt:output.obj
 0001:000209d5       ??$extract_argument_from_va_list@U_CRT_DOUBLE@@U1@@?$standard_base@_WV?$string_output_adapter@_W@__crt_stdio_output@@@__crt_stdio_output@@IAE_NAAU_CRT_DOUBLE@@@Z 100219d5 f i libucrt:output.obj
 0001:000209fd       ??$extract_argument_from_va_list@_J_J@?$positional_parameter_base@DV?$stream_output_adapter@D@__crt_stdio_output@@@__crt_stdio_output@@IAE_NAA_J@Z 100219fd f i libucrt:output.obj
 0001:00020aae       ??$extract_argument_from_va_list@_J_J@?$positional_parameter_base@DV?$string_output_adapter@D@__crt_stdio_output@@@__crt_stdio_output@@IAE_NAA_J@Z 10021aae f i libucrt:output.obj
 0001:00020b5f       ??$extract_argument_from_va_list@_J_J@?$positional_parameter_base@_WV?$stream_output_adapter@_W@__crt_stdio_output@@@__crt_stdio_output@@IAE_NAA_J@Z 10021b5f f i libucrt:output.obj
 0001:00020c10       ??$extract_argument_from_va_list@_J_J@?$positional_parameter_base@_WV?$string_output_adapter@_W@__crt_stdio_output@@@__crt_stdio_output@@IAE_NAA_J@Z 10021c10 f i libucrt:output.obj
 0001:00020cc1       ??$extract_argument_from_va_list@_J_J@?$standard_base@DV?$stream_output_adapter@D@__crt_stdio_output@@@__crt_stdio_output@@IAE_NAA_J@Z 10021cc1 f i libucrt:output.obj
 0001:00020ce9       ??$extract_argument_from_va_list@_J_J@?$standard_base@DV?$string_output_adapter@D@__crt_stdio_output@@@__crt_stdio_output@@IAE_NAA_J@Z 10021ce9 f i libucrt:output.obj
 0001:00020d11       ??$extract_argument_from_va_list@_J_J@?$standard_base@_WV?$stream_output_adapter@_W@__crt_stdio_output@@@__crt_stdio_output@@IAE_NAA_J@Z 10021d11 f i libucrt:output.obj
 0001:00020d39       ??$extract_argument_from_va_list@_J_J@?$standard_base@_WV?$string_output_adapter@_W@__crt_stdio_output@@@__crt_stdio_output@@IAE_NAA_J@Z 10021d39 f i libucrt:output.obj
 0001:00020d61       ??$extract_argument_from_va_list@_K_J@?$positional_parameter_base@DV?$stream_output_adapter@D@__crt_stdio_output@@@__crt_stdio_output@@IAE_NAA_J@Z 10021d61 f i libucrt:output.obj
 0001:00020e12       ??$extract_argument_from_va_list@_K_J@?$positional_parameter_base@DV?$string_output_adapter@D@__crt_stdio_output@@@__crt_stdio_output@@IAE_NAA_J@Z 10021e12 f i libucrt:output.obj
 0001:00020ec3       ??$extract_argument_from_va_list@_K_J@?$positional_parameter_base@_WV?$stream_output_adapter@_W@__crt_stdio_output@@@__crt_stdio_output@@IAE_NAA_J@Z 10021ec3 f i libucrt:output.obj
 0001:00020f74       ??$extract_argument_from_va_list@_K_J@?$positional_parameter_base@_WV?$string_output_adapter@_W@__crt_stdio_output@@@__crt_stdio_output@@IAE_NAA_J@Z 10021f74 f i libucrt:output.obj
 0001:00021025       ??$extract_argument_from_va_list@_K_J@?$standard_base@DV?$stream_output_adapter@D@__crt_stdio_output@@@__crt_stdio_output@@IAE_NAA_J@Z 10022025 f i libucrt:output.obj
 0001:0002104d       ??$extract_argument_from_va_list@_K_J@?$standard_base@DV?$string_output_adapter@D@__crt_stdio_output@@@__crt_stdio_output@@IAE_NAA_J@Z 1002204d f i libucrt:output.obj
 0001:00021075       ??$extract_argument_from_va_list@_K_J@?$standard_base@_WV?$stream_output_adapter@_W@__crt_stdio_output@@@__crt_stdio_output@@IAE_NAA_J@Z 10022075 f i libucrt:output.obj
 0001:0002109d       ??$extract_argument_from_va_list@_K_J@?$standard_base@_WV?$string_output_adapter@_W@__crt_stdio_output@@@__crt_stdio_output@@IAE_NAA_J@Z 1002209d f i libucrt:output.obj
 0001:000210c5       ??$extract_argument_from_va_list@_W_W@?$positional_parameter_base@DV?$stream_output_adapter@D@__crt_stdio_output@@@__crt_stdio_output@@IAE_NAA_W@Z 100220c5 f i libucrt:output.obj
 0001:00021167       ??$extract_argument_from_va_list@_W_W@?$positional_parameter_base@DV?$string_output_adapter@D@__crt_stdio_output@@@__crt_stdio_output@@IAE_NAA_W@Z 10022167 f i libucrt:output.obj
 0001:00021209       ??$extract_argument_from_va_list@_W_W@?$positional_parameter_base@_WV?$stream_output_adapter@_W@__crt_stdio_output@@@__crt_stdio_output@@IAE_NAA_W@Z 10022209 f i libucrt:output.obj
 0001:000212ab       ??$extract_argument_from_va_list@_W_W@?$positional_parameter_base@_WV?$string_output_adapter@_W@__crt_stdio_output@@@__crt_stdio_output@@IAE_NAA_W@Z 100222ab f i libucrt:output.obj
 0001:0002134d       ??$extract_argument_from_va_list@_W_W@?$standard_base@DV?$stream_output_adapter@D@__crt_stdio_output@@@__crt_stdio_output@@IAE_NAA_W@Z 1002234d f i libucrt:output.obj
 0001:00021370       ??$extract_argument_from_va_list@_W_W@?$standard_base@DV?$string_output_adapter@D@__crt_stdio_output@@@__crt_stdio_output@@IAE_NAA_W@Z 10022370 f i libucrt:output.obj
 0001:00021393       ??$extract_argument_from_va_list@_W_W@?$standard_base@_WV?$stream_output_adapter@_W@__crt_stdio_output@@@__crt_stdio_output@@IAE_NAA_W@Z 10022393 f i libucrt:output.obj
 0001:000213b6       ??$extract_argument_from_va_list@_W_W@?$standard_base@_WV?$string_output_adapter@_W@__crt_stdio_output@@@__crt_stdio_output@@IAE_NAA_W@Z 100223b6 f i libucrt:output.obj
 0001:000213d9       ??$get_parameter_type@D@?$positional_parameter_base@DV?$stream_output_adapter@D@__crt_stdio_output@@@__crt_stdio_output@@CA?AW4parameter_type@01@PAD@Z 100223d9 f i libucrt:output.obj
 0001:000213dd       ??$get_parameter_type@D@?$positional_parameter_base@DV?$string_output_adapter@D@__crt_stdio_output@@@__crt_stdio_output@@CA?AW4parameter_type@01@PAD@Z 100223dd f i libucrt:output.obj
 0001:000213e1       ??$get_parameter_type@D@?$positional_parameter_base@_WV?$stream_output_adapter@_W@__crt_stdio_output@@@__crt_stdio_output@@CA?AW4parameter_type@01@PAD@Z 100223e1 f i libucrt:output.obj
 0001:000213e5       ??$get_parameter_type@D@?$positional_parameter_base@_WV?$string_output_adapter@_W@__crt_stdio_output@@@__crt_stdio_output@@CA?AW4parameter_type@01@PAD@Z 100223e5 f i libucrt:output.obj
 0001:000213e9       ??$get_parameter_type@Uansi_string@?1??type_case_Z@?$output_processor@DV?$stream_output_adapter@D@__crt_stdio_output@@V?$positional_parameter_base@DV?$stream_output_adapter@D@__crt_stdio_output@@@2@@__crt_stdio_output@@AAE_NXZ@@?$positional_parameter_base@DV?$stream_output_adapter@D@__crt_stdio_output@@@__crt_stdio_output@@CA?AW4parameter_type@01@PAUansi_string@?1??type_case_Z@?$output_processor@DV?$stream_output_adapter@D@__crt_stdio_output@@V?$positional_parameter_base@DV?$stream_output_adapter@D@__crt_stdio_output@@@2@@1@AAE_NXZ@@Z 100223e9 f i libucrt:output.obj
 0001:000213ed       ??$get_parameter_type@Uansi_string@?1??type_case_Z@?$output_processor@DV?$string_output_adapter@D@__crt_stdio_output@@V?$positional_parameter_base@DV?$string_output_adapter@D@__crt_stdio_output@@@2@@__crt_stdio_output@@AAE_NXZ@@?$positional_parameter_base@DV?$string_output_adapter@D@__crt_stdio_output@@@__crt_stdio_output@@CA?AW4parameter_type@01@PAUansi_string@?1??type_case_Z@?$output_processor@DV?$string_output_adapter@D@__crt_stdio_output@@V?$positional_parameter_base@DV?$string_output_adapter@D@__crt_stdio_output@@@2@@1@AAE_NXZ@@Z 100223ed f i libucrt:output.obj
 0001:000213f1       ??$get_parameter_type@Uansi_string@?1??type_case_Z@?$output_processor@_WV?$stream_output_adapter@_W@__crt_stdio_output@@V?$positional_parameter_base@_WV?$stream_output_adapter@_W@__crt_stdio_output@@@2@@__crt_stdio_output@@AAE_NXZ@@?$positional_parameter_base@_WV?$stream_output_adapter@_W@__crt_stdio_output@@@__crt_stdio_output@@CA?AW4parameter_type@01@PAUansi_string@?1??type_case_Z@?$output_processor@_WV?$stream_output_adapter@_W@__crt_stdio_output@@V?$positional_parameter_base@_WV?$stream_output_adapter@_W@__crt_stdio_output@@@2@@1@AAE_NXZ@@Z 100223f1 f i libucrt:output.obj
 0001:000213f5       ??$get_parameter_type@Uansi_string@?1??type_case_Z@?$output_processor@_WV?$string_output_adapter@_W@__crt_stdio_output@@V?$positional_parameter_base@_WV?$string_output_adapter@_W@__crt_stdio_output@@@2@@__crt_stdio_output@@AAE_NXZ@@?$positional_parameter_base@_WV?$string_output_adapter@_W@__crt_stdio_output@@@__crt_stdio_output@@CA?AW4parameter_type@01@PAUansi_string@?1??type_case_Z@?$output_processor@_WV?$string_output_adapter@_W@__crt_stdio_output@@V?$positional_parameter_base@_WV?$string_output_adapter@_W@__crt_stdio_output@@@2@@1@AAE_NXZ@@Z 100223f5 f i libucrt:output.obj
 0001:000213f9       ??$get_parameter_type@X@?$positional_parameter_base@DV?$stream_output_adapter@D@__crt_stdio_output@@@__crt_stdio_output@@CA?AW4parameter_type@01@PAX@Z 100223f9 f i libucrt:output.obj
 0001:000213fd       ??$get_parameter_type@X@?$positional_parameter_base@DV?$string_output_adapter@D@__crt_stdio_output@@@__crt_stdio_output@@CA?AW4parameter_type@01@PAX@Z 100223fd f i libucrt:output.obj
 0001:00021401       ??$get_parameter_type@X@?$positional_parameter_base@_WV?$stream_output_adapter@_W@__crt_stdio_output@@@__crt_stdio_output@@CA?AW4parameter_type@01@PAX@Z 10022401 f i libucrt:output.obj
 0001:00021405       ??$get_parameter_type@X@?$positional_parameter_base@_WV?$string_output_adapter@_W@__crt_stdio_output@@@__crt_stdio_output@@CA?AW4parameter_type@01@PAX@Z 10022405 f i libucrt:output.obj
 0001:00021409       ??$is_character_specifier@D@?$positional_parameter_base@DV?$stream_output_adapter@D@__crt_stdio_output@@@__crt_stdio_output@@CA_ND@Z 10022409 f i libucrt:output.obj
 0001:00021428       ??$is_character_specifier@D@?$positional_parameter_base@DV?$string_output_adapter@D@__crt_stdio_output@@@__crt_stdio_output@@CA_ND@Z 10022428 f i libucrt:output.obj
 0001:00021447       ??$is_character_specifier@_W@?$positional_parameter_base@_WV?$stream_output_adapter@_W@__crt_stdio_output@@@__crt_stdio_output@@CA_N_W@Z 10022447 f i libucrt:output.obj
 0001:0002146a       ??$is_character_specifier@_W@?$positional_parameter_base@_WV?$string_output_adapter@_W@__crt_stdio_output@@@__crt_stdio_output@@CA_N_W@Z 1002246a f i libucrt:output.obj
 0001:0002148d       ??$is_integral_specifier@D@?$positional_parameter_base@DV?$stream_output_adapter@D@__crt_stdio_output@@@__crt_stdio_output@@CA_ND@Z 1002248d f i libucrt:output.obj
 0001:000214c5       ??$is_integral_specifier@D@?$positional_parameter_base@DV?$string_output_adapter@D@__crt_stdio_output@@@__crt_stdio_output@@CA_ND@Z 100224c5 f i libucrt:output.obj
 0001:000214fd       ??$is_integral_specifier@_W@?$positional_parameter_base@_WV?$stream_output_adapter@_W@__crt_stdio_output@@@__crt_stdio_output@@CA_N_W@Z 100224fd f i libucrt:output.obj
 0001:00021548       ??$is_integral_specifier@_W@?$positional_parameter_base@_WV?$string_output_adapter@_W@__crt_stdio_output@@@__crt_stdio_output@@CA_N_W@Z 10022548 f i libucrt:output.obj
 0001:00021593       ??$is_pointer_specifier@D@?$positional_parameter_base@DV?$stream_output_adapter@D@__crt_stdio_output@@@__crt_stdio_output@@CA_ND@Z 10022593 f i libucrt:output.obj
 0001:000215a7       ??$is_pointer_specifier@D@?$positional_parameter_base@DV?$string_output_adapter@D@__crt_stdio_output@@@__crt_stdio_output@@CA_ND@Z 100225a7 f i libucrt:output.obj
 0001:000215bb       ??$is_pointer_specifier@_W@?$positional_parameter_base@_WV?$stream_output_adapter@_W@__crt_stdio_output@@@__crt_stdio_output@@CA_N_W@Z 100225bb f i libucrt:output.obj
 0001:000215d0       ??$is_pointer_specifier@_W@?$positional_parameter_base@_WV?$string_output_adapter@_W@__crt_stdio_output@@@__crt_stdio_output@@CA_N_W@Z 100225d0 f i libucrt:output.obj
 0001:000215e5       ??$is_string_specifier@D@?$positional_parameter_base@DV?$stream_output_adapter@D@__crt_stdio_output@@@__crt_stdio_output@@CA_ND@Z 100225e5 f i libucrt:output.obj
 0001:00021604       ??$is_string_specifier@D@?$positional_parameter_base@DV?$string_output_adapter@D@__crt_stdio_output@@@__crt_stdio_output@@CA_ND@Z 10022604 f i libucrt:output.obj
 0001:00021623       ??$is_string_specifier@_W@?$positional_parameter_base@_WV?$stream_output_adapter@_W@__crt_stdio_output@@@__crt_stdio_output@@CA_N_W@Z 10022623 f i libucrt:output.obj
 0001:00021646       ??$is_string_specifier@_W@?$positional_parameter_base@_WV?$string_output_adapter@_W@__crt_stdio_output@@@__crt_stdio_output@@CA_N_W@Z 10022646 f i libucrt:output.obj
 0001:00021669       ??$is_wide_character_specifier@D@__crt_stdio_output@@YA_N_KDW4length_modifier@0@@Z 10022669 f i libucrt:output.obj
 0001:000216b9       ??$is_wide_character_specifier@_W@__crt_stdio_output@@YA_N_K_WW4length_modifier@0@@Z 100226b9 f i libucrt:output.obj
 0001:0002171b       ??$peek_va_arg@C@__crt_stdio_output@@YACPAD@Z 1002271b f i libucrt:output.obj
 0001:0002172a       ??$peek_va_arg@E@__crt_stdio_output@@YAEPAD@Z 1002272a f i libucrt:output.obj
 0001:00021739       ??$peek_va_arg@F@__crt_stdio_output@@YAFPAD@Z 10022739 f i libucrt:output.obj
 0001:00021749       ??$peek_va_arg@G@__crt_stdio_output@@YAGPAD@Z 10022749 f i libucrt:output.obj
 0001:00021759       ??$peek_va_arg@H@__crt_stdio_output@@YAHPAD@Z 10022759 f i libucrt:output.obj
 0001:00021768       ??$peek_va_arg@I@__crt_stdio_output@@YAIPAD@Z 10022768 f i libucrt:output.obj
 0001:00021777       ??$peek_va_arg@PAD@__crt_stdio_output@@YAPADPAD@Z 10022777 f i libucrt:output.obj
 0001:00021786       ??$peek_va_arg@PAUansi_string@?1??type_case_Z@?$output_processor@DV?$stream_output_adapter@D@__crt_stdio_output@@V?$positional_parameter_base@DV?$stream_output_adapter@D@__crt_stdio_output@@@2@@__crt_stdio_output@@AAE_NXZ@@__crt_stdio_output@@YAPAUansi_string@?1??type_case_Z@?$output_processor@DV?$stream_output_adapter@D@__crt_stdio_output@@V?$positional_parameter_base@DV?$stream_output_adapter@D@__crt_stdio_output@@@2@@0@AAE_NXZ@PAD@Z 10022786 f i libucrt:output.obj
 0001:00021795       ??$peek_va_arg@PAUansi_string@?1??type_case_Z@?$output_processor@DV?$string_output_adapter@D@__crt_stdio_output@@V?$positional_parameter_base@DV?$string_output_adapter@D@__crt_stdio_output@@@2@@__crt_stdio_output@@AAE_NXZ@@__crt_stdio_output@@YAPAUansi_string@?1??type_case_Z@?$output_processor@DV?$string_output_adapter@D@__crt_stdio_output@@V?$positional_parameter_base@DV?$string_output_adapter@D@__crt_stdio_output@@@2@@0@AAE_NXZ@PAD@Z 10022795 f i libucrt:output.obj
 0001:000217a4       ??$peek_va_arg@PAUansi_string@?1??type_case_Z@?$output_processor@_WV?$stream_output_adapter@_W@__crt_stdio_output@@V?$positional_parameter_base@_WV?$stream_output_adapter@_W@__crt_stdio_output@@@2@@__crt_stdio_output@@AAE_NXZ@@__crt_stdio_output@@YAPAUansi_string@?1??type_case_Z@?$output_processor@_WV?$stream_output_adapter@_W@__crt_stdio_output@@V?$positional_parameter_base@_WV?$stream_output_adapter@_W@__crt_stdio_output@@@2@@0@AAE_NXZ@PAD@Z 100227a4 f i libucrt:output.obj
 0001:000217b3       ??$peek_va_arg@PAUansi_string@?1??type_case_Z@?$output_processor@_WV?$string_output_adapter@_W@__crt_stdio_output@@V?$positional_parameter_base@_WV?$string_output_adapter@_W@__crt_stdio_output@@@2@@__crt_stdio_output@@AAE_NXZ@@__crt_stdio_output@@YAPAUansi_string@?1??type_case_Z@?$output_processor@_WV?$string_output_adapter@_W@__crt_stdio_output@@V?$positional_parameter_base@_WV?$string_output_adapter@_W@__crt_stdio_output@@@2@@0@AAE_NXZ@PAD@Z 100227b3 f i libucrt:output.obj
 0001:000217c2       ??$peek_va_arg@PAX@__crt_stdio_output@@YAPAXPAD@Z 100227c2 f i libucrt:output.obj
 0001:000217d1       ??$peek_va_arg@U_CRT_DOUBLE@@@__crt_stdio_output@@YA?AU_CRT_DOUBLE@@PAD@Z 100227d1 f i libucrt:output.obj
 0001:000217e3       ??$peek_va_arg@_J@__crt_stdio_output@@YA_JPAD@Z 100227e3 f i libucrt:output.obj
 0001:000217f5       ??$peek_va_arg@_K@__crt_stdio_output@@YA_KPAD@Z 100227f5 f i libucrt:output.obj
 0001:00021807       ??$peek_va_arg@_W@__crt_stdio_output@@YA_WPAD@Z 10022807 f i libucrt:output.obj
 0001:00021817       ??$puttc_nolock@ABDPAU_iobuf@@@?$__crt_char_traits@D@@SAHABD$$QAPAU_iobuf@@@Z 10022817 f i libucrt:output.obj
 0001:00021837       ??$puttc_nolock@AB_WPAU_iobuf@@@?$__crt_char_traits@_W@@SAGAB_W$$QAPAU_iobuf@@@Z 10022837 f i libucrt:output.obj
 0001:00021857       ??$read_va_arg@C@__crt_stdio_output@@YACAAPAD@Z 10022857 f i libucrt:output.obj
 0001:0002186d       ??$read_va_arg@E@__crt_stdio_output@@YAEAAPAD@Z 1002286d f i libucrt:output.obj
 0001:00021883       ??$read_va_arg@F@__crt_stdio_output@@YAFAAPAD@Z 10022883 f i libucrt:output.obj
 0001:0002189a       ??$read_va_arg@G@__crt_stdio_output@@YAGAAPAD@Z 1002289a f i libucrt:output.obj
 0001:000218b1       ??$read_va_arg@H@__crt_stdio_output@@YAHAAPAD@Z 100228b1 f i libucrt:output.obj
 0001:000218c7       ??$read_va_arg@I@__crt_stdio_output@@YAIAAPAD@Z 100228c7 f i libucrt:output.obj
 0001:000218dd       ??$read_va_arg@PAD@__crt_stdio_output@@YAPADAAPAD@Z 100228dd f i libucrt:output.obj
 0001:000218f3       ??$read_va_arg@PAUansi_string@?1??type_case_Z@?$output_processor@DV?$stream_output_adapter@D@__crt_stdio_output@@V?$format_validation_base@DV?$stream_output_adapter@D@__crt_stdio_output@@@2@@__crt_stdio_output@@AAE_NXZ@@__crt_stdio_output@@YAPAUansi_string@?1??type_case_Z@?$output_processor@DV?$stream_output_adapter@D@__crt_stdio_output@@V?$format_validation_base@DV?$stream_output_adapter@D@__crt_stdio_output@@@2@@0@AAE_NXZ@AAPAD@Z 100228f3 f i libucrt:output.obj
 0001:00021909       ??$read_va_arg@PAUansi_string@?1??type_case_Z@?$output_processor@DV?$stream_output_adapter@D@__crt_stdio_output@@V?$positional_parameter_base@DV?$stream_output_adapter@D@__crt_stdio_output@@@2@@__crt_stdio_output@@AAE_NXZ@@__crt_stdio_output@@YAPAUansi_string@?1??type_case_Z@?$output_processor@DV?$stream_output_adapter@D@__crt_stdio_output@@V?$positional_parameter_base@DV?$stream_output_adapter@D@__crt_stdio_output@@@2@@0@AAE_NXZ@AAPAD@Z 10022909 f i libucrt:output.obj
 0001:0002191f       ??$read_va_arg@PAUansi_string@?1??type_case_Z@?$output_processor@DV?$stream_output_adapter@D@__crt_stdio_output@@V?$standard_base@DV?$stream_output_adapter@D@__crt_stdio_output@@@2@@__crt_stdio_output@@AAE_NXZ@@__crt_stdio_output@@YAPAUansi_string@?1??type_case_Z@?$output_processor@DV?$stream_output_adapter@D@__crt_stdio_output@@V?$standard_base@DV?$stream_output_adapter@D@__crt_stdio_output@@@2@@0@AAE_NXZ@AAPAD@Z 1002291f f i libucrt:output.obj
 0001:00021935       ??$read_va_arg@PAUansi_string@?1??type_case_Z@?$output_processor@DV?$string_output_adapter@D@__crt_stdio_output@@V?$format_validation_base@DV?$string_output_adapter@D@__crt_stdio_output@@@2@@__crt_stdio_output@@AAE_NXZ@@__crt_stdio_output@@YAPAUansi_string@?1??type_case_Z@?$output_processor@DV?$string_output_adapter@D@__crt_stdio_output@@V?$format_validation_base@DV?$string_output_adapter@D@__crt_stdio_output@@@2@@0@AAE_NXZ@AAPAD@Z 10022935 f i libucrt:output.obj
 0001:0002194b       ??$read_va_arg@PAUansi_string@?1??type_case_Z@?$output_processor@DV?$string_output_adapter@D@__crt_stdio_output@@V?$positional_parameter_base@DV?$string_output_adapter@D@__crt_stdio_output@@@2@@__crt_stdio_output@@AAE_NXZ@@__crt_stdio_output@@YAPAUansi_string@?1??type_case_Z@?$output_processor@DV?$string_output_adapter@D@__crt_stdio_output@@V?$positional_parameter_base@DV?$string_output_adapter@D@__crt_stdio_output@@@2@@0@AAE_NXZ@AAPAD@Z 1002294b f i libucrt:output.obj
 0001:00021961       ??$read_va_arg@PAUansi_string@?1??type_case_Z@?$output_processor@DV?$string_output_adapter@D@__crt_stdio_output@@V?$standard_base@DV?$string_output_adapter@D@__crt_stdio_output@@@2@@__crt_stdio_output@@AAE_NXZ@@__crt_stdio_output@@YAPAUansi_string@?1??type_case_Z@?$output_processor@DV?$string_output_adapter@D@__crt_stdio_output@@V?$standard_base@DV?$string_output_adapter@D@__crt_stdio_output@@@2@@0@AAE_NXZ@AAPAD@Z 10022961 f i libucrt:output.obj
 0001:00021977       ??$read_va_arg@PAUansi_string@?1??type_case_Z@?$output_processor@_WV?$stream_output_adapter@_W@__crt_stdio_output@@V?$format_validation_base@_WV?$stream_output_adapter@_W@__crt_stdio_output@@@2@@__crt_stdio_output@@AAE_NXZ@@__crt_stdio_output@@YAPAUansi_string@?1??type_case_Z@?$output_processor@_WV?$stream_output_adapter@_W@__crt_stdio_output@@V?$format_validation_base@_WV?$stream_output_adapter@_W@__crt_stdio_output@@@2@@0@AAE_NXZ@AAPAD@Z 10022977 f i libucrt:output.obj
 0001:0002198d       ??$read_va_arg@PAUansi_string@?1??type_case_Z@?$output_processor@_WV?$stream_output_adapter@_W@__crt_stdio_output@@V?$positional_parameter_base@_WV?$stream_output_adapter@_W@__crt_stdio_output@@@2@@__crt_stdio_output@@AAE_NXZ@@__crt_stdio_output@@YAPAUansi_string@?1??type_case_Z@?$output_processor@_WV?$stream_output_adapter@_W@__crt_stdio_output@@V?$positional_parameter_base@_WV?$stream_output_adapter@_W@__crt_stdio_output@@@2@@0@AAE_NXZ@AAPAD@Z 1002298d f i libucrt:output.obj
 0001:000219a3       ??$read_va_arg@PAUansi_string@?1??type_case_Z@?$output_processor@_WV?$stream_output_adapter@_W@__crt_stdio_output@@V?$standard_base@_WV?$stream_output_adapter@_W@__crt_stdio_output@@@2@@__crt_stdio_output@@AAE_NXZ@@__crt_stdio_output@@YAPAUansi_string@?1??type_case_Z@?$output_processor@_WV?$stream_output_adapter@_W@__crt_stdio_output@@V?$standard_base@_WV?$stream_output_adapter@_W@__crt_stdio_output@@@2@@0@AAE_NXZ@AAPAD@Z 100229a3 f i libucrt:output.obj
 0001:000219b9       ??$read_va_arg@PAUansi_string@?1??type_case_Z@?$output_processor@_WV?$string_output_adapter@_W@__crt_stdio_output@@V?$format_validation_base@_WV?$string_output_adapter@_W@__crt_stdio_output@@@2@@__crt_stdio_output@@AAE_NXZ@@__crt_stdio_output@@YAPAUansi_string@?1??type_case_Z@?$output_processor@_WV?$string_output_adapter@_W@__crt_stdio_output@@V?$format_validation_base@_WV?$string_output_adapter@_W@__crt_stdio_output@@@2@@0@AAE_NXZ@AAPAD@Z 100229b9 f i libucrt:output.obj
 0001:000219cf       ??$read_va_arg@PAUansi_string@?1??type_case_Z@?$output_processor@_WV?$string_output_adapter@_W@__crt_stdio_output@@V?$positional_parameter_base@_WV?$string_output_adapter@_W@__crt_stdio_output@@@2@@__crt_stdio_output@@AAE_NXZ@@__crt_stdio_output@@YAPAUansi_string@?1??type_case_Z@?$output_processor@_WV?$string_output_adapter@_W@__crt_stdio_output@@V?$positional_parameter_base@_WV?$string_output_adapter@_W@__crt_stdio_output@@@2@@0@AAE_NXZ@AAPAD@Z 100229cf f i libucrt:output.obj
 0001:000219e5       ??$read_va_arg@PAUansi_string@?1??type_case_Z@?$output_processor@_WV?$string_output_adapter@_W@__crt_stdio_output@@V?$standard_base@_WV?$string_output_adapter@_W@__crt_stdio_output@@@2@@__crt_stdio_output@@AAE_NXZ@@__crt_stdio_output@@YAPAUansi_string@?1??type_case_Z@?$output_processor@_WV?$string_output_adapter@_W@__crt_stdio_output@@V?$standard_base@_WV?$string_output_adapter@_W@__crt_stdio_output@@@2@@0@AAE_NXZ@AAPAD@Z 100229e5 f i libucrt:output.obj
 0001:000219fb       ??$read_va_arg@PAX@__crt_stdio_output@@YAPAXAAPAD@Z 100229fb f i libucrt:output.obj
 0001:00021a11       ??$read_va_arg@U_CRT_DOUBLE@@@__crt_stdio_output@@YA?AU_CRT_DOUBLE@@AAPAD@Z 10022a11 f i libucrt:output.obj
 0001:00021a2b       ??$read_va_arg@_J@__crt_stdio_output@@YA_JAAPAD@Z 10022a2b f i libucrt:output.obj
 0001:00021a45       ??$read_va_arg@_K@__crt_stdio_output@@YA_KAAPAD@Z 10022a45 f i libucrt:output.obj
 0001:00021a5f       ??$read_va_arg@_W@__crt_stdio_output@@YA_WAAPAD@Z 10022a5f f i libucrt:output.obj
 0001:00021a76       ??$scratch_count@D@formatting_buffer@__crt_stdio_output@@QBEIXZ 10022a76 f i libucrt:output.obj
 0001:00021a7b       ??$scratch_data@D@formatting_buffer@__crt_stdio_output@@QAEPADXZ 10022a7b f i libucrt:output.obj
 0001:00021aa0       ??$tcstol@AAPBDPAPADH@?$__crt_char_traits@D@@SAJAAPBD$$QAPAPAD$$QAH@Z 10022aa0 f i libucrt:output.obj
 0001:00021ac5       ??$tcstol@AAPB_WPAPA_WH@?$__crt_char_traits@_W@@SAJAAPB_W$$QAPAPA_W$$QAH@Z 10022ac5 f i libucrt:output.obj
 0001:00021aea       ??$tcstol@PBDPAPADH@?$__crt_char_traits@D@@SAJ$$QAPBD$$QAPAPAD$$QAH@Z 10022aea f i libucrt:output.obj
 0001:00021b0f       ??$tcstol@PB_WPAPA_WH@?$__crt_char_traits@_W@@SAJ$$QAPB_W$$QAPAPA_W$$QAH@Z 10022b0f f i libucrt:output.obj
 0001:00021b34       ??$type_case_integer_parse_into_buffer@I@?$output_processor@DV?$stream_output_adapter@D@__crt_stdio_output@@V?$format_validation_base@DV?$stream_output_adapter@D@__crt_stdio_output@@@2@@__crt_stdio_output@@AAEXII_N@Z 10022b34 f i libucrt:output.obj
 0001:00021bc2       ??$type_case_integer_parse_into_buffer@I@?$output_processor@DV?$stream_output_adapter@D@__crt_stdio_output@@V?$positional_parameter_base@DV?$stream_output_adapter@D@__crt_stdio_output@@@2@@__crt_stdio_output@@AAEXII_N@Z 10022bc2 f i libucrt:output.obj
 0001:00021c50       ??$type_case_integer_parse_into_buffer@I@?$output_processor@DV?$stream_output_adapter@D@__crt_stdio_output@@V?$standard_base@DV?$stream_output_adapter@D@__crt_stdio_output@@@2@@__crt_stdio_output@@AAEXII_N@Z 10022c50 f i libucrt:output.obj
 0001:00021cde       ??$type_case_integer_parse_into_buffer@I@?$output_processor@DV?$string_output_adapter@D@__crt_stdio_output@@V?$format_validation_base@DV?$string_output_adapter@D@__crt_stdio_output@@@2@@__crt_stdio_output@@AAEXII_N@Z 10022cde f i libucrt:output.obj
 0001:00021d6c       ??$type_case_integer_parse_into_buffer@I@?$output_processor@DV?$string_output_adapter@D@__crt_stdio_output@@V?$positional_parameter_base@DV?$string_output_adapter@D@__crt_stdio_output@@@2@@__crt_stdio_output@@AAEXII_N@Z 10022d6c f i libucrt:output.obj
 0001:00021dfa       ??$type_case_integer_parse_into_buffer@I@?$output_processor@DV?$string_output_adapter@D@__crt_stdio_output@@V?$standard_base@DV?$string_output_adapter@D@__crt_stdio_output@@@2@@__crt_stdio_output@@AAEXII_N@Z 10022dfa f i libucrt:output.obj
 0001:00021e88       ??$type_case_integer_parse_into_buffer@I@?$output_processor@_WV?$stream_output_adapter@_W@__crt_stdio_output@@V?$format_validation_base@_WV?$stream_output_adapter@_W@__crt_stdio_output@@@2@@__crt_stdio_output@@AAEXII_N@Z 10022e88 f i libucrt:output.obj
 0001:00021f2f       ??$type_case_integer_parse_into_buffer@I@?$output_processor@_WV?$stream_output_adapter@_W@__crt_stdio_output@@V?$positional_parameter_base@_WV?$stream_output_adapter@_W@__crt_stdio_output@@@2@@__crt_stdio_output@@AAEXII_N@Z 10022f2f f i libucrt:output.obj
 0001:00021fd6       ??$type_case_integer_parse_into_buffer@I@?$output_processor@_WV?$stream_output_adapter@_W@__crt_stdio_output@@V?$standard_base@_WV?$stream_output_adapter@_W@__crt_stdio_output@@@2@@__crt_stdio_output@@AAEXII_N@Z 10022fd6 f i libucrt:output.obj
 0001:0002207d       ??$type_case_integer_parse_into_buffer@I@?$output_processor@_WV?$string_output_adapter@_W@__crt_stdio_output@@V?$format_validation_base@_WV?$string_output_adapter@_W@__crt_stdio_output@@@2@@__crt_stdio_output@@AAEXII_N@Z 1002307d f i libucrt:output.obj
 0001:00022124       ??$type_case_integer_parse_into_buffer@I@?$output_processor@_WV?$string_output_adapter@_W@__crt_stdio_output@@V?$positional_parameter_base@_WV?$string_output_adapter@_W@__crt_stdio_output@@@2@@__crt_stdio_output@@AAEXII_N@Z 10023124 f i libucrt:output.obj
 0001:000221cb       ??$type_case_integer_parse_into_buffer@I@?$output_processor@_WV?$string_output_adapter@_W@__crt_stdio_output@@V?$standard_base@_WV?$string_output_adapter@_W@__crt_stdio_output@@@2@@__crt_stdio_output@@AAEXII_N@Z 100231cb f i libucrt:output.obj
 0001:00022272       ??$type_case_integer_parse_into_buffer@_K@?$output_processor@DV?$stream_output_adapter@D@__crt_stdio_output@@V?$format_validation_base@DV?$stream_output_adapter@D@__crt_stdio_output@@@2@@__crt_stdio_output@@AAEX_KI_N@Z 10023272 f i libucrt:output.obj
 0001:0002231a       ??$type_case_integer_parse_into_buffer@_K@?$output_processor@DV?$stream_output_adapter@D@__crt_stdio_output@@V?$positional_parameter_base@DV?$stream_output_adapter@D@__crt_stdio_output@@@2@@__crt_stdio_output@@AAEX_KI_N@Z 1002331a f i libucrt:output.obj
 0001:000223c2       ??$type_case_integer_parse_into_buffer@_K@?$output_processor@DV?$stream_output_adapter@D@__crt_stdio_output@@V?$standard_base@DV?$stream_output_adapter@D@__crt_stdio_output@@@2@@__crt_stdio_output@@AAEX_KI_N@Z 100233c2 f i libucrt:output.obj
 0001:0002246a       ??$type_case_integer_parse_into_buffer@_K@?$output_processor@DV?$string_output_adapter@D@__crt_stdio_output@@V?$format_validation_base@DV?$string_output_adapter@D@__crt_stdio_output@@@2@@__crt_stdio_output@@AAEX_KI_N@Z 1002346a f i libucrt:output.obj
 0001:00022512       ??$type_case_integer_parse_into_buffer@_K@?$output_processor@DV?$string_output_adapter@D@__crt_stdio_output@@V?$positional_parameter_base@DV?$string_output_adapter@D@__crt_stdio_output@@@2@@__crt_stdio_output@@AAEX_KI_N@Z 10023512 f i libucrt:output.obj
 0001:000225ba       ??$type_case_integer_parse_into_buffer@_K@?$output_processor@DV?$string_output_adapter@D@__crt_stdio_output@@V?$standard_base@DV?$string_output_adapter@D@__crt_stdio_output@@@2@@__crt_stdio_output@@AAEX_KI_N@Z 100235ba f i libucrt:output.obj
 0001:00022662       ??$type_case_integer_parse_into_buffer@_K@?$output_processor@_WV?$stream_output_adapter@_W@__crt_stdio_output@@V?$format_validation_base@_WV?$stream_output_adapter@_W@__crt_stdio_output@@@2@@__crt_stdio_output@@AAEX_KI_N@Z 10023662 f i libucrt:output.obj
 0001:00022723       ??$type_case_integer_parse_into_buffer@_K@?$output_processor@_WV?$stream_output_adapter@_W@__crt_stdio_output@@V?$positional_parameter_base@_WV?$stream_output_adapter@_W@__crt_stdio_output@@@2@@__crt_stdio_output@@AAEX_KI_N@Z 10023723 f i libucrt:output.obj
 0001:000227e4       ??$type_case_integer_parse_into_buffer@_K@?$output_processor@_WV?$stream_output_adapter@_W@__crt_stdio_output@@V?$standard_base@_WV?$stream_output_adapter@_W@__crt_stdio_output@@@2@@__crt_stdio_output@@AAEX_KI_N@Z 100237e4 f i libucrt:output.obj
 0001:000228a5       ??$type_case_integer_parse_into_buffer@_K@?$output_processor@_WV?$string_output_adapter@_W@__crt_stdio_output@@V?$format_validation_base@_WV?$string_output_adapter@_W@__crt_stdio_output@@@2@@__crt_stdio_output@@AAEX_KI_N@Z 100238a5 f i libucrt:output.obj
 0001:00022966       ??$type_case_integer_parse_into_buffer@_K@?$output_processor@_WV?$string_output_adapter@_W@__crt_stdio_output@@V?$positional_parameter_base@_WV?$string_output_adapter@_W@__crt_stdio_output@@@2@@__crt_stdio_output@@AAEX_KI_N@Z 10023966 f i libucrt:output.obj
 0001:00022a27       ??$type_case_integer_parse_into_buffer@_K@?$output_processor@_WV?$string_output_adapter@_W@__crt_stdio_output@@V?$standard_base@_WV?$string_output_adapter@_W@__crt_stdio_output@@@2@@__crt_stdio_output@@AAEX_KI_N@Z 10023a27 f i libucrt:output.obj
 0001:00022ae8       ??$write_multiple_characters@V?$stream_output_adapter@D@__crt_stdio_output@@D@__crt_stdio_output@@YAXABV?$stream_output_adapter@D@0@DHQAH@Z 10023ae8 f i libucrt:output.obj
 0001:00022b1f       ??$write_multiple_characters@V?$stream_output_adapter@_W@__crt_stdio_output@@D@__crt_stdio_output@@YAXABV?$stream_output_adapter@_W@0@DHQAH@Z 10023b1f f i libucrt:output.obj
 0001:00022b5c       ??$write_multiple_characters@V?$string_output_adapter@D@__crt_stdio_output@@D@__crt_stdio_output@@YAXABV?$string_output_adapter@D@0@DHQAH@Z 10023b5c f i libucrt:output.obj
 0001:00022b93       ??$write_multiple_characters@V?$string_output_adapter@_W@__crt_stdio_output@@D@__crt_stdio_output@@YAXABV?$string_output_adapter@_W@0@DHQAH@Z 10023b93 f i libucrt:output.obj
 0001:00022e04       ??0?$common_data@D@__crt_stdio_output@@IAE@XZ 10023e04 f i libucrt:output.obj
 0001:00022e5c       ??0?$common_data@_W@__crt_stdio_output@@IAE@XZ 10023e5c f i libucrt:output.obj
 0001:00022ebb       ??0?$output_adapter_data@DV?$stream_output_adapter@D@__crt_stdio_output@@@__crt_stdio_output@@IAE@ABV?$stream_output_adapter@D@1@_KQBDQAU__crt_locale_pointers@@QAD@Z 10023ebb f i libucrt:output.obj
 0001:00022f06       ??0?$output_adapter_data@DV?$string_output_adapter@D@__crt_stdio_output@@@__crt_stdio_output@@IAE@ABV?$string_output_adapter@D@1@_KQBDQAU__crt_locale_pointers@@QAD@Z 10023f06 f i libucrt:output.obj
 0001:00022f51       ??0?$output_adapter_data@_WV?$stream_output_adapter@_W@__crt_stdio_output@@@__crt_stdio_output@@IAE@ABV?$stream_output_adapter@_W@1@_KQB_WQAU__crt_locale_pointers@@QAD@Z 10023f51 f i libucrt:output.obj
 0001:00022f9c       ??0?$output_adapter_data@_WV?$string_output_adapter@_W@__crt_stdio_output@@@__crt_stdio_output@@IAE@ABV?$string_output_adapter@_W@1@_KQB_WQAU__crt_locale_pointers@@QAD@Z 10023f9c f i libucrt:output.obj
 0001:00022fe7       ??0?$output_processor@DV?$stream_output_adapter@D@__crt_stdio_output@@V?$format_validation_base@DV?$stream_output_adapter@D@__crt_stdio_output@@@2@@__crt_stdio_output@@QAE@ABV?$stream_output_adapter@D@1@_KQBDQAU__crt_locale_pointers@@QAD@Z 10023fe7 f i libucrt:output.obj
 0001:0002301f       ??0?$output_processor@DV?$stream_output_adapter@D@__crt_stdio_output@@V?$positional_parameter_base@DV?$stream_output_adapter@D@__crt_stdio_output@@@2@@__crt_stdio_output@@QAE@ABV?$stream_output_adapter@D@1@_KQBDQAU__crt_locale_pointers@@QAD@Z 1002401f f i libucrt:output.obj
 0001:0002304f       ??0?$output_processor@DV?$stream_output_adapter@D@__crt_stdio_output@@V?$standard_base@DV?$stream_output_adapter@D@__crt_stdio_output@@@2@@__crt_stdio_output@@QAE@ABV?$stream_output_adapter@D@1@_KQBDQAU__crt_locale_pointers@@QAD@Z 1002404f f i libucrt:output.obj
 0001:00023087       ??0?$output_processor@DV?$string_output_adapter@D@__crt_stdio_output@@V?$format_validation_base@DV?$string_output_adapter@D@__crt_stdio_output@@@2@@__crt_stdio_output@@QAE@ABV?$string_output_adapter@D@1@_KQBDQAU__crt_locale_pointers@@QAD@Z 10024087 f i libucrt:output.obj
 0001:000230bf       ??0?$output_processor@DV?$string_output_adapter@D@__crt_stdio_output@@V?$positional_parameter_base@DV?$string_output_adapter@D@__crt_stdio_output@@@2@@__crt_stdio_output@@QAE@ABV?$string_output_adapter@D@1@_KQBDQAU__crt_locale_pointers@@QAD@Z 100240bf f i libucrt:output.obj
 0001:000230ef       ??0?$output_processor@DV?$string_output_adapter@D@__crt_stdio_output@@V?$standard_base@DV?$string_output_adapter@D@__crt_stdio_output@@@2@@__crt_stdio_output@@QAE@ABV?$string_output_adapter@D@1@_KQBDQAU__crt_locale_pointers@@QAD@Z 100240ef f i libucrt:output.obj
 0001:00023127       ??0?$output_processor@_WV?$stream_output_adapter@_W@__crt_stdio_output@@V?$format_validation_base@_WV?$stream_output_adapter@_W@__crt_stdio_output@@@2@@__crt_stdio_output@@QAE@ABV?$stream_output_adapter@_W@1@_KQB_WQAU__crt_locale_pointers@@QAD@Z 10024127 f i libucrt:output.obj
 0001:0002315f       ??0?$output_processor@_WV?$stream_output_adapter@_W@__crt_stdio_output@@V?$positional_parameter_base@_WV?$stream_output_adapter@_W@__crt_stdio_output@@@2@@__crt_stdio_output@@QAE@ABV?$stream_output_adapter@_W@1@_KQB_WQAU__crt_locale_pointers@@QAD@Z 1002415f f i libucrt:output.obj
 0001:0002318f       ??0?$output_processor@_WV?$stream_output_adapter@_W@__crt_stdio_output@@V?$standard_base@_WV?$stream_output_adapter@_W@__crt_stdio_output@@@2@@__crt_stdio_output@@QAE@ABV?$stream_output_adapter@_W@1@_KQB_WQAU__crt_locale_pointers@@QAD@Z 1002418f f i libucrt:output.obj
 0001:000231c7       ??0?$output_processor@_WV?$string_output_adapter@_W@__crt_stdio_output@@V?$format_validation_base@_WV?$string_output_adapter@_W@__crt_stdio_output@@@2@@__crt_stdio_output@@QAE@ABV?$string_output_adapter@_W@1@_KQB_WQAU__crt_locale_pointers@@QAD@Z 100241c7 f i libucrt:output.obj
 0001:000231ff       ??0?$output_processor@_WV?$string_output_adapter@_W@__crt_stdio_output@@V?$positional_parameter_base@_WV?$string_output_adapter@_W@__crt_stdio_output@@@2@@__crt_stdio_output@@QAE@ABV?$string_output_adapter@_W@1@_KQB_WQAU__crt_locale_pointers@@QAD@Z 100241ff f i libucrt:output.obj
 0001:0002322f       ??0?$output_processor@_WV?$string_output_adapter@_W@__crt_stdio_output@@V?$standard_base@_WV?$string_output_adapter@_W@__crt_stdio_output@@@2@@__crt_stdio_output@@QAE@ABV?$string_output_adapter@_W@1@_KQB_WQAU__crt_locale_pointers@@QAD@Z 1002422f f i libucrt:output.obj
 0001:00023267       ??0?$stream_output_adapter@D@__crt_stdio_output@@QAE@QAU_iobuf@@@Z 10024267 f i libucrt:output.obj
 0001:0002327b       ??0?$stream_output_adapter@_W@__crt_stdio_output@@QAE@QAU_iobuf@@@Z 1002427b f i libucrt:output.obj
 0001:0002328f       ??0?$string_output_adapter@D@__crt_stdio_output@@QAE@QAU?$string_output_adapter_context@D@1@@Z 1002428f f i libucrt:output.obj
 0001:000232a3       ??0?$string_output_adapter@_W@__crt_stdio_output@@QAE@QAU?$string_output_adapter_context@_W@1@@Z 100242a3 f i libucrt:output.obj
 0001:000232b7       ??0_LocaleUpdate@@QAE@QAU__crt_locale_pointers@@@Z 100242b7 f i libucrt:output.obj
 0001:0002335a       ??0__acrt_stdio_temporary_buffering_guard@@QAE@QAU_iobuf@@@Z 1002435a f i libucrt:output.obj
 0001:0002337f       ??0__crt_deferred_errno_cache@@QAE@XZ 1002437f f i libucrt:output.obj
 0001:00023385       ??0__crt_errno_guard@@QAE@QAH@Z 10024385 f i libucrt:output.obj
 0001:000233a3       ??0formatting_buffer@__crt_stdio_output@@QAE@XZ 100243a3 f i libucrt:output.obj
 0001:000233b8       ??1?$common_data@D@__crt_stdio_output@@QAE@XZ 100243b8 f i libucrt:output.obj
 0001:000233c2       ??1?$common_data@_W@__crt_stdio_output@@QAE@XZ 100243c2 f i libucrt:output.obj
 0001:000233cc       ??1?$format_validation_base@DV?$stream_output_adapter@D@__crt_stdio_output@@@__crt_stdio_output@@QAE@XZ 100243cc f i libucrt:output.obj
 0001:000233d6       ??1?$format_validation_base@DV?$string_output_adapter@D@__crt_stdio_output@@@__crt_stdio_output@@QAE@XZ 100243d6 f i libucrt:output.obj
 0001:000233e0       ??1?$format_validation_base@_WV?$stream_output_adapter@_W@__crt_stdio_output@@@__crt_stdio_output@@QAE@XZ 100243e0 f i libucrt:output.obj
 0001:000233ea       ??1?$format_validation_base@_WV?$string_output_adapter@_W@__crt_stdio_output@@@__crt_stdio_output@@QAE@XZ 100243ea f i libucrt:output.obj
 0001:000233f4       ??1?$output_adapter_data@DV?$stream_output_adapter@D@__crt_stdio_output@@@__crt_stdio_output@@QAE@XZ 100243f4 f i libucrt:output.obj
 0001:000233fe       ??1?$output_adapter_data@DV?$string_output_adapter@D@__crt_stdio_output@@@__crt_stdio_output@@QAE@XZ 100243fe f i libucrt:output.obj
 0001:00023408       ??1?$output_adapter_data@_WV?$stream_output_adapter@_W@__crt_stdio_output@@@__crt_stdio_output@@QAE@XZ 10024408 f i libucrt:output.obj
 0001:00023412       ??1?$output_adapter_data@_WV?$string_output_adapter@_W@__crt_stdio_output@@@__crt_stdio_output@@QAE@XZ 10024412 f i libucrt:output.obj
 0001:0002341c       ??1?$output_processor@DV?$stream_output_adapter@D@__crt_stdio_output@@V?$format_validation_base@DV?$stream_output_adapter@D@__crt_stdio_output@@@2@@__crt_stdio_output@@QAE@XZ 1002441c f i libucrt:output.obj
 0001:00023426       ??1?$output_processor@DV?$stream_output_adapter@D@__crt_stdio_output@@V?$positional_parameter_base@DV?$stream_output_adapter@D@__crt_stdio_output@@@2@@__crt_stdio_output@@QAE@XZ 10024426 f i libucrt:output.obj
 0001:00023430       ??1?$output_processor@DV?$stream_output_adapter@D@__crt_stdio_output@@V?$standard_base@DV?$stream_output_adapter@D@__crt_stdio_output@@@2@@__crt_stdio_output@@QAE@XZ 10024430 f i libucrt:output.obj
 0001:0002343a       ??1?$output_processor@DV?$string_output_adapter@D@__crt_stdio_output@@V?$format_validation_base@DV?$string_output_adapter@D@__crt_stdio_output@@@2@@__crt_stdio_output@@QAE@XZ 1002443a f i libucrt:output.obj
 0001:00023444       ??1?$output_processor@DV?$string_output_adapter@D@__crt_stdio_output@@V?$positional_parameter_base@DV?$string_output_adapter@D@__crt_stdio_output@@@2@@__crt_stdio_output@@QAE@XZ 10024444 f i libucrt:output.obj
 0001:0002344e       ??1?$output_processor@DV?$string_output_adapter@D@__crt_stdio_output@@V?$standard_base@DV?$string_output_adapter@D@__crt_stdio_output@@@2@@__crt_stdio_output@@QAE@XZ 1002444e f i libucrt:output.obj
 0001:00023458       ??1?$output_processor@_WV?$stream_output_adapter@_W@__crt_stdio_output@@V?$format_validation_base@_WV?$stream_output_adapter@_W@__crt_stdio_output@@@2@@__crt_stdio_output@@QAE@XZ 10024458 f i libucrt:output.obj
 0001:00023462       ??1?$output_processor@_WV?$stream_output_adapter@_W@__crt_stdio_output@@V?$positional_parameter_base@_WV?$stream_output_adapter@_W@__crt_stdio_output@@@2@@__crt_stdio_output@@QAE@XZ 10024462 f i libucrt:output.obj
 0001:0002346c       ??1?$output_processor@_WV?$stream_output_adapter@_W@__crt_stdio_output@@V?$standard_base@_WV?$stream_output_adapter@_W@__crt_stdio_output@@@2@@__crt_stdio_output@@QAE@XZ 1002446c f i libucrt:output.obj
 0001:00023476       ??1?$output_processor@_WV?$string_output_adapter@_W@__crt_stdio_output@@V?$format_validation_base@_WV?$string_output_adapter@_W@__crt_stdio_output@@@2@@__crt_stdio_output@@QAE@XZ 10024476 f i libucrt:output.obj
 0001:00023480       ??1?$output_processor@_WV?$string_output_adapter@_W@__crt_stdio_output@@V?$positional_parameter_base@_WV?$string_output_adapter@_W@__crt_stdio_output@@@2@@__crt_stdio_output@@QAE@XZ 10024480 f i libucrt:output.obj
 0001:0002348a       ??1?$output_processor@_WV?$string_output_adapter@_W@__crt_stdio_output@@V?$standard_base@_WV?$string_output_adapter@_W@__crt_stdio_output@@@2@@__crt_stdio_output@@QAE@XZ 1002448a f i libucrt:output.obj
 0001:00023494       ??1?$positional_parameter_base@DV?$stream_output_adapter@D@__crt_stdio_output@@@__crt_stdio_output@@QAE@XZ 10024494 f i libucrt:output.obj
 0001:0002349e       ??1?$positional_parameter_base@DV?$string_output_adapter@D@__crt_stdio_output@@@__crt_stdio_output@@QAE@XZ 1002449e f i libucrt:output.obj
 0001:000234a8       ??1?$positional_parameter_base@_WV?$stream_output_adapter@_W@__crt_stdio_output@@@__crt_stdio_output@@QAE@XZ 100244a8 f i libucrt:output.obj
 0001:000234b2       ??1?$positional_parameter_base@_WV?$string_output_adapter@_W@__crt_stdio_output@@@__crt_stdio_output@@QAE@XZ 100244b2 f i libucrt:output.obj
 0001:000234bc       ??1?$standard_base@DV?$stream_output_adapter@D@__crt_stdio_output@@@__crt_stdio_output@@QAE@XZ 100244bc f i libucrt:output.obj
 0001:000234c6       ??1?$standard_base@DV?$string_output_adapter@D@__crt_stdio_output@@@__crt_stdio_output@@QAE@XZ 100244c6 f i libucrt:output.obj
 0001:000234d0       ??1?$standard_base@_WV?$stream_output_adapter@_W@__crt_stdio_output@@@__crt_stdio_output@@QAE@XZ 100244d0 f i libucrt:output.obj
 0001:000234da       ??1?$standard_base@_WV?$string_output_adapter@_W@__crt_stdio_output@@@__crt_stdio_output@@QAE@XZ 100244da f i libucrt:output.obj
 0001:000234e4       ??1_LocaleUpdate@@QAE@XZ   100244e4 f i libucrt:output.obj
 0001:000234f8       ??1__acrt_stdio_temporary_buffering_guard@@QAE@XZ 100244f8 f i libucrt:output.obj
 0001:0002350a       ??1__crt_errno_guard@@QAE@XZ 1002450a f i libucrt:output.obj
 0001:0002351f       ??1formatting_buffer@__crt_stdio_output@@QAE@XZ 1002451f f i libucrt:output.obj
 0001:0002353f       ??4?$__crt_unique_heap_ptr@DU__crt_internal_free_policy@@@@QAEAAV0@$$QAV0@@Z 1002453f f i libucrt:output.obj
 0001:00023c1a       ?GetLocaleT@_LocaleUpdate@@QAEPAU__crt_locale_pointers@@XZ 10024c1a f i libucrt:output.obj
 0001:00023c1e       ?__crt_interlocked_read_32@@YAHPDH@Z 10024c1e f i libucrt:output.obj
 0001:00023c2d       ?adjust_hexit@?$output_processor@DV?$stream_output_adapter@D@__crt_stdio_output@@V?$format_validation_base@DV?$stream_output_adapter@D@__crt_stdio_output@@@2@@__crt_stdio_output@@CADH_N@Z 10024c2d f i libucrt:output.obj
 0001:00023c52       ?adjust_hexit@?$output_processor@DV?$stream_output_adapter@D@__crt_stdio_output@@V?$positional_parameter_base@DV?$stream_output_adapter@D@__crt_stdio_output@@@2@@__crt_stdio_output@@CADH_N@Z 10024c52 f i libucrt:output.obj
 0001:00023c77       ?adjust_hexit@?$output_processor@DV?$stream_output_adapter@D@__crt_stdio_output@@V?$standard_base@DV?$stream_output_adapter@D@__crt_stdio_output@@@2@@__crt_stdio_output@@CADH_N@Z 10024c77 f i libucrt:output.obj
 0001:00023c9c       ?adjust_hexit@?$output_processor@DV?$string_output_adapter@D@__crt_stdio_output@@V?$format_validation_base@DV?$string_output_adapter@D@__crt_stdio_output@@@2@@__crt_stdio_output@@CADH_N@Z 10024c9c f i libucrt:output.obj
 0001:00023cc1       ?adjust_hexit@?$output_processor@DV?$string_output_adapter@D@__crt_stdio_output@@V?$positional_parameter_base@DV?$string_output_adapter@D@__crt_stdio_output@@@2@@__crt_stdio_output@@CADH_N@Z 10024cc1 f i libucrt:output.obj
 0001:00023ce6       ?adjust_hexit@?$output_processor@DV?$string_output_adapter@D@__crt_stdio_output@@V?$standard_base@DV?$string_output_adapter@D@__crt_stdio_output@@@2@@__crt_stdio_output@@CADH_N@Z 10024ce6 f i libucrt:output.obj
 0001:00023d0b       ?adjust_hexit@?$output_processor@_WV?$stream_output_adapter@_W@__crt_stdio_output@@V?$format_validation_base@_WV?$stream_output_adapter@_W@__crt_stdio_output@@@2@@__crt_stdio_output@@CADH_N@Z 10024d0b f i libucrt:output.obj
 0001:00023d30       ?adjust_hexit@?$output_processor@_WV?$stream_output_adapter@_W@__crt_stdio_output@@V?$positional_parameter_base@_WV?$stream_output_adapter@_W@__crt_stdio_output@@@2@@__crt_stdio_output@@CADH_N@Z 10024d30 f i libucrt:output.obj
 0001:00023d55       ?adjust_hexit@?$output_processor@_WV?$stream_output_adapter@_W@__crt_stdio_output@@V?$standard_base@_WV?$stream_output_adapter@_W@__crt_stdio_output@@@2@@__crt_stdio_output@@CADH_N@Z 10024d55 f i libucrt:output.obj
 0001:00023d7a       ?adjust_hexit@?$output_processor@_WV?$string_output_adapter@_W@__crt_stdio_output@@V?$format_validation_base@_WV?$string_output_adapter@_W@__crt_stdio_output@@@2@@__crt_stdio_output@@CADH_N@Z 10024d7a f i libucrt:output.obj
 0001:00023d9f       ?adjust_hexit@?$output_processor@_WV?$string_output_adapter@_W@__crt_stdio_output@@V?$positional_parameter_base@_WV?$string_output_adapter@_W@__crt_stdio_output@@@2@@__crt_stdio_output@@CADH_N@Z 10024d9f f i libucrt:output.obj
 0001:00023dc4       ?adjust_hexit@?$output_processor@_WV?$string_output_adapter@_W@__crt_stdio_output@@V?$standard_base@_WV?$string_output_adapter@_W@__crt_stdio_output@@@2@@__crt_stdio_output@@CADH_N@Z 10024dc4 f i libucrt:output.obj
 0001:00023de9       ?advance_to_next_pass@?$positional_parameter_base@DV?$stream_output_adapter@D@__crt_stdio_output@@@__crt_stdio_output@@IAE_NXZ 10024de9 f i libucrt:output.obj
 0001:00023e48       ?advance_to_next_pass@?$positional_parameter_base@DV?$string_output_adapter@D@__crt_stdio_output@@@__crt_stdio_output@@IAE_NXZ 10024e48 f i libucrt:output.obj
 0001:00023ea7       ?advance_to_next_pass@?$positional_parameter_base@_WV?$stream_output_adapter@_W@__crt_stdio_output@@@__crt_stdio_output@@IAE_NXZ 10024ea7 f i libucrt:output.obj
 0001:00023f06       ?advance_to_next_pass@?$positional_parameter_base@_WV?$string_output_adapter@_W@__crt_stdio_output@@@__crt_stdio_output@@IAE_NXZ 10024f06 f i libucrt:output.obj
 0001:00023f65       ?advance_to_next_pass@?$standard_base@DV?$stream_output_adapter@D@__crt_stdio_output@@@__crt_stdio_output@@IAE_NXZ 10024f65 f i libucrt:output.obj
 0001:00023f7c       ?advance_to_next_pass@?$standard_base@DV?$string_output_adapter@D@__crt_stdio_output@@@__crt_stdio_output@@IAE_NXZ 10024f7c f i libucrt:output.obj
 0001:00023f93       ?advance_to_next_pass@?$standard_base@_WV?$stream_output_adapter@_W@__crt_stdio_output@@@__crt_stdio_output@@IAE_NXZ 10024f93 f i libucrt:output.obj
 0001:00023faa       ?advance_to_next_pass@?$standard_base@_WV?$string_output_adapter@_W@__crt_stdio_output@@@__crt_stdio_output@@IAE_NXZ 10024faa f i libucrt:output.obj
 0001:00023fc1       ?crop_zeroes@__crt_stdio_output@@YAXPADQAU__crt_locale_pointers@@@Z 10024fc1 f i libucrt:output.obj
 0001:0002402d       ?find_next_state@?$output_processor@DV?$stream_output_adapter@D@__crt_stdio_output@@V?$format_validation_base@DV?$stream_output_adapter@D@__crt_stdio_output@@@2@@__crt_stdio_output@@ABE?AW4state@2@DW432@@Z 1002502d f i libucrt:output.obj
 0001:0002406f       ?find_next_state@?$output_processor@DV?$stream_output_adapter@D@__crt_stdio_output@@V?$positional_parameter_base@DV?$stream_output_adapter@D@__crt_stdio_output@@@2@@__crt_stdio_output@@ABE?AW4state@2@DW432@@Z 1002506f f i libucrt:output.obj
 0001:000240b1       ?find_next_state@?$output_processor@DV?$stream_output_adapter@D@__crt_stdio_output@@V?$standard_base@DV?$stream_output_adapter@D@__crt_stdio_output@@@2@@__crt_stdio_output@@ABE?AW4state@2@DW432@@Z 100250b1 f i libucrt:output.obj
 0001:000240ef       ?find_next_state@?$output_processor@DV?$string_output_adapter@D@__crt_stdio_output@@V?$format_validation_base@DV?$string_output_adapter@D@__crt_stdio_output@@@2@@__crt_stdio_output@@ABE?AW4state@2@DW432@@Z 100250ef f i libucrt:output.obj
 0001:00024131       ?find_next_state@?$output_processor@DV?$string_output_adapter@D@__crt_stdio_output@@V?$positional_parameter_base@DV?$string_output_adapter@D@__crt_stdio_output@@@2@@__crt_stdio_output@@ABE?AW4state@2@DW432@@Z 10025131 f i libucrt:output.obj
 0001:00024173       ?find_next_state@?$output_processor@DV?$string_output_adapter@D@__crt_stdio_output@@V?$standard_base@DV?$string_output_adapter@D@__crt_stdio_output@@@2@@__crt_stdio_output@@ABE?AW4state@2@DW432@@Z 10025173 f i libucrt:output.obj
 0001:000241b1       ?find_next_state@?$output_processor@_WV?$stream_output_adapter@_W@__crt_stdio_output@@V?$format_validation_base@_WV?$stream_output_adapter@_W@__crt_stdio_output@@@2@@__crt_stdio_output@@ABE?AW4state@2@_WW432@@Z 100251b1 f i libucrt:output.obj
 0001:000241f5       ?find_next_state@?$output_processor@_WV?$stream_output_adapter@_W@__crt_stdio_output@@V?$positional_parameter_base@_WV?$stream_output_adapter@_W@__crt_stdio_output@@@2@@__crt_stdio_output@@ABE?AW4state@2@_WW432@@Z 100251f5 f i libucrt:output.obj
 0001:00024239       ?find_next_state@?$output_processor@_WV?$stream_output_adapter@_W@__crt_stdio_output@@V?$standard_base@_WV?$stream_output_adapter@_W@__crt_stdio_output@@@2@@__crt_stdio_output@@ABE?AW4state@2@_WW432@@Z 10025239 f i libucrt:output.obj
 0001:0002427a       ?find_next_state@?$output_processor@_WV?$string_output_adapter@_W@__crt_stdio_output@@V?$format_validation_base@_WV?$string_output_adapter@_W@__crt_stdio_output@@@2@@__crt_stdio_output@@ABE?AW4state@2@_WW432@@Z 1002527a f i libucrt:output.obj
 0001:000242be       ?find_next_state@?$output_processor@_WV?$string_output_adapter@_W@__crt_stdio_output@@V?$positional_parameter_base@_WV?$string_output_adapter@_W@__crt_stdio_output@@@2@@__crt_stdio_output@@ABE?AW4state@2@_WW432@@Z 100252be f i libucrt:output.obj
 0001:00024302       ?find_next_state@?$output_processor@_WV?$string_output_adapter@_W@__crt_stdio_output@@V?$standard_base@_WV?$string_output_adapter@_W@__crt_stdio_output@@@2@@__crt_stdio_output@@ABE?AW4state@2@_WW432@@Z 10025302 f i libucrt:output.obj
 0001:00024343       ?force_decimal_point@__crt_stdio_output@@YAXPADQAU__crt_locale_pointers@@@Z 10025343 f i libucrt:output.obj
 0001:000243b6       ?get@__crt_deferred_errno_cache@@QAEAAHXZ 100253b6 f i libucrt:output.obj
 0001:000243d0       ?get_flags@__crt_stdio_stream@@QBEJXZ 100253d0 f i libucrt:output.obj
 0001:000243d6       ?get_parameter_type@?$positional_parameter_base@DV?$stream_output_adapter@D@__crt_stdio_output@@@__crt_stdio_output@@CA?AW4parameter_type@12@F@Z 100253d6 f i libucrt:output.obj
 0001:000243da       ?get_parameter_type@?$positional_parameter_base@DV?$stream_output_adapter@D@__crt_stdio_output@@@__crt_stdio_output@@CA?AW4parameter_type@12@G@Z 100253da f i libucrt:output.obj
 0001:000243de       ?get_parameter_type@?$positional_parameter_base@DV?$stream_output_adapter@D@__crt_stdio_output@@@__crt_stdio_output@@CA?AW4parameter_type@12@H@Z 100253de f i libucrt:output.obj
 0001:000243e2       ?get_parameter_type@?$positional_parameter_base@DV?$stream_output_adapter@D@__crt_stdio_output@@@__crt_stdio_output@@CA?AW4parameter_type@12@I@Z 100253e2 f i libucrt:output.obj
 0001:000243e6       ?get_parameter_type@?$positional_parameter_base@DV?$stream_output_adapter@D@__crt_stdio_output@@@__crt_stdio_output@@CA?AW4parameter_type@12@U_CRT_DOUBLE@@@Z 100253e6 f i libucrt:output.obj
 0001:000243ea       ?get_parameter_type@?$positional_parameter_base@DV?$stream_output_adapter@D@__crt_stdio_output@@@__crt_stdio_output@@CA?AW4parameter_type@12@_J@Z 100253ea f i libucrt:output.obj
 0001:000243ee       ?get_parameter_type@?$positional_parameter_base@DV?$stream_output_adapter@D@__crt_stdio_output@@@__crt_stdio_output@@CA?AW4parameter_type@12@_K@Z 100253ee f i libucrt:output.obj
 0001:000243f2       ?get_parameter_type@?$positional_parameter_base@DV?$stream_output_adapter@D@__crt_stdio_output@@@__crt_stdio_output@@CA?AW4parameter_type@12@_W@Z 100253f2 f i libucrt:output.obj
 0001:000243f6       ?get_parameter_type@?$positional_parameter_base@DV?$string_output_adapter@D@__crt_stdio_output@@@__crt_stdio_output@@CA?AW4parameter_type@12@F@Z 100253f6 f i libucrt:output.obj
 0001:000243fa       ?get_parameter_type@?$positional_parameter_base@DV?$string_output_adapter@D@__crt_stdio_output@@@__crt_stdio_output@@CA?AW4parameter_type@12@G@Z 100253fa f i libucrt:output.obj
 0001:000243fe       ?get_parameter_type@?$positional_parameter_base@DV?$string_output_adapter@D@__crt_stdio_output@@@__crt_stdio_output@@CA?AW4parameter_type@12@H@Z 100253fe f i libucrt:output.obj
 0001:00024402       ?get_parameter_type@?$positional_parameter_base@DV?$string_output_adapter@D@__crt_stdio_output@@@__crt_stdio_output@@CA?AW4parameter_type@12@I@Z 10025402 f i libucrt:output.obj
 0001:00024406       ?get_parameter_type@?$positional_parameter_base@DV?$string_output_adapter@D@__crt_stdio_output@@@__crt_stdio_output@@CA?AW4parameter_type@12@U_CRT_DOUBLE@@@Z 10025406 f i libucrt:output.obj
 0001:0002440a       ?get_parameter_type@?$positional_parameter_base@DV?$string_output_adapter@D@__crt_stdio_output@@@__crt_stdio_output@@CA?AW4parameter_type@12@_J@Z 1002540a f i libucrt:output.obj
 0001:0002440e       ?get_parameter_type@?$positional_parameter_base@DV?$string_output_adapter@D@__crt_stdio_output@@@__crt_stdio_output@@CA?AW4parameter_type@12@_K@Z 1002540e f i libucrt:output.obj
 0001:00024412       ?get_parameter_type@?$positional_parameter_base@DV?$string_output_adapter@D@__crt_stdio_output@@@__crt_stdio_output@@CA?AW4parameter_type@12@_W@Z 10025412 f i libucrt:output.obj
 0001:00024416       ?get_parameter_type@?$positional_parameter_base@_WV?$stream_output_adapter@_W@__crt_stdio_output@@@__crt_stdio_output@@CA?AW4parameter_type@12@F@Z 10025416 f i libucrt:output.obj
 0001:0002441a       ?get_parameter_type@?$positional_parameter_base@_WV?$stream_output_adapter@_W@__crt_stdio_output@@@__crt_stdio_output@@CA?AW4parameter_type@12@G@Z 1002541a f i libucrt:output.obj
 0001:0002441e       ?get_parameter_type@?$positional_parameter_base@_WV?$stream_output_adapter@_W@__crt_stdio_output@@@__crt_stdio_output@@CA?AW4parameter_type@12@H@Z 1002541e f i libucrt:output.obj
 0001:00024422       ?get_parameter_type@?$positional_parameter_base@_WV?$stream_output_adapter@_W@__crt_stdio_output@@@__crt_stdio_output@@CA?AW4parameter_type@12@I@Z 10025422 f i libucrt:output.obj
 0001:00024426       ?get_parameter_type@?$positional_parameter_base@_WV?$stream_output_adapter@_W@__crt_stdio_output@@@__crt_stdio_output@@CA?AW4parameter_type@12@U_CRT_DOUBLE@@@Z 10025426 f i libucrt:output.obj
 0001:0002442a       ?get_parameter_type@?$positional_parameter_base@_WV?$stream_output_adapter@_W@__crt_stdio_output@@@__crt_stdio_output@@CA?AW4parameter_type@12@_J@Z 1002542a f i libucrt:output.obj
 0001:0002442e       ?get_parameter_type@?$positional_parameter_base@_WV?$stream_output_adapter@_W@__crt_stdio_output@@@__crt_stdio_output@@CA?AW4parameter_type@12@_K@Z 1002542e f i libucrt:output.obj
 0001:00024432       ?get_parameter_type@?$positional_parameter_base@_WV?$stream_output_adapter@_W@__crt_stdio_output@@@__crt_stdio_output@@CA?AW4parameter_type@12@_W@Z 10025432 f i libucrt:output.obj
 0001:00024436       ?get_parameter_type@?$positional_parameter_base@_WV?$string_output_adapter@_W@__crt_stdio_output@@@__crt_stdio_output@@CA?AW4parameter_type@12@F@Z 10025436 f i libucrt:output.obj
 0001:0002443a       ?get_parameter_type@?$positional_parameter_base@_WV?$string_output_adapter@_W@__crt_stdio_output@@@__crt_stdio_output@@CA?AW4parameter_type@12@G@Z 1002543a f i libucrt:output.obj
 0001:0002443e       ?get_parameter_type@?$positional_parameter_base@_WV?$string_output_adapter@_W@__crt_stdio_output@@@__crt_stdio_output@@CA?AW4parameter_type@12@H@Z 1002543e f i libucrt:output.obj
 0001:00024442       ?get_parameter_type@?$positional_parameter_base@_WV?$string_output_adapter@_W@__crt_stdio_output@@@__crt_stdio_output@@CA?AW4parameter_type@12@I@Z 10025442 f i libucrt:output.obj
 0001:00024446       ?get_parameter_type@?$positional_parameter_base@_WV?$string_output_adapter@_W@__crt_stdio_output@@@__crt_stdio_output@@CA?AW4parameter_type@12@U_CRT_DOUBLE@@@Z 10025446 f i libucrt:output.obj
 0001:0002444a       ?get_parameter_type@?$positional_parameter_base@_WV?$string_output_adapter@_W@__crt_stdio_output@@@__crt_stdio_output@@CA?AW4parameter_type@12@_J@Z 1002544a f i libucrt:output.obj
 0001:0002444e       ?get_parameter_type@?$positional_parameter_base@_WV?$string_output_adapter@_W@__crt_stdio_output@@@__crt_stdio_output@@CA?AW4parameter_type@12@_K@Z 1002544e f i libucrt:output.obj
 0001:00024452       ?get_parameter_type@?$positional_parameter_base@_WV?$string_output_adapter@_W@__crt_stdio_output@@@__crt_stdio_output@@CA?AW4parameter_type@12@_W@Z 10025452 f i libucrt:output.obj
 0001:00024456       ?has_flag@?$output_processor@DV?$stream_output_adapter@D@__crt_stdio_output@@V?$format_validation_base@DV?$stream_output_adapter@D@__crt_stdio_output@@@2@@__crt_stdio_output@@ABE_NI@Z 10025456 f i libucrt:output.obj
 0001:00024470       ?has_flag@?$output_processor@DV?$stream_output_adapter@D@__crt_stdio_output@@V?$positional_parameter_base@DV?$stream_output_adapter@D@__crt_stdio_output@@@2@@__crt_stdio_output@@ABE_NI@Z 10025470 f i libucrt:output.obj
 0001:0002448a       ?has_flag@?$output_processor@DV?$stream_output_adapter@D@__crt_stdio_output@@V?$standard_base@DV?$stream_output_adapter@D@__crt_stdio_output@@@2@@__crt_stdio_output@@ABE_NI@Z 1002548a f i libucrt:output.obj
 0001:000244a4       ?has_flag@?$output_processor@DV?$string_output_adapter@D@__crt_stdio_output@@V?$format_validation_base@DV?$string_output_adapter@D@__crt_stdio_output@@@2@@__crt_stdio_output@@ABE_NI@Z 100254a4 f i libucrt:output.obj
 0001:000244be       ?has_flag@?$output_processor@DV?$string_output_adapter@D@__crt_stdio_output@@V?$positional_parameter_base@DV?$string_output_adapter@D@__crt_stdio_output@@@2@@__crt_stdio_output@@ABE_NI@Z 100254be f i libucrt:output.obj
 0001:000244d8       ?has_flag@?$output_processor@DV?$string_output_adapter@D@__crt_stdio_output@@V?$standard_base@DV?$string_output_adapter@D@__crt_stdio_output@@@2@@__crt_stdio_output@@ABE_NI@Z 100254d8 f i libucrt:output.obj
 0001:000244f2       ?has_flag@?$output_processor@_WV?$stream_output_adapter@_W@__crt_stdio_output@@V?$format_validation_base@_WV?$stream_output_adapter@_W@__crt_stdio_output@@@2@@__crt_stdio_output@@ABE_NI@Z 100254f2 f i libucrt:output.obj
 0001:0002450c       ?has_flag@?$output_processor@_WV?$stream_output_adapter@_W@__crt_stdio_output@@V?$positional_parameter_base@_WV?$stream_output_adapter@_W@__crt_stdio_output@@@2@@__crt_stdio_output@@ABE_NI@Z 1002550c f i libucrt:output.obj
 0001:00024526       ?has_flag@?$output_processor@_WV?$stream_output_adapter@_W@__crt_stdio_output@@V?$standard_base@_WV?$stream_output_adapter@_W@__crt_stdio_output@@@2@@__crt_stdio_output@@ABE_NI@Z 10025526 f i libucrt:output.obj
 0001:00024540       ?has_flag@?$output_processor@_WV?$string_output_adapter@_W@__crt_stdio_output@@V?$format_validation_base@_WV?$string_output_adapter@_W@__crt_stdio_output@@@2@@__crt_stdio_output@@ABE_NI@Z 10025540 f i libucrt:output.obj
 0001:0002455a       ?has_flag@?$output_processor@_WV?$string_output_adapter@_W@__crt_stdio_output@@V?$positional_parameter_base@_WV?$string_output_adapter@_W@__crt_stdio_output@@@2@@__crt_stdio_output@@ABE_NI@Z 1002555a f i libucrt:output.obj
 0001:00024574       ?has_flag@?$output_processor@_WV?$string_output_adapter@_W@__crt_stdio_output@@V?$standard_base@_WV?$string_output_adapter@_W@__crt_stdio_output@@@2@@__crt_stdio_output@@ABE_NI@Z 10025574 f i libucrt:output.obj
 0001:0002458e       ?is_positional_parameter_reappearance_consistent@?$positional_parameter_base@DV?$stream_output_adapter@D@__crt_stdio_output@@@__crt_stdio_output@@AAE_NABUparameter_data@12@W4parameter_type@12@DW4length_modifier@2@@Z 1002558e f i libucrt:output.obj
 0001:00024707       ?is_positional_parameter_reappearance_consistent@?$positional_parameter_base@DV?$string_output_adapter@D@__crt_stdio_output@@@__crt_stdio_output@@AAE_NABUparameter_data@12@W4parameter_type@12@DW4length_modifier@2@@Z 10025707 f i libucrt:output.obj
 0001:00024880       ?is_positional_parameter_reappearance_consistent@?$positional_parameter_base@_WV?$stream_output_adapter@_W@__crt_stdio_output@@@__crt_stdio_output@@AAE_NABUparameter_data@12@W4parameter_type@12@_WW4length_modifier@2@@Z 10025880 f i libucrt:output.obj
 0001:000249eb       ?is_positional_parameter_reappearance_consistent@?$positional_parameter_base@_WV?$string_output_adapter@_W@__crt_stdio_output@@@__crt_stdio_output@@AAE_NABUparameter_data@12@W4parameter_type@12@_WW4length_modifier@2@@Z 100259eb f i libucrt:output.obj
 0001:00024b56       ?is_string_backed@__crt_stdio_stream@@QBE_NXZ 10025b56 f i libucrt:output.obj
 0001:00024b65       ?narrow_null_string@?$output_processor@DV?$stream_output_adapter@D@__crt_stdio_output@@V?$format_validation_base@DV?$stream_output_adapter@D@__crt_stdio_output@@@2@@__crt_stdio_output@@CAPADXZ 10025b65 f i libucrt:output.obj
 0001:00024b6b       ?narrow_null_string@?$output_processor@DV?$stream_output_adapter@D@__crt_stdio_output@@V?$positional_parameter_base@DV?$stream_output_adapter@D@__crt_stdio_output@@@2@@__crt_stdio_output@@CAPADXZ 10025b6b f i libucrt:output.obj
 0001:00024b71       ?narrow_null_string@?$output_processor@DV?$stream_output_adapter@D@__crt_stdio_output@@V?$standard_base@DV?$stream_output_adapter@D@__crt_stdio_output@@@2@@__crt_stdio_output@@CAPADXZ 10025b71 f i libucrt:output.obj
 0001:00024b77       ?narrow_null_string@?$output_processor@DV?$string_output_adapter@D@__crt_stdio_output@@V?$format_validation_base@DV?$string_output_adapter@D@__crt_stdio_output@@@2@@__crt_stdio_output@@CAPADXZ 10025b77 f i libucrt:output.obj
 0001:00024b7d       ?narrow_null_string@?$output_processor@DV?$string_output_adapter@D@__crt_stdio_output@@V?$positional_parameter_base@DV?$string_output_adapter@D@__crt_stdio_output@@@2@@__crt_stdio_output@@CAPADXZ 10025b7d f i libucrt:output.obj
 0001:00024b83       ?narrow_null_string@?$output_processor@DV?$string_output_adapter@D@__crt_stdio_output@@V?$standard_base@DV?$string_output_adapter@D@__crt_stdio_output@@@2@@__crt_stdio_output@@CAPADXZ 10025b83 f i libucrt:output.obj
 0001:00024b89       ?narrow_null_string@?$output_processor@_WV?$stream_output_adapter@_W@__crt_stdio_output@@V?$format_validation_base@_WV?$stream_output_adapter@_W@__crt_stdio_output@@@2@@__crt_stdio_output@@CAPADXZ 10025b89 f i libucrt:output.obj
 0001:00024b8f       ?narrow_null_string@?$output_processor@_WV?$stream_output_adapter@_W@__crt_stdio_output@@V?$positional_parameter_base@_WV?$stream_output_adapter@_W@__crt_stdio_output@@@2@@__crt_stdio_output@@CAPADXZ 10025b8f f i libucrt:output.obj
 0001:00024b95       ?narrow_null_string@?$output_processor@_WV?$stream_output_adapter@_W@__crt_stdio_output@@V?$standard_base@_WV?$stream_output_adapter@_W@__crt_stdio_output@@@2@@__crt_stdio_output@@CAPADXZ 10025b95 f i libucrt:output.obj
 0001:00024b9b       ?narrow_null_string@?$output_processor@_WV?$string_output_adapter@_W@__crt_stdio_output@@V?$format_validation_base@_WV?$string_output_adapter@_W@__crt_stdio_output@@@2@@__crt_stdio_output@@CAPADXZ 10025b9b f i libucrt:output.obj
 0001:00024ba1       ?narrow_null_string@?$output_processor@_WV?$string_output_adapter@_W@__crt_stdio_output@@V?$positional_parameter_base@_WV?$string_output_adapter@_W@__crt_stdio_output@@@2@@__crt_stdio_output@@CAPADXZ 10025ba1 f i libucrt:output.obj
 0001:00024ba7       ?narrow_null_string@?$output_processor@_WV?$string_output_adapter@_W@__crt_stdio_output@@V?$standard_base@_WV?$string_output_adapter@_W@__crt_stdio_output@@@2@@__crt_stdio_output@@CAPADXZ 10025ba7 f i libucrt:output.obj
 0001:00024bad       ?parse_int_from_format_string@?$output_processor@DV?$stream_output_adapter@D@__crt_stdio_output@@V?$format_validation_base@DV?$stream_output_adapter@D@__crt_stdio_output@@@2@@__crt_stdio_output@@AAE_NQAH@Z 10025bad f i libucrt:output.obj
 0001:00024c43       ?parse_int_from_format_string@?$output_processor@DV?$stream_output_adapter@D@__crt_stdio_output@@V?$positional_parameter_base@DV?$stream_output_adapter@D@__crt_stdio_output@@@2@@__crt_stdio_output@@AAE_NQAH@Z 10025c43 f i libucrt:output.obj
 0001:00024cd9       ?parse_int_from_format_string@?$output_processor@DV?$stream_output_adapter@D@__crt_stdio_output@@V?$standard_base@DV?$stream_output_adapter@D@__crt_stdio_output@@@2@@__crt_stdio_output@@AAE_NQAH@Z 10025cd9 f i libucrt:output.obj
 0001:00024d6f       ?parse_int_from_format_string@?$output_processor@DV?$string_output_adapter@D@__crt_stdio_output@@V?$format_validation_base@DV?$string_output_adapter@D@__crt_stdio_output@@@2@@__crt_stdio_output@@AAE_NQAH@Z 10025d6f f i libucrt:output.obj
 0001:00024e05       ?parse_int_from_format_string@?$output_processor@DV?$string_output_adapter@D@__crt_stdio_output@@V?$positional_parameter_base@DV?$string_output_adapter@D@__crt_stdio_output@@@2@@__crt_stdio_output@@AAE_NQAH@Z 10025e05 f i libucrt:output.obj
 0001:00024e9b       ?parse_int_from_format_string@?$output_processor@DV?$string_output_adapter@D@__crt_stdio_output@@V?$standard_base@DV?$string_output_adapter@D@__crt_stdio_output@@@2@@__crt_stdio_output@@AAE_NQAH@Z 10025e9b f i libucrt:output.obj
 0001:00024f31       ?parse_int_from_format_string@?$output_processor@_WV?$stream_output_adapter@_W@__crt_stdio_output@@V?$format_validation_base@_WV?$stream_output_adapter@_W@__crt_stdio_output@@@2@@__crt_stdio_output@@AAE_NQAH@Z 10025f31 f i libucrt:output.obj
 0001:00024fc9       ?parse_int_from_format_string@?$output_processor@_WV?$stream_output_adapter@_W@__crt_stdio_output@@V?$positional_parameter_base@_WV?$stream_output_adapter@_W@__crt_stdio_output@@@2@@__crt_stdio_output@@AAE_NQAH@Z 10025fc9 f i libucrt:output.obj
 0001:00025061       ?parse_int_from_format_string@?$output_processor@_WV?$stream_output_adapter@_W@__crt_stdio_output@@V?$standard_base@_WV?$stream_output_adapter@_W@__crt_stdio_output@@@2@@__crt_stdio_output@@AAE_NQAH@Z 10026061 f i libucrt:output.obj
 0001:000250f9       ?parse_int_from_format_string@?$output_processor@_WV?$string_output_adapter@_W@__crt_stdio_output@@V?$format_validation_base@_WV?$string_output_adapter@_W@__crt_stdio_output@@@2@@__crt_stdio_output@@AAE_NQAH@Z 100260f9 f i libucrt:output.obj
 0001:00025191       ?parse_int_from_format_string@?$output_processor@_WV?$string_output_adapter@_W@__crt_stdio_output@@V?$positional_parameter_base@_WV?$string_output_adapter@_W@__crt_stdio_output@@@2@@__crt_stdio_output@@AAE_NQAH@Z 10026191 f i libucrt:output.obj
 0001:00025229       ?parse_int_from_format_string@?$output_processor@_WV?$string_output_adapter@_W@__crt_stdio_output@@V?$standard_base@_WV?$string_output_adapter@_W@__crt_stdio_output@@@2@@__crt_stdio_output@@AAE_NQAH@Z 10026229 f i libucrt:output.obj
 0001:000252c1       ?process@?$output_processor@DV?$stream_output_adapter@D@__crt_stdio_output@@V?$format_validation_base@DV?$stream_output_adapter@D@__crt_stdio_output@@@2@@__crt_stdio_output@@QAEHXZ 100262c1 f i libucrt:output.obj
 0001:00025433       ?process@?$output_processor@DV?$stream_output_adapter@D@__crt_stdio_output@@V?$positional_parameter_base@DV?$stream_output_adapter@D@__crt_stdio_output@@@2@@__crt_stdio_output@@QAEHXZ 10026433 f i libucrt:output.obj
 0001:000255e6       ?process@?$output_processor@DV?$stream_output_adapter@D@__crt_stdio_output@@V?$standard_base@DV?$stream_output_adapter@D@__crt_stdio_output@@@2@@__crt_stdio_output@@QAEHXZ 100265e6 f i libucrt:output.obj
 0001:00025749       ?process@?$output_processor@DV?$string_output_adapter@D@__crt_stdio_output@@V?$format_validation_base@DV?$string_output_adapter@D@__crt_stdio_output@@@2@@__crt_stdio_output@@QAEHXZ 10026749 f i libucrt:output.obj
 0001:000258bb       ?process@?$output_processor@DV?$string_output_adapter@D@__crt_stdio_output@@V?$positional_parameter_base@DV?$string_output_adapter@D@__crt_stdio_output@@@2@@__crt_stdio_output@@QAEHXZ 100268bb f i libucrt:output.obj
 0001:00025a6e       ?process@?$output_processor@DV?$string_output_adapter@D@__crt_stdio_output@@V?$standard_base@DV?$string_output_adapter@D@__crt_stdio_output@@@2@@__crt_stdio_output@@QAEHXZ 10026a6e f i libucrt:output.obj
 0001:00025bd1       ?process@?$output_processor@_WV?$stream_output_adapter@_W@__crt_stdio_output@@V?$format_validation_base@_WV?$stream_output_adapter@_W@__crt_stdio_output@@@2@@__crt_stdio_output@@QAEHXZ 10026bd1 f i libucrt:output.obj
 0001:00025d4d       ?process@?$output_processor@_WV?$stream_output_adapter@_W@__crt_stdio_output@@V?$positional_parameter_base@_WV?$stream_output_adapter@_W@__crt_stdio_output@@@2@@__crt_stdio_output@@QAEHXZ 10026d4d f i libucrt:output.obj
 0001:00025f05       ?process@?$output_processor@_WV?$stream_output_adapter@_W@__crt_stdio_output@@V?$standard_base@_WV?$stream_output_adapter@_W@__crt_stdio_output@@@2@@__crt_stdio_output@@QAEHXZ 10026f05 f i libucrt:output.obj
 0001:0002606d       ?process@?$output_processor@_WV?$string_output_adapter@_W@__crt_stdio_output@@V?$format_validation_base@_WV?$string_output_adapter@_W@__crt_stdio_output@@@2@@__crt_stdio_output@@QAEHXZ 1002706d f i libucrt:output.obj
 0001:000261e9       ?process@?$output_processor@_WV?$string_output_adapter@_W@__crt_stdio_output@@V?$positional_parameter_base@_WV?$string_output_adapter@_W@__crt_stdio_output@@@2@@__crt_stdio_output@@QAEHXZ 100271e9 f i libucrt:output.obj
 0001:000263a1       ?process@?$output_processor@_WV?$string_output_adapter@_W@__crt_stdio_output@@V?$standard_base@_WV?$string_output_adapter@_W@__crt_stdio_output@@@2@@__crt_stdio_output@@QAEHXZ 100273a1 f i libucrt:output.obj
 0001:00026509       ?public_stream@__crt_stdio_stream@@QBEPAU_iobuf@@XZ 10027509 f i libucrt:output.obj
 0001:0002650c       ?set_flag@?$output_processor@DV?$stream_output_adapter@D@__crt_stdio_output@@V?$format_validation_base@DV?$stream_output_adapter@D@__crt_stdio_output@@@2@@__crt_stdio_output@@AAEXI@Z 1002750c f i libucrt:output.obj
 0001:0002651e       ?set_flag@?$output_processor@DV?$stream_output_adapter@D@__crt_stdio_output@@V?$positional_parameter_base@DV?$stream_output_adapter@D@__crt_stdio_output@@@2@@__crt_stdio_output@@AAEXI@Z 1002751e f i libucrt:output.obj
 0001:00026530       ?set_flag@?$output_processor@DV?$stream_output_adapter@D@__crt_stdio_output@@V?$standard_base@DV?$stream_output_adapter@D@__crt_stdio_output@@@2@@__crt_stdio_output@@AAEXI@Z 10027530 f i libucrt:output.obj
 0001:00026542       ?set_flag@?$output_processor@DV?$string_output_adapter@D@__crt_stdio_output@@V?$format_validation_base@DV?$string_output_adapter@D@__crt_stdio_output@@@2@@__crt_stdio_output@@AAEXI@Z 10027542 f i libucrt:output.obj
 0001:00026554       ?set_flag@?$output_processor@DV?$string_output_adapter@D@__crt_stdio_output@@V?$positional_parameter_base@DV?$string_output_adapter@D@__crt_stdio_output@@@2@@__crt_stdio_output@@AAEXI@Z 10027554 f i libucrt:output.obj
 0001:00026566       ?set_flag@?$output_processor@DV?$string_output_adapter@D@__crt_stdio_output@@V?$standard_base@DV?$string_output_adapter@D@__crt_stdio_output@@@2@@__crt_stdio_output@@AAEXI@Z 10027566 f i libucrt:output.obj
 0001:00026578       ?set_flag@?$output_processor@_WV?$stream_output_adapter@_W@__crt_stdio_output@@V?$format_validation_base@_WV?$stream_output_adapter@_W@__crt_stdio_output@@@2@@__crt_stdio_output@@AAEXI@Z 10027578 f i libucrt:output.obj
 0001:0002658a       ?set_flag@?$output_processor@_WV?$stream_output_adapter@_W@__crt_stdio_output@@V?$positional_parameter_base@_WV?$stream_output_adapter@_W@__crt_stdio_output@@@2@@__crt_stdio_output@@AAEXI@Z 1002758a f i libucrt:output.obj
 0001:0002659c       ?set_flag@?$output_processor@_WV?$stream_output_adapter@_W@__crt_stdio_output@@V?$standard_base@_WV?$stream_output_adapter@_W@__crt_stdio_output@@@2@@__crt_stdio_output@@AAEXI@Z 1002759c f i libucrt:output.obj
 0001:000265ae       ?set_flag@?$output_processor@_WV?$string_output_adapter@_W@__crt_stdio_output@@V?$format_validation_base@_WV?$string_output_adapter@_W@__crt_stdio_output@@@2@@__crt_stdio_output@@AAEXI@Z 100275ae f i libucrt:output.obj
 0001:000265c0       ?set_flag@?$output_processor@_WV?$string_output_adapter@_W@__crt_stdio_output@@V?$positional_parameter_base@_WV?$string_output_adapter@_W@__crt_stdio_output@@@2@@__crt_stdio_output@@AAEXI@Z 100275c0 f i libucrt:output.obj
 0001:000265d2       ?set_flag@?$output_processor@_WV?$string_output_adapter@_W@__crt_stdio_output@@V?$standard_base@_WV?$string_output_adapter@_W@__crt_stdio_output@@@2@@__crt_stdio_output@@AAEXI@Z 100275d2 f i libucrt:output.obj
 0001:000265e4       ?should_format@?$positional_parameter_base@DV?$stream_output_adapter@D@__crt_stdio_output@@@__crt_stdio_output@@IAE_NXZ 100275e4 f i libucrt:output.obj
 0001:000265ff       ?should_format@?$positional_parameter_base@DV?$string_output_adapter@D@__crt_stdio_output@@@__crt_stdio_output@@IAE_NXZ 100275ff f i libucrt:output.obj
 0001:0002661a       ?should_format@?$positional_parameter_base@_WV?$stream_output_adapter@_W@__crt_stdio_output@@@__crt_stdio_output@@IAE_NXZ 1002761a f i libucrt:output.obj
 0001:00026635       ?should_format@?$positional_parameter_base@_WV?$string_output_adapter@_W@__crt_stdio_output@@@__crt_stdio_output@@IAE_NXZ 10027635 f i libucrt:output.obj
 0001:00026650       ?should_format@?$standard_base@DV?$stream_output_adapter@D@__crt_stdio_output@@@__crt_stdio_output@@IAE_NXZ 10027650 f i libucrt:output.obj
 0001:00026653       ?should_format@?$standard_base@DV?$string_output_adapter@D@__crt_stdio_output@@@__crt_stdio_output@@IAE_NXZ 10027653 f i libucrt:output.obj
 0001:00026656       ?should_format@?$standard_base@_WV?$stream_output_adapter@_W@__crt_stdio_output@@@__crt_stdio_output@@IAE_NXZ 10027656 f i libucrt:output.obj
 0001:00026659       ?should_format@?$standard_base@_WV?$string_output_adapter@_W@__crt_stdio_output@@@__crt_stdio_output@@IAE_NXZ 10027659 f i libucrt:output.obj
 0001:0002665c       ?should_skip_normal_state_processing@?$positional_parameter_base@DV?$stream_output_adapter@D@__crt_stdio_output@@@__crt_stdio_output@@IAE_NXZ 1002765c f i libucrt:output.obj
 0001:0002668e       ?should_skip_normal_state_processing@?$positional_parameter_base@DV?$string_output_adapter@D@__crt_stdio_output@@@__crt_stdio_output@@IAE_NXZ 1002768e f i libucrt:output.obj
 0001:000266c0       ?should_skip_normal_state_processing@?$positional_parameter_base@_WV?$stream_output_adapter@_W@__crt_stdio_output@@@__crt_stdio_output@@IAE_NXZ 100276c0 f i libucrt:output.obj
 0001:000266f2       ?should_skip_normal_state_processing@?$positional_parameter_base@_WV?$string_output_adapter@_W@__crt_stdio_output@@@__crt_stdio_output@@IAE_NXZ 100276f2 f i libucrt:output.obj
 0001:00026724       ?should_skip_normal_state_processing@?$standard_base@DV?$stream_output_adapter@D@__crt_stdio_output@@@__crt_stdio_output@@IAE_NXZ 10027724 f i libucrt:output.obj
 0001:00026727       ?should_skip_normal_state_processing@?$standard_base@DV?$string_output_adapter@D@__crt_stdio_output@@@__crt_stdio_output@@IAE_NXZ 10027727 f i libucrt:output.obj
 0001:0002672a       ?should_skip_normal_state_processing@?$standard_base@_WV?$stream_output_adapter@_W@__crt_stdio_output@@@__crt_stdio_output@@IAE_NXZ 1002772a f i libucrt:output.obj
 0001:0002672d       ?should_skip_normal_state_processing@?$standard_base@_WV?$string_output_adapter@_W@__crt_stdio_output@@@__crt_stdio_output@@IAE_NXZ 1002772d f i libucrt:output.obj
 0001:00026730       ?should_skip_type_state_output@?$positional_parameter_base@DV?$stream_output_adapter@D@__crt_stdio_output@@@__crt_stdio_output@@IBE_NXZ 10027730 f i libucrt:output.obj
 0001:0002674c       ?should_skip_type_state_output@?$positional_parameter_base@DV?$string_output_adapter@D@__crt_stdio_output@@@__crt_stdio_output@@IBE_NXZ 1002774c f i libucrt:output.obj
 0001:00026768       ?should_skip_type_state_output@?$positional_parameter_base@_WV?$stream_output_adapter@_W@__crt_stdio_output@@@__crt_stdio_output@@IBE_NXZ 10027768 f i libucrt:output.obj
 0001:00026784       ?should_skip_type_state_output@?$positional_parameter_base@_WV?$string_output_adapter@_W@__crt_stdio_output@@@__crt_stdio_output@@IBE_NXZ 10027784 f i libucrt:output.obj
 0001:000267a0       ?should_skip_type_state_output@?$standard_base@DV?$stream_output_adapter@D@__crt_stdio_output@@@__crt_stdio_output@@IBE_NXZ 100277a0 f i libucrt:output.obj
 0001:000267a3       ?should_skip_type_state_output@?$standard_base@DV?$string_output_adapter@D@__crt_stdio_output@@@__crt_stdio_output@@IBE_NXZ 100277a3 f i libucrt:output.obj
 0001:000267a6       ?should_skip_type_state_output@?$standard_base@_WV?$stream_output_adapter@_W@__crt_stdio_output@@@__crt_stdio_output@@IBE_NXZ 100277a6 f i libucrt:output.obj
 0001:000267a9       ?should_skip_type_state_output@?$standard_base@_WV?$string_output_adapter@_W@__crt_stdio_output@@@__crt_stdio_output@@IBE_NXZ 100277a9 f i libucrt:output.obj
 0001:000267ac       ?state_case_dot@?$output_processor@DV?$stream_output_adapter@D@__crt_stdio_output@@V?$format_validation_base@DV?$stream_output_adapter@D@__crt_stdio_output@@@2@@__crt_stdio_output@@AAE_NXZ 100277ac f i libucrt:output.obj
 0001:000267b3       ?state_case_dot@?$output_processor@DV?$stream_output_adapter@D@__crt_stdio_output@@V?$positional_parameter_base@DV?$stream_output_adapter@D@__crt_stdio_output@@@2@@__crt_stdio_output@@AAE_NXZ 100277b3 f i libucrt:output.obj
 0001:000267ba       ?state_case_dot@?$output_processor@DV?$stream_output_adapter@D@__crt_stdio_output@@V?$standard_base@DV?$stream_output_adapter@D@__crt_stdio_output@@@2@@__crt_stdio_output@@AAE_NXZ 100277ba f i libucrt:output.obj
 0001:000267c1       ?state_case_dot@?$output_processor@DV?$string_output_adapter@D@__crt_stdio_output@@V?$format_validation_base@DV?$string_output_adapter@D@__crt_stdio_output@@@2@@__crt_stdio_output@@AAE_NXZ 100277c1 f i libucrt:output.obj
 0001:000267c8       ?state_case_dot@?$output_processor@DV?$string_output_adapter@D@__crt_stdio_output@@V?$positional_parameter_base@DV?$string_output_adapter@D@__crt_stdio_output@@@2@@__crt_stdio_output@@AAE_NXZ 100277c8 f i libucrt:output.obj
 0001:000267cf       ?state_case_dot@?$output_processor@DV?$string_output_adapter@D@__crt_stdio_output@@V?$standard_base@DV?$string_output_adapter@D@__crt_stdio_output@@@2@@__crt_stdio_output@@AAE_NXZ 100277cf f i libucrt:output.obj
 0001:000267d6       ?state_case_dot@?$output_processor@_WV?$stream_output_adapter@_W@__crt_stdio_output@@V?$format_validation_base@_WV?$stream_output_adapter@_W@__crt_stdio_output@@@2@@__crt_stdio_output@@AAE_NXZ 100277d6 f i libucrt:output.obj
 0001:000267dd       ?state_case_dot@?$output_processor@_WV?$stream_output_adapter@_W@__crt_stdio_output@@V?$positional_parameter_base@_WV?$stream_output_adapter@_W@__crt_stdio_output@@@2@@__crt_stdio_output@@AAE_NXZ 100277dd f i libucrt:output.obj
 0001:000267e4       ?state_case_dot@?$output_processor@_WV?$stream_output_adapter@_W@__crt_stdio_output@@V?$standard_base@_WV?$stream_output_adapter@_W@__crt_stdio_output@@@2@@__crt_stdio_output@@AAE_NXZ 100277e4 f i libucrt:output.obj
 0001:000267eb       ?state_case_dot@?$output_processor@_WV?$string_output_adapter@_W@__crt_stdio_output@@V?$format_validation_base@_WV?$string_output_adapter@_W@__crt_stdio_output@@@2@@__crt_stdio_output@@AAE_NXZ 100277eb f i libucrt:output.obj
 0001:000267f2       ?state_case_dot@?$output_processor@_WV?$string_output_adapter@_W@__crt_stdio_output@@V?$positional_parameter_base@_WV?$string_output_adapter@_W@__crt_stdio_output@@@2@@__crt_stdio_output@@AAE_NXZ 100277f2 f i libucrt:output.obj
 0001:000267f9       ?state_case_dot@?$output_processor@_WV?$string_output_adapter@_W@__crt_stdio_output@@V?$standard_base@_WV?$string_output_adapter@_W@__crt_stdio_output@@@2@@__crt_stdio_output@@AAE_NXZ 100277f9 f i libucrt:output.obj
 0001:00026800       ?state_case_flag@?$output_processor@DV?$stream_output_adapter@D@__crt_stdio_output@@V?$format_validation_base@DV?$stream_output_adapter@D@__crt_stdio_output@@@2@@__crt_stdio_output@@AAE_NXZ 10027800 f i libucrt:output.obj
 0001:0002684c       ?state_case_flag@?$output_processor@DV?$stream_output_adapter@D@__crt_stdio_output@@V?$positional_parameter_base@DV?$stream_output_adapter@D@__crt_stdio_output@@@2@@__crt_stdio_output@@AAE_NXZ 1002784c f i libucrt:output.obj
 0001:00026898       ?state_case_flag@?$output_processor@DV?$stream_output_adapter@D@__crt_stdio_output@@V?$standard_base@DV?$stream_output_adapter@D@__crt_stdio_output@@@2@@__crt_stdio_output@@AAE_NXZ 10027898 f i libucrt:output.obj
 0001:000268e4       ?state_case_flag@?$output_processor@DV?$string_output_adapter@D@__crt_stdio_output@@V?$format_validation_base@DV?$string_output_adapter@D@__crt_stdio_output@@@2@@__crt_stdio_output@@AAE_NXZ 100278e4 f i libucrt:output.obj
 0001:00026930       ?state_case_flag@?$output_processor@DV?$string_output_adapter@D@__crt_stdio_output@@V?$positional_parameter_base@DV?$string_output_adapter@D@__crt_stdio_output@@@2@@__crt_stdio_output@@AAE_NXZ 10027930 f i libucrt:output.obj
 0001:0002697c       ?state_case_flag@?$output_processor@DV?$string_output_adapter@D@__crt_stdio_output@@V?$standard_base@DV?$string_output_adapter@D@__crt_stdio_output@@@2@@__crt_stdio_output@@AAE_NXZ 1002797c f i libucrt:output.obj
 0001:000269c8       ?state_case_flag@?$output_processor@_WV?$stream_output_adapter@_W@__crt_stdio_output@@V?$format_validation_base@_WV?$stream_output_adapter@_W@__crt_stdio_output@@@2@@__crt_stdio_output@@AAE_NXZ 100279c8 f i libucrt:output.obj
 0001:00026a14       ?state_case_flag@?$output_processor@_WV?$stream_output_adapter@_W@__crt_stdio_output@@V?$positional_parameter_base@_WV?$stream_output_adapter@_W@__crt_stdio_output@@@2@@__crt_stdio_output@@AAE_NXZ 10027a14 f i libucrt:output.obj
 0001:00026a60       ?state_case_flag@?$output_processor@_WV?$stream_output_adapter@_W@__crt_stdio_output@@V?$standard_base@_WV?$stream_output_adapter@_W@__crt_stdio_output@@@2@@__crt_stdio_output@@AAE_NXZ 10027a60 f i libucrt:output.obj
 0001:00026aac       ?state_case_flag@?$output_processor@_WV?$string_output_adapter@_W@__crt_stdio_output@@V?$format_validation_base@_WV?$string_output_adapter@_W@__crt_stdio_output@@@2@@__crt_stdio_output@@AAE_NXZ 10027aac f i libucrt:output.obj
 0001:00026af8       ?state_case_flag@?$output_processor@_WV?$string_output_adapter@_W@__crt_stdio_output@@V?$positional_parameter_base@_WV?$string_output_adapter@_W@__crt_stdio_output@@@2@@__crt_stdio_output@@AAE_NXZ 10027af8 f i libucrt:output.obj
 0001:00026b44       ?state_case_flag@?$output_processor@_WV?$string_output_adapter@_W@__crt_stdio_output@@V?$standard_base@_WV?$string_output_adapter@_W@__crt_stdio_output@@@2@@__crt_stdio_output@@AAE_NXZ 10027b44 f i libucrt:output.obj
 0001:00026b90       ?state_case_normal@?$output_processor@DV?$stream_output_adapter@D@__crt_stdio_output@@V?$format_validation_base@DV?$stream_output_adapter@D@__crt_stdio_output@@@2@@__crt_stdio_output@@AAE_NXZ 10027b90 f i libucrt:output.obj
 0001:00026bb6       ?state_case_normal@?$output_processor@DV?$stream_output_adapter@D@__crt_stdio_output@@V?$positional_parameter_base@DV?$stream_output_adapter@D@__crt_stdio_output@@@2@@__crt_stdio_output@@AAE_NXZ 10027bb6 f i libucrt:output.obj
 0001:00026bf3       ?state_case_normal@?$output_processor@DV?$stream_output_adapter@D@__crt_stdio_output@@V?$standard_base@DV?$stream_output_adapter@D@__crt_stdio_output@@@2@@__crt_stdio_output@@AAE_NXZ 10027bf3 f i libucrt:output.obj
 0001:00026c19       ?state_case_normal@?$output_processor@DV?$string_output_adapter@D@__crt_stdio_output@@V?$format_validation_base@DV?$string_output_adapter@D@__crt_stdio_output@@@2@@__crt_stdio_output@@AAE_NXZ 10027c19 f i libucrt:output.obj
 0001:00026c3f       ?state_case_normal@?$output_processor@DV?$string_output_adapter@D@__crt_stdio_output@@V?$positional_parameter_base@DV?$string_output_adapter@D@__crt_stdio_output@@@2@@__crt_stdio_output@@AAE_NXZ 10027c3f f i libucrt:output.obj
 0001:00026c7c       ?state_case_normal@?$output_processor@DV?$string_output_adapter@D@__crt_stdio_output@@V?$standard_base@DV?$string_output_adapter@D@__crt_stdio_output@@@2@@__crt_stdio_output@@AAE_NXZ 10027c7c f i libucrt:output.obj
 0001:00026ca2       ?state_case_normal@?$output_processor@_WV?$stream_output_adapter@_W@__crt_stdio_output@@V?$format_validation_base@_WV?$stream_output_adapter@_W@__crt_stdio_output@@@2@@__crt_stdio_output@@AAE_NXZ 10027ca2 f i libucrt:output.obj
 0001:00026cc8       ?state_case_normal@?$output_processor@_WV?$stream_output_adapter@_W@__crt_stdio_output@@V?$positional_parameter_base@_WV?$stream_output_adapter@_W@__crt_stdio_output@@@2@@__crt_stdio_output@@AAE_NXZ 10027cc8 f i libucrt:output.obj
 0001:00026d05       ?state_case_normal@?$output_processor@_WV?$stream_output_adapter@_W@__crt_stdio_output@@V?$standard_base@_WV?$stream_output_adapter@_W@__crt_stdio_output@@@2@@__crt_stdio_output@@AAE_NXZ 10027d05 f i libucrt:output.obj
 0001:00026d2b       ?state_case_normal@?$output_processor@_WV?$string_output_adapter@_W@__crt_stdio_output@@V?$format_validation_base@_WV?$string_output_adapter@_W@__crt_stdio_output@@@2@@__crt_stdio_output@@AAE_NXZ 10027d2b f i libucrt:output.obj
 0001:00026d51       ?state_case_normal@?$output_processor@_WV?$string_output_adapter@_W@__crt_stdio_output@@V?$positional_parameter_base@_WV?$string_output_adapter@_W@__crt_stdio_output@@@2@@__crt_stdio_output@@AAE_NXZ 10027d51 f i libucrt:output.obj
 0001:00026d8e       ?state_case_normal@?$output_processor@_WV?$string_output_adapter@_W@__crt_stdio_output@@V?$standard_base@_WV?$string_output_adapter@_W@__crt_stdio_output@@@2@@__crt_stdio_output@@AAE_NXZ 10027d8e f i libucrt:output.obj
 0001:00026db4       ?state_case_normal_common@?$output_processor@DV?$stream_output_adapter@D@__crt_stdio_output@@V?$format_validation_base@DV?$stream_output_adapter@D@__crt_stdio_output@@@2@@__crt_stdio_output@@AAE_NXZ 10027db4 f i libucrt:output.obj
 0001:00026de8       ?state_case_normal_common@?$output_processor@DV?$stream_output_adapter@D@__crt_stdio_output@@V?$positional_parameter_base@DV?$stream_output_adapter@D@__crt_stdio_output@@@2@@__crt_stdio_output@@AAE_NXZ 10027de8 f i libucrt:output.obj
 0001:00026e1c       ?state_case_normal_common@?$output_processor@DV?$stream_output_adapter@D@__crt_stdio_output@@V?$standard_base@DV?$stream_output_adapter@D@__crt_stdio_output@@@2@@__crt_stdio_output@@AAE_NXZ 10027e1c f i libucrt:output.obj
 0001:00026e50       ?state_case_normal_common@?$output_processor@DV?$string_output_adapter@D@__crt_stdio_output@@V?$format_validation_base@DV?$string_output_adapter@D@__crt_stdio_output@@@2@@__crt_stdio_output@@AAE_NXZ 10027e50 f i libucrt:output.obj
 0001:00026e84       ?state_case_normal_common@?$output_processor@DV?$string_output_adapter@D@__crt_stdio_output@@V?$positional_parameter_base@DV?$string_output_adapter@D@__crt_stdio_output@@@2@@__crt_stdio_output@@AAE_NXZ 10027e84 f i libucrt:output.obj
 0001:00026eb8       ?state_case_normal_common@?$output_processor@DV?$string_output_adapter@D@__crt_stdio_output@@V?$standard_base@DV?$string_output_adapter@D@__crt_stdio_output@@@2@@__crt_stdio_output@@AAE_NXZ 10027eb8 f i libucrt:output.obj
 0001:00026eec       ?state_case_normal_common@?$output_processor@_WV?$stream_output_adapter@_W@__crt_stdio_output@@V?$format_validation_base@_WV?$stream_output_adapter@_W@__crt_stdio_output@@@2@@__crt_stdio_output@@AAE_NXZ 10027eec f i libucrt:output.obj
 0001:00026f0d       ?state_case_normal_common@?$output_processor@_WV?$stream_output_adapter@_W@__crt_stdio_output@@V?$positional_parameter_base@_WV?$stream_output_adapter@_W@__crt_stdio_output@@@2@@__crt_stdio_output@@AAE_NXZ 10027f0d f i libucrt:output.obj
 0001:00026f2e       ?state_case_normal_common@?$output_processor@_WV?$stream_output_adapter@_W@__crt_stdio_output@@V?$standard_base@_WV?$stream_output_adapter@_W@__crt_stdio_output@@@2@@__crt_stdio_output@@AAE_NXZ 10027f2e f i libucrt:output.obj
 0001:00026f4f       ?state_case_normal_common@?$output_processor@_WV?$string_output_adapter@_W@__crt_stdio_output@@V?$format_validation_base@_WV?$string_output_adapter@_W@__crt_stdio_output@@@2@@__crt_stdio_output@@AAE_NXZ 10027f4f f i libucrt:output.obj
 0001:00026f70       ?state_case_normal_common@?$output_processor@_WV?$string_output_adapter@_W@__crt_stdio_output@@V?$positional_parameter_base@_WV?$string_output_adapter@_W@__crt_stdio_output@@@2@@__crt_stdio_output@@AAE_NXZ 10027f70 f i libucrt:output.obj
 0001:00026f91       ?state_case_normal_common@?$output_processor@_WV?$string_output_adapter@_W@__crt_stdio_output@@V?$standard_base@_WV?$string_output_adapter@_W@__crt_stdio_output@@@2@@__crt_stdio_output@@AAE_NXZ 10027f91 f i libucrt:output.obj
 0001:00026fb2       ?state_case_normal_tchar@?$output_processor@DV?$stream_output_adapter@D@__crt_stdio_output@@V?$format_validation_base@DV?$stream_output_adapter@D@__crt_stdio_output@@@2@@__crt_stdio_output@@AAE_ND@Z 10027fb2 f i libucrt:output.obj
 0001:0002702b       ?state_case_normal_tchar@?$output_processor@DV?$stream_output_adapter@D@__crt_stdio_output@@V?$positional_parameter_base@DV?$stream_output_adapter@D@__crt_stdio_output@@@2@@__crt_stdio_output@@AAE_ND@Z 1002802b f i libucrt:output.obj
 0001:000270a4       ?state_case_normal_tchar@?$output_processor@DV?$stream_output_adapter@D@__crt_stdio_output@@V?$standard_base@DV?$stream_output_adapter@D@__crt_stdio_output@@@2@@__crt_stdio_output@@AAE_ND@Z 100280a4 f i libucrt:output.obj
 0001:0002711d       ?state_case_normal_tchar@?$output_processor@DV?$string_output_adapter@D@__crt_stdio_output@@V?$format_validation_base@DV?$string_output_adapter@D@__crt_stdio_output@@@2@@__crt_stdio_output@@AAE_ND@Z 1002811d f i libucrt:output.obj
 0001:00027196       ?state_case_normal_tchar@?$output_processor@DV?$string_output_adapter@D@__crt_stdio_output@@V?$positional_parameter_base@DV?$string_output_adapter@D@__crt_stdio_output@@@2@@__crt_stdio_output@@AAE_ND@Z 10028196 f i libucrt:output.obj
 0001:0002720f       ?state_case_normal_tchar@?$output_processor@DV?$string_output_adapter@D@__crt_stdio_output@@V?$standard_base@DV?$string_output_adapter@D@__crt_stdio_output@@@2@@__crt_stdio_output@@AAE_ND@Z 1002820f f i libucrt:output.obj
 0001:00027288       ?state_case_normal_tchar@?$output_processor@_WV?$stream_output_adapter@_W@__crt_stdio_output@@V?$format_validation_base@_WV?$stream_output_adapter@_W@__crt_stdio_output@@@2@@__crt_stdio_output@@AAE_N_W@Z 10028288 f i libucrt:output.obj
 0001:00027293       ?state_case_normal_tchar@?$output_processor@_WV?$stream_output_adapter@_W@__crt_stdio_output@@V?$positional_parameter_base@_WV?$stream_output_adapter@_W@__crt_stdio_output@@@2@@__crt_stdio_output@@AAE_N_W@Z 10028293 f i libucrt:output.obj
 0001:0002729e       ?state_case_normal_tchar@?$output_processor@_WV?$stream_output_adapter@_W@__crt_stdio_output@@V?$standard_base@_WV?$stream_output_adapter@_W@__crt_stdio_output@@@2@@__crt_stdio_output@@AAE_N_W@Z 1002829e f i libucrt:output.obj
 0001:000272a9       ?state_case_normal_tchar@?$output_processor@_WV?$string_output_adapter@_W@__crt_stdio_output@@V?$format_validation_base@_WV?$string_output_adapter@_W@__crt_stdio_output@@@2@@__crt_stdio_output@@AAE_N_W@Z 100282a9 f i libucrt:output.obj
 0001:000272b4       ?state_case_normal_tchar@?$output_processor@_WV?$string_output_adapter@_W@__crt_stdio_output@@V?$positional_parameter_base@_WV?$string_output_adapter@_W@__crt_stdio_output@@@2@@__crt_stdio_output@@AAE_N_W@Z 100282b4 f i libucrt:output.obj
 0001:000272bf       ?state_case_normal_tchar@?$output_processor@_WV?$string_output_adapter@_W@__crt_stdio_output@@V?$standard_base@_WV?$string_output_adapter@_W@__crt_stdio_output@@@2@@__crt_stdio_output@@AAE_N_W@Z 100282bf f i libucrt:output.obj
 0001:000272ca       ?state_case_percent@?$output_processor@DV?$stream_output_adapter@D@__crt_stdio_output@@V?$format_validation_base@DV?$stream_output_adapter@D@__crt_stdio_output@@@2@@__crt_stdio_output@@AAE_NXZ 100282ca f i libucrt:output.obj
 0001:000272e8       ?state_case_percent@?$output_processor@DV?$stream_output_adapter@D@__crt_stdio_output@@V?$positional_parameter_base@DV?$stream_output_adapter@D@__crt_stdio_output@@@2@@__crt_stdio_output@@AAE_NXZ 100282e8 f i libucrt:output.obj
 0001:00027306       ?state_case_percent@?$output_processor@DV?$stream_output_adapter@D@__crt_stdio_output@@V?$standard_base@DV?$stream_output_adapter@D@__crt_stdio_output@@@2@@__crt_stdio_output@@AAE_NXZ 10028306 f i libucrt:output.obj
 0001:00027324       ?state_case_percent@?$output_processor@DV?$string_output_adapter@D@__crt_stdio_output@@V?$format_validation_base@DV?$string_output_adapter@D@__crt_stdio_output@@@2@@__crt_stdio_output@@AAE_NXZ 10028324 f i libucrt:output.obj
 0001:00027342       ?state_case_percent@?$output_processor@DV?$string_output_adapter@D@__crt_stdio_output@@V?$positional_parameter_base@DV?$string_output_adapter@D@__crt_stdio_output@@@2@@__crt_stdio_output@@AAE_NXZ 10028342 f i libucrt:output.obj
 0001:00027360       ?state_case_percent@?$output_processor@DV?$string_output_adapter@D@__crt_stdio_output@@V?$standard_base@DV?$string_output_adapter@D@__crt_stdio_output@@@2@@__crt_stdio_output@@AAE_NXZ 10028360 f i libucrt:output.obj
 0001:0002737e       ?state_case_percent@?$output_processor@_WV?$stream_output_adapter@_W@__crt_stdio_output@@V?$format_validation_base@_WV?$stream_output_adapter@_W@__crt_stdio_output@@@2@@__crt_stdio_output@@AAE_NXZ 1002837e f i libucrt:output.obj
 0001:0002739c       ?state_case_percent@?$output_processor@_WV?$stream_output_adapter@_W@__crt_stdio_output@@V?$positional_parameter_base@_WV?$stream_output_adapter@_W@__crt_stdio_output@@@2@@__crt_stdio_output@@AAE_NXZ 1002839c f i libucrt:output.obj
 0001:000273ba       ?state_case_percent@?$output_processor@_WV?$stream_output_adapter@_W@__crt_stdio_output@@V?$standard_base@_WV?$stream_output_adapter@_W@__crt_stdio_output@@@2@@__crt_stdio_output@@AAE_NXZ 100283ba f i libucrt:output.obj
 0001:000273d8       ?state_case_percent@?$output_processor@_WV?$string_output_adapter@_W@__crt_stdio_output@@V?$format_validation_base@_WV?$string_output_adapter@_W@__crt_stdio_output@@@2@@__crt_stdio_output@@AAE_NXZ 100283d8 f i libucrt:output.obj
 0001:000273f6       ?state_case_percent@?$output_processor@_WV?$string_output_adapter@_W@__crt_stdio_output@@V?$positional_parameter_base@_WV?$string_output_adapter@_W@__crt_stdio_output@@@2@@__crt_stdio_output@@AAE_NXZ 100283f6 f i libucrt:output.obj
 0001:00027414       ?state_case_percent@?$output_processor@_WV?$string_output_adapter@_W@__crt_stdio_output@@V?$standard_base@_WV?$string_output_adapter@_W@__crt_stdio_output@@@2@@__crt_stdio_output@@AAE_NXZ 10028414 f i libucrt:output.obj
 0001:00027432       ?state_case_precision@?$output_processor@DV?$stream_output_adapter@D@__crt_stdio_output@@V?$format_validation_base@DV?$stream_output_adapter@D@__crt_stdio_output@@@2@@__crt_stdio_output@@AAE_NXZ 10028432 f i libucrt:output.obj
 0001:00027464       ?state_case_precision@?$output_processor@DV?$stream_output_adapter@D@__crt_stdio_output@@V?$positional_parameter_base@DV?$stream_output_adapter@D@__crt_stdio_output@@@2@@__crt_stdio_output@@AAE_NXZ 10028464 f i libucrt:output.obj
 0001:000274ac       ?state_case_precision@?$output_processor@DV?$stream_output_adapter@D@__crt_stdio_output@@V?$standard_base@DV?$stream_output_adapter@D@__crt_stdio_output@@@2@@__crt_stdio_output@@AAE_NXZ 100284ac f i libucrt:output.obj
 0001:000274de       ?state_case_precision@?$output_processor@DV?$string_output_adapter@D@__crt_stdio_output@@V?$format_validation_base@DV?$string_output_adapter@D@__crt_stdio_output@@@2@@__crt_stdio_output@@AAE_NXZ 100284de f i libucrt:output.obj
 0001:00027510       ?state_case_precision@?$output_processor@DV?$string_output_adapter@D@__crt_stdio_output@@V?$positional_parameter_base@DV?$string_output_adapter@D@__crt_stdio_output@@@2@@__crt_stdio_output@@AAE_NXZ 10028510 f i libucrt:output.obj
 0001:00027558       ?state_case_precision@?$output_processor@DV?$string_output_adapter@D@__crt_stdio_output@@V?$standard_base@DV?$string_output_adapter@D@__crt_stdio_output@@@2@@__crt_stdio_output@@AAE_NXZ 10028558 f i libucrt:output.obj
 0001:0002758a       ?state_case_precision@?$output_processor@_WV?$stream_output_adapter@_W@__crt_stdio_output@@V?$format_validation_base@_WV?$stream_output_adapter@_W@__crt_stdio_output@@@2@@__crt_stdio_output@@AAE_NXZ 1002858a f i libucrt:output.obj
 0001:000275bd       ?state_case_precision@?$output_processor@_WV?$stream_output_adapter@_W@__crt_stdio_output@@V?$positional_parameter_base@_WV?$stream_output_adapter@_W@__crt_stdio_output@@@2@@__crt_stdio_output@@AAE_NXZ 100285bd f i libucrt:output.obj
 0001:00027606       ?state_case_precision@?$output_processor@_WV?$stream_output_adapter@_W@__crt_stdio_output@@V?$standard_base@_WV?$stream_output_adapter@_W@__crt_stdio_output@@@2@@__crt_stdio_output@@AAE_NXZ 10028606 f i libucrt:output.obj
 0001:00027639       ?state_case_precision@?$output_processor@_WV?$string_output_adapter@_W@__crt_stdio_output@@V?$format_validation_base@_WV?$string_output_adapter@_W@__crt_stdio_output@@@2@@__crt_stdio_output@@AAE_NXZ 10028639 f i libucrt:output.obj
 0001:0002766c       ?state_case_precision@?$output_processor@_WV?$string_output_adapter@_W@__crt_stdio_output@@V?$positional_parameter_base@_WV?$string_output_adapter@_W@__crt_stdio_output@@@2@@__crt_stdio_output@@AAE_NXZ 1002866c f i libucrt:output.obj
 0001:000276b5       ?state_case_precision@?$output_processor@_WV?$string_output_adapter@_W@__crt_stdio_output@@V?$standard_base@_WV?$string_output_adapter@_W@__crt_stdio_output@@@2@@__crt_stdio_output@@AAE_NXZ 100286b5 f i libucrt:output.obj
 0001:000276e8       ?state_case_size@?$output_processor@DV?$stream_output_adapter@D@__crt_stdio_output@@V?$format_validation_base@DV?$stream_output_adapter@D@__crt_stdio_output@@@2@@__crt_stdio_output@@AAE_NXZ 100286e8 f i libucrt:output.obj
 0001:000278ab       ?state_case_size@?$output_processor@DV?$stream_output_adapter@D@__crt_stdio_output@@V?$positional_parameter_base@DV?$stream_output_adapter@D@__crt_stdio_output@@@2@@__crt_stdio_output@@AAE_NXZ 100288ab f i libucrt:output.obj
 0001:00027a6e       ?state_case_size@?$output_processor@DV?$stream_output_adapter@D@__crt_stdio_output@@V?$standard_base@DV?$stream_output_adapter@D@__crt_stdio_output@@@2@@__crt_stdio_output@@AAE_NXZ 10028a6e f i libucrt:output.obj
 0001:00027c31       ?state_case_size@?$output_processor@DV?$string_output_adapter@D@__crt_stdio_output@@V?$format_validation_base@DV?$string_output_adapter@D@__crt_stdio_output@@@2@@__crt_stdio_output@@AAE_NXZ 10028c31 f i libucrt:output.obj
 0001:00027df4       ?state_case_size@?$output_processor@DV?$string_output_adapter@D@__crt_stdio_output@@V?$positional_parameter_base@DV?$string_output_adapter@D@__crt_stdio_output@@@2@@__crt_stdio_output@@AAE_NXZ 10028df4 f i libucrt:output.obj
 0001:00027fb7       ?state_case_size@?$output_processor@DV?$string_output_adapter@D@__crt_stdio_output@@V?$standard_base@DV?$string_output_adapter@D@__crt_stdio_output@@@2@@__crt_stdio_output@@AAE_NXZ 10028fb7 f i libucrt:output.obj
 0001:0002817a       ?state_case_size@?$output_processor@_WV?$stream_output_adapter@_W@__crt_stdio_output@@V?$format_validation_base@_WV?$stream_output_adapter@_W@__crt_stdio_output@@@2@@__crt_stdio_output@@AAE_NXZ 1002917a f i libucrt:output.obj
 0001:00028355       ?state_case_size@?$output_processor@_WV?$stream_output_adapter@_W@__crt_stdio_output@@V?$positional_parameter_base@_WV?$stream_output_adapter@_W@__crt_stdio_output@@@2@@__crt_stdio_output@@AAE_NXZ 10029355 f i libucrt:output.obj
 0001:00028530       ?state_case_size@?$output_processor@_WV?$stream_output_adapter@_W@__crt_stdio_output@@V?$standard_base@_WV?$stream_output_adapter@_W@__crt_stdio_output@@@2@@__crt_stdio_output@@AAE_NXZ 10029530 f i libucrt:output.obj
 0001:0002870b       ?state_case_size@?$output_processor@_WV?$string_output_adapter@_W@__crt_stdio_output@@V?$format_validation_base@_WV?$string_output_adapter@_W@__crt_stdio_output@@@2@@__crt_stdio_output@@AAE_NXZ 1002970b f i libucrt:output.obj
 0001:000288e6       ?state_case_size@?$output_processor@_WV?$string_output_adapter@_W@__crt_stdio_output@@V?$positional_parameter_base@_WV?$string_output_adapter@_W@__crt_stdio_output@@@2@@__crt_stdio_output@@AAE_NXZ 100298e6 f i libucrt:output.obj
 0001:00028ac1       ?state_case_size@?$output_processor@_WV?$string_output_adapter@_W@__crt_stdio_output@@V?$standard_base@_WV?$string_output_adapter@_W@__crt_stdio_output@@@2@@__crt_stdio_output@@AAE_NXZ 10029ac1 f i libucrt:output.obj
 0001:00028c9c       ?state_case_type@?$output_processor@DV?$stream_output_adapter@D@__crt_stdio_output@@V?$format_validation_base@DV?$stream_output_adapter@D@__crt_stdio_output@@@2@@__crt_stdio_output@@AAE_NXZ 10029c9c f i libucrt:output.obj
 0001:00028f58       ?state_case_type@?$output_processor@DV?$stream_output_adapter@D@__crt_stdio_output@@V?$positional_parameter_base@DV?$stream_output_adapter@D@__crt_stdio_output@@@2@@__crt_stdio_output@@AAE_NXZ 10029f58 f i libucrt:output.obj
 0001:00029221       ?state_case_type@?$output_processor@DV?$stream_output_adapter@D@__crt_stdio_output@@V?$standard_base@DV?$stream_output_adapter@D@__crt_stdio_output@@@2@@__crt_stdio_output@@AAE_NXZ 1002a221 f i libucrt:output.obj
 0001:000294dd       ?state_case_type@?$output_processor@DV?$string_output_adapter@D@__crt_stdio_output@@V?$format_validation_base@DV?$string_output_adapter@D@__crt_stdio_output@@@2@@__crt_stdio_output@@AAE_NXZ 1002a4dd f i libucrt:output.obj
 0001:00029799       ?state_case_type@?$output_processor@DV?$string_output_adapter@D@__crt_stdio_output@@V?$positional_parameter_base@DV?$string_output_adapter@D@__crt_stdio_output@@@2@@__crt_stdio_output@@AAE_NXZ 1002a799 f i libucrt:output.obj
 0001:00029a62       ?state_case_type@?$output_processor@DV?$string_output_adapter@D@__crt_stdio_output@@V?$standard_base@DV?$string_output_adapter@D@__crt_stdio_output@@@2@@__crt_stdio_output@@AAE_NXZ 1002aa62 f i libucrt:output.obj
 0001:00029d1e       ?state_case_type@?$output_processor@_WV?$stream_output_adapter@_W@__crt_stdio_output@@V?$format_validation_base@_WV?$stream_output_adapter@_W@__crt_stdio_output@@@2@@__crt_stdio_output@@AAE_NXZ 1002ad1e f i libucrt:output.obj
 0001:0002a013       ?state_case_type@?$output_processor@_WV?$stream_output_adapter@_W@__crt_stdio_output@@V?$positional_parameter_base@_WV?$stream_output_adapter@_W@__crt_stdio_output@@@2@@__crt_stdio_output@@AAE_NXZ 1002b013 f i libucrt:output.obj
 0001:0002a31b       ?state_case_type@?$output_processor@_WV?$stream_output_adapter@_W@__crt_stdio_output@@V?$standard_base@_WV?$stream_output_adapter@_W@__crt_stdio_output@@@2@@__crt_stdio_output@@AAE_NXZ 1002b31b f i libucrt:output.obj
 0001:0002a610       ?state_case_type@?$output_processor@_WV?$string_output_adapter@_W@__crt_stdio_output@@V?$format_validation_base@_WV?$string_output_adapter@_W@__crt_stdio_output@@@2@@__crt_stdio_output@@AAE_NXZ 1002b610 f i libucrt:output.obj
 0001:0002a905       ?state_case_type@?$output_processor@_WV?$string_output_adapter@_W@__crt_stdio_output@@V?$positional_parameter_base@_WV?$string_output_adapter@_W@__crt_stdio_output@@@2@@__crt_stdio_output@@AAE_NXZ 1002b905 f i libucrt:output.obj
 0001:0002ac0d       ?state_case_type@?$output_processor@_WV?$string_output_adapter@_W@__crt_stdio_output@@V?$standard_base@_WV?$string_output_adapter@_W@__crt_stdio_output@@@2@@__crt_stdio_output@@AAE_NXZ 1002bc0d f i libucrt:output.obj
 0001:0002af02       ?state_case_width@?$output_processor@DV?$stream_output_adapter@D@__crt_stdio_output@@V?$format_validation_base@DV?$stream_output_adapter@D@__crt_stdio_output@@@2@@__crt_stdio_output@@AAE_NXZ 1002bf02 f i libucrt:output.obj
 0001:0002af37       ?state_case_width@?$output_processor@DV?$stream_output_adapter@D@__crt_stdio_output@@V?$positional_parameter_base@DV?$stream_output_adapter@D@__crt_stdio_output@@@2@@__crt_stdio_output@@AAE_NXZ 1002bf37 f i libucrt:output.obj
 0001:0002af87       ?state_case_width@?$output_processor@DV?$stream_output_adapter@D@__crt_stdio_output@@V?$standard_base@DV?$stream_output_adapter@D@__crt_stdio_output@@@2@@__crt_stdio_output@@AAE_NXZ 1002bf87 f i libucrt:output.obj
 0001:0002afbc       ?state_case_width@?$output_processor@DV?$string_output_adapter@D@__crt_stdio_output@@V?$format_validation_base@DV?$string_output_adapter@D@__crt_stdio_output@@@2@@__crt_stdio_output@@AAE_NXZ 1002bfbc f i libucrt:output.obj
 0001:0002aff1       ?state_case_width@?$output_processor@DV?$string_output_adapter@D@__crt_stdio_output@@V?$positional_parameter_base@DV?$string_output_adapter@D@__crt_stdio_output@@@2@@__crt_stdio_output@@AAE_NXZ 1002bff1 f i libucrt:output.obj
 0001:0002b041       ?state_case_width@?$output_processor@DV?$string_output_adapter@D@__crt_stdio_output@@V?$standard_base@DV?$string_output_adapter@D@__crt_stdio_output@@@2@@__crt_stdio_output@@AAE_NXZ 1002c041 f i libucrt:output.obj
 0001:0002b076       ?state_case_width@?$output_processor@_WV?$stream_output_adapter@_W@__crt_stdio_output@@V?$format_validation_base@_WV?$stream_output_adapter@_W@__crt_stdio_output@@@2@@__crt_stdio_output@@AAE_NXZ 1002c076 f i libucrt:output.obj
 0001:0002b0ad       ?state_case_width@?$output_processor@_WV?$stream_output_adapter@_W@__crt_stdio_output@@V?$positional_parameter_base@_WV?$stream_output_adapter@_W@__crt_stdio_output@@@2@@__crt_stdio_output@@AAE_NXZ 1002c0ad f i libucrt:output.obj
 0001:0002b0fe       ?state_case_width@?$output_processor@_WV?$stream_output_adapter@_W@__crt_stdio_output@@V?$standard_base@_WV?$stream_output_adapter@_W@__crt_stdio_output@@@2@@__crt_stdio_output@@AAE_NXZ 1002c0fe f i libucrt:output.obj
 0001:0002b135       ?state_case_width@?$output_processor@_WV?$string_output_adapter@_W@__crt_stdio_output@@V?$format_validation_base@_WV?$string_output_adapter@_W@__crt_stdio_output@@@2@@__crt_stdio_output@@AAE_NXZ 1002c135 f i libucrt:output.obj
 0001:0002b16c       ?state_case_width@?$output_processor@_WV?$string_output_adapter@_W@__crt_stdio_output@@V?$positional_parameter_base@_WV?$string_output_adapter@_W@__crt_stdio_output@@@2@@__crt_stdio_output@@AAE_NXZ 1002c16c f i libucrt:output.obj
 0001:0002b1bd       ?state_case_width@?$output_processor@_WV?$string_output_adapter@_W@__crt_stdio_output@@V?$standard_base@_WV?$string_output_adapter@_W@__crt_stdio_output@@@2@@__crt_stdio_output@@AAE_NXZ 1002c1bd f i libucrt:output.obj
 0001:0002b1f4       ?state_count@?$format_validation_base@DV?$stream_output_adapter@D@__crt_stdio_output@@@__crt_stdio_output@@KAIXZ 1002c1f4 f i libucrt:output.obj
 0001:0002b1f8       ?state_count@?$format_validation_base@DV?$string_output_adapter@D@__crt_stdio_output@@@__crt_stdio_output@@KAIXZ 1002c1f8 f i libucrt:output.obj
 0001:0002b1fc       ?state_count@?$format_validation_base@_WV?$stream_output_adapter@_W@__crt_stdio_output@@@__crt_stdio_output@@KAIXZ 1002c1fc f i libucrt:output.obj
 0001:0002b200       ?state_count@?$format_validation_base@_WV?$string_output_adapter@_W@__crt_stdio_output@@@__crt_stdio_output@@KAIXZ 1002c200 f i libucrt:output.obj
 0001:0002b204       ?state_count@?$standard_base@DV?$stream_output_adapter@D@__crt_stdio_output@@@__crt_stdio_output@@KAIXZ 1002c204 f i libucrt:output.obj
 0001:0002b208       ?state_count@?$standard_base@DV?$string_output_adapter@D@__crt_stdio_output@@@__crt_stdio_output@@KAIXZ 1002c208 f i libucrt:output.obj
 0001:0002b20c       ?state_count@?$standard_base@_WV?$stream_output_adapter@_W@__crt_stdio_output@@@__crt_stdio_output@@KAIXZ 1002c20c f i libucrt:output.obj
 0001:0002b210       ?state_count@?$standard_base@_WV?$string_output_adapter@_W@__crt_stdio_output@@@__crt_stdio_output@@KAIXZ 1002c210 f i libucrt:output.obj
 0001:0002b214       ?state_transition_table@?$format_validation_base@DV?$stream_output_adapter@D@__crt_stdio_output@@@__crt_stdio_output@@KAPBEXZ 1002c214 f i libucrt:output.obj
 0001:0002b21a       ?state_transition_table@?$format_validation_base@DV?$string_output_adapter@D@__crt_stdio_output@@@__crt_stdio_output@@KAPBEXZ 1002c21a f i libucrt:output.obj
 0001:0002b220       ?state_transition_table@?$format_validation_base@_WV?$stream_output_adapter@_W@__crt_stdio_output@@@__crt_stdio_output@@KAPBEXZ 1002c220 f i libucrt:output.obj
 0001:0002b226       ?state_transition_table@?$format_validation_base@_WV?$string_output_adapter@_W@__crt_stdio_output@@@__crt_stdio_output@@KAPBEXZ 1002c226 f i libucrt:output.obj
 0001:0002b22c       ?state_transition_table@?$standard_base@DV?$stream_output_adapter@D@__crt_stdio_output@@@__crt_stdio_output@@KAPBEXZ 1002c22c f i libucrt:output.obj
 0001:0002b232       ?state_transition_table@?$standard_base@DV?$string_output_adapter@D@__crt_stdio_output@@@__crt_stdio_output@@KAPBEXZ 1002c232 f i libucrt:output.obj
 0001:0002b238       ?state_transition_table@?$standard_base@_WV?$stream_output_adapter@_W@__crt_stdio_output@@@__crt_stdio_output@@KAPBEXZ 1002c238 f i libucrt:output.obj
 0001:0002b23e       ?state_transition_table@?$standard_base@_WV?$string_output_adapter@_W@__crt_stdio_output@@@__crt_stdio_output@@KAPBEXZ 1002c23e f i libucrt:output.obj
 0001:0002b244       ?tchar_string@?$common_data@D@__crt_stdio_output@@IAEAAPADD@Z 1002c244 f i libucrt:output.obj
 0001:0002b24a       ?tchar_string@?$common_data@D@__crt_stdio_output@@IAEAAPADXZ 1002c24a f i libucrt:output.obj
 0001:0002b24e       ?tchar_string@?$common_data@_W@__crt_stdio_output@@IAEAAPA_WXZ 1002c24e f i libucrt:output.obj
 0001:0002b252       ?tchar_string@?$common_data@_W@__crt_stdio_output@@IAEAAPA_W_W@Z 1002c252 f i libucrt:output.obj
 0001:0002b258       ?to_integer_size@__crt_stdio_output@@YAIW4length_modifier@1@@Z 1002c258 f i libucrt:output.obj
 0001:0002b2cb       ?type_case_X@?$output_processor@DV?$stream_output_adapter@D@__crt_stdio_output@@V?$format_validation_base@DV?$stream_output_adapter@D@__crt_stdio_output@@@2@@__crt_stdio_output@@AAE_NXZ 1002c2cb f i libucrt:output.obj
 0001:0002b2d7       ?type_case_X@?$output_processor@DV?$stream_output_adapter@D@__crt_stdio_output@@V?$positional_parameter_base@DV?$stream_output_adapter@D@__crt_stdio_output@@@2@@__crt_stdio_output@@AAE_NXZ 1002c2d7 f i libucrt:output.obj
 0001:0002b2e3       ?type_case_X@?$output_processor@DV?$stream_output_adapter@D@__crt_stdio_output@@V?$standard_base@DV?$stream_output_adapter@D@__crt_stdio_output@@@2@@__crt_stdio_output@@AAE_NXZ 1002c2e3 f i libucrt:output.obj
 0001:0002b2ef       ?type_case_X@?$output_processor@DV?$string_output_adapter@D@__crt_stdio_output@@V?$format_validation_base@DV?$string_output_adapter@D@__crt_stdio_output@@@2@@__crt_stdio_output@@AAE_NXZ 1002c2ef f i libucrt:output.obj
 0001:0002b2fb       ?type_case_X@?$output_processor@DV?$string_output_adapter@D@__crt_stdio_output@@V?$positional_parameter_base@DV?$string_output_adapter@D@__crt_stdio_output@@@2@@__crt_stdio_output@@AAE_NXZ 1002c2fb f i libucrt:output.obj
 0001:0002b307       ?type_case_X@?$output_processor@DV?$string_output_adapter@D@__crt_stdio_output@@V?$standard_base@DV?$string_output_adapter@D@__crt_stdio_output@@@2@@__crt_stdio_output@@AAE_NXZ 1002c307 f i libucrt:output.obj
 0001:0002b313       ?type_case_X@?$output_processor@_WV?$stream_output_adapter@_W@__crt_stdio_output@@V?$format_validation_base@_WV?$stream_output_adapter@_W@__crt_stdio_output@@@2@@__crt_stdio_output@@AAE_NXZ 1002c313 f i libucrt:output.obj
 0001:0002b31f       ?type_case_X@?$output_processor@_WV?$stream_output_adapter@_W@__crt_stdio_output@@V?$positional_parameter_base@_WV?$stream_output_adapter@_W@__crt_stdio_output@@@2@@__crt_stdio_output@@AAE_NXZ 1002c31f f i libucrt:output.obj
 0001:0002b32b       ?type_case_X@?$output_processor@_WV?$stream_output_adapter@_W@__crt_stdio_output@@V?$standard_base@_WV?$stream_output_adapter@_W@__crt_stdio_output@@@2@@__crt_stdio_output@@AAE_NXZ 1002c32b f i libucrt:output.obj
 0001:0002b337       ?type_case_X@?$output_processor@_WV?$string_output_adapter@_W@__crt_stdio_output@@V?$format_validation_base@_WV?$string_output_adapter@_W@__crt_stdio_output@@@2@@__crt_stdio_output@@AAE_NXZ 1002c337 f i libucrt:output.obj
 0001:0002b343       ?type_case_X@?$output_processor@_WV?$string_output_adapter@_W@__crt_stdio_output@@V?$positional_parameter_base@_WV?$string_output_adapter@_W@__crt_stdio_output@@@2@@__crt_stdio_output@@AAE_NXZ 1002c343 f i libucrt:output.obj
 0001:0002b34f       ?type_case_X@?$output_processor@_WV?$string_output_adapter@_W@__crt_stdio_output@@V?$standard_base@_WV?$string_output_adapter@_W@__crt_stdio_output@@@2@@__crt_stdio_output@@AAE_NXZ 1002c34f f i libucrt:output.obj
 0001:0002b35b       ?type_case_Z@?$output_processor@DV?$stream_output_adapter@D@__crt_stdio_output@@V?$format_validation_base@DV?$stream_output_adapter@D@__crt_stdio_output@@@2@@__crt_stdio_output@@AAE_NXZ 1002c35b f i libucrt:output.obj
 0001:0002b3d6       ?type_case_Z@?$output_processor@DV?$stream_output_adapter@D@__crt_stdio_output@@V?$positional_parameter_base@DV?$stream_output_adapter@D@__crt_stdio_output@@@2@@__crt_stdio_output@@AAE_NXZ 1002c3d6 f i libucrt:output.obj
 0001:0002b474       ?type_case_Z@?$output_processor@DV?$stream_output_adapter@D@__crt_stdio_output@@V?$standard_base@DV?$stream_output_adapter@D@__crt_stdio_output@@@2@@__crt_stdio_output@@AAE_NXZ 1002c474 f i libucrt:output.obj
 0001:0002b4ef       ?type_case_Z@?$output_processor@DV?$string_output_adapter@D@__crt_stdio_output@@V?$format_validation_base@DV?$string_output_adapter@D@__crt_stdio_output@@@2@@__crt_stdio_output@@AAE_NXZ 1002c4ef f i libucrt:output.obj
 0001:0002b56a       ?type_case_Z@?$output_processor@DV?$string_output_adapter@D@__crt_stdio_output@@V?$positional_parameter_base@DV?$string_output_adapter@D@__crt_stdio_output@@@2@@__crt_stdio_output@@AAE_NXZ 1002c56a f i libucrt:output.obj
 0001:0002b608       ?type_case_Z@?$output_processor@DV?$string_output_adapter@D@__crt_stdio_output@@V?$standard_base@DV?$string_output_adapter@D@__crt_stdio_output@@@2@@__crt_stdio_output@@AAE_NXZ 1002c608 f i libucrt:output.obj
 0001:0002b683       ?type_case_Z@?$output_processor@_WV?$stream_output_adapter@_W@__crt_stdio_output@@V?$format_validation_base@_WV?$stream_output_adapter@_W@__crt_stdio_output@@@2@@__crt_stdio_output@@AAE_NXZ 1002c683 f i libucrt:output.obj
 0001:0002b6fe       ?type_case_Z@?$output_processor@_WV?$stream_output_adapter@_W@__crt_stdio_output@@V?$positional_parameter_base@_WV?$stream_output_adapter@_W@__crt_stdio_output@@@2@@__crt_stdio_output@@AAE_NXZ 1002c6fe f i libucrt:output.obj
 0001:0002b79c       ?type_case_Z@?$output_processor@_WV?$stream_output_adapter@_W@__crt_stdio_output@@V?$standard_base@_WV?$stream_output_adapter@_W@__crt_stdio_output@@@2@@__crt_stdio_output@@AAE_NXZ 1002c79c f i libucrt:output.obj
 0001:0002b817       ?type_case_Z@?$output_processor@_WV?$string_output_adapter@_W@__crt_stdio_output@@V?$format_validation_base@_WV?$string_output_adapter@_W@__crt_stdio_output@@@2@@__crt_stdio_output@@AAE_NXZ 1002c817 f i libucrt:output.obj
 0001:0002b892       ?type_case_Z@?$output_processor@_WV?$string_output_adapter@_W@__crt_stdio_output@@V?$positional_parameter_base@_WV?$string_output_adapter@_W@__crt_stdio_output@@@2@@__crt_stdio_output@@AAE_NXZ 1002c892 f i libucrt:output.obj
 0001:0002b930       ?type_case_Z@?$output_processor@_WV?$string_output_adapter@_W@__crt_stdio_output@@V?$standard_base@_WV?$string_output_adapter@_W@__crt_stdio_output@@@2@@__crt_stdio_output@@AAE_NXZ 1002c930 f i libucrt:output.obj
 0001:0002b9ab       ?type_case_a@?$output_processor@DV?$stream_output_adapter@D@__crt_stdio_output@@V?$format_validation_base@DV?$stream_output_adapter@D@__crt_stdio_output@@@2@@__crt_stdio_output@@AAE_NXZ 1002c9ab f i libucrt:output.obj
 0001:0002bb5b       ?type_case_a@?$output_processor@DV?$stream_output_adapter@D@__crt_stdio_output@@V?$positional_parameter_base@DV?$stream_output_adapter@D@__crt_stdio_output@@@2@@__crt_stdio_output@@AAE_NXZ 1002cb5b f i libucrt:output.obj
 0001:0002bd32       ?type_case_a@?$output_processor@DV?$stream_output_adapter@D@__crt_stdio_output@@V?$standard_base@DV?$stream_output_adapter@D@__crt_stdio_output@@@2@@__crt_stdio_output@@AAE_NXZ 1002cd32 f i libucrt:output.obj
 0001:0002bee2       ?type_case_a@?$output_processor@DV?$string_output_adapter@D@__crt_stdio_output@@V?$format_validation_base@DV?$string_output_adapter@D@__crt_stdio_output@@@2@@__crt_stdio_output@@AAE_NXZ 1002cee2 f i libucrt:output.obj
 0001:0002c092       ?type_case_a@?$output_processor@DV?$string_output_adapter@D@__crt_stdio_output@@V?$positional_parameter_base@DV?$string_output_adapter@D@__crt_stdio_output@@@2@@__crt_stdio_output@@AAE_NXZ 1002d092 f i libucrt:output.obj
 0001:0002c269       ?type_case_a@?$output_processor@DV?$string_output_adapter@D@__crt_stdio_output@@V?$standard_base@DV?$string_output_adapter@D@__crt_stdio_output@@@2@@__crt_stdio_output@@AAE_NXZ 1002d269 f i libucrt:output.obj
 0001:0002c419       ?type_case_a@?$output_processor@_WV?$stream_output_adapter@_W@__crt_stdio_output@@V?$format_validation_base@_WV?$stream_output_adapter@_W@__crt_stdio_output@@@2@@__crt_stdio_output@@AAE_NXZ 1002d419 f i libucrt:output.obj
 0001:0002c5e7       ?type_case_a@?$output_processor@_WV?$stream_output_adapter@_W@__crt_stdio_output@@V?$positional_parameter_base@_WV?$stream_output_adapter@_W@__crt_stdio_output@@@2@@__crt_stdio_output@@AAE_NXZ 1002d5e7 f i libucrt:output.obj
 0001:0002c7dc       ?type_case_a@?$output_processor@_WV?$stream_output_adapter@_W@__crt_stdio_output@@V?$standard_base@_WV?$stream_output_adapter@_W@__crt_stdio_output@@@2@@__crt_stdio_output@@AAE_NXZ 1002d7dc f i libucrt:output.obj
 0001:0002c9aa       ?type_case_a@?$output_processor@_WV?$string_output_adapter@_W@__crt_stdio_output@@V?$format_validation_base@_WV?$string_output_adapter@_W@__crt_stdio_output@@@2@@__crt_stdio_output@@AAE_NXZ 1002d9aa f i libucrt:output.obj
 0001:0002cb78       ?type_case_a@?$output_processor@_WV?$string_output_adapter@_W@__crt_stdio_output@@V?$positional_parameter_base@_WV?$string_output_adapter@_W@__crt_stdio_output@@@2@@__crt_stdio_output@@AAE_NXZ 1002db78 f i libucrt:output.obj
 0001:0002cd6d       ?type_case_a@?$output_processor@_WV?$string_output_adapter@_W@__crt_stdio_output@@V?$standard_base@_WV?$string_output_adapter@_W@__crt_stdio_output@@@2@@__crt_stdio_output@@AAE_NXZ 1002dd6d f i libucrt:output.obj
 0001:0002cf3b       ?type_case_c@?$output_processor@DV?$stream_output_adapter@D@__crt_stdio_output@@V?$format_validation_base@DV?$stream_output_adapter@D@__crt_stdio_output@@@2@@__crt_stdio_output@@AAE_NXZ 1002df3b f i libucrt:output.obj
 0001:0002cf45       ?type_case_c@?$output_processor@DV?$stream_output_adapter@D@__crt_stdio_output@@V?$positional_parameter_base@DV?$stream_output_adapter@D@__crt_stdio_output@@@2@@__crt_stdio_output@@AAE_NXZ 1002df45 f i libucrt:output.obj
 0001:0002cf4f       ?type_case_c@?$output_processor@DV?$stream_output_adapter@D@__crt_stdio_output@@V?$standard_base@DV?$stream_output_adapter@D@__crt_stdio_output@@@2@@__crt_stdio_output@@AAE_NXZ 1002df4f f i libucrt:output.obj
 0001:0002cf59       ?type_case_c@?$output_processor@DV?$string_output_adapter@D@__crt_stdio_output@@V?$format_validation_base@DV?$string_output_adapter@D@__crt_stdio_output@@@2@@__crt_stdio_output@@AAE_NXZ 1002df59 f i libucrt:output.obj
 0001:0002cf63       ?type_case_c@?$output_processor@DV?$string_output_adapter@D@__crt_stdio_output@@V?$positional_parameter_base@DV?$string_output_adapter@D@__crt_stdio_output@@@2@@__crt_stdio_output@@AAE_NXZ 1002df63 f i libucrt:output.obj
 0001:0002cf6d       ?type_case_c@?$output_processor@DV?$string_output_adapter@D@__crt_stdio_output@@V?$standard_base@DV?$string_output_adapter@D@__crt_stdio_output@@@2@@__crt_stdio_output@@AAE_NXZ 1002df6d f i libucrt:output.obj
 0001:0002cf77       ?type_case_c@?$output_processor@_WV?$stream_output_adapter@_W@__crt_stdio_output@@V?$format_validation_base@_WV?$stream_output_adapter@_W@__crt_stdio_output@@@2@@__crt_stdio_output@@AAE_NXZ 1002df77 f i libucrt:output.obj
 0001:0002cf81       ?type_case_c@?$output_processor@_WV?$stream_output_adapter@_W@__crt_stdio_output@@V?$positional_parameter_base@_WV?$stream_output_adapter@_W@__crt_stdio_output@@@2@@__crt_stdio_output@@AAE_NXZ 1002df81 f i libucrt:output.obj
 0001:0002cf8b       ?type_case_c@?$output_processor@_WV?$stream_output_adapter@_W@__crt_stdio_output@@V?$standard_base@_WV?$stream_output_adapter@_W@__crt_stdio_output@@@2@@__crt_stdio_output@@AAE_NXZ 1002df8b f i libucrt:output.obj
 0001:0002cf95       ?type_case_c@?$output_processor@_WV?$string_output_adapter@_W@__crt_stdio_output@@V?$format_validation_base@_WV?$string_output_adapter@_W@__crt_stdio_output@@@2@@__crt_stdio_output@@AAE_NXZ 1002df95 f i libucrt:output.obj
 0001:0002cf9f       ?type_case_c@?$output_processor@_WV?$string_output_adapter@_W@__crt_stdio_output@@V?$positional_parameter_base@_WV?$string_output_adapter@_W@__crt_stdio_output@@@2@@__crt_stdio_output@@AAE_NXZ 1002df9f f i libucrt:output.obj
 0001:0002cfa9       ?type_case_c@?$output_processor@_WV?$string_output_adapter@_W@__crt_stdio_output@@V?$standard_base@_WV?$string_output_adapter@_W@__crt_stdio_output@@@2@@__crt_stdio_output@@AAE_NXZ 1002dfa9 f i libucrt:output.obj
 0001:0002cfb3       ?type_case_c_tchar@?$output_processor@DV?$stream_output_adapter@D@__crt_stdio_output@@V?$format_validation_base@DV?$stream_output_adapter@D@__crt_stdio_output@@@2@@__crt_stdio_output@@AAE_ND@Z 1002dfb3 f i libucrt:output.obj
 0001:0002d067       ?type_case_c_tchar@?$output_processor@DV?$stream_output_adapter@D@__crt_stdio_output@@V?$positional_parameter_base@DV?$stream_output_adapter@D@__crt_stdio_output@@@2@@__crt_stdio_output@@AAE_ND@Z 1002e067 f i libucrt:output.obj
 0001:0002d157       ?type_case_c_tchar@?$output_processor@DV?$stream_output_adapter@D@__crt_stdio_output@@V?$standard_base@DV?$stream_output_adapter@D@__crt_stdio_output@@@2@@__crt_stdio_output@@AAE_ND@Z 1002e157 f i libucrt:output.obj
 0001:0002d20b       ?type_case_c_tchar@?$output_processor@DV?$string_output_adapter@D@__crt_stdio_output@@V?$format_validation_base@DV?$string_output_adapter@D@__crt_stdio_output@@@2@@__crt_stdio_output@@AAE_ND@Z 1002e20b f i libucrt:output.obj
 0001:0002d2bf       ?type_case_c_tchar@?$output_processor@DV?$string_output_adapter@D@__crt_stdio_output@@V?$positional_parameter_base@DV?$string_output_adapter@D@__crt_stdio_output@@@2@@__crt_stdio_output@@AAE_ND@Z 1002e2bf f i libucrt:output.obj
 0001:0002d3af       ?type_case_c_tchar@?$output_processor@DV?$string_output_adapter@D@__crt_stdio_output@@V?$standard_base@DV?$string_output_adapter@D@__crt_stdio_output@@@2@@__crt_stdio_output@@AAE_ND@Z 1002e3af f i libucrt:output.obj
 0001:0002d463       ?type_case_c_tchar@?$output_processor@_WV?$stream_output_adapter@_W@__crt_stdio_output@@V?$format_validation_base@_WV?$stream_output_adapter@_W@__crt_stdio_output@@@2@@__crt_stdio_output@@AAE_N_W@Z 1002e463 f i libucrt:output.obj
 0001:0002d521       ?type_case_c_tchar@?$output_processor@_WV?$stream_output_adapter@_W@__crt_stdio_output@@V?$positional_parameter_base@_WV?$stream_output_adapter@_W@__crt_stdio_output@@@2@@__crt_stdio_output@@AAE_N_W@Z 1002e521 f i libucrt:output.obj
 0001:0002d5fb       ?type_case_c_tchar@?$output_processor@_WV?$stream_output_adapter@_W@__crt_stdio_output@@V?$standard_base@_WV?$stream_output_adapter@_W@__crt_stdio_output@@@2@@__crt_stdio_output@@AAE_N_W@Z 1002e5fb f i libucrt:output.obj
 0001:0002d6b9       ?type_case_c_tchar@?$output_processor@_WV?$string_output_adapter@_W@__crt_stdio_output@@V?$format_validation_base@_WV?$string_output_adapter@_W@__crt_stdio_output@@@2@@__crt_stdio_output@@AAE_N_W@Z 1002e6b9 f i libucrt:output.obj
 0001:0002d777       ?type_case_c_tchar@?$output_processor@_WV?$string_output_adapter@_W@__crt_stdio_output@@V?$positional_parameter_base@_WV?$string_output_adapter@_W@__crt_stdio_output@@@2@@__crt_stdio_output@@AAE_N_W@Z 1002e777 f i libucrt:output.obj
 0001:0002d851       ?type_case_c_tchar@?$output_processor@_WV?$string_output_adapter@_W@__crt_stdio_output@@V?$standard_base@_WV?$string_output_adapter@_W@__crt_stdio_output@@@2@@__crt_stdio_output@@AAE_N_W@Z 1002e851 f i libucrt:output.obj
 0001:0002d90f       ?type_case_d@?$output_processor@DV?$stream_output_adapter@D@__crt_stdio_output@@V?$format_validation_base@DV?$stream_output_adapter@D@__crt_stdio_output@@@2@@__crt_stdio_output@@AAE_NXZ 1002e90f f i libucrt:output.obj
 0001:0002d920       ?type_case_d@?$output_processor@DV?$stream_output_adapter@D@__crt_stdio_output@@V?$positional_parameter_base@DV?$stream_output_adapter@D@__crt_stdio_output@@@2@@__crt_stdio_output@@AAE_NXZ 1002e920 f i libucrt:output.obj
 0001:0002d931       ?type_case_d@?$output_processor@DV?$stream_output_adapter@D@__crt_stdio_output@@V?$standard_base@DV?$stream_output_adapter@D@__crt_stdio_output@@@2@@__crt_stdio_output@@AAE_NXZ 1002e931 f i libucrt:output.obj
 0001:0002d942       ?type_case_d@?$output_processor@DV?$string_output_adapter@D@__crt_stdio_output@@V?$format_validation_base@DV?$string_output_adapter@D@__crt_stdio_output@@@2@@__crt_stdio_output@@AAE_NXZ 1002e942 f i libucrt:output.obj
 0001:0002d953       ?type_case_d@?$output_processor@DV?$string_output_adapter@D@__crt_stdio_output@@V?$positional_parameter_base@DV?$string_output_adapter@D@__crt_stdio_output@@@2@@__crt_stdio_output@@AAE_NXZ 1002e953 f i libucrt:output.obj
 0001:0002d964       ?type_case_d@?$output_processor@DV?$string_output_adapter@D@__crt_stdio_output@@V?$standard_base@DV?$string_output_adapter@D@__crt_stdio_output@@@2@@__crt_stdio_output@@AAE_NXZ 1002e964 f i libucrt:output.obj
 0001:0002d975       ?type_case_d@?$output_processor@_WV?$stream_output_adapter@_W@__crt_stdio_output@@V?$format_validation_base@_WV?$stream_output_adapter@_W@__crt_stdio_output@@@2@@__crt_stdio_output@@AAE_NXZ 1002e975 f i libucrt:output.obj
 0001:0002d986       ?type_case_d@?$output_processor@_WV?$stream_output_adapter@_W@__crt_stdio_output@@V?$positional_parameter_base@_WV?$stream_output_adapter@_W@__crt_stdio_output@@@2@@__crt_stdio_output@@AAE_NXZ 1002e986 f i libucrt:output.obj
 0001:0002d997       ?type_case_d@?$output_processor@_WV?$stream_output_adapter@_W@__crt_stdio_output@@V?$standard_base@_WV?$stream_output_adapter@_W@__crt_stdio_output@@@2@@__crt_stdio_output@@AAE_NXZ 1002e997 f i libucrt:output.obj
 0001:0002d9a8       ?type_case_d@?$output_processor@_WV?$string_output_adapter@_W@__crt_stdio_output@@V?$format_validation_base@_WV?$string_output_adapter@_W@__crt_stdio_output@@@2@@__crt_stdio_output@@AAE_NXZ 1002e9a8 f i libucrt:output.obj
 0001:0002d9b9       ?type_case_d@?$output_processor@_WV?$string_output_adapter@_W@__crt_stdio_output@@V?$positional_parameter_base@_WV?$string_output_adapter@_W@__crt_stdio_output@@@2@@__crt_stdio_output@@AAE_NXZ 1002e9b9 f i libucrt:output.obj
 0001:0002d9ca       ?type_case_d@?$output_processor@_WV?$string_output_adapter@_W@__crt_stdio_output@@V?$standard_base@_WV?$string_output_adapter@_W@__crt_stdio_output@@@2@@__crt_stdio_output@@AAE_NXZ 1002e9ca f i libucrt:output.obj
 0001:0002d9db       ?type_case_integer@?$output_processor@DV?$stream_output_adapter@D@__crt_stdio_output@@V?$format_validation_base@DV?$stream_output_adapter@D@__crt_stdio_output@@@2@@__crt_stdio_output@@AAE_NI_N@Z 1002e9db f i libucrt:output.obj
 0001:0002db7c       ?type_case_integer@?$output_processor@DV?$stream_output_adapter@D@__crt_stdio_output@@V?$positional_parameter_base@DV?$stream_output_adapter@D@__crt_stdio_output@@@2@@__crt_stdio_output@@AAE_NI_N@Z 1002eb7c f i libucrt:output.obj
 0001:0002dd5e       ?type_case_integer@?$output_processor@DV?$stream_output_adapter@D@__crt_stdio_output@@V?$standard_base@DV?$stream_output_adapter@D@__crt_stdio_output@@@2@@__crt_stdio_output@@AAE_NI_N@Z 1002ed5e f i libucrt:output.obj
 0001:0002deff       ?type_case_integer@?$output_processor@DV?$string_output_adapter@D@__crt_stdio_output@@V?$format_validation_base@DV?$string_output_adapter@D@__crt_stdio_output@@@2@@__crt_stdio_output@@AAE_NI_N@Z 1002eeff f i libucrt:output.obj
 0001:0002e0a0       ?type_case_integer@?$output_processor@DV?$string_output_adapter@D@__crt_stdio_output@@V?$positional_parameter_base@DV?$string_output_adapter@D@__crt_stdio_output@@@2@@__crt_stdio_output@@AAE_NI_N@Z 1002f0a0 f i libucrt:output.obj
 0001:0002e282       ?type_case_integer@?$output_processor@DV?$string_output_adapter@D@__crt_stdio_output@@V?$standard_base@DV?$string_output_adapter@D@__crt_stdio_output@@@2@@__crt_stdio_output@@AAE_NI_N@Z 1002f282 f i libucrt:output.obj
 0001:0002e423       ?type_case_integer@?$output_processor@_WV?$stream_output_adapter@_W@__crt_stdio_output@@V?$format_validation_base@_WV?$stream_output_adapter@_W@__crt_stdio_output@@@2@@__crt_stdio_output@@AAE_NI_N@Z 1002f423 f i libucrt:output.obj
 0001:0002e5c9       ?type_case_integer@?$output_processor@_WV?$stream_output_adapter@_W@__crt_stdio_output@@V?$positional_parameter_base@_WV?$stream_output_adapter@_W@__crt_stdio_output@@@2@@__crt_stdio_output@@AAE_NI_N@Z 1002f5c9 f i libucrt:output.obj
 0001:0002e7b0       ?type_case_integer@?$output_processor@_WV?$stream_output_adapter@_W@__crt_stdio_output@@V?$standard_base@_WV?$stream_output_adapter@_W@__crt_stdio_output@@@2@@__crt_stdio_output@@AAE_NI_N@Z 1002f7b0 f i libucrt:output.obj
 0001:0002e956       ?type_case_integer@?$output_processor@_WV?$string_output_adapter@_W@__crt_stdio_output@@V?$format_validation_base@_WV?$string_output_adapter@_W@__crt_stdio_output@@@2@@__crt_stdio_output@@AAE_NI_N@Z 1002f956 f i libucrt:output.obj
 0001:0002eafc       ?type_case_integer@?$output_processor@_WV?$string_output_adapter@_W@__crt_stdio_output@@V?$positional_parameter_base@_WV?$string_output_adapter@_W@__crt_stdio_output@@@2@@__crt_stdio_output@@AAE_NI_N@Z 1002fafc f i libucrt:output.obj
 0001:0002ece3       ?type_case_integer@?$output_processor@_WV?$string_output_adapter@_W@__crt_stdio_output@@V?$standard_base@_WV?$string_output_adapter@_W@__crt_stdio_output@@@2@@__crt_stdio_output@@AAE_NI_N@Z 1002fce3 f i libucrt:output.obj
 0001:0002ee89       ?type_case_n@?$output_processor@DV?$stream_output_adapter@D@__crt_stdio_output@@V?$format_validation_base@DV?$stream_output_adapter@D@__crt_stdio_output@@@2@@__crt_stdio_output@@AAE_NXZ 1002fe89 f i libucrt:output.obj
 0001:0002ef1a       ?type_case_n@?$output_processor@DV?$stream_output_adapter@D@__crt_stdio_output@@V?$positional_parameter_base@DV?$stream_output_adapter@D@__crt_stdio_output@@@2@@__crt_stdio_output@@AAE_NXZ 1002ff1a f i libucrt:output.obj
 0001:0002efd9       ?type_case_n@?$output_processor@DV?$stream_output_adapter@D@__crt_stdio_output@@V?$standard_base@DV?$stream_output_adapter@D@__crt_stdio_output@@@2@@__crt_stdio_output@@AAE_NXZ 1002ffd9 f i libucrt:output.obj
 0001:0002f06a       ?type_case_n@?$output_processor@DV?$string_output_adapter@D@__crt_stdio_output@@V?$format_validation_base@DV?$string_output_adapter@D@__crt_stdio_output@@@2@@__crt_stdio_output@@AAE_NXZ 1003006a f i libucrt:output.obj
 0001:0002f0fb       ?type_case_n@?$output_processor@DV?$string_output_adapter@D@__crt_stdio_output@@V?$positional_parameter_base@DV?$string_output_adapter@D@__crt_stdio_output@@@2@@__crt_stdio_output@@AAE_NXZ 100300fb f i libucrt:output.obj
 0001:0002f1ba       ?type_case_n@?$output_processor@DV?$string_output_adapter@D@__crt_stdio_output@@V?$standard_base@DV?$string_output_adapter@D@__crt_stdio_output@@@2@@__crt_stdio_output@@AAE_NXZ 100301ba f i libucrt:output.obj
 0001:0002f24b       ?type_case_n@?$output_processor@_WV?$stream_output_adapter@_W@__crt_stdio_output@@V?$format_validation_base@_WV?$stream_output_adapter@_W@__crt_stdio_output@@@2@@__crt_stdio_output@@AAE_NXZ 1003024b f i libucrt:output.obj
 0001:0002f2dc       ?type_case_n@?$output_processor@_WV?$stream_output_adapter@_W@__crt_stdio_output@@V?$positional_parameter_base@_WV?$stream_output_adapter@_W@__crt_stdio_output@@@2@@__crt_stdio_output@@AAE_NXZ 100302dc f i libucrt:output.obj
 0001:0002f39b       ?type_case_n@?$output_processor@_WV?$stream_output_adapter@_W@__crt_stdio_output@@V?$standard_base@_WV?$stream_output_adapter@_W@__crt_stdio_output@@@2@@__crt_stdio_output@@AAE_NXZ 1003039b f i libucrt:output.obj
 0001:0002f42c       ?type_case_n@?$output_processor@_WV?$string_output_adapter@_W@__crt_stdio_output@@V?$format_validation_base@_WV?$string_output_adapter@_W@__crt_stdio_output@@@2@@__crt_stdio_output@@AAE_NXZ 1003042c f i libucrt:output.obj
 0001:0002f4bd       ?type_case_n@?$output_processor@_WV?$string_output_adapter@_W@__crt_stdio_output@@V?$positional_parameter_base@_WV?$string_output_adapter@_W@__crt_stdio_output@@@2@@__crt_stdio_output@@AAE_NXZ 100304bd f i libucrt:output.obj
 0001:0002f57c       ?type_case_n@?$output_processor@_WV?$string_output_adapter@_W@__crt_stdio_output@@V?$standard_base@_WV?$string_output_adapter@_W@__crt_stdio_output@@@2@@__crt_stdio_output@@AAE_NXZ 1003057c f i libucrt:output.obj
 0001:0002f60d       ?type_case_o@?$output_processor@DV?$stream_output_adapter@D@__crt_stdio_output@@V?$format_validation_base@DV?$stream_output_adapter@D@__crt_stdio_output@@@2@@__crt_stdio_output@@AAE_NXZ 1003060d f i libucrt:output.obj
 0001:0002f633       ?type_case_o@?$output_processor@DV?$stream_output_adapter@D@__crt_stdio_output@@V?$positional_parameter_base@DV?$stream_output_adapter@D@__crt_stdio_output@@@2@@__crt_stdio_output@@AAE_NXZ 10030633 f i libucrt:output.obj
 0001:0002f659       ?type_case_o@?$output_processor@DV?$stream_output_adapter@D@__crt_stdio_output@@V?$standard_base@DV?$stream_output_adapter@D@__crt_stdio_output@@@2@@__crt_stdio_output@@AAE_NXZ 10030659 f i libucrt:output.obj
 0001:0002f67f       ?type_case_o@?$output_processor@DV?$string_output_adapter@D@__crt_stdio_output@@V?$format_validation_base@DV?$string_output_adapter@D@__crt_stdio_output@@@2@@__crt_stdio_output@@AAE_NXZ 1003067f f i libucrt:output.obj
 0001:0002f6a5       ?type_case_o@?$output_processor@DV?$string_output_adapter@D@__crt_stdio_output@@V?$positional_parameter_base@DV?$string_output_adapter@D@__crt_stdio_output@@@2@@__crt_stdio_output@@AAE_NXZ 100306a5 f i libucrt:output.obj
 0001:0002f6cb       ?type_case_o@?$output_processor@DV?$string_output_adapter@D@__crt_stdio_output@@V?$standard_base@DV?$string_output_adapter@D@__crt_stdio_output@@@2@@__crt_stdio_output@@AAE_NXZ 100306cb f i libucrt:output.obj
 0001:0002f6f1       ?type_case_o@?$output_processor@_WV?$stream_output_adapter@_W@__crt_stdio_output@@V?$format_validation_base@_WV?$stream_output_adapter@_W@__crt_stdio_output@@@2@@__crt_stdio_output@@AAE_NXZ 100306f1 f i libucrt:output.obj
 0001:0002f717       ?type_case_o@?$output_processor@_WV?$stream_output_adapter@_W@__crt_stdio_output@@V?$positional_parameter_base@_WV?$stream_output_adapter@_W@__crt_stdio_output@@@2@@__crt_stdio_output@@AAE_NXZ 10030717 f i libucrt:output.obj
 0001:0002f73d       ?type_case_o@?$output_processor@_WV?$stream_output_adapter@_W@__crt_stdio_output@@V?$standard_base@_WV?$stream_output_adapter@_W@__crt_stdio_output@@@2@@__crt_stdio_output@@AAE_NXZ 1003073d f i libucrt:output.obj
 0001:0002f763       ?type_case_o@?$output_processor@_WV?$string_output_adapter@_W@__crt_stdio_output@@V?$format_validation_base@_WV?$string_output_adapter@_W@__crt_stdio_output@@@2@@__crt_stdio_output@@AAE_NXZ 10030763 f i libucrt:output.obj
 0001:0002f789       ?type_case_o@?$output_processor@_WV?$string_output_adapter@_W@__crt_stdio_output@@V?$positional_parameter_base@_WV?$string_output_adapter@_W@__crt_stdio_output@@@2@@__crt_stdio_output@@AAE_NXZ 10030789 f i libucrt:output.obj
 0001:0002f7af       ?type_case_o@?$output_processor@_WV?$string_output_adapter@_W@__crt_stdio_output@@V?$standard_base@_WV?$string_output_adapter@_W@__crt_stdio_output@@@2@@__crt_stdio_output@@AAE_NXZ 100307af f i libucrt:output.obj
 0001:0002f7d5       ?type_case_p@?$output_processor@DV?$stream_output_adapter@D@__crt_stdio_output@@V?$format_validation_base@DV?$stream_output_adapter@D@__crt_stdio_output@@@2@@__crt_stdio_output@@AAE_NXZ 100307d5 f i libucrt:output.obj
 0001:0002f7f3       ?type_case_p@?$output_processor@DV?$stream_output_adapter@D@__crt_stdio_output@@V?$positional_parameter_base@DV?$stream_output_adapter@D@__crt_stdio_output@@@2@@__crt_stdio_output@@AAE_NXZ 100307f3 f i libucrt:output.obj
 0001:0002f811       ?type_case_p@?$output_processor@DV?$stream_output_adapter@D@__crt_stdio_output@@V?$standard_base@DV?$stream_output_adapter@D@__crt_stdio_output@@@2@@__crt_stdio_output@@AAE_NXZ 10030811 f i libucrt:output.obj
 0001:0002f82f       ?type_case_p@?$output_processor@DV?$string_output_adapter@D@__crt_stdio_output@@V?$format_validation_base@DV?$string_output_adapter@D@__crt_stdio_output@@@2@@__crt_stdio_output@@AAE_NXZ 1003082f f i libucrt:output.obj
 0001:0002f84d       ?type_case_p@?$output_processor@DV?$string_output_adapter@D@__crt_stdio_output@@V?$positional_parameter_base@DV?$string_output_adapter@D@__crt_stdio_output@@@2@@__crt_stdio_output@@AAE_NXZ 1003084d f i libucrt:output.obj
 0001:0002f86b       ?type_case_p@?$output_processor@DV?$string_output_adapter@D@__crt_stdio_output@@V?$standard_base@DV?$string_output_adapter@D@__crt_stdio_output@@@2@@__crt_stdio_output@@AAE_NXZ 1003086b f i libucrt:output.obj
 0001:0002f889       ?type_case_p@?$output_processor@_WV?$stream_output_adapter@_W@__crt_stdio_output@@V?$format_validation_base@_WV?$stream_output_adapter@_W@__crt_stdio_output@@@2@@__crt_stdio_output@@AAE_NXZ 10030889 f i libucrt:output.obj
 0001:0002f8a7       ?type_case_p@?$output_processor@_WV?$stream_output_adapter@_W@__crt_stdio_output@@V?$positional_parameter_base@_WV?$stream_output_adapter@_W@__crt_stdio_output@@@2@@__crt_stdio_output@@AAE_NXZ 100308a7 f i libucrt:output.obj
 0001:0002f8c5       ?type_case_p@?$output_processor@_WV?$stream_output_adapter@_W@__crt_stdio_output@@V?$standard_base@_WV?$stream_output_adapter@_W@__crt_stdio_output@@@2@@__crt_stdio_output@@AAE_NXZ 100308c5 f i libucrt:output.obj
 0001:0002f8e3       ?type_case_p@?$output_processor@_WV?$string_output_adapter@_W@__crt_stdio_output@@V?$format_validation_base@_WV?$string_output_adapter@_W@__crt_stdio_output@@@2@@__crt_stdio_output@@AAE_NXZ 100308e3 f i libucrt:output.obj
 0001:0002f901       ?type_case_p@?$output_processor@_WV?$string_output_adapter@_W@__crt_stdio_output@@V?$positional_parameter_base@_WV?$string_output_adapter@_W@__crt_stdio_output@@@2@@__crt_stdio_output@@AAE_NXZ 10030901 f i libucrt:output.obj
 0001:0002f91f       ?type_case_p@?$output_processor@_WV?$string_output_adapter@_W@__crt_stdio_output@@V?$standard_base@_WV?$string_output_adapter@_W@__crt_stdio_output@@@2@@__crt_stdio_output@@AAE_NXZ 1003091f f i libucrt:output.obj
 0001:0002f93d       ?type_case_s@?$output_processor@DV?$stream_output_adapter@D@__crt_stdio_output@@V?$format_validation_base@DV?$stream_output_adapter@D@__crt_stdio_output@@@2@@__crt_stdio_output@@AAE_NXZ 1003093d f i libucrt:output.obj
 0001:0002f9cc       ?type_case_s@?$output_processor@DV?$stream_output_adapter@D@__crt_stdio_output@@V?$positional_parameter_base@DV?$stream_output_adapter@D@__crt_stdio_output@@@2@@__crt_stdio_output@@AAE_NXZ 100309cc f i libucrt:output.obj
 0001:0002fa67       ?type_case_s@?$output_processor@DV?$stream_output_adapter@D@__crt_stdio_output@@V?$standard_base@DV?$stream_output_adapter@D@__crt_stdio_output@@@2@@__crt_stdio_output@@AAE_NXZ 10030a67 f i libucrt:output.obj
 0001:0002faf6       ?type_case_s@?$output_processor@DV?$string_output_adapter@D@__crt_stdio_output@@V?$format_validation_base@DV?$string_output_adapter@D@__crt_stdio_output@@@2@@__crt_stdio_output@@AAE_NXZ 10030af6 f i libucrt:output.obj
 0001:0002fb85       ?type_case_s@?$output_processor@DV?$string_output_adapter@D@__crt_stdio_output@@V?$positional_parameter_base@DV?$string_output_adapter@D@__crt_stdio_output@@@2@@__crt_stdio_output@@AAE_NXZ 10030b85 f i libucrt:output.obj
 0001:0002fc20       ?type_case_s@?$output_processor@DV?$string_output_adapter@D@__crt_stdio_output@@V?$standard_base@DV?$string_output_adapter@D@__crt_stdio_output@@@2@@__crt_stdio_output@@AAE_NXZ 10030c20 f i libucrt:output.obj
 0001:0002fcaf       ?type_case_s@?$output_processor@_WV?$stream_output_adapter@_W@__crt_stdio_output@@V?$format_validation_base@_WV?$stream_output_adapter@_W@__crt_stdio_output@@@2@@__crt_stdio_output@@AAE_NXZ 10030caf f i libucrt:output.obj
 0001:0002fd40       ?type_case_s@?$output_processor@_WV?$stream_output_adapter@_W@__crt_stdio_output@@V?$positional_parameter_base@_WV?$stream_output_adapter@_W@__crt_stdio_output@@@2@@__crt_stdio_output@@AAE_NXZ 10030d40 f i libucrt:output.obj
 0001:0002fddd       ?type_case_s@?$output_processor@_WV?$stream_output_adapter@_W@__crt_stdio_output@@V?$standard_base@_WV?$stream_output_adapter@_W@__crt_stdio_output@@@2@@__crt_stdio_output@@AAE_NXZ 10030ddd f i libucrt:output.obj
 0001:0002fe6e       ?type_case_s@?$output_processor@_WV?$string_output_adapter@_W@__crt_stdio_output@@V?$format_validation_base@_WV?$string_output_adapter@_W@__crt_stdio_output@@@2@@__crt_stdio_output@@AAE_NXZ 10030e6e f i libucrt:output.obj
 0001:0002feff       ?type_case_s@?$output_processor@_WV?$string_output_adapter@_W@__crt_stdio_output@@V?$positional_parameter_base@_WV?$string_output_adapter@_W@__crt_stdio_output@@@2@@__crt_stdio_output@@AAE_NXZ 10030eff f i libucrt:output.obj
 0001:0002ff9c       ?type_case_s@?$output_processor@_WV?$string_output_adapter@_W@__crt_stdio_output@@V?$standard_base@_WV?$string_output_adapter@_W@__crt_stdio_output@@@2@@__crt_stdio_output@@AAE_NXZ 10030f9c f i libucrt:output.obj
 0001:0003002d       ?type_case_s_compute_narrow_string_length@?$output_processor@DV?$stream_output_adapter@D@__crt_stdio_output@@V?$format_validation_base@DV?$stream_output_adapter@D@__crt_stdio_output@@@2@@__crt_stdio_output@@ABEHHD@Z 1003102d f i libucrt:output.obj
 0001:00030048       ?type_case_s_compute_narrow_string_length@?$output_processor@DV?$stream_output_adapter@D@__crt_stdio_output@@V?$positional_parameter_base@DV?$stream_output_adapter@D@__crt_stdio_output@@@2@@__crt_stdio_output@@ABEHHD@Z 10031048 f i libucrt:output.obj
 0001:00030063       ?type_case_s_compute_narrow_string_length@?$output_processor@DV?$stream_output_adapter@D@__crt_stdio_output@@V?$standard_base@DV?$stream_output_adapter@D@__crt_stdio_output@@@2@@__crt_stdio_output@@ABEHHD@Z 10031063 f i libucrt:output.obj
 0001:0003007e       ?type_case_s_compute_narrow_string_length@?$output_processor@DV?$string_output_adapter@D@__crt_stdio_output@@V?$format_validation_base@DV?$string_output_adapter@D@__crt_stdio_output@@@2@@__crt_stdio_output@@ABEHHD@Z 1003107e f i libucrt:output.obj
 0001:00030099       ?type_case_s_compute_narrow_string_length@?$output_processor@DV?$string_output_adapter@D@__crt_stdio_output@@V?$positional_parameter_base@DV?$string_output_adapter@D@__crt_stdio_output@@@2@@__crt_stdio_output@@ABEHHD@Z 10031099 f i libucrt:output.obj
 0001:000300b4       ?type_case_s_compute_narrow_string_length@?$output_processor@DV?$string_output_adapter@D@__crt_stdio_output@@V?$standard_base@DV?$string_output_adapter@D@__crt_stdio_output@@@2@@__crt_stdio_output@@ABEHHD@Z 100310b4 f i libucrt:output.obj
 0001:000300cf       ?type_case_s_compute_narrow_string_length@?$output_processor@_WV?$stream_output_adapter@_W@__crt_stdio_output@@V?$format_validation_base@_WV?$stream_output_adapter@_W@__crt_stdio_output@@@2@@__crt_stdio_output@@ABEHH_W@Z 100310cf f i libucrt:output.obj
 0001:0003011f       ?type_case_s_compute_narrow_string_length@?$output_processor@_WV?$stream_output_adapter@_W@__crt_stdio_output@@V?$positional_parameter_base@_WV?$stream_output_adapter@_W@__crt_stdio_output@@@2@@__crt_stdio_output@@ABEHH_W@Z 1003111f f i libucrt:output.obj
 0001:0003016f       ?type_case_s_compute_narrow_string_length@?$output_processor@_WV?$stream_output_adapter@_W@__crt_stdio_output@@V?$standard_base@_WV?$stream_output_adapter@_W@__crt_stdio_output@@@2@@__crt_stdio_output@@ABEHH_W@Z 1003116f f i libucrt:output.obj
 0001:000301bf       ?type_case_s_compute_narrow_string_length@?$output_processor@_WV?$string_output_adapter@_W@__crt_stdio_output@@V?$format_validation_base@_WV?$string_output_adapter@_W@__crt_stdio_output@@@2@@__crt_stdio_output@@ABEHH_W@Z 100311bf f i libucrt:output.obj
 0001:0003020f       ?type_case_s_compute_narrow_string_length@?$output_processor@_WV?$string_output_adapter@_W@__crt_stdio_output@@V?$positional_parameter_base@_WV?$string_output_adapter@_W@__crt_stdio_output@@@2@@__crt_stdio_output@@ABEHH_W@Z 1003120f f i libucrt:output.obj
 0001:0003025f       ?type_case_s_compute_narrow_string_length@?$output_processor@_WV?$string_output_adapter@_W@__crt_stdio_output@@V?$standard_base@_WV?$string_output_adapter@_W@__crt_stdio_output@@@2@@__crt_stdio_output@@ABEHH_W@Z 1003125f f i libucrt:output.obj
 0001:000302af       ?type_case_u@?$output_processor@DV?$stream_output_adapter@D@__crt_stdio_output@@V?$format_validation_base@DV?$stream_output_adapter@D@__crt_stdio_output@@@2@@__crt_stdio_output@@AAE_NXZ 100312af f i libucrt:output.obj
 0001:000302bb       ?type_case_u@?$output_processor@DV?$stream_output_adapter@D@__crt_stdio_output@@V?$positional_parameter_base@DV?$stream_output_adapter@D@__crt_stdio_output@@@2@@__crt_stdio_output@@AAE_NXZ 100312bb f i libucrt:output.obj
 0001:000302c7       ?type_case_u@?$output_processor@DV?$stream_output_adapter@D@__crt_stdio_output@@V?$standard_base@DV?$stream_output_adapter@D@__crt_stdio_output@@@2@@__crt_stdio_output@@AAE_NXZ 100312c7 f i libucrt:output.obj
 0001:000302d3       ?type_case_u@?$output_processor@DV?$string_output_adapter@D@__crt_stdio_output@@V?$format_validation_base@DV?$string_output_adapter@D@__crt_stdio_output@@@2@@__crt_stdio_output@@AAE_NXZ 100312d3 f i libucrt:output.obj
 0001:000302df       ?type_case_u@?$output_processor@DV?$string_output_adapter@D@__crt_stdio_output@@V?$positional_parameter_base@DV?$string_output_adapter@D@__crt_stdio_output@@@2@@__crt_stdio_output@@AAE_NXZ 100312df f i libucrt:output.obj
 0001:000302eb       ?type_case_u@?$output_processor@DV?$string_output_adapter@D@__crt_stdio_output@@V?$standard_base@DV?$string_output_adapter@D@__crt_stdio_output@@@2@@__crt_stdio_output@@AAE_NXZ 100312eb f i libucrt:output.obj
 0001:000302f7       ?type_case_u@?$output_processor@_WV?$stream_output_adapter@_W@__crt_stdio_output@@V?$format_validation_base@_WV?$stream_output_adapter@_W@__crt_stdio_output@@@2@@__crt_stdio_output@@AAE_NXZ 100312f7 f i libucrt:output.obj
 0001:00030303       ?type_case_u@?$output_processor@_WV?$stream_output_adapter@_W@__crt_stdio_output@@V?$positional_parameter_base@_WV?$stream_output_adapter@_W@__crt_stdio_output@@@2@@__crt_stdio_output@@AAE_NXZ 10031303 f i libucrt:output.obj
 0001:0003030f       ?type_case_u@?$output_processor@_WV?$stream_output_adapter@_W@__crt_stdio_output@@V?$standard_base@_WV?$stream_output_adapter@_W@__crt_stdio_output@@@2@@__crt_stdio_output@@AAE_NXZ 1003130f f i libucrt:output.obj
 0001:0003031b       ?type_case_u@?$output_processor@_WV?$string_output_adapter@_W@__crt_stdio_output@@V?$format_validation_base@_WV?$string_output_adapter@_W@__crt_stdio_output@@@2@@__crt_stdio_output@@AAE_NXZ 1003131b f i libucrt:output.obj
 0001:00030327       ?type_case_u@?$output_processor@_WV?$string_output_adapter@_W@__crt_stdio_output@@V?$positional_parameter_base@_WV?$string_output_adapter@_W@__crt_stdio_output@@@2@@__crt_stdio_output@@AAE_NXZ 10031327 f i libucrt:output.obj
 0001:00030333       ?type_case_u@?$output_processor@_WV?$string_output_adapter@_W@__crt_stdio_output@@V?$standard_base@_WV?$string_output_adapter@_W@__crt_stdio_output@@@2@@__crt_stdio_output@@AAE_NXZ 10031333 f i libucrt:output.obj
 0001:0003033f       ?type_case_x@?$output_processor@DV?$stream_output_adapter@D@__crt_stdio_output@@V?$format_validation_base@DV?$stream_output_adapter@D@__crt_stdio_output@@@2@@__crt_stdio_output@@AAE_NXZ 1003133f f i libucrt:output.obj
 0001:0003034b       ?type_case_x@?$output_processor@DV?$stream_output_adapter@D@__crt_stdio_output@@V?$positional_parameter_base@DV?$stream_output_adapter@D@__crt_stdio_output@@@2@@__crt_stdio_output@@AAE_NXZ 1003134b f i libucrt:output.obj
 0001:00030357       ?type_case_x@?$output_processor@DV?$stream_output_adapter@D@__crt_stdio_output@@V?$standard_base@DV?$stream_output_adapter@D@__crt_stdio_output@@@2@@__crt_stdio_output@@AAE_NXZ 10031357 f i libucrt:output.obj
 0001:00030363       ?type_case_x@?$output_processor@DV?$string_output_adapter@D@__crt_stdio_output@@V?$format_validation_base@DV?$string_output_adapter@D@__crt_stdio_output@@@2@@__crt_stdio_output@@AAE_NXZ 10031363 f i libucrt:output.obj
 0001:0003036f       ?type_case_x@?$output_processor@DV?$string_output_adapter@D@__crt_stdio_output@@V?$positional_parameter_base@DV?$string_output_adapter@D@__crt_stdio_output@@@2@@__crt_stdio_output@@AAE_NXZ 1003136f f i libucrt:output.obj
 0001:0003037b       ?type_case_x@?$output_processor@DV?$string_output_adapter@D@__crt_stdio_output@@V?$standard_base@DV?$string_output_adapter@D@__crt_stdio_output@@@2@@__crt_stdio_output@@AAE_NXZ 1003137b f i libucrt:output.obj
 0001:00030387       ?type_case_x@?$output_processor@_WV?$stream_output_adapter@_W@__crt_stdio_output@@V?$format_validation_base@_WV?$stream_output_adapter@_W@__crt_stdio_output@@@2@@__crt_stdio_output@@AAE_NXZ 10031387 f i libucrt:output.obj
 0001:00030393       ?type_case_x@?$output_processor@_WV?$stream_output_adapter@_W@__crt_stdio_output@@V?$positional_parameter_base@_WV?$stream_output_adapter@_W@__crt_stdio_output@@@2@@__crt_stdio_output@@AAE_NXZ 10031393 f i libucrt:output.obj
 0001:0003039f       ?type_case_x@?$output_processor@_WV?$stream_output_adapter@_W@__crt_stdio_output@@V?$standard_base@_WV?$stream_output_adapter@_W@__crt_stdio_output@@@2@@__crt_stdio_output@@AAE_NXZ 1003139f f i libucrt:output.obj
 0001:000303ab       ?type_case_x@?$output_processor@_WV?$string_output_adapter@_W@__crt_stdio_output@@V?$format_validation_base@_WV?$string_output_adapter@_W@__crt_stdio_output@@@2@@__crt_stdio_output@@AAE_NXZ 100313ab f i libucrt:output.obj
 0001:000303b7       ?type_case_x@?$output_processor@_WV?$string_output_adapter@_W@__crt_stdio_output@@V?$positional_parameter_base@_WV?$string_output_adapter@_W@__crt_stdio_output@@@2@@__crt_stdio_output@@AAE_NXZ 100313b7 f i libucrt:output.obj
 0001:000303c3       ?type_case_x@?$output_processor@_WV?$string_output_adapter@_W@__crt_stdio_output@@V?$standard_base@_WV?$string_output_adapter@_W@__crt_stdio_output@@@2@@__crt_stdio_output@@AAE_NXZ 100313c3 f i libucrt:output.obj
 0001:000303cf       ?unset_flag@?$output_processor@DV?$stream_output_adapter@D@__crt_stdio_output@@V?$format_validation_base@DV?$stream_output_adapter@D@__crt_stdio_output@@@2@@__crt_stdio_output@@AAEXI@Z 100313cf f i libucrt:output.obj
 0001:000303e4       ?unset_flag@?$output_processor@DV?$stream_output_adapter@D@__crt_stdio_output@@V?$positional_parameter_base@DV?$stream_output_adapter@D@__crt_stdio_output@@@2@@__crt_stdio_output@@AAEXI@Z 100313e4 f i libucrt:output.obj
 0001:000303f9       ?unset_flag@?$output_processor@DV?$stream_output_adapter@D@__crt_stdio_output@@V?$standard_base@DV?$stream_output_adapter@D@__crt_stdio_output@@@2@@__crt_stdio_output@@AAEXI@Z 100313f9 f i libucrt:output.obj
 0001:0003040e       ?unset_flag@?$output_processor@DV?$string_output_adapter@D@__crt_stdio_output@@V?$format_validation_base@DV?$string_output_adapter@D@__crt_stdio_output@@@2@@__crt_stdio_output@@AAEXI@Z 1003140e f i libucrt:output.obj
 0001:00030423       ?unset_flag@?$output_processor@DV?$string_output_adapter@D@__crt_stdio_output@@V?$positional_parameter_base@DV?$string_output_adapter@D@__crt_stdio_output@@@2@@__crt_stdio_output@@AAEXI@Z 10031423 f i libucrt:output.obj
 0001:00030438       ?unset_flag@?$output_processor@DV?$string_output_adapter@D@__crt_stdio_output@@V?$standard_base@DV?$string_output_adapter@D@__crt_stdio_output@@@2@@__crt_stdio_output@@AAEXI@Z 10031438 f i libucrt:output.obj
 0001:0003044d       ?unset_flag@?$output_processor@_WV?$stream_output_adapter@_W@__crt_stdio_output@@V?$format_validation_base@_WV?$stream_output_adapter@_W@__crt_stdio_output@@@2@@__crt_stdio_output@@AAEXI@Z 1003144d f i libucrt:output.obj
 0001:00030462       ?unset_flag@?$output_processor@_WV?$stream_output_adapter@_W@__crt_stdio_output@@V?$positional_parameter_base@_WV?$stream_output_adapter@_W@__crt_stdio_output@@@2@@__crt_stdio_output@@AAEXI@Z 10031462 f i libucrt:output.obj
 0001:00030477       ?unset_flag@?$output_processor@_WV?$stream_output_adapter@_W@__crt_stdio_output@@V?$standard_base@_WV?$stream_output_adapter@_W@__crt_stdio_output@@@2@@__crt_stdio_output@@AAEXI@Z 10031477 f i libucrt:output.obj
 0001:0003048c       ?unset_flag@?$output_processor@_WV?$string_output_adapter@_W@__crt_stdio_output@@V?$format_validation_base@_WV?$string_output_adapter@_W@__crt_stdio_output@@@2@@__crt_stdio_output@@AAEXI@Z 1003148c f i libucrt:output.obj
 0001:000304a1       ?unset_flag@?$output_processor@_WV?$string_output_adapter@_W@__crt_stdio_output@@V?$positional_parameter_base@_WV?$string_output_adapter@_W@__crt_stdio_output@@@2@@__crt_stdio_output@@AAEXI@Z 100314a1 f i libucrt:output.obj
 0001:000304b6       ?unset_flag@?$output_processor@_WV?$string_output_adapter@_W@__crt_stdio_output@@V?$standard_base@_WV?$string_output_adapter@_W@__crt_stdio_output@@@2@@__crt_stdio_output@@AAEXI@Z 100314b6 f i libucrt:output.obj
 0001:000304cb       ?update_field_width@?$positional_parameter_base@DV?$stream_output_adapter@D@__crt_stdio_output@@@__crt_stdio_output@@IAE_NXZ 100314cb f i libucrt:output.obj
 0001:000305ae       ?update_field_width@?$positional_parameter_base@DV?$string_output_adapter@D@__crt_stdio_output@@@__crt_stdio_output@@IAE_NXZ 100315ae f i libucrt:output.obj
 0001:00030691       ?update_field_width@?$positional_parameter_base@_WV?$stream_output_adapter@_W@__crt_stdio_output@@@__crt_stdio_output@@IAE_NXZ 10031691 f i libucrt:output.obj
 0001:00030775       ?update_field_width@?$positional_parameter_base@_WV?$string_output_adapter@_W@__crt_stdio_output@@@__crt_stdio_output@@IAE_NXZ 10031775 f i libucrt:output.obj
 0001:00030859       ?update_field_width@?$standard_base@DV?$stream_output_adapter@D@__crt_stdio_output@@@__crt_stdio_output@@IAE_NXZ 10031859 f i libucrt:output.obj
 0001:0003086d       ?update_field_width@?$standard_base@DV?$string_output_adapter@D@__crt_stdio_output@@@__crt_stdio_output@@IAE_NXZ 1003186d f i libucrt:output.obj
 0001:00030881       ?update_field_width@?$standard_base@_WV?$stream_output_adapter@_W@__crt_stdio_output@@@__crt_stdio_output@@IAE_NXZ 10031881 f i libucrt:output.obj
 0001:00030895       ?update_field_width@?$standard_base@_WV?$string_output_adapter@_W@__crt_stdio_output@@@__crt_stdio_output@@IAE_NXZ 10031895 f i libucrt:output.obj
 0001:000308a9       ?update_precision@?$positional_parameter_base@DV?$stream_output_adapter@D@__crt_stdio_output@@@__crt_stdio_output@@IAE_NXZ 100318a9 f i libucrt:output.obj
 0001:0003098c       ?update_precision@?$positional_parameter_base@DV?$string_output_adapter@D@__crt_stdio_output@@@__crt_stdio_output@@IAE_NXZ 1003198c f i libucrt:output.obj
 0001:00030a6f       ?update_precision@?$positional_parameter_base@_WV?$stream_output_adapter@_W@__crt_stdio_output@@@__crt_stdio_output@@IAE_NXZ 10031a6f f i libucrt:output.obj
 0001:00030b53       ?update_precision@?$positional_parameter_base@_WV?$string_output_adapter@_W@__crt_stdio_output@@@__crt_stdio_output@@IAE_NXZ 10031b53 f i libucrt:output.obj
 0001:00030c37       ?update_precision@?$standard_base@DV?$stream_output_adapter@D@__crt_stdio_output@@@__crt_stdio_output@@IAE_NXZ 10031c37 f i libucrt:output.obj
 0001:00030c4b       ?update_precision@?$standard_base@DV?$string_output_adapter@D@__crt_stdio_output@@@__crt_stdio_output@@IAE_NXZ 10031c4b f i libucrt:output.obj
 0001:00030c5f       ?update_precision@?$standard_base@_WV?$stream_output_adapter@_W@__crt_stdio_output@@@__crt_stdio_output@@IAE_NXZ 10031c5f f i libucrt:output.obj
 0001:00030c73       ?update_precision@?$standard_base@_WV?$string_output_adapter@_W@__crt_stdio_output@@@__crt_stdio_output@@IAE_NXZ 10031c73 f i libucrt:output.obj
 0001:00030c87       ?valid@__crt_stdio_stream@@QBE_NXZ 10031c87 f i libucrt:output.obj
 0001:00030c91       ?validate@?$stream_output_adapter@D@__crt_stdio_output@@QBE_NXZ 10031c91 f i libucrt:output.obj
 0001:00030cba       ?validate@?$stream_output_adapter@_W@__crt_stdio_output@@QBE_NXZ 10031cba f i libucrt:output.obj
 0001:00030cdb       ?validate@?$string_output_adapter@D@__crt_stdio_output@@QBE_NXZ 10031cdb f i libucrt:output.obj
 0001:00030cfc       ?validate@?$string_output_adapter@_W@__crt_stdio_output@@QBE_NXZ 10031cfc f i libucrt:output.obj
 0001:00030d1d       ?validate_and_store_parameter_data@?$positional_parameter_base@DV?$stream_output_adapter@D@__crt_stdio_output@@@__crt_stdio_output@@AAE_NAAUparameter_data@12@W4parameter_type@12@DW4length_modifier@2@@Z 10031d1d f i libucrt:output.obj
 0001:00030d7a       ?validate_and_store_parameter_data@?$positional_parameter_base@DV?$string_output_adapter@D@__crt_stdio_output@@@__crt_stdio_output@@AAE_NAAUparameter_data@12@W4parameter_type@12@DW4length_modifier@2@@Z 10031d7a f i libucrt:output.obj
 0001:00030dd7       ?validate_and_store_parameter_data@?$positional_parameter_base@_WV?$stream_output_adapter@_W@__crt_stdio_output@@@__crt_stdio_output@@AAE_NAAUparameter_data@12@W4parameter_type@12@_WW4length_modifier@2@@Z 10031dd7 f i libucrt:output.obj
 0001:00030e37       ?validate_and_store_parameter_data@?$positional_parameter_base@_WV?$string_output_adapter@_W@__crt_stdio_output@@@__crt_stdio_output@@AAE_NAAUparameter_data@12@W4parameter_type@12@_WW4length_modifier@2@@Z 10031e37 f i libucrt:output.obj
 0001:00030e97       ?validate_and_update_state_at_beginning_of_format_character@?$positional_parameter_base@DV?$stream_output_adapter@D@__crt_stdio_output@@@__crt_stdio_output@@IAE_NXZ 10031e97 f i libucrt:output.obj
 0001:00030fcd       ?validate_and_update_state_at_beginning_of_format_character@?$positional_parameter_base@DV?$string_output_adapter@D@__crt_stdio_output@@@__crt_stdio_output@@IAE_NXZ 10031fcd f i libucrt:output.obj
 0001:00031103       ?validate_and_update_state_at_beginning_of_format_character@?$positional_parameter_base@_WV?$stream_output_adapter@_W@__crt_stdio_output@@@__crt_stdio_output@@IAE_NXZ 10032103 f i libucrt:output.obj
 0001:00031245       ?validate_and_update_state_at_beginning_of_format_character@?$positional_parameter_base@_WV?$string_output_adapter@_W@__crt_stdio_output@@@__crt_stdio_output@@IAE_NXZ 10032245 f i libucrt:output.obj
 0001:00031387       ?validate_and_update_state_at_beginning_of_format_character@?$standard_base@DV?$stream_output_adapter@D@__crt_stdio_output@@@__crt_stdio_output@@IAE_NXZ 10032387 f i libucrt:output.obj
 0001:0003138a       ?validate_and_update_state_at_beginning_of_format_character@?$standard_base@DV?$string_output_adapter@D@__crt_stdio_output@@@__crt_stdio_output@@IAE_NXZ 1003238a f i libucrt:output.obj
 0001:0003138d       ?validate_and_update_state_at_beginning_of_format_character@?$standard_base@_WV?$stream_output_adapter@_W@__crt_stdio_output@@@__crt_stdio_output@@IAE_NXZ 1003238d f i libucrt:output.obj
 0001:00031390       ?validate_and_update_state_at_beginning_of_format_character@?$standard_base@_WV?$string_output_adapter@_W@__crt_stdio_output@@@__crt_stdio_output@@IAE_NXZ 10032390 f i libucrt:output.obj
 0001:00031393       ?validate_and_update_state_at_end_of_format_string@?$format_validation_base@DV?$stream_output_adapter@D@__crt_stdio_output@@@__crt_stdio_output@@IBE_NXZ 10032393 f i libucrt:output.obj
 0001:000313bd       ?validate_and_update_state_at_end_of_format_string@?$format_validation_base@DV?$string_output_adapter@D@__crt_stdio_output@@@__crt_stdio_output@@IBE_NXZ 100323bd f i libucrt:output.obj
 0001:000313e7       ?validate_and_update_state_at_end_of_format_string@?$format_validation_base@_WV?$stream_output_adapter@_W@__crt_stdio_output@@@__crt_stdio_output@@IBE_NXZ 100323e7 f i libucrt:output.obj
 0001:00031411       ?validate_and_update_state_at_end_of_format_string@?$format_validation_base@_WV?$string_output_adapter@_W@__crt_stdio_output@@@__crt_stdio_output@@IBE_NXZ 10032411 f i libucrt:output.obj
 0001:0003143b       ?validate_and_update_state_at_end_of_format_string@?$positional_parameter_base@DV?$stream_output_adapter@D@__crt_stdio_output@@@__crt_stdio_output@@IAE_NXZ 1003243b f i libucrt:output.obj
 0001:000314db       ?validate_and_update_state_at_end_of_format_string@?$positional_parameter_base@DV?$string_output_adapter@D@__crt_stdio_output@@@__crt_stdio_output@@IAE_NXZ 100324db f i libucrt:output.obj
 0001:0003157b       ?validate_and_update_state_at_end_of_format_string@?$positional_parameter_base@_WV?$stream_output_adapter@_W@__crt_stdio_output@@@__crt_stdio_output@@IAE_NXZ 1003257b f i libucrt:output.obj
 0001:0003161b       ?validate_and_update_state_at_end_of_format_string@?$positional_parameter_base@_WV?$string_output_adapter@_W@__crt_stdio_output@@@__crt_stdio_output@@IAE_NXZ 1003261b f i libucrt:output.obj
 0001:000316bb       ?validate_and_update_state_at_end_of_format_string@?$standard_base@DV?$stream_output_adapter@D@__crt_stdio_output@@@__crt_stdio_output@@IBE_NXZ 100326bb f i libucrt:output.obj
 0001:000316be       ?validate_and_update_state_at_end_of_format_string@?$standard_base@DV?$string_output_adapter@D@__crt_stdio_output@@@__crt_stdio_output@@IBE_NXZ 100326be f i libucrt:output.obj
 0001:000316c1       ?validate_and_update_state_at_end_of_format_string@?$standard_base@_WV?$stream_output_adapter@_W@__crt_stdio_output@@@__crt_stdio_output@@IBE_NXZ 100326c1 f i libucrt:output.obj
 0001:000316c4       ?validate_and_update_state_at_end_of_format_string@?$standard_base@_WV?$string_output_adapter@_W@__crt_stdio_output@@@__crt_stdio_output@@IBE_NXZ 100326c4 f i libucrt:output.obj
 0001:000316c7       ?validate_state_for_type_case_a@?$positional_parameter_base@DV?$stream_output_adapter@D@__crt_stdio_output@@@__crt_stdio_output@@IAE_NXZ 100326c7 f i libucrt:output.obj
 0001:0003172e       ?validate_state_for_type_case_a@?$positional_parameter_base@DV?$string_output_adapter@D@__crt_stdio_output@@@__crt_stdio_output@@IAE_NXZ 1003272e f i libucrt:output.obj
 0001:00031795       ?validate_state_for_type_case_a@?$positional_parameter_base@_WV?$stream_output_adapter@_W@__crt_stdio_output@@@__crt_stdio_output@@IAE_NXZ 10032795 f i libucrt:output.obj
 0001:000317fc       ?validate_state_for_type_case_a@?$positional_parameter_base@_WV?$string_output_adapter@_W@__crt_stdio_output@@@__crt_stdio_output@@IAE_NXZ 100327fc f i libucrt:output.obj
 0001:00031863       ?validate_state_for_type_case_a@?$standard_base@DV?$stream_output_adapter@D@__crt_stdio_output@@@__crt_stdio_output@@IBE_NXZ 10032863 f i libucrt:output.obj
 0001:00031866       ?validate_state_for_type_case_a@?$standard_base@DV?$string_output_adapter@D@__crt_stdio_output@@@__crt_stdio_output@@IBE_NXZ 10032866 f i libucrt:output.obj
 0001:00031869       ?validate_state_for_type_case_a@?$standard_base@_WV?$stream_output_adapter@_W@__crt_stdio_output@@@__crt_stdio_output@@IBE_NXZ 10032869 f i libucrt:output.obj
 0001:0003186c       ?validate_state_for_type_case_a@?$standard_base@_WV?$string_output_adapter@_W@__crt_stdio_output@@@__crt_stdio_output@@IBE_NXZ 1003286c f i libucrt:output.obj
 0001:0003186f       ?validate_stream_is_ansi_if_required@?$__acrt_stdio_char_traits@D@@SA_NQAU_iobuf@@@Z 1003286f f i libucrt:output.obj
 0001:00031911       ?validate_stream_is_ansi_if_required@?$__acrt_stdio_char_traits@_W@@SA_NQAU_iobuf@@@Z 10032911 f i libucrt:output.obj
 0001:00031914       ?wide_null_string@?$output_processor@DV?$stream_output_adapter@D@__crt_stdio_output@@V?$format_validation_base@DV?$stream_output_adapter@D@__crt_stdio_output@@@2@@__crt_stdio_output@@CAPA_WXZ 10032914 f i libucrt:output.obj
 0001:0003191a       ?wide_null_string@?$output_processor@DV?$stream_output_adapter@D@__crt_stdio_output@@V?$positional_parameter_base@DV?$stream_output_adapter@D@__crt_stdio_output@@@2@@__crt_stdio_output@@CAPA_WXZ 1003291a f i libucrt:output.obj
 0001:00031920       ?wide_null_string@?$output_processor@DV?$stream_output_adapter@D@__crt_stdio_output@@V?$standard_base@DV?$stream_output_adapter@D@__crt_stdio_output@@@2@@__crt_stdio_output@@CAPA_WXZ 10032920 f i libucrt:output.obj
 0001:00031926       ?wide_null_string@?$output_processor@DV?$string_output_adapter@D@__crt_stdio_output@@V?$format_validation_base@DV?$string_output_adapter@D@__crt_stdio_output@@@2@@__crt_stdio_output@@CAPA_WXZ 10032926 f i libucrt:output.obj
 0001:0003192c       ?wide_null_string@?$output_processor@DV?$string_output_adapter@D@__crt_stdio_output@@V?$positional_parameter_base@DV?$string_output_adapter@D@__crt_stdio_output@@@2@@__crt_stdio_output@@CAPA_WXZ 1003292c f i libucrt:output.obj
 0001:00031932       ?wide_null_string@?$output_processor@DV?$string_output_adapter@D@__crt_stdio_output@@V?$standard_base@DV?$string_output_adapter@D@__crt_stdio_output@@@2@@__crt_stdio_output@@CAPA_WXZ 10032932 f i libucrt:output.obj
 0001:00031938       ?wide_null_string@?$output_processor@_WV?$stream_output_adapter@_W@__crt_stdio_output@@V?$format_validation_base@_WV?$stream_output_adapter@_W@__crt_stdio_output@@@2@@__crt_stdio_output@@CAPA_WXZ 10032938 f i libucrt:output.obj
 0001:0003193e       ?wide_null_string@?$output_processor@_WV?$stream_output_adapter@_W@__crt_stdio_output@@V?$positional_parameter_base@_WV?$stream_output_adapter@_W@__crt_stdio_output@@@2@@__crt_stdio_output@@CAPA_WXZ 1003293e f i libucrt:output.obj
 0001:00031944       ?wide_null_string@?$output_processor@_WV?$stream_output_adapter@_W@__crt_stdio_output@@V?$standard_base@_WV?$stream_output_adapter@_W@__crt_stdio_output@@@2@@__crt_stdio_output@@CAPA_WXZ 10032944 f i libucrt:output.obj
 0001:0003194a       ?wide_null_string@?$output_processor@_WV?$string_output_adapter@_W@__crt_stdio_output@@V?$format_validation_base@_WV?$string_output_adapter@_W@__crt_stdio_output@@@2@@__crt_stdio_output@@CAPA_WXZ 1003294a f i libucrt:output.obj
 0001:00031950       ?wide_null_string@?$output_processor@_WV?$string_output_adapter@_W@__crt_stdio_output@@V?$positional_parameter_base@_WV?$string_output_adapter@_W@__crt_stdio_output@@@2@@__crt_stdio_output@@CAPA_WXZ 10032950 f i libucrt:output.obj
 0001:00031956       ?wide_null_string@?$output_processor@_WV?$string_output_adapter@_W@__crt_stdio_output@@V?$standard_base@_WV?$string_output_adapter@_W@__crt_stdio_output@@@2@@__crt_stdio_output@@CAPA_WXZ 10032956 f i libucrt:output.obj
 0001:0003195c       ?write_character@?$stream_output_adapter@D@__crt_stdio_output@@QBEXDQAH@Z 1003295c f i libucrt:output.obj
 0001:000319a8       ?write_character@?$stream_output_adapter@_W@__crt_stdio_output@@QBEX_WQAH@Z 100329a8 f i libucrt:output.obj
 0001:000319f8       ?write_character@?$string_output_adapter@D@__crt_stdio_output@@QBE_NDQAH@Z 100329f8 f i libucrt:output.obj
 0001:00031a4a       ?write_character@?$string_output_adapter@_W@__crt_stdio_output@@QBE_N_WQAH@Z 10032a4a f i libucrt:output.obj
 0001:00031aa0       ?write_stored_string_tchar@?$output_processor@DV?$stream_output_adapter@D@__crt_stdio_output@@V?$format_validation_base@DV?$stream_output_adapter@D@__crt_stdio_output@@@2@@__crt_stdio_output@@AAE_ND@Z 10032aa0 f i libucrt:output.obj
 0001:00031b73       ?write_stored_string_tchar@?$output_processor@DV?$stream_output_adapter@D@__crt_stdio_output@@V?$positional_parameter_base@DV?$stream_output_adapter@D@__crt_stdio_output@@@2@@__crt_stdio_output@@AAE_ND@Z 10032b73 f i libucrt:output.obj
 0001:00031c46       ?write_stored_string_tchar@?$output_processor@DV?$stream_output_adapter@D@__crt_stdio_output@@V?$standard_base@DV?$stream_output_adapter@D@__crt_stdio_output@@@2@@__crt_stdio_output@@AAE_ND@Z 10032c46 f i libucrt:output.obj
 0001:00031d19       ?write_stored_string_tchar@?$output_processor@DV?$string_output_adapter@D@__crt_stdio_output@@V?$format_validation_base@DV?$string_output_adapter@D@__crt_stdio_output@@@2@@__crt_stdio_output@@AAE_ND@Z 10032d19 f i libucrt:output.obj
 0001:00031dec       ?write_stored_string_tchar@?$output_processor@DV?$string_output_adapter@D@__crt_stdio_output@@V?$positional_parameter_base@DV?$string_output_adapter@D@__crt_stdio_output@@@2@@__crt_stdio_output@@AAE_ND@Z 10032dec f i libucrt:output.obj
 0001:00031ebf       ?write_stored_string_tchar@?$output_processor@DV?$string_output_adapter@D@__crt_stdio_output@@V?$standard_base@DV?$string_output_adapter@D@__crt_stdio_output@@@2@@__crt_stdio_output@@AAE_ND@Z 10032ebf f i libucrt:output.obj
 0001:00031f92       ?write_stored_string_tchar@?$output_processor@_WV?$stream_output_adapter@_W@__crt_stdio_output@@V?$format_validation_base@_WV?$stream_output_adapter@_W@__crt_stdio_output@@@2@@__crt_stdio_output@@AAE_N_W@Z 10032f92 f i libucrt:output.obj
 0001:00032041       ?write_stored_string_tchar@?$output_processor@_WV?$stream_output_adapter@_W@__crt_stdio_output@@V?$positional_parameter_base@_WV?$stream_output_adapter@_W@__crt_stdio_output@@@2@@__crt_stdio_output@@AAE_N_W@Z 10033041 f i libucrt:output.obj
 0001:000320f0       ?write_stored_string_tchar@?$output_processor@_WV?$stream_output_adapter@_W@__crt_stdio_output@@V?$standard_base@_WV?$stream_output_adapter@_W@__crt_stdio_output@@@2@@__crt_stdio_output@@AAE_N_W@Z 100330f0 f i libucrt:output.obj
 0001:0003219f       ?write_stored_string_tchar@?$output_processor@_WV?$string_output_adapter@_W@__crt_stdio_output@@V?$format_validation_base@_WV?$string_output_adapter@_W@__crt_stdio_output@@@2@@__crt_stdio_output@@AAE_N_W@Z 1003319f f i libucrt:output.obj
 0001:0003224e       ?write_stored_string_tchar@?$output_processor@_WV?$string_output_adapter@_W@__crt_stdio_output@@V?$positional_parameter_base@_WV?$string_output_adapter@_W@__crt_stdio_output@@@2@@__crt_stdio_output@@AAE_N_W@Z 1003324e f i libucrt:output.obj
 0001:000322fd       ?write_stored_string_tchar@?$output_processor@_WV?$string_output_adapter@_W@__crt_stdio_output@@V?$standard_base@_WV?$string_output_adapter@_W@__crt_stdio_output@@@2@@__crt_stdio_output@@AAE_N_W@Z 100332fd f i libucrt:output.obj
 0001:000323ac       ?write_string@?$stream_output_adapter@D@__crt_stdio_output@@QBEXQBDHQAHAAV__crt_deferred_errno_cache@@@Z 100333ac f i libucrt:output.obj
 0001:0003248f       ?write_string@?$stream_output_adapter@_W@__crt_stdio_output@@QBEXQB_WHQAHAAV__crt_deferred_errno_cache@@@Z 1003348f f i libucrt:output.obj
 0001:00032576       ?write_string@?$string_output_adapter@D@__crt_stdio_output@@QBEXQBDHQAHAAV__crt_deferred_errno_cache@@@Z 10033576 f i libucrt:output.obj
 0001:000325f6       ?write_string@?$string_output_adapter@_W@__crt_stdio_output@@QBEXQB_WHQAHAAV__crt_deferred_errno_cache@@@Z 100335f6 f i libucrt:output.obj
 0001:00032685       ___acrt_isleadbyte_l_noupdate 10033685 f i libucrt:output.obj
 0001:000326a6       ___acrt_locale_changed     100336a6 f i libucrt:output.obj
 0001:000326b5       ___stdio_common_vfprintf   100336b5 f   libucrt:output.obj
 0001:00032749       ___stdio_common_vfprintf_p 10033749 f   libucrt:output.obj
 0001:000327dd       ___stdio_common_vfprintf_s 100337dd f   libucrt:output.obj
 0001:00032871       ___stdio_common_vfwprintf  10033871 f   libucrt:output.obj
 0001:00032905       ___stdio_common_vfwprintf_p 10033905 f   libucrt:output.obj
 0001:00032999       ___stdio_common_vfwprintf_s 10033999 f   libucrt:output.obj
 0001:00032a2d       ___stdio_common_vsnprintf_s 10033a2d f   libucrt:output.obj
 0001:00032a5d       ___stdio_common_vsnwprintf_s 10033a5d f   libucrt:output.obj
 0001:00032a8d       ___stdio_common_vsprintf   10033a8d f   libucrt:output.obj
 0001:00032aba       ___stdio_common_vsprintf_p 10033aba f   libucrt:output.obj
 0001:00032ae7       ___stdio_common_vsprintf_s 10033ae7 f   libucrt:output.obj
 0001:00032b14       ___stdio_common_vswprintf  10033b14 f   libucrt:output.obj
 0001:00032b41       ___stdio_common_vswprintf_p 10033b41 f   libucrt:output.obj
 0001:00032b6e       ___stdio_common_vswprintf_s 10033b6e f   libucrt:output.obj
 0001:00032ba0       _fmod                      10033ba0 f   libucrt:87fmod.obj
 0001:00032baa       __CIfmod                   10033baa f   libucrt:87fmod.obj
 0001:00032bca       _calloc                    10033bca f   libucrt:calloc.obj
 0001:00032bd7       _free                      10033bd7 f   libucrt:free.obj
 0001:00032bfb       ??$__vcrt_va_start_verify_argument_type@QB_W@@YAXXZ 10033bfb f i libucrt:assert.obj
 0001:00033ba2       ??$ftprintf@PAU_iobuf@@PBDABQBDABQBDABI@?$__crt_char_traits@D@@SAH$$QAPAU_iobuf@@$$QAPBDABQBD2ABI@Z 10034ba2 f i libucrt:assert.obj
 0001:00033bd4       ??$ftprintf@PAU_iobuf@@PB_WABQB_WABQB_WABI@?$__crt_char_traits@_W@@SAH$$QAPAU_iobuf@@$$QAPB_WABQB_W2ABI@Z 10034bd4 f i libucrt:assert.obj
 0001:00033c06       ??$get_module_file_name@AAPAUHINSTANCE__@@AAY0BAF@DK@?$__crt_char_traits@D@@SAKAAPAUHINSTANCE__@@AAY0BAF@D$$QAK@Z 10034c06 f i libucrt:assert.obj
 0001:00033c26       ??$get_module_file_name@AAPAUHINSTANCE__@@AAY0BAF@_WK@?$__crt_char_traits@_W@@SAKAAPAUHINSTANCE__@@AAY0BAF@_W$$QAK@Z 10034c26 f i libucrt:assert.obj
 0001:00033c46       ??$itot_s@ABIPADIH@?$__crt_char_traits@D@@SAHABI$$QAPAD$$QAI$$QAH@Z 10034c46 f i libucrt:assert.obj
 0001:00033c71       ??$itot_s@ABIPA_WIH@?$__crt_char_traits@_W@@SAHABI$$QAPA_W$$QAI$$QAH@Z 10034c71 f i libucrt:assert.obj
 0001:00033c9c       ??$show_message_box@AAY0CEA@DPBDJ@?$__crt_char_traits@D@@SAHAAY0CEA@D$$QAPBD$$QAJ@Z 10034c9c f i libucrt:assert.obj
 0001:00033cbf       ??$show_message_box@AAY0CEA@_WPB_WJ@?$__crt_char_traits@_W@@SAHAAY0CEA@_W$$QAPB_W$$QAJ@Z 10034cbf f i libucrt:assert.obj
 0001:00033ce2       ??$tcscat_s@ABQADABIAAPAD@?$__crt_char_traits@D@@SAHABQADABIAAPAD@Z 10034ce2 f i libucrt:assert.obj
 0001:00033d07       ??$tcscat_s@ABQADABIABQBD@?$__crt_char_traits@D@@SAHABQADABIABQBD@Z 10034d07 f i libucrt:assert.obj
 0001:00033d2c       ??$tcscat_s@ABQADABIPBD@?$__crt_char_traits@D@@SAHABQADABI$$QAPBD@Z 10034d2c f i libucrt:assert.obj
 0001:00033d51       ??$tcscat_s@ABQA_WABIAAPA_W@?$__crt_char_traits@_W@@SAHABQA_WABIAAPA_W@Z 10034d51 f i libucrt:assert.obj
 0001:00033d76       ??$tcscat_s@ABQA_WABIABQB_W@?$__crt_char_traits@_W@@SAHABQA_WABIABQB_W@Z 10034d76 f i libucrt:assert.obj
 0001:00033d9b       ??$tcscat_s@ABQA_WABIPB_W@?$__crt_char_traits@_W@@SAHABQA_WABI$$QAPB_W@Z 10034d9b f i libucrt:assert.obj
 0001:00033dc0       ??$tcscpy_s@AAY0BAF@DIPBD@?$__crt_char_traits@D@@SAHAAY0BAF@D$$QAI$$QAPBD@Z 10034dc0 f i libucrt:assert.obj
 0001:00033de3       ??$tcscpy_s@AAY0BAF@_WIPB_W@?$__crt_char_traits@_W@@SAHAAY0BAF@_W$$QAI$$QAPB_W@Z 10034de3 f i libucrt:assert.obj
 0001:00033e06       ??$tcscpy_s@ABQADABIPBD@?$__crt_char_traits@D@@SAHABQADABI$$QAPBD@Z 10034e06 f i libucrt:assert.obj
 0001:00033e2b       ??$tcscpy_s@ABQA_WABIPB_W@?$__crt_char_traits@_W@@SAHABQA_WABI$$QAPB_W@Z 10034e2b f i libucrt:assert.obj
 0001:00033e50       ??$tcslen@AAY0BAF@D@?$__crt_char_traits@D@@SAIAAY0BAF@D@Z 10034e50 f i libucrt:assert.obj
 0001:00033e6b       ??$tcslen@AAY0BAF@_W@?$__crt_char_traits@_W@@SAIAAY0BAF@_W@Z 10034e6b f i libucrt:assert.obj
 0001:00033e8e       ??$tcslen@ABQAD@?$__crt_char_traits@D@@SAIABQAD@Z 10034e8e f i libucrt:assert.obj
 0001:00033eac       ??$tcslen@ABQA_W@?$__crt_char_traits@_W@@SAIABQA_W@Z 10034eac f i libucrt:assert.obj
 0001:00033ed1       ??$tcslen@ABQBD@?$__crt_char_traits@D@@SAIABQBD@Z 10034ed1 f i libucrt:assert.obj
 0001:00033eef       ??$tcslen@ABQB_W@?$__crt_char_traits@_W@@SAIABQB_W@Z 10034eef f i libucrt:assert.obj
 0001:00033f14       ??$tcsncat_s@ABQADABIAAPBDI@?$__crt_char_traits@D@@SAHABQADABIAAPBD$$QAI@Z 10034f14 f i libucrt:assert.obj
 0001:00033f3f       ??$tcsncat_s@ABQADABIABQBDABI@?$__crt_char_traits@D@@SAHABQADABIABQBD1@Z 10034f3f f i libucrt:assert.obj
 0001:00033f6a       ??$tcsncat_s@ABQADABIPBDI@?$__crt_char_traits@D@@SAHABQADABI$$QAPBD$$QAI@Z 10034f6a f i libucrt:assert.obj
 0001:00033f95       ??$tcsncat_s@ABQA_WABIAAPB_WI@?$__crt_char_traits@_W@@SAHABQA_WABIAAPB_W$$QAI@Z 10034f95 f i libucrt:assert.obj
 0001:00033fc0       ??$tcsncat_s@ABQA_WABIABQB_WABI@?$__crt_char_traits@_W@@SAHABQA_WABIABQB_W1@Z 10034fc0 f i libucrt:assert.obj
 0001:00033feb       ??$tcsncat_s@ABQA_WABIPB_WI@?$__crt_char_traits@_W@@SAHABQA_WABI$$QAPB_W$$QAI@Z 10034feb f i libucrt:assert.obj
 0001:00034190       ?has_any_buffer@__crt_stdio_stream@@QBE_NXZ 10035190 f i libucrt:assert.obj
 0001:000341a5       ?has_any_of@__crt_stdio_stream@@QBE_NJ@Z 100351a5 f i libucrt:assert.obj
 0001:000341c1       __assert                   100351c1 f   libucrt:assert.obj
 0001:0003421b       __invoke_watson_if_error   1003521b f i libucrt:assert.obj
 0001:00034245       __vfwprintf_l              10035245 f i libucrt:assert.obj
 0001:00034273       __vswprintf_c_l            10035273 f i libucrt:assert.obj
 0001:000342ad       __wassert                  100352ad f   libucrt:assert.obj
 0001:00034307       _fwprintf                  10035307 f i libucrt:assert.obj
 0001:000343c9       _swprintf                  100353c9 f i libucrt:assert.obj
 0001:000343ee       _realloc                   100353ee f   libucrt:realloc.obj
 0001:000343fb       ??$?B$$A6GXPAXK0@Z@__crt_fast_encoded_nullptr_t@@QBEP6GXPAXK0@ZXZ 100353fb f i libucrt:exit.obj
 0001:00034419       ??$?RV<lambda_03b1d95aef87969028cfba75ccab2455>@@AAV<lambda_6e4b09c48022b2350581041d5f6b0c4c>@@V<lambda_22bdf7517842c4b3e53723af5aa32b9e>@@@?$__crt_seh_guarded_call@X@@QAEX$$QAV<lambda_03b1d95aef87969028cfba75ccab2455>@@AAV<lambda_6e4b09c48022b2350581041d5f6b0c4c>@@$$QAV<lambda_22bdf7517842c4b3e53723af5aa32b9e>@@@Z 10035419 f i libucrt:exit.obj
 0001:0003446c       ??$__acrt_lock_and_call@V<lambda_6e4b09c48022b2350581041d5f6b0c4c>@@@@YAXW4__acrt_lock_id@@$$QAV<lambda_6e4b09c48022b2350581041d5f6b0c4c>@@@Z 1003546c f i libucrt:exit.obj
 0001:0003449e       ??$__crt_fast_decode_pointer@P6GXPAXK0@Z@@YAP6GXPAXK0@ZQ6GX0K0@Z@Z 1003549e f i libucrt:exit.obj
 0001:000344b9       ??$__crt_fast_encode_pointer@P6GXPAXK0@Z@@YAP6GXPAXK0@ZQ6GX0K0@Z@Z 100354b9 f i libucrt:exit.obj
 0001:000344df       ??$__crt_get_proc_address@P6GXI@Z@@YAP6GXI@ZQAUHINSTANCE__@@QBD@Z 100354df f i libucrt:exit.obj
 0001:00034545       ??0?$__crt_unique_handle_t@U__crt_hmodule_traits@@@@QAE@QAUHINSTANCE__@@@Z 10035545 f i libucrt:exit.obj
 0001:00034559       ??1?$__crt_unique_handle_t@U__crt_hmodule_traits@@@@QAE@XZ 10035559 f i libucrt:exit.obj
 0001:0003469e       ?__acrt_select_exit_lock@@YA?AW4__acrt_lock_id@@XZ 1003569e f i libucrt:exit.obj
 0001:000346b9       ?close@?$__crt_unique_handle_t@U__crt_hmodule_traits@@@@QAEXXZ 100356b9 f i libucrt:exit.obj
 0001:000346d5       ?close@__crt_hmodule_traits@@SA_NPAUHINSTANCE__@@@Z 100356d5 f i libucrt:exit.obj
 0001:000347ad       ?get@?$__crt_unique_handle_t@U__crt_hmodule_traits@@@@QBEPAUHINSTANCE__@@XZ 100357ad f i libucrt:exit.obj
 0001:000347b0       ?get_address_of@?$__crt_unique_handle_t@U__crt_hmodule_traits@@@@QAEPAPAUHINSTANCE__@@XZ 100357b0 f i libucrt:exit.obj
 0001:000347b3       ?get_invalid_value@__crt_hmodule_traits@@SAPAUHINSTANCE__@@XZ 100357b3 f i libucrt:exit.obj
 0001:000348b4       __Exit                     100358b4 f   libucrt:exit.obj
 0001:000348cf       ___acrt_initialize_thread_local_exit_callback 100358cf f   libucrt:exit.obj
 0001:000348e1       __c_exit                   100358e1 f   libucrt:exit.obj
 0001:000348f3       __cexit                    100358f3 f   libucrt:exit.obj
 0001:00034905       __exit                     10035905 f   libucrt:exit.obj
 0001:00034920       __is_c_termination_complete 10035920 f   libucrt:exit.obj
 0001:00034926       __register_thread_local_exe_atexit_callback 10035926 f   libucrt:exit.obj
 0001:0003496c       _exit                      1003596c f   libucrt:exit.obj
 0001:00034987       _quick_exit                10035987 f   libucrt:exit.obj
 0001:000349b0       _strncat                   100359b0 f   libucrt:strncat.obj
 0001:00034b40       _strncpy                   10035b40 f   libucrt:strncpy.obj
 0001:00034cad       ?is_in_use@__crt_stdio_stream@@QBE_NXZ 10035cad f i libucrt:fclose.obj
 0001:00034cbc       __fclose_nolock            10035cbc f   libucrt:fclose.obj
 0001:00034d4f       _fclose                    10035d4f f   libucrt:fclose.obj
 0001:00035081       ??$open_file@ABQBDABQBDABHPAU_iobuf@@@?$__crt_char_traits@D@@SAPAU_iobuf@@ABQBD0ABH$$QAPAU1@@Z 10036081 f i libucrt:fopen.obj
 0001:000350ac       ??$open_file@ABQB_WABQB_WABHPAU_iobuf@@@?$__crt_char_traits@_W@@SAPAU_iobuf@@ABQB_W0ABH$$QAPAU1@@Z 100360ac f i libucrt:fopen.obj
 0001:000350d7       ?unlock@__crt_stdio_stream@@QBEXXZ 100360d7 f i libucrt:fopen.obj
 0001:000350e2       __fsopen                   100360e2 f   libucrt:fopen.obj
 0001:000350ef       __wfopen                   100360ef f   libucrt:fopen.obj
 0001:0003510b       __wfopen_s                 1003610b f   libucrt:fopen.obj
 0001:00035163       __wfsopen                  10036163 f   libucrt:fopen.obj
 0001:00035170       _fopen                     10036170 f   libucrt:fopen.obj
 0001:0003518c       _fopen_s                   1003618c f   libucrt:fopen.obj
 0001:000351e4       ?__acrt_stdio_reset_buffer@@YAXV__crt_stdio_stream@@@Z 100361e4 f i libucrt:fread.obj
 0001:000351ff       ?set_flags@__crt_stdio_stream@@QBE_NJ@Z 100361ff f i libucrt:fread.obj
 0001:0003522f       __fread_nolock             1003622f f   libucrt:fread.obj
 0001:00035253       __fread_nolock_s           10036253 f   libucrt:fread.obj
 0001:000354a3       _fread                     100364a3 f   libucrt:fread.obj
 0001:000354c7       _fread_s                   100364c7 f   libucrt:fread.obj
 0001:0003561f       ??$?RV<lambda_cd3bfd923e8d1349099e544c97b1bd8e>@@AAV<lambda_54dcfcba6f8e0c549fa430f4d53fb7dd>@@V<lambda_5e1d0fa2aa2b73b187bf8b7e1d30c7f8>@@@?$__crt_seh_guarded_call@I@@QAEI$$QAV<lambda_cd3bfd923e8d1349099e544c97b1bd8e>@@AAV<lambda_54dcfcba6f8e0c549fa430f4d53fb7dd>@@$$QAV<lambda_5e1d0fa2aa2b73b187bf8b7e1d30c7f8>@@@Z 1003661f f i libucrt:fwrite.obj
 0001:00035684       ??$__acrt_lock_stream_and_call@V<lambda_54dcfcba6f8e0c549fa430f4d53fb7dd>@@@@YAIQAU_iobuf@@$$QAV<lambda_54dcfcba6f8e0c549fa430f4d53fb7dd>@@@Z 10036684 f i libucrt:fwrite.obj
 0001:00035779       ?has_big_buffer@__crt_stdio_stream@@QBE_NXZ 10036779 f i libucrt:fwrite.obj
 0001:0003578a       __fwrite_nolock            1003678a f   libucrt:fwrite.obj
 0001:00035961       _fwrite                    10036961 f   libucrt:fwrite.obj
 0001:000359cf       ??$?R_W@__crt_internal_free_policy@@QBEXQB_W@Z 100369cf f i libucrt:unlink.obj
 0001:000359e5       ??0?$__crt_unique_heap_ptr@_WU__crt_internal_free_policy@@@@QAE@QA_W@Z 100369e5 f i libucrt:unlink.obj
 0001:000359f9       ??1?$__crt_unique_heap_ptr@_WU__crt_internal_free_policy@@@@QAE@XZ 100369f9 f i libucrt:unlink.obj
 0001:00035a0f       ?get@?$__crt_unique_heap_ptr@_WU__crt_internal_free_policy@@@@QBEPA_WXZ 10036a0f f i libucrt:unlink.obj
 0001:00035a12       ?get_address_of@?$__crt_unique_heap_ptr@_WU__crt_internal_free_policy@@@@QAEPAPA_WXZ 10036a12 f i libucrt:unlink.obj
 0001:00035a15       ?release@?$__crt_unique_heap_ptr@_WU__crt_internal_free_policy@@@@QAEXXZ 10036a15 f i libucrt:unlink.obj
 0001:00035a2b       __unlink                   10036a2b f   libucrt:unlink.obj
 0001:00035a38       _remove                    10036a38 f   libucrt:unlink.obj
 0001:00035a98       ?has_all_of@__crt_stdio_stream@@QBE_NJ@Z 10036a98 f i libucrt:rewind.obj
 0001:00035ab7       ?unset_flags@__crt_stdio_stream@@QBE_NJ@Z 10036ab7 f i libucrt:rewind.obj
 0001:00035aeb       _rewind                    10036aeb f   libucrt:rewind.obj
 0001:00035bec       _ldexp                     10036bec f   libucrt:ldexp.obj
 0001:00035e4c       __errcode                  10036e4c f   libucrt:fpexcept.obj
 0001:00035e8d       __except1                  10036e8d f   libucrt:fpexcept.obj
 0001:00035f8e       __except2                  10036f8e f   libucrt:fpexcept.obj
 0001:000360d7       __handle_exc               100370d7 f   libucrt:fpexcept.obj
 0001:0003632f       __handle_qnan2             1003732f f   libucrt:fpexcept.obj
 0001:0003633f       __raise_exc                1003733f f   libucrt:fpexcept.obj
 0001:0003636a       __raise_exc_ex             1003736a f   libucrt:fpexcept.obj
 0001:00036717       __raise_excf               10037717 f   libucrt:fpexcept.obj
 0001:00036742       __set_errno_from_matherr   10037742 f   libucrt:fpexcept.obj
 0001:0003677c       __umatherr                 1003777c f   libucrt:fpexcept.obj
 0001:00036846       __initterm                 10037846 f   libucrt:initterm.obj
 0001:000368b9       __initterm_e               100378b9 f   libucrt:initterm.obj
 0001:0003693c       __seh_filter_dll           1003793c f   libucrt:exception_filter.obj
 0001:00036964       __seh_filter_exe           10037964 f   libucrt:exception_filter.obj
 0001:00036b33       ??$?RE@__crt_internal_free_policy@@QBEXQBE@Z 10037b33 f i libucrt:argv_parsing.obj
 0001:00036b49       ??$?RPAD@__crt_internal_free_policy@@QBEXQBQAD@Z 10037b49 f i libucrt:argv_parsing.obj
 0001:00036b5f       ??$?RPA_W@__crt_internal_free_policy@@QBEXQBQA_W@Z 10037b5f f i libucrt:argv_parsing.obj
 0001:00036e75       ??$get_module_file_name@$$TAAY0BAF@DH@?$__crt_char_traits@D@@SAK$$QA$$TAAY0BAF@D$$QAH@Z 10037e75 f i libucrt:argv_parsing.obj
 0001:00036e95       ??$get_module_file_name@$$TAAY0BAF@_WH@?$__crt_char_traits@_W@@SAK$$QA$$TAAY0BAF@_W$$QAH@Z 10037e95 f i libucrt:argv_parsing.obj
 0001:0003726e       ??$set_program_name@PAD@?$__crt_char_traits@D@@SAX$$QAPAD@Z 1003826e f i libucrt:argv_parsing.obj
 0001:00037283       ??$set_program_name@PA_W@?$__crt_char_traits@_W@@SAX$$QAPA_W@Z 10038283 f i libucrt:argv_parsing.obj
 0001:000372c0       ??0?$__crt_unique_heap_ptr@EU__crt_internal_free_policy@@@@QAE@QAE@Z 100382c0 f i libucrt:argv_parsing.obj
 0001:000372d4       ??0?$__crt_unique_heap_ptr@PADU__crt_internal_free_policy@@@@QAE@QAPAD@Z 100382d4 f i libucrt:argv_parsing.obj
 0001:000372e8       ??0?$__crt_unique_heap_ptr@PA_WU__crt_internal_free_policy@@@@QAE@QAPA_W@Z 100382e8 f i libucrt:argv_parsing.obj
 0001:000372fc       ??1?$__crt_unique_heap_ptr@EU__crt_internal_free_policy@@@@QAE@XZ 100382fc f i libucrt:argv_parsing.obj
 0001:00037312       ??1?$__crt_unique_heap_ptr@PADU__crt_internal_free_policy@@@@QAE@XZ 10038312 f i libucrt:argv_parsing.obj
 0001:00037328       ??1?$__crt_unique_heap_ptr@PA_WU__crt_internal_free_policy@@@@QAE@XZ 10038328 f i libucrt:argv_parsing.obj
 0001:0003733e       ??B?$__crt_unique_heap_ptr@EU__crt_internal_free_policy@@@@QBE_NXZ 1003833e f i libucrt:argv_parsing.obj
 0001:0003737e       ?detach@?$__crt_unique_heap_ptr@EU__crt_internal_free_policy@@@@QAEPAEXZ 1003837e f i libucrt:argv_parsing.obj
 0001:00037384       ?detach@?$__crt_unique_heap_ptr@PADU__crt_internal_free_policy@@@@QAEPAPADXZ 10038384 f i libucrt:argv_parsing.obj
 0001:0003738a       ?detach@?$__crt_unique_heap_ptr@PA_WU__crt_internal_free_policy@@@@QAEPAPA_WXZ 1003838a f i libucrt:argv_parsing.obj
 0001:000373b0       ?get@?$__crt_unique_heap_ptr@EU__crt_internal_free_policy@@@@QBEPAEXZ 100383b0 f i libucrt:argv_parsing.obj
 0001:000373b3       ?get@?$__crt_unique_heap_ptr@PADU__crt_internal_free_policy@@@@QBEPAPADXZ 100383b3 f i libucrt:argv_parsing.obj
 0001:000373b6       ?get@?$__crt_unique_heap_ptr@PA_WU__crt_internal_free_policy@@@@QBEPAPA_WXZ 100383b6 f i libucrt:argv_parsing.obj
 0001:000373b9       ?get_address_of@?$__crt_unique_heap_ptr@PADU__crt_internal_free_policy@@@@QAEPAPAPADXZ 100383b9 f i libucrt:argv_parsing.obj
 0001:000373bc       ?get_address_of@?$__crt_unique_heap_ptr@PA_WU__crt_internal_free_policy@@@@QAEPAPAPA_WXZ 100383bc f i libucrt:argv_parsing.obj
 0001:000373d7       ?is_valid@?$__crt_unique_heap_ptr@EU__crt_internal_free_policy@@@@QBE_NXZ 100383d7 f i libucrt:argv_parsing.obj
 0001:000373e1       ?release@?$__crt_unique_heap_ptr@EU__crt_internal_free_policy@@@@QAEXXZ 100383e1 f i libucrt:argv_parsing.obj
 0001:000373f7       ?release@?$__crt_unique_heap_ptr@PADU__crt_internal_free_policy@@@@QAEXXZ 100383f7 f i libucrt:argv_parsing.obj
 0001:0003740d       ?release@?$__crt_unique_heap_ptr@PA_WU__crt_internal_free_policy@@@@QAEXXZ 1003840d f i libucrt:argv_parsing.obj
 0001:00037444       ___acrt_allocate_buffer_for_argv 10038444 f   libucrt:argv_parsing.obj
 0001:000374ae       __configure_narrow_argv    100384ae f   libucrt:argv_parsing.obj
 0001:000374bb       __configure_wide_argv      100384bb f   libucrt:argv_parsing.obj
 0001:000374c8       __set_pgmptr               100384c8 f i libucrt:argv_parsing.obj
 0001:000374da       __set_wpgmptr              100384da f i libucrt:argv_parsing.obj
 0001:000379ae       ??$get_environment_from_os@$$V@?$__crt_char_traits@D@@SAPADXZ 100389ae f i libucrt:environment_initialization.obj
 0001:000379b3       ??$get_environment_from_os@$$V@?$__crt_char_traits@_W@@SAPA_WXZ 100389b3 f i libucrt:environment_initialization.obj
 0001:00037aed       ??$set_variable_in_environment_nolock@PADH@?$__crt_char_traits@D@@SAH$$QAPAD$$QAH@Z 10038aed f i libucrt:environment_initialization.obj
 0001:00037b0b       ??$set_variable_in_environment_nolock@PA_WH@?$__crt_char_traits@_W@@SAH$$QAPA_W$$QAH@Z 10038b0b f i libucrt:environment_initialization.obj
 0001:00037b29       ??$tcscpy_s@PADABIAAPAD@?$__crt_char_traits@D@@SAH$$QAPADABIAAPAD@Z 10038b29 f i libucrt:environment_initialization.obj
 0001:00037b4e       ??$tcscpy_s@PA_WABIAAPA_W@?$__crt_char_traits@_W@@SAH$$QAPA_WABIAAPA_W@Z 10038b4e f i libucrt:environment_initialization.obj
 0001:00037b73       ??$tcslen@AAPAD@?$__crt_char_traits@D@@SAIAAPAD@Z 10038b73 f i libucrt:environment_initialization.obj
 0001:00037b91       ??$tcslen@AAPA_W@?$__crt_char_traits@_W@@SAIAAPA_W@Z 10038b91 f i libucrt:environment_initialization.obj
 0001:00037bb6       ??$uninitialize@A6AXAAPAPAD@Z@?$dual_state_global@PAPAD@__crt_state_management@@QAEXA6AXAAPAPAD@Z@Z 10038bb6 f i libucrt:environment_initialization.obj
 0001:00037c06       ??$uninitialize@A6AXAAPAPA_W@Z@?$dual_state_global@PAPA_W@__crt_state_management@@QAEXA6AXAAPAPA_W@Z@Z 10038c06 f i libucrt:environment_initialization.obj
 0001:00037c98       ??B?$__crt_unique_heap_ptr@PADU__crt_internal_free_policy@@@@QBE_NXZ 10038c98 f i libucrt:environment_initialization.obj
 0001:00037ca2       ??B?$__crt_unique_heap_ptr@PA_WU__crt_internal_free_policy@@@@QBE_NXZ 10038ca2 f i libucrt:environment_initialization.obj
 0001:00037cac       ??B?$__crt_unique_heap_ptr@_WU__crt_internal_free_policy@@@@QBE_NXZ 10038cac f i libucrt:environment_initialization.obj
 0001:00037cb6       ?__crt_compute_required_transform_buffer_count@@YAIIQBD@Z 10038cb6 f i libucrt:environment_initialization.obj
 0001:00037cd6       ?__crt_compute_required_transform_buffer_count@@YAIIQB_W@Z 10038cd6 f i libucrt:environment_initialization.obj
 0001:00037cf9       ?__crt_transform_string@@YAIIQBDQA_WI@Z 10038cf9 f i libucrt:environment_initialization.obj
 0001:00037d1d       ?__crt_transform_string@@YAIIQB_WQADI@Z 10038d1d f i libucrt:environment_initialization.obj
 0001:00037d45       ?detach@?$__crt_unique_heap_ptr@DU__crt_internal_free_policy@@@@QAEPADXZ 10038d45 f i libucrt:environment_initialization.obj
 0001:00037d4b       ?detach@?$__crt_unique_heap_ptr@_WU__crt_internal_free_policy@@@@QAEPA_WXZ 10038d4b f i libucrt:environment_initialization.obj
 0001:00037d51       ?get_current_state_index@__crt_state_management@@YAIXZ 10038d51 f i libucrt:environment_initialization.obj
 0001:00037d78       ?initialize@?$dual_state_global@PAPAD@__crt_state_management@@QAEXQAPAD@Z 10038d78 f i libucrt:environment_initialization.obj
 0001:00037db5       ?initialize@?$dual_state_global@PAPA_W@__crt_state_management@@QAEXQAPA_W@Z 10038db5 f i libucrt:environment_initialization.obj
 0001:00037df2       ?is_valid@?$__crt_unique_heap_ptr@PADU__crt_internal_free_policy@@@@QBE_NXZ 10038df2 f i libucrt:environment_initialization.obj
 0001:00037dfc       ?is_valid@?$__crt_unique_heap_ptr@PA_WU__crt_internal_free_policy@@@@QBE_NXZ 10038dfc f i libucrt:environment_initialization.obj
 0001:00037e06       ?is_valid@?$__crt_unique_heap_ptr@_WU__crt_internal_free_policy@@@@QBE_NXZ 10038e06 f i libucrt:environment_initialization.obj
 0001:00037e16       ?value@?$dual_state_global@PAPAD@__crt_state_management@@QAEAAPAPADXZ 10038e16 f i libucrt:environment_initialization.obj
 0001:00037e19       ?value@?$dual_state_global@PAPA_W@__crt_state_management@@QAEAAPAPA_WXZ 10038e19 f i libucrt:environment_initialization.obj
 0001:00037e1c       ___dcrt_get_or_create_narrow_environment_nolock 10038e1c f   libucrt:environment_initialization.obj
 0001:00037e21       ___dcrt_get_or_create_wide_environment_nolock 10038e21 f   libucrt:environment_initialization.obj
 0001:00037e26       ___dcrt_uninitialize_environments_nolock 10038e26 f   libucrt:environment_initialization.obj
 0001:00037e6a       ___p__environ              10038e6a f   libucrt:environment_initialization.obj
 0001:00037e70       ___p__wenviron             10038e70 f   libucrt:environment_initialization.obj
 0001:00037e76       __get_initial_narrow_environment 10038e76 f   libucrt:environment_initialization.obj
 0001:00037e8f       __get_initial_wide_environment 10038e8f f   libucrt:environment_initialization.obj
 0001:00037ea8       __initialize_narrow_environment 10038ea8 f   libucrt:environment_initialization.obj
 0001:00037ead       __initialize_wide_environment 10038ead f   libucrt:environment_initialization.obj
 0001:00037eb2       ??$?BP6AXXZ@__crt_fast_encoded_nullptr_t@@QBEPAP6AXXZXZ 10038eb2 f i libucrt:onexit.obj
 0001:00037ed0       ??$?RP6AXXZ@__crt_internal_free_policy@@QBEXQBQ6AXXZ@Z 10038ed0 f i libucrt:onexit.obj
 0001:00037ee6       ??$?RV<lambda_69a2805e680e0e292e8ba93315fe43a8>@@AAV<lambda_f03950bc5685219e0bcd2087efbe011e>@@V<lambda_03fcd07e894ec930e3f35da366ca99d6>@@@?$__crt_seh_guarded_call@H@@QAEH$$QAV<lambda_69a2805e680e0e292e8ba93315fe43a8>@@AAV<lambda_f03950bc5685219e0bcd2087efbe011e>@@$$QAV<lambda_03fcd07e894ec930e3f35da366ca99d6>@@@Z 10038ee6 f i libucrt:onexit.obj
 0001:00037f4b       ??$?RV<lambda_8e746cf0007f6ed984d6f78af1fec997>@@AAV<lambda_22ebabd17bc4fa466a2aca6d8deb888d>@@V<lambda_18ed0c0b38a6dc0daf1e7ac6d6adf05e>@@@?$__crt_seh_guarded_call@H@@QAEH$$QAV<lambda_8e746cf0007f6ed984d6f78af1fec997>@@AAV<lambda_22ebabd17bc4fa466a2aca6d8deb888d>@@$$QAV<lambda_18ed0c0b38a6dc0daf1e7ac6d6adf05e>@@@Z 10038f4b f i libucrt:onexit.obj
 0001:00037fb0       ??$__acrt_lock_and_call@V<lambda_22ebabd17bc4fa466a2aca6d8deb888d>@@@@YAHW4__acrt_lock_id@@$$QAV<lambda_22ebabd17bc4fa466a2aca6d8deb888d>@@@Z 10038fb0 f i libucrt:onexit.obj
 0001:00037fe2       ??$__acrt_lock_and_call@V<lambda_f03950bc5685219e0bcd2087efbe011e>@@@@YAHW4__acrt_lock_id@@$$QAV<lambda_f03950bc5685219e0bcd2087efbe011e>@@@Z 10038fe2 f i libucrt:onexit.obj
 0001:00038014       ??$__crt_fast_encode_pointer@P6AHXZ@@YAP6AHXZQ6AHXZ@Z 10039014 f i libucrt:onexit.obj
 0001:000380c1       ??0?$__crt_unique_heap_ptr@P6AXXZU__crt_internal_free_policy@@@@QAE@QAP6AXXZ@Z 100390c1 f i libucrt:onexit.obj
 0001:000380d5       ??1?$__crt_unique_heap_ptr@P6AXXZU__crt_internal_free_policy@@@@QAE@XZ 100390d5 f i libucrt:onexit.obj
 0001:000380eb       ??1scoped_global_state_reset@__crt_state_management@@QAE@XZ 100390eb f i libucrt:onexit.obj
 0001:0003840e       ?detach@?$__crt_unique_heap_ptr@P6AXXZU__crt_internal_free_policy@@@@QAEPAP6AXXZXZ 1003940e f i libucrt:onexit.obj
 0001:00038414       ?release@?$__crt_unique_heap_ptr@P6AXXZU__crt_internal_free_policy@@@@QAEXXZ 10039414 f i libucrt:onexit.obj
 0001:0003842a       __crt_at_quick_exit        1003942a f   libucrt:onexit.obj
 0001:00038445       __crt_atexit               10039445 f   libucrt:onexit.obj
 0001:00038460       __execute_onexit_table     10039460 f   libucrt:onexit.obj
 0001:00038484       __initialize_onexit_table  10039484 f   libucrt:onexit.obj
 0001:000384d0       __register_onexit_function 100394d0 f   libucrt:onexit.obj
 0001:00038620       ??$uninitialize@V<lambda_af42a3ee9806e9a7305d451646e05244>@@@?$dual_state_global@PAU__crt_multibyte_data@@@__crt_state_management@@QAEX$$QAV<lambda_af42a3ee9806e9a7305d451646e05244>@@@Z 10039620 f i libucrt:initialization.obj
 0001:00038686       ?initialize@?$dual_state_global@PAU__crt_locale_data@@@__crt_state_management@@QAEXQAU__crt_locale_data@@@Z 10039686 f i libucrt:initialization.obj
 0001:000386c3       ___acrt_initialize         100396c3 f   libucrt:initialization.obj
 0001:000386d9       ___acrt_thread_attach      100396d9 f   libucrt:initialization.obj
 0001:000386e6       ___acrt_thread_detach      100396e6 f   libucrt:initialization.obj
 0001:000386f0       ___acrt_uninitialize       100396f0 f   libucrt:initialization.obj
 0001:00038706       ___acrt_uninitialize_critical 10039706 f   libucrt:initialization.obj
 0001:00038737       __get_terminate            10039737 f   libucrt:terminate.obj
 0001:0003874d       _set_terminate             1003974d f   libucrt:terminate.obj
 0001:00038775       _terminate                 10039775 f   libucrt:terminate.obj
 0001:000387c0       ??$__crt_interlocked_exchange_pointer@X$$T@@YAPAXPDSAX$$T@Z 100397c0 f i libucrt:free_base.obj
 0001:000387d8       ___acrt_get_msvcrt_heap_handle 100397d8 f   libucrt:free_base.obj
 0001:00038869       __free_base                10039869 f   libucrt:free_base.obj
 0001:000388b1       __malloc_base              100398b1 f   libucrt:malloc_base.obj
 0001:00038982       _strcpy_s                  10039982 f   libucrt:strcpy_s.obj
 0001:000389f2       __set_abort_behavior       100399f2 f   libucrt:abort.obj
 0001:00038a1b       _abort                     10039a1b f   libucrt:abort.obj
 0001:00038a6e       __calloc_base              10039a6e f   libucrt:calloc_base.obj
 0001:00038ae2       ??$is_overflow_condition@K@__crt_strtox@@YA_NIK@Z 10039ae2 f i libucrt:atox.obj
 0001:00038b21       ??$is_overflow_condition@_K@__crt_strtox@@YA_NI_K@Z 10039b21 f i libucrt:atox.obj
 0001:00038b74       ??$make_c_string_character_source@D$$T@__crt_strtox@@YA?AV?$c_string_character_source@D@0@QBD$$T@Z 10039b74 f i libucrt:atox.obj
 0001:00038b95       ??$make_c_string_character_source@_W$$T@__crt_strtox@@YA?AV?$c_string_character_source@_W@0@QB_W$$T@Z 10039b95 f i libucrt:atox.obj
 0001:00038bb6       ??$parse_integer@KV?$c_string_character_source@D@__crt_strtox@@@__crt_strtox@@YAKQAU__crt_locale_pointers@@V?$c_string_character_source@D@0@H_N@Z 10039bb6 f i libucrt:atox.obj
 0001:00038e68       ??$parse_integer@KV?$c_string_character_source@_W@__crt_strtox@@@__crt_strtox@@YAKQAU__crt_locale_pointers@@V?$c_string_character_source@_W@0@H_N@Z 10039e68 f i libucrt:atox.obj
 0001:00039706       ??$parse_integer@_KV?$c_string_character_source@D@__crt_strtox@@@__crt_strtox@@YA_KQAU__crt_locale_pointers@@V?$c_string_character_source@D@0@H_N@Z 1003a706 f i libucrt:atox.obj
 0001:00039a58       ??$parse_integer@_KV?$c_string_character_source@_W@__crt_strtox@@@__crt_strtox@@YA_KQAU__crt_locale_pointers@@V?$c_string_character_source@_W@0@H_N@Z 1003aa58 f i libucrt:atox.obj
 0001:0003a1cc       ??$parse_integer_from_string@JD$$T@__crt_strtox@@YAJQBD$$THQAU__crt_locale_pointers@@@Z 1003b1cc f i libucrt:atox.obj
 0001:0003a204       ??$parse_integer_from_string@J_W$$T@__crt_strtox@@YAJQB_W$$THQAU__crt_locale_pointers@@@Z 1003b204 f i libucrt:atox.obj
 0001:0003a23c       ??$parse_integer_from_string@_JD$$T@__crt_strtox@@YA_JQBD$$THQAU__crt_locale_pointers@@@Z 1003b23c f i libucrt:atox.obj
 0001:0003a274       ??$parse_integer_from_string@_J_W$$T@__crt_strtox@@YA_JQB_W$$THQAU__crt_locale_pointers@@@Z 1003b274 f i libucrt:atox.obj
 0001:0003a2ac       ??0?$c_string_character_source@D@__crt_strtox@@QAE@QBDQAPBD@Z 1003b2ac f i libucrt:atox.obj
 0001:0003a2cf       ??0?$c_string_character_source@_W@__crt_strtox@@QAE@QB_WQAPB_W@Z 1003b2cf f i libucrt:atox.obj
 0001:0003a2f2       ??1?$c_string_character_source@D@__crt_strtox@@QAE@XZ 1003b2f2 f i libucrt:atox.obj
 0001:0003a301       ??1?$c_string_character_source@_W@__crt_strtox@@QAE@XZ 1003b301 f i libucrt:atox.obj
 0001:0003a310       ?get@?$c_string_character_source@D@__crt_strtox@@QAEDXZ 1003b310 f i libucrt:atox.obj
 0001:0003a31a       ?get@?$c_string_character_source@_W@__crt_strtox@@QAE_WXZ 1003b31a f i libucrt:atox.obj
 0001:0003a327       ?is_space@__crt_strtox@@YA_NDQAU__crt_locale_pointers@@@Z 1003b327 f i libucrt:atox.obj
 0001:0003a34d       ?is_space@__crt_strtox@@YA_N_WPAU__crt_locale_pointers@@@Z 1003b34d f i libucrt:atox.obj
 0001:0003a36c       ?maximum_signed_value@__crt_strtox@@YAJK@Z 1003b36c f i libucrt:atox.obj
 0001:0003a372       ?maximum_signed_value@__crt_strtox@@YA_J_K@Z 1003b372 f i libucrt:atox.obj
 0001:0003a37d       ?minimum_signed_value@__crt_strtox@@YAJK@Z 1003b37d f i libucrt:atox.obj
 0001:0003a383       ?minimum_signed_value@__crt_strtox@@YA_J_K@Z 1003b383 f i libucrt:atox.obj
 0001:0003a38d       ?parse_digit@__crt_strtox@@YAID@Z 1003b38d f i libucrt:atox.obj
 0001:0003a3d5       ?parse_digit@__crt_strtox@@YAI_W@Z 1003b3d5 f i libucrt:atox.obj
 0001:0003a632       ?restore_state@?$c_string_character_source@D@__crt_strtox@@QAE_NQBD@Z 1003b632 f i libucrt:atox.obj
 0001:0003a646       ?restore_state@?$c_string_character_source@_W@__crt_strtox@@QAE_NQB_W@Z 1003b646 f i libucrt:atox.obj
 0001:0003a65a       ?save_state@?$c_string_character_source@D@__crt_strtox@@QBEPBDXZ 1003b65a f i libucrt:atox.obj
 0001:0003a65d       ?save_state@?$c_string_character_source@_W@__crt_strtox@@QBEPB_WXZ 1003b65d f i libucrt:atox.obj
 0001:0003a660       ?unget@?$c_string_character_source@D@__crt_strtox@@QAEXD@Z 1003b660 f i libucrt:atox.obj
 0001:0003a692       ?unget@?$c_string_character_source@_W@__crt_strtox@@QAEX_W@Z 1003b692 f i libucrt:atox.obj
 0001:0003a6c9       ?validate@?$c_string_character_source@D@__crt_strtox@@QBE_NXZ 1003b6c9 f i libucrt:atox.obj
 0001:0003a6ea       ?validate@?$c_string_character_source@_W@__crt_strtox@@QBE_NXZ 1003b6ea f i libucrt:atox.obj
 0001:0003a70b       ?wide_character_to_digit@__crt_strtox@@YAH_W@Z 1003b70b f i libucrt:atox.obj
 0001:0003a914       ___acrt_get_locale_data_prefix 1003b914 f i libucrt:atox.obj
 0001:0003a923       __atoi64                   1003b923 f   libucrt:atox.obj
 0001:0003a957       __atoi64_l                 1003b957 f   libucrt:atox.obj
 0001:0003a98c       __atoi_l                   1003b98c f   libucrt:atox.obj
 0001:0003a9c1       __atol_l                   1003b9c1 f   libucrt:atox.obj
 0001:0003a9f6       __atoll_l                  1003b9f6 f   libucrt:atox.obj
 0001:0003aa2b       __chvalidchk_l             1003ba2b f i libucrt:atox.obj
 0001:0003aa5f       __ischartype_l             1003ba5f f i libucrt:atox.obj
 0001:0003aa9e       __wtoi                     1003ba9e f   libucrt:atox.obj
 0001:0003aad2       __wtoi64                   1003bad2 f   libucrt:atox.obj
 0001:0003ab06       __wtoi64_l                 1003bb06 f   libucrt:atox.obj
 0001:0003ab3b       __wtoi_l                   1003bb3b f   libucrt:atox.obj
 0001:0003ab70       __wtol                     1003bb70 f   libucrt:atox.obj
 0001:0003aba4       __wtol_l                   1003bba4 f   libucrt:atox.obj
 0001:0003abd9       __wtoll                    1003bbd9 f   libucrt:atox.obj
 0001:0003ac0d       __wtoll_l                  1003bc0d f   libucrt:atox.obj
 0001:0003ac42       _atoi                      1003bc42 f   libucrt:atox.obj
 0001:0003ac76       _atol                      1003bc76 f   libucrt:atox.obj
 0001:0003acaa       _atoll                     1003bcaa f   libucrt:atox.obj
 0001:0003acde       ??$__crt_fast_decode_pointer@P6AXPB_W00II@Z@@YAP6AXPB_W00II@ZQ6AX000II@Z@Z 1003bcde f i libucrt:invalid_parameter.obj
 0001:0003acf9       ??$__crt_fast_encode_pointer@P6AXPB_W00II@Z@@YAP6AXPB_W00II@ZQ6AX000II@Z@Z 1003bcf9 f i libucrt:invalid_parameter.obj
 0001:0003ad1f       ??$initialize_from_array@$$BY00Q6AXPB_W00II@Z@?$dual_state_global@P6AXPB_W00II@Z@__crt_state_management@@QAAXAAY00Q6AXPB_W00II@Z@Z 1003bd1f f i libucrt:invalid_parameter.obj
 0001:0003ad34       ?dangerous_get_state_array@?$dual_state_global@P6AXPB_W00II@Z@__crt_state_management@@QAEPAP6AXPB_W00II@ZXZ 1003bd34 f i libucrt:invalid_parameter.obj
 0001:0003ad37       ?value@?$dual_state_global@P6AXPB_W00II@Z@__crt_state_management@@QAEAAP6AXPB_W00II@ZXZ 1003bd37 f i libucrt:invalid_parameter.obj
 0001:0003ad3a       ___acrt_call_reportfault   1003bd3a f   libucrt:invalid_parameter.obj
 0001:0003aec3       ___acrt_initialize_invalid_parameter_handler 1003bec3 f   libucrt:invalid_parameter.obj
 0001:0003aed5       __get_invalid_parameter_handler 1003bed5 f   libucrt:invalid_parameter.obj
 0001:0003aeec       __get_thread_local_invalid_parameter_handler 1003beec f   libucrt:invalid_parameter.obj
 0001:0003af01       __invalid_parameter        1003bf01 f   libucrt:invalid_parameter.obj
 0001:0003af9a       __invalid_parameter_noinfo 1003bf9a f   libucrt:invalid_parameter.obj
 0001:0003afae       __invalid_parameter_noinfo_noreturn 1003bfae f   libucrt:invalid_parameter.obj
 0001:0003afd2       __invoke_watson            1003bfd2 f   libucrt:invalid_parameter.obj
 0001:0003b011       __set_invalid_parameter_handler 1003c011 f   libucrt:invalid_parameter.obj
 0001:0003b04d       __set_thread_local_invalid_parameter_handler 1003c04d f   libucrt:invalid_parameter.obj
 0001:0003b071       ___acrt_errno_from_os_error 1003c071 f   libucrt:errno.obj
 0001:0003b0c4       ___acrt_errno_map_os_error 1003c0c4 f   libucrt:errno.obj
 0001:0003b0ef       ___doserrno                1003c0ef f   libucrt:errno.obj
 0001:0003b106       __errno                    1003c106 f   libucrt:errno.obj
 0001:0003b11d       __get_doserrno             1003c11d f   libucrt:errno.obj
 0001:0003b14b       __get_errno                1003c14b f   libucrt:errno.obj
 0001:0003b179       __set_doserrno             1003c179 f   libucrt:errno.obj
 0001:0003b1a2       __set_errno                1003c1a2 f   libucrt:errno.obj
 0001:0003b1db       ??$?B$$A6GHPA_WKJ@Z@__crt_fast_encoded_nullptr_t@@QBEP6GHPA_WKJ@ZXZ 1003c1db f i libucrt:winapi_thunks.obj
 0001:0003b1f9       ??$?RV<lambda_93797fb4802c957ba6a7f08e1250235b>@@AAV<lambda_1f3ce6bd48e0aa2e72a71c02eee379d3>@@V<lambda_56cae30c9364c9b6c15aeaac05d0418e>@@@?$__crt_seh_guarded_call@H@@QAEH$$QAV<lambda_93797fb4802c957ba6a7f08e1250235b>@@AAV<lambda_1f3ce6bd48e0aa2e72a71c02eee379d3>@@$$QAV<lambda_56cae30c9364c9b6c15aeaac05d0418e>@@@Z 1003c1f9 f i libucrt:winapi_thunks.obj
 0001:0003b29e       ??$__acrt_lock_and_call@V<lambda_1f3ce6bd48e0aa2e72a71c02eee379d3>@@@@YAHW4__acrt_lock_id@@$$QAV<lambda_1f3ce6bd48e0aa2e72a71c02eee379d3>@@@Z 1003c29e f i libucrt:winapi_thunks.obj
 0001:0003b2d0       ??$__crt_fast_decode_pointer@P6GHPA_WKJ@Z@@YAP6GHPA_WKJ@ZQ6GH0KJ@Z@Z 1003c2d0 f i libucrt:winapi_thunks.obj
 0001:0003b2eb       ??$__crt_fast_encode_pointer@P6GHPA_WKJ@Z@@YAP6GHPA_WKJ@ZQ6GH0KJ@Z@Z 1003c2eb f i libucrt:winapi_thunks.obj
 0001:0003bb4a       _GetCurrentThreadEffectiveToken 1003cb4a f i libucrt:winapi_thunks.obj
 0001:0003bb4e       ___acrt_AppPolicyGetProcessTerminationMethodInternal@4 1003cb4e f   libucrt:winapi_thunks.obj
 0001:0003bbba       ___acrt_AppPolicyGetShowDeveloperDiagnosticInternal@4 1003cbba f   libucrt:winapi_thunks.obj
 0001:0003bc26       ___acrt_AppPolicyGetThreadInitializationTypeInternal@4 1003cc26 f   libucrt:winapi_thunks.obj
 0001:0003bc92       ___acrt_AppPolicyGetWindowingModelInternal@4 1003cc92 f   libucrt:winapi_thunks.obj
 0001:0003bcfe       ___acrt_AreFileApisANSI@0  1003ccfe f   libucrt:winapi_thunks.obj
 0001:0003bd46       ___acrt_CompareStringEx@36 1003cd46 f   libucrt:winapi_thunks.obj
 0001:0003bdd7       ___acrt_EnumSystemLocalesEx@16 1003cdd7 f   libucrt:winapi_thunks.obj
 0001:0003be46       ___acrt_FlsAlloc@4         1003ce46 f   libucrt:winapi_thunks.obj
 0001:0003beb1       ___acrt_FlsFree@4          1003ceb1 f   libucrt:winapi_thunks.obj
 0001:0003bf1c       ___acrt_FlsGetValue@4      1003cf1c f   libucrt:winapi_thunks.obj
 0001:0003bf87       ___acrt_FlsSetValue@8      1003cf87 f   libucrt:winapi_thunks.obj
 0001:0003bff6       ___acrt_GetDateFormatEx@28 1003cff6 f   libucrt:winapi_thunks.obj
 0001:0003c07f       ___acrt_GetEnabledXStateFeatures@0 1003d07f f   libucrt:winapi_thunks.obj
 0001:0003c0e1       ___acrt_GetLocaleInfoEx@16 1003d0e1 f   libucrt:winapi_thunks.obj
 0001:0003c14c       ___acrt_GetSystemTimePreciseAsFileTime@4 1003d14c f   libucrt:winapi_thunks.obj
 0001:0003c1b7       ___acrt_GetTimeFormatEx@24 1003d1b7 f   libucrt:winapi_thunks.obj
 0001:0003c22a       ___acrt_GetUserDefaultLocaleName@8 1003d22a f   libucrt:winapi_thunks.obj
 0001:0003c291       ___acrt_GetXStateFeaturesMask@8 1003d291 f   libucrt:winapi_thunks.obj
 0001:0003c2fd       ___acrt_InitializeCriticalSectionEx@12 1003d2fd f   libucrt:winapi_thunks.obj
 0001:0003c377       ___acrt_IsValidLocaleName@4 1003d377 f   libucrt:winapi_thunks.obj
 0001:0003c3d9       ___acrt_LCIDToLocaleName@16 1003d3d9 f   libucrt:winapi_thunks.obj
 0001:0003c444       ___acrt_LCMapStringEx@36   1003d444 f   libucrt:winapi_thunks.obj
 0001:0003c4d5       ___acrt_LocaleNameToLCID@8 1003d4d5 f   libucrt:winapi_thunks.obj
 0001:0003c52f       ___acrt_LocateXStateFeature@12 1003d52f f   libucrt:winapi_thunks.obj
 0001:0003c586       ___acrt_MessageBoxA@16     1003d586 f   libucrt:winapi_thunks.obj
 0001:0003c5e1       ___acrt_MessageBoxW@16     1003d5e1 f   libucrt:winapi_thunks.obj
 0001:0003c63c       ___acrt_RoInitialize@4     1003d63c f   libucrt:winapi_thunks.obj
 0001:0003c6a2       ___acrt_RoUninitialize@0   1003d6a2 f   libucrt:winapi_thunks.obj
 0001:0003c6fd       ___acrt_RtlGenRandom@8     1003d6fd f   libucrt:winapi_thunks.obj
 0001:0003c769       ___acrt_SetThreadStackGuarantee@4 1003d769 f   libucrt:winapi_thunks.obj
 0001:0003c7cf       ___acrt_can_show_message_box 1003d7cf f   libucrt:winapi_thunks.obj
 0001:0003c7ff       ___acrt_can_use_vista_locale_apis 1003d7ff f   libucrt:winapi_thunks.obj
 0001:0003c80e       ___acrt_can_use_xstate_apis 1003d80e f   libucrt:winapi_thunks.obj
 0001:0003c81d       ___acrt_eagerly_load_locale_apis 1003d81d f   libucrt:winapi_thunks.obj
 0001:0003c861       ___acrt_get_parent_window  1003d861 f   libucrt:winapi_thunks.obj
 0001:0003c8ff       ___acrt_initialize_winapi_thunks 1003d8ff f   libucrt:winapi_thunks.obj
 0001:0003c92e       ___acrt_is_interactive     1003d92e f   libucrt:winapi_thunks.obj
 0001:0003c9fd       ___acrt_uninitialize_winapi_thunks 1003d9fd f   libucrt:winapi_thunks.obj
 0001:0003ca40       ??0__crt_stdio_stream@@QAE@QAU__crt_stdio_stream_data@@@Z 1003da40 f i libucrt:closeall.obj
 0001:0003ca54       __fcloseall                1003da54 f   libucrt:closeall.obj
 0001:0003cb1c       ??$?RV<lambda_2866be3712abc81a800a822484c830d8>@@AAV<lambda_39ca0ed439415581b5b15c265174cece>@@V<lambda_2b24c74d71094a6cd0cb82e44167d71b>@@@?$__crt_seh_guarded_call@X@@QAEX$$QAV<lambda_2866be3712abc81a800a822484c830d8>@@AAV<lambda_39ca0ed439415581b5b15c265174cece>@@$$QAV<lambda_2b24c74d71094a6cd0cb82e44167d71b>@@@Z 1003db1c f i libucrt:fflush.obj
 0001:0003cbbd       ??$?RV<lambda_2cc53f568c5a2bb6f192f930a45d44ea>@@AAV<lambda_ab61a845afdef5b7c387490eaf3616ee>@@V<lambda_c2ffc0b7726aa6be21d5f0026187e748>@@@?$__crt_seh_guarded_call@X@@QAEX$$QAV<lambda_2cc53f568c5a2bb6f192f930a45d44ea>@@AAV<lambda_ab61a845afdef5b7c387490eaf3616ee>@@$$QAV<lambda_c2ffc0b7726aa6be21d5f0026187e748>@@@Z 1003dbbd f i libucrt:fflush.obj
 0001:0003cc74       ??$?RV<lambda_6d20deecaf4856105ebacbad442d1079>@@AAV<lambda_9a32fed5bf61b6b509b2d3f6003082a1>@@V<lambda_63ea2239ed67c638ddbae41947fdf875>@@@?$__crt_seh_guarded_call@H@@QAEH$$QAV<lambda_6d20deecaf4856105ebacbad442d1079>@@AAV<lambda_9a32fed5bf61b6b509b2d3f6003082a1>@@$$QAV<lambda_63ea2239ed67c638ddbae41947fdf875>@@@Z 1003dc74 f i libucrt:fflush.obj
 0001:0003ccdf       ??$__acrt_lock_and_call@V<lambda_ab61a845afdef5b7c387490eaf3616ee>@@@@YAXW4__acrt_lock_id@@$$QAV<lambda_ab61a845afdef5b7c387490eaf3616ee>@@@Z 1003dcdf f i libucrt:fflush.obj
 0001:0003cd11       ??$__acrt_lock_stream_and_call@V<lambda_39ca0ed439415581b5b15c265174cece>@@@@YAXQAU_iobuf@@$$QAV<lambda_39ca0ed439415581b5b15c265174cece>@@@Z 1003dd11 f i libucrt:fflush.obj
 0001:0003cd43       ??$__acrt_lock_stream_and_call@V<lambda_9a32fed5bf61b6b509b2d3f6003082a1>@@@@YAHQAU_iobuf@@$$QAV<lambda_9a32fed5bf61b6b509b2d3f6003082a1>@@@Z 1003dd43 f i libucrt:fflush.obj
 0001:0003d08c       ___acrt_stdio_flush_nolock 1003e08c f   libucrt:fflush.obj
 0001:0003d107       __fflush_nolock            1003e107 f   libucrt:fflush.obj
 0001:0003d15f       __flushall                 1003e15f f   libucrt:fflush.obj
 0001:0003d16a       _fflush                    1003e16a f   libucrt:fflush.obj
 0001:0003d1bd       ?has_crt_buffer@__crt_stdio_stream@@QBE_NXZ 1003e1bd f i libucrt:_freebuf.obj
 0001:0003d1cc       ___acrt_stdio_free_buffer_nolock 1003e1cc f   libucrt:_freebuf.obj
 0001:0003d407       ___acrt_initialize_lowio   1003e407 f   libucrt:ioinit.obj
 0001:0003d472       ___acrt_uninitialize_lowio 1003e472 f   libucrt:ioinit.obj
 0001:0003d4c4       ___isascii                 1003e4c4 f i libucrt:_ctype.obj
 0001:0003d4da       ___iscsym                  1003e4da f i libucrt:_ctype.obj
 0001:0003d504       ___iscsymf                 1003e504 f i libucrt:_ctype.obj
 0001:0003d52a       ___toascii                 1003e52a f i libucrt:_ctype.obj
 0001:0003d53a       __isalnum_l                1003e53a f i libucrt:_ctype.obj
 0001:0003d583       __isalpha_l                1003e583 f i libucrt:_ctype.obj
 0001:0003d5cc       __isblank_l                1003e5cc f i libucrt:_ctype.obj
 0001:0003d61f       __iscntrl_l                1003e61f f i libucrt:_ctype.obj
 0001:0003d665       __iscsym_l                 1003e665 f i libucrt:_ctype.obj
 0001:0003d690       __iscsymf_l                1003e690 f i libucrt:_ctype.obj
 0001:0003d6bb       __isdigit_l                1003e6bb f i libucrt:_ctype.obj
 0001:0003d701       __isgraph_l                1003e701 f i libucrt:_ctype.obj
 0001:0003d74a       __islower_l                1003e74a f i libucrt:_ctype.obj
 0001:0003d790       __isprint_l                1003e790 f i libucrt:_ctype.obj
 0001:0003d7d9       __ispunct_l                1003e7d9 f i libucrt:_ctype.obj
 0001:0003d81f       __isspace_l                1003e81f f i libucrt:_ctype.obj
 0001:0003d865       __isupper_l                1003e865 f i libucrt:_ctype.obj
 0001:0003d8ab       __isxdigit_l               1003e8ab f i libucrt:_ctype.obj
 0001:0003d8f4       _isalnum                   1003e8f4 f i libucrt:_ctype.obj
 0001:0003d92e       _isalpha                   1003e92e f i libucrt:_ctype.obj
 0001:0003d968       _isblank                   1003e968 f i libucrt:_ctype.obj
 0001:0003d9ac       _iscntrl                   1003e9ac f i libucrt:_ctype.obj
 0001:0003d9e4       _isdigit                   1003e9e4 f i libucrt:_ctype.obj
 0001:0003da1c       _isgraph                   1003ea1c f i libucrt:_ctype.obj
 0001:0003da56       _islower                   1003ea56 f i libucrt:_ctype.obj
 0001:0003da8e       _isprint                   1003ea8e f i libucrt:_ctype.obj
 0001:0003dac8       _ispunct                   1003eac8 f i libucrt:_ctype.obj
 0001:0003db00       _isspace                   1003eb00 f i libucrt:_ctype.obj
 0001:0003db38       _isupper                   1003eb38 f i libucrt:_ctype.obj
 0001:0003db70       _isxdigit                  1003eb70 f i libucrt:_ctype.obj
 0001:0003df68       __tolower                  1003ef68 f   libucrt:tolower_toupper.obj
 0001:0003df78       __tolower_l                1003ef78 f   libucrt:tolower_toupper.obj
 0001:0003df98       __toupper                  1003ef98 f   libucrt:tolower_toupper.obj
 0001:0003dfa8       __toupper_l                1003efa8 f   libucrt:tolower_toupper.obj
 0001:0003dfc8       _tolower                   1003efc8 f   libucrt:tolower_toupper.obj
 0001:0003e004       _toupper                   1003f004 f   libucrt:tolower_toupper.obj
 0001:0003e040       ??$make_c_string_character_source@DPAPAD@__crt_strtox@@YA?AV?$c_string_character_source@D@0@QBDQAPAD@Z 1003f040 f i libucrt:strtox.obj
 0001:0003e061       ??$make_c_string_character_source@_WPAPA_W@__crt_strtox@@YA?AV?$c_string_character_source@_W@0@QB_WQAPA_W@Z 1003f061 f i libucrt:strtox.obj
 0001:0003e082       ??$parse_integer_from_string@JDPAPAD@__crt_strtox@@YAJQBDQAPADHQAU__crt_locale_pointers@@@Z 1003f082 f i libucrt:strtox.obj
 0001:0003e0ba       ??$parse_integer_from_string@J_WPAPA_W@__crt_strtox@@YAJQB_WQAPA_WHQAU__crt_locale_pointers@@@Z 1003f0ba f i libucrt:strtox.obj
 0001:0003e0f2       ??$parse_integer_from_string@KDPAPAD@__crt_strtox@@YAKQBDQAPADHQAU__crt_locale_pointers@@@Z 1003f0f2 f i libucrt:strtox.obj
 0001:0003e12a       ??$parse_integer_from_string@K_WPAPA_W@__crt_strtox@@YAKQB_WQAPA_WHQAU__crt_locale_pointers@@@Z 1003f12a f i libucrt:strtox.obj
 0001:0003e162       ??$parse_integer_from_string@_JDPAPAD@__crt_strtox@@YA_JQBDQAPADHQAU__crt_locale_pointers@@@Z 1003f162 f i libucrt:strtox.obj
 0001:0003e19a       ??$parse_integer_from_string@_J_WPAPA_W@__crt_strtox@@YA_JQB_WQAPA_WHQAU__crt_locale_pointers@@@Z 1003f19a f i libucrt:strtox.obj
 0001:0003e1d2       ??$parse_integer_from_string@_KDPAPAD@__crt_strtox@@YA_KQBDQAPADHQAU__crt_locale_pointers@@@Z 1003f1d2 f i libucrt:strtox.obj
 0001:0003e20a       ??$parse_integer_from_string@_K_WPAPA_W@__crt_strtox@@YA_KQB_WQAPA_WHQAU__crt_locale_pointers@@@Z 1003f20a f i libucrt:strtox.obj
 0001:0003e242       __strtoi64                 1003f242 f   libucrt:strtox.obj
 0001:0003e279       __strtoi64_l               1003f279 f   libucrt:strtox.obj
 0001:0003e2b1       __strtoimax_l              1003f2b1 f   libucrt:strtox.obj
 0001:0003e2e9       __strtol_l                 1003f2e9 f   libucrt:strtox.obj
 0001:0003e321       __strtoll_l                1003f321 f   libucrt:strtox.obj
 0001:0003e359       __strtoui64                1003f359 f   libucrt:strtox.obj
 0001:0003e390       __strtoui64_l              1003f390 f   libucrt:strtox.obj
 0001:0003e3c8       __strtoul_l                1003f3c8 f   libucrt:strtox.obj
 0001:0003e400       __strtoull_l               1003f400 f   libucrt:strtox.obj
 0001:0003e438       __strtoumax_l              1003f438 f   libucrt:strtox.obj
 0001:0003e470       __wcstoi64                 1003f470 f   libucrt:strtox.obj
 0001:0003e4a7       __wcstoi64_l               1003f4a7 f   libucrt:strtox.obj
 0001:0003e4df       __wcstoimax_l              1003f4df f   libucrt:strtox.obj
 0001:0003e517       __wcstol_l                 1003f517 f   libucrt:strtox.obj
 0001:0003e54f       __wcstoll_l                1003f54f f   libucrt:strtox.obj
 0001:0003e587       __wcstoui64                1003f587 f   libucrt:strtox.obj
 0001:0003e5be       __wcstoui64_l              1003f5be f   libucrt:strtox.obj
 0001:0003e5f6       __wcstoul_l                1003f5f6 f   libucrt:strtox.obj
 0001:0003e62e       __wcstoull_l               1003f62e f   libucrt:strtox.obj
 0001:0003e666       __wcstoumax_l              1003f666 f   libucrt:strtox.obj
 0001:0003e69e       _strtoimax                 1003f69e f   libucrt:strtox.obj
 0001:0003e6d5       _strtol                    1003f6d5 f   libucrt:strtox.obj
 0001:0003e70c       _strtoll                   1003f70c f   libucrt:strtox.obj
 0001:0003e743       _strtoul                   1003f743 f   libucrt:strtox.obj
 0001:0003e77a       _strtoull                  1003f77a f   libucrt:strtox.obj
 0001:0003e7b1       _strtoumax                 1003f7b1 f   libucrt:strtox.obj
 0001:0003e7e8       _wcstoimax                 1003f7e8 f   libucrt:strtox.obj
 0001:0003e81f       _wcstol                    1003f81f f   libucrt:strtox.obj
 0001:0003e856       _wcstoll                   1003f856 f   libucrt:strtox.obj
 0001:0003e88d       _wcstoul                   1003f88d f   libucrt:strtox.obj
 0001:0003e8c4       _wcstoull                  1003f8c4 f   libucrt:strtox.obj
 0001:0003e8fb       _wcstoumax                 1003f8fb f   libucrt:strtox.obj
 0001:0003e932       __mbtowc_l                 1003f932 f   libucrt:mbtowc.obj
 0001:0003ea6a       _mbtowc                    1003fa6a f   libucrt:mbtowc.obj
 0001:0003ea8a       __wctomb_l                 1003fa8a f   libucrt:wctomb.obj
 0001:0003eaf1       __wctomb_s_l               1003faf1 f   libucrt:wctomb.obj
 0001:0003ec5a       _wctomb                    1003fc5a f   libucrt:wctomb.obj
 0001:0003ec9b       _wctomb_s                  1003fc9b f   libucrt:wctomb.obj
 0001:0003f6ce       ??1?$__crt_simd_cleanup_guard@$00@@QAE@XZ 100406ce f i libucrt:strnlen.obj
 0001:0003f6d2       ??1?$__crt_simd_cleanup_guard@$0A@@@QAE@XZ 100406d2 f i libucrt:strnlen.obj
 0001:0003f6d3       ?compare_equals@?$__crt_simd_traits@$00E@@SA?AT__m256i@@T2@0@Z 100406d3 f i libucrt:strnlen.obj
 0001:0003f6d8       ?compare_equals@?$__crt_simd_traits@$00G@@SA?AT__m256i@@T2@0@Z 100406d8 f i libucrt:strnlen.obj
 0001:0003f6dd       ?compare_equals@?$__crt_simd_traits@$0A@E@@SA?AT__m128i@@T2@0@Z 100406dd f i libucrt:strnlen.obj
 0001:0003f6e2       ?compare_equals@?$__crt_simd_traits@$0A@G@@SA?AT__m128i@@T2@0@Z 100406e2 f i libucrt:strnlen.obj
 0001:0003f6e7       ?compute_byte_mask@?$__crt_simd_pack_traits@$00@@SAHT__m256i@@@Z 100406e7 f i libucrt:strnlen.obj
 0001:0003f6ec       ?compute_byte_mask@?$__crt_simd_pack_traits@$0A@@@SAHT__m128i@@@Z 100406ec f i libucrt:strnlen.obj
 0001:0003f6f1       ?get_zero_pack@?$__crt_simd_pack_traits@$00@@SA?AT__m256i@@XZ 100406f1 f i libucrt:strnlen.obj
 0001:0003f6f6       ?get_zero_pack@?$__crt_simd_pack_traits@$0A@@@SA?AT__m128i@@XZ 100406f6 f i libucrt:strnlen.obj
 0001:0003f6fb       _strnlen                   100406fb f   libucrt:strnlen.obj
 0001:0003f86b       _wcslen                    1004086b f   libucrt:strnlen.obj
 0001:0003f9ef       _wcsnlen                   100409ef f   libucrt:strnlen.obj
 0001:0003fc13       ??$?RU__acrt_ptd@@@__crt_internal_free_policy@@QBEXQBU__acrt_ptd@@@Z 10040c13 f i libucrt:per_thread_data.obj
 0001:0003fc29       ??$?RV<lambda_15ade71b0218206bbe3333a0c9b79046>@@AAV<lambda_da44e0f8b0f19ba52fefafb335991732>@@V<lambda_207f2d024fc103971653565357d6cd41>@@@?$__crt_seh_guarded_call@X@@QAEX$$QAV<lambda_15ade71b0218206bbe3333a0c9b79046>@@AAV<lambda_da44e0f8b0f19ba52fefafb335991732>@@$$QAV<lambda_207f2d024fc103971653565357d6cd41>@@@Z 10040c29 f i libucrt:per_thread_data.obj
 0001:0003fc83       ??$?RV<lambda_38edbb1296d33220d7e4dd0ed76b244a>@@AAV<lambda_5ce1d447e08cb34b2473517608e21441>@@V<lambda_fb385d3da700c9147fc39e65dd577a8c>@@@?$__crt_seh_guarded_call@X@@QAEX$$QAV<lambda_38edbb1296d33220d7e4dd0ed76b244a>@@AAV<lambda_5ce1d447e08cb34b2473517608e21441>@@$$QAV<lambda_fb385d3da700c9147fc39e65dd577a8c>@@@Z 10040c83 f i libucrt:per_thread_data.obj
 0001:0003fcfc       ??$?RV<lambda_6affb1475c98b40b75cdec977db92e3c>@@AAV<lambda_b8d4b9c228a6ecc3f80208dbb4b4a104>@@V<lambda_608742c3c92a14382c1684fc64f96c88>@@@?$__crt_seh_guarded_call@X@@QAEX$$QAV<lambda_6affb1475c98b40b75cdec977db92e3c>@@AAV<lambda_b8d4b9c228a6ecc3f80208dbb4b4a104>@@$$QAV<lambda_608742c3c92a14382c1684fc64f96c88>@@@Z 10040cfc f i libucrt:per_thread_data.obj
 0001:0003fd59       ??$?RV<lambda_a7e850c220f1c8d1e6efeecdedd162c6>@@AAV<lambda_46720907175c18b6c9d2717bc0d2d362>@@V<lambda_9048902d66e8d99359bc9897bbb930a8>@@@?$__crt_seh_guarded_call@X@@QAEX$$QAV<lambda_a7e850c220f1c8d1e6efeecdedd162c6>@@AAV<lambda_46720907175c18b6c9d2717bc0d2d362>@@$$QAV<lambda_9048902d66e8d99359bc9897bbb930a8>@@@Z 10040d59 f i libucrt:per_thread_data.obj
 0001:0003fdbd       ??$__acrt_lock_and_call@V<lambda_46720907175c18b6c9d2717bc0d2d362>@@@@YAXW4__acrt_lock_id@@$$QAV<lambda_46720907175c18b6c9d2717bc0d2d362>@@@Z 10040dbd f i libucrt:per_thread_data.obj
 0001:0003fdef       ??$__acrt_lock_and_call@V<lambda_5ce1d447e08cb34b2473517608e21441>@@@@YAXW4__acrt_lock_id@@$$QAV<lambda_5ce1d447e08cb34b2473517608e21441>@@@Z 10040def f i libucrt:per_thread_data.obj
 0001:0003fe21       ??$__acrt_lock_and_call@V<lambda_b8d4b9c228a6ecc3f80208dbb4b4a104>@@@@YAXW4__acrt_lock_id@@$$QAV<lambda_b8d4b9c228a6ecc3f80208dbb4b4a104>@@@Z 10040e21 f i libucrt:per_thread_data.obj
 0001:0003fe53       ??$__acrt_lock_and_call@V<lambda_da44e0f8b0f19ba52fefafb335991732>@@@@YAXW4__acrt_lock_id@@$$QAV<lambda_da44e0f8b0f19ba52fefafb335991732>@@@Z 10040e53 f i libucrt:per_thread_data.obj
 0001:0003ff8c       ??0?$__crt_unique_heap_ptr@U__acrt_ptd@@U__crt_internal_free_policy@@@@QAE@QAU__acrt_ptd@@@Z 10040f8c f i libucrt:per_thread_data.obj
 0001:0003ffa0       ??0__crt_scoped_get_last_error_reset@@QAE@XZ 10040fa0 f i libucrt:per_thread_data.obj
 0001:0003ffb5       ??1?$__crt_unique_heap_ptr@U__acrt_ptd@@U__crt_internal_free_policy@@@@QAE@XZ 10040fb5 f i libucrt:per_thread_data.obj
 0001:0003ffcb       ??1__crt_scoped_get_last_error_reset@@QAE@XZ 10040fcb f i libucrt:per_thread_data.obj
 0001:0003ffd6       ??B?$__crt_unique_heap_ptr@U__acrt_ptd@@U__crt_internal_free_policy@@@@QBE_NXZ 10040fd6 f i libucrt:per_thread_data.obj
 0001:0004014c       ?dangerous_get_state_array@?$dual_state_global@PAU__crt_locale_data@@@__crt_state_management@@QAEPAPAU__crt_locale_data@@XZ 1004114c f i libucrt:per_thread_data.obj
 0001:00040250       ?detach@?$__crt_unique_heap_ptr@U__acrt_ptd@@U__crt_internal_free_policy@@@@QAEPAU__acrt_ptd@@XZ 10041250 f i libucrt:per_thread_data.obj
 0001:00040256       ?get@?$__crt_unique_heap_ptr@U__acrt_ptd@@U__crt_internal_free_policy@@@@QBEPAU__acrt_ptd@@XZ 10041256 f i libucrt:per_thread_data.obj
 0001:000403d6       ?is_valid@?$__crt_unique_heap_ptr@U__acrt_ptd@@U__crt_internal_free_policy@@@@QBE_NXZ 100413d6 f i libucrt:per_thread_data.obj
 0001:000403e0       ?release@?$__crt_unique_heap_ptr@U__acrt_ptd@@U__crt_internal_free_policy@@@@QAEXXZ 100413e0 f i libucrt:per_thread_data.obj
 0001:0004046c       ?value@?$dual_state_global@PAU__crt_locale_data@@@__crt_state_management@@QAEAAPAU__crt_locale_data@@XZ 1004146c f i libucrt:per_thread_data.obj
 0001:0004046f       ___acrt_freeptd            1004146f f   libucrt:per_thread_data.obj
 0001:000404a6       ___acrt_getptd             100414a6 f   libucrt:per_thread_data.obj
 0001:00040587       ___acrt_getptd_head        10041587 f   libucrt:per_thread_data.obj
 0001:00040647       ___acrt_getptd_noexit      10041647 f   libucrt:per_thread_data.obj
 0001:00040726       ___acrt_initialize_ptd     10041726 f   libucrt:per_thread_data.obj
 0001:0004075d       ___acrt_uninitialize_ptd   1004175d f   libucrt:per_thread_data.obj
 0001:0004077d       ___threadhandle            1004177d f   libucrt:per_thread_data.obj
 0001:00040783       ___threadid                10041783 f   libucrt:per_thread_data.obj
 0001:00040789       ?value@?$dual_state_global@PAU__crt_multibyte_data@@@__crt_state_management@@QAEAAPAU__crt_multibyte_data@@XZ 10041789 f i libucrt:locale_update.obj
 0001:0004078c       ___acrt_update_locale_info 1004178c f   libucrt:locale_update.obj
 0001:000407c4       ___acrt_update_multibyte_info 100417c4 f   libucrt:locale_update.obj
 0001:000407fc       ?__acrt_fp_classify@@YA?AW4__acrt_fp_class@@ABN@Z 100417fc f i libucrt:cvt.obj
 0001:0004087e       ?__acrt_fp_is_negative@@YA_NABN@Z 1004187e f i libucrt:cvt.obj
 0001:00041307       ?strrchr@@YAPADQADH@Z      10042307 f i libucrt:cvt.obj
 0001:00041314       ___acrt_fp_format          10042314 f   libucrt:cvt.obj
 0001:000414ee       __fputwc_nolock            100424ee f   libucrt:fputwc.obj
 0001:00041662       __fputwchar                10042662 f   libucrt:fputwc.obj
 0001:00041682       __putwc_nolock             10042682 f   libucrt:fputwc.obj
 0001:0004168f       _fputwc                    1004268f f   libucrt:fputwc.obj
 0001:00041728       _putwc                     10042728 f   libucrt:fputwc.obj
 0001:00041735       _putwchar                  10042735 f   libucrt:fputwc.obj
 0001:00041742       ?lowio_handle@__crt_stdio_stream@@QBEHXZ 10042742 f i libucrt:fileno.obj
 0001:00041748       __fileno                   10042748 f   libucrt:fileno.obj
 0001:00041777       __fputc_nolock             10042777 f   libucrt:fputc.obj
 0001:000417aa       __fputchar                 100427aa f   libucrt:fputc.obj
 0001:000417ca       __putc_nolock              100427ca f   libucrt:fputc.obj
 0001:000417d7       _fputc                     100427d7 f   libucrt:fputc.obj
 0001:0004191c       _putc                      1004291c f   libucrt:fputc.obj
 0001:00041929       _putchar                   10042929 f   libucrt:fputc.obj
 0001:00041936       __get_printf_count_output  10042936 f   libucrt:printf_count_output.obj
 0001:00041950       __set_printf_count_output  10042950 f   libucrt:printf_count_output.obj
 0001:00041984       ?has_temporary_buffer@__crt_stdio_stream@@QBE_NXZ 10042984 f i libucrt:_sftbuf.obj
 0001:00041993       ___acrt_stdio_begin_temporary_buffering_nolock 10042993 f   libucrt:_sftbuf.obj
 0001:00041a75       ___acrt_stdio_end_temporary_buffering_nolock 10042a75 f   libucrt:_sftbuf.obj
 0001:00041abf       ??$?RU__crt_locale_data@@@__crt_internal_free_policy@@QBEXQBU__crt_locale_data@@@Z 10042abf f i libucrt:wsetlocale.obj
 0001:00041ad5       ??$?RU__crt_locale_pointers@@@__crt_internal_free_policy@@QBEXQBU__crt_locale_pointers@@@Z 10042ad5 f i libucrt:wsetlocale.obj
 0001:00041aeb       ??$?RU__crt_multibyte_data@@@__crt_internal_free_policy@@QBEXQBU__crt_multibyte_data@@@Z 10042aeb f i libucrt:wsetlocale.obj
 0001:00041b01       ??$?RV<lambda_303d0ad9bde654cb3f803a73716ce7a4>@@AAV<lambda_92fe181106aff629c9a2e25713a64969>@@V<lambda_184325e10b6cff6f771390cbceab281b>@@@?$__crt_seh_guarded_call@X@@QAEX$$QAV<lambda_303d0ad9bde654cb3f803a73716ce7a4>@@AAV<lambda_92fe181106aff629c9a2e25713a64969>@@$$QAV<lambda_184325e10b6cff6f771390cbceab281b>@@@Z 10042b01 f i libucrt:wsetlocale.obj
 0001:00041b54       ??$?RV<lambda_38c1253c7a74f5d2d430989951395d98>@@AAV<lambda_b163b37eafe0a13f2c371fafeb0365c9>@@AAV<lambda_8dff2cf36a5417162780cd64fa2883ef>@@@?$__crt_seh_guarded_call@X@@QAEX$$QAV<lambda_38c1253c7a74f5d2d430989951395d98>@@AAV<lambda_b163b37eafe0a13f2c371fafeb0365c9>@@AAV<lambda_8dff2cf36a5417162780cd64fa2883ef>@@@Z 10042b54 f i libucrt:wsetlocale.obj
 0001:00041b9d       ??$?RV<lambda_6673f7c4c09a5d469d0c27ae364621ce>@@AAV<lambda_ebab98244f73a74f49db879bf13fa982>@@V<lambda_be20789b7a146653eab82509ec35b419>@@@?$__crt_seh_guarded_call@X@@QAEX$$QAV<lambda_6673f7c4c09a5d469d0c27ae364621ce>@@AAV<lambda_ebab98244f73a74f49db879bf13fa982>@@$$QAV<lambda_be20789b7a146653eab82509ec35b419>@@@Z 10042b9d f i libucrt:wsetlocale.obj
 0001:00041bf7       ??$?RV<lambda_82aef432098b982f9ede325b418aa67a>@@AAV<lambda_862e9a3f04921db6ca1ce3faa2bf3edf>@@V<lambda_ffabc152e504b53d7492b9889b10c020>@@@?$__crt_seh_guarded_call@X@@QAEX$$QAV<lambda_82aef432098b982f9ede325b418aa67a>@@AAV<lambda_862e9a3f04921db6ca1ce3faa2bf3edf>@@$$QAV<lambda_ffabc152e504b53d7492b9889b10c020>@@@Z 10042bf7 f i libucrt:wsetlocale.obj
 0001:00041c53       ??$?RV<lambda_e5124f882df8998aaf41531e079ba474>@@AAV<lambda_3e16ef9562a7dcce91392c22ab16ea36>@@V<lambda_e25ca0880e6ef98be67edffd8c599615>@@@?$__crt_seh_guarded_call@X@@QAEX$$QAV<lambda_e5124f882df8998aaf41531e079ba474>@@AAV<lambda_3e16ef9562a7dcce91392c22ab16ea36>@@$$QAV<lambda_e25ca0880e6ef98be67edffd8c599615>@@@Z 10042c53 f i libucrt:wsetlocale.obj
 0001:00041cae       ??$__acrt_lock_and_call@V<lambda_3e16ef9562a7dcce91392c22ab16ea36>@@@@YAXW4__acrt_lock_id@@$$QAV<lambda_3e16ef9562a7dcce91392c22ab16ea36>@@@Z 10042cae f i libucrt:wsetlocale.obj
 0001:00041ce0       ??$__acrt_lock_and_call@V<lambda_862e9a3f04921db6ca1ce3faa2bf3edf>@@@@YAXW4__acrt_lock_id@@$$QAV<lambda_862e9a3f04921db6ca1ce3faa2bf3edf>@@@Z 10042ce0 f i libucrt:wsetlocale.obj
 0001:00041d12       ??$__acrt_lock_and_call@V<lambda_92fe181106aff629c9a2e25713a64969>@@@@YAXW4__acrt_lock_id@@$$QAV<lambda_92fe181106aff629c9a2e25713a64969>@@@Z 10042d12 f i libucrt:wsetlocale.obj
 0001:00041d44       ??$__acrt_lock_and_call@V<lambda_ebab98244f73a74f49db879bf13fa982>@@@@YAXW4__acrt_lock_id@@$$QAV<lambda_ebab98244f73a74f49db879bf13fa982>@@@Z 10042d44 f i libucrt:wsetlocale.obj
 0001:00041d76       ??$__crt_call_and_cleanup@V<lambda_b163b37eafe0a13f2c371fafeb0365c9>@@V<lambda_8dff2cf36a5417162780cd64fa2883ef>@@@@YAX$$QAV<lambda_b163b37eafe0a13f2c371fafeb0365c9>@@$$QAV<lambda_8dff2cf36a5417162780cd64fa2883ef>@@@Z 10042d76 f i libucrt:wsetlocale.obj
 0001:00041d99       ??$__vcrt_va_start_verify_argument_type@H@@YAXXZ 10042d99 f i libucrt:wsetlocale.obj
 0001:00041d9a       ??$uninitialize@V<lambda_88ce03f932007f29bf8b8056cbaba4f3>@@@?$dual_state_global@PAU__crt_locale_data@@@__crt_state_management@@QAEX$$QAV<lambda_88ce03f932007f29bf8b8056cbaba4f3>@@@Z 10042d9a f i libucrt:wsetlocale.obj
 0001:00041f24       ??0?$__crt_unique_heap_ptr@U__crt_locale_data@@U__crt_internal_free_policy@@@@QAE@QAU__crt_locale_data@@@Z 10042f24 f i libucrt:wsetlocale.obj
 0001:00041f38       ??0?$__crt_unique_heap_ptr@U__crt_locale_pointers@@U__crt_internal_free_policy@@@@QAE@QAU__crt_locale_pointers@@@Z 10042f38 f i libucrt:wsetlocale.obj
 0001:00041f4c       ??0?$__crt_unique_heap_ptr@U__crt_multibyte_data@@U__crt_internal_free_policy@@@@QAE@QAU__crt_multibyte_data@@@Z 10042f4c f i libucrt:wsetlocale.obj
 0001:00041f60       ??1?$__crt_unique_heap_ptr@U__crt_locale_data@@U__crt_internal_free_policy@@@@QAE@XZ 10042f60 f i libucrt:wsetlocale.obj
 0001:00041f76       ??1?$__crt_unique_heap_ptr@U__crt_locale_pointers@@U__crt_internal_free_policy@@@@QAE@XZ 10042f76 f i libucrt:wsetlocale.obj
 0001:00041f8c       ??1?$__crt_unique_heap_ptr@U__crt_multibyte_data@@U__crt_internal_free_policy@@@@QAE@XZ 10042f8c f i libucrt:wsetlocale.obj
 0001:00041fa2       ??B?$__crt_unique_heap_ptr@U__crt_locale_data@@U__crt_internal_free_policy@@@@QBE_NXZ 10042fa2 f i libucrt:wsetlocale.obj
 0001:00041fac       ??B?$__crt_unique_heap_ptr@U__crt_locale_pointers@@U__crt_internal_free_policy@@@@QBE_NXZ 10042fac f i libucrt:wsetlocale.obj
 0001:00041fb6       ??B?$__crt_unique_heap_ptr@U__crt_multibyte_data@@U__crt_internal_free_policy@@@@QBE_NXZ 10042fb6 f i libucrt:wsetlocale.obj
 0001:0004223d       ?detach@?$__crt_unique_heap_ptr@U__crt_locale_data@@U__crt_internal_free_policy@@@@QAEPAU__crt_locale_data@@XZ 1004323d f i libucrt:wsetlocale.obj
 0001:00042243       ?detach@?$__crt_unique_heap_ptr@U__crt_locale_pointers@@U__crt_internal_free_policy@@@@QAEPAU__crt_locale_pointers@@XZ 10043243 f i libucrt:wsetlocale.obj
 0001:00042249       ?detach@?$__crt_unique_heap_ptr@U__crt_multibyte_data@@U__crt_internal_free_policy@@@@QAEPAU__crt_multibyte_data@@XZ 10043249 f i libucrt:wsetlocale.obj
 0001:0004224f       ?get@?$__crt_unique_heap_ptr@U__crt_locale_data@@U__crt_internal_free_policy@@@@QBEPAU__crt_locale_data@@XZ 1004324f f i libucrt:wsetlocale.obj
 0001:00042252       ?get@?$__crt_unique_heap_ptr@U__crt_locale_pointers@@U__crt_internal_free_policy@@@@QBEPAU__crt_locale_pointers@@XZ 10043252 f i libucrt:wsetlocale.obj
 0001:00042255       ?get@?$__crt_unique_heap_ptr@U__crt_multibyte_data@@U__crt_internal_free_policy@@@@QBEPAU__crt_multibyte_data@@XZ 10043255 f i libucrt:wsetlocale.obj
 0001:00042258       ?is_valid@?$__crt_unique_heap_ptr@U__crt_locale_data@@U__crt_internal_free_policy@@@@QBE_NXZ 10043258 f i libucrt:wsetlocale.obj
 0001:00042262       ?is_valid@?$__crt_unique_heap_ptr@U__crt_locale_pointers@@U__crt_internal_free_policy@@@@QBE_NXZ 10043262 f i libucrt:wsetlocale.obj
 0001:0004226c       ?is_valid@?$__crt_unique_heap_ptr@U__crt_multibyte_data@@U__crt_internal_free_policy@@@@QBE_NXZ 1004326c f i libucrt:wsetlocale.obj
 0001:00042276       ?release@?$__crt_unique_heap_ptr@U__crt_locale_data@@U__crt_internal_free_policy@@@@QAEXXZ 10043276 f i libucrt:wsetlocale.obj
 0001:0004228c       ?release@?$__crt_unique_heap_ptr@U__crt_locale_pointers@@U__crt_internal_free_policy@@@@QAEXXZ 1004328c f i libucrt:wsetlocale.obj
 0001:000422a2       ?release@?$__crt_unique_heap_ptr@U__crt_multibyte_data@@U__crt_internal_free_policy@@@@QAEXXZ 100432a2 f i libucrt:wsetlocale.obj
 0001:000422b8       ___acrt_copy_locale_name   100432b8 f   libucrt:wsetlocale.obj
 0001:00042337       ___acrt_set_locale_changed 10043337 f   libucrt:wsetlocale.obj
 0001:00042344       ___acrt_uninitialize_locale 10043344 f   libucrt:wsetlocale.obj
 0001:00042360       ___lc_lctowcs              10043360 f   libucrt:wsetlocale.obj
 0001:000423ec       ___lc_wcstolc              100433ec f   libucrt:wsetlocale.obj
 0001:00042566       __configthreadlocale       10043566 f   libucrt:wsetlocale.obj
 0001:0004261a       __create_locale            1004361a f   libucrt:wsetlocale.obj
 0001:00042697       __expandlocale             10043697 f   libucrt:wsetlocale.obj
 0001:00042aeb       __free_locale              10043aeb f   libucrt:wsetlocale.obj
 0001:00042bd1       __get_current_locale       10043bd1 f   libucrt:wsetlocale.obj
 0001:00042c6a       __wcreate_locale           10043c6a f   libucrt:wsetlocale.obj
 0001:00042db5       __wcscats                  10043db5 f   libucrt:wsetlocale.obj
 0001:00042e06       __wsetlocale               10043e06 f   libucrt:wsetlocale.obj
 0001:00043932       ___p___mb_cur_max          10044932 f   libucrt:nlsdata.obj
 0001:00043970       __cintrindisp2             10044970 f   libucrt:87cdisp.obj
 0001:000439b4       __cintrindisp1             100449b4 f   libucrt:87cdisp.obj
 0001:000439f7       __ctrandisp2               100449f7 f   libucrt:87cdisp.obj
 0001:00043b86       __ctrandisp1               10044b86 f   libucrt:87cdisp.obj
 0001:00043bb9       __fload                    10044bb9 f   libucrt:87cdisp.obj
 0001:00043ca0       __trandisp1                10044ca0 f   libucrt:87disp.obj
 0001:00043d07       __trandisp2                10044d07 f   libucrt:87disp.obj
 0001:00043d93       __rttospopde               10044d93     libucrt:87disp.obj
 0001:00043d98       __rttospop                 10044d98     libucrt:87disp.obj
 0001:00043d9a       __rtnospop                 10044d9a     libucrt:87disp.obj
 0001:00043d9c       __rttosnpop                10044d9c     libucrt:87disp.obj
 0001:00043d9d       __rtnospopde               10044d9d     libucrt:87disp.obj
 0001:00043da4       __rtzeropop                10044da4     libucrt:87disp.obj
 0001:00043da6       __rtzeronpop               10044da6     libucrt:87disp.obj
 0001:00043dab       __rtzerospop               10044dab     libucrt:87disp.obj
 0001:00043db8       __rtonepop                 10044db8     libucrt:87disp.obj
 0001:00043dba       __rtonenpop                10044dba     libucrt:87disp.obj
 0001:00043dbf       __tosnan1                  10044dbf     libucrt:87disp.obj
 0001:00043dea       __nosnan2                  10044dea     libucrt:87disp.obj
 0001:00043dec       __tosnan2                  10044dec     libucrt:87disp.obj
 0001:00043e14       __nan2                     10044e14     libucrt:87disp.obj
 0001:00043e53       __rtindfpop                10044e53     libucrt:87disp.obj
 0001:00043e55       __rtindfnpop               10044e55     libucrt:87disp.obj
 0001:00043e66       __rttosnpopde              10044e66     libucrt:87disp.obj
 0001:00043e70       __rtatan2inf               10044e70     libucrt:87disp.obj
 0001:00043e8d       __rtchsifneg               10044e8d     libucrt:87disp.obj
 0001:00043fd8       ___acrt_report_runtime_error 10044fd8 f   libucrt:report_runtime_error.obj
 0001:0004413e       __query_app_type           1004513e f   libucrt:report_runtime_error.obj
 0001:00044144       __set_app_type             10045144 f   libucrt:report_runtime_error.obj
 0001:0004462e       __i64toa                   1004562e f   libucrt:xtoa.obj
 0001:00044681       __i64toa_s                 10045681 f   libucrt:xtoa.obj
 0001:000446d2       __i64tow                   100456d2 f   libucrt:xtoa.obj
 0001:00044725       __i64tow_s                 10045725 f   libucrt:xtoa.obj
 0001:00044776       __itoa                     10045776 f   libucrt:xtoa.obj
 0001:000447ba       __itoa_s                   100457ba f   libucrt:xtoa.obj
 0001:000447fc       __itow                     100457fc f   libucrt:xtoa.obj
 0001:00044840       __itow_s                   10045840 f   libucrt:xtoa.obj
 0001:00044882       __ltoa                     10045882 f   libucrt:xtoa.obj
 0001:000448c6       __ltoa_s                   100458c6 f   libucrt:xtoa.obj
 0001:00044908       __ltow                     10045908 f   libucrt:xtoa.obj
 0001:0004494c       __ltow_s                   1004594c f   libucrt:xtoa.obj
 0001:0004498e       __ui64toa                  1004598e f   libucrt:xtoa.obj
 0001:000449b8       __ui64toa_s                100459b8 f   libucrt:xtoa.obj
 0001:000449e0       __ui64tow                  100459e0 f   libucrt:xtoa.obj
 0001:00044a0a       __ui64tow_s                10045a0a f   libucrt:xtoa.obj
 0001:00044a32       __ultoa                    10045a32 f   libucrt:xtoa.obj
 0001:00044a58       __ultoa_s                  10045a58 f   libucrt:xtoa.obj
 0001:00044a7c       __ultow                    10045a7c f   libucrt:xtoa.obj
 0001:00044aa2       __ultow_s                  10045aa2 f   libucrt:xtoa.obj
 0001:00044ac6       __set_error_mode           10045ac6 f   libucrt:set_error_mode.obj
 0001:00044ba2       _wcscat_s                  10045ba2 f   libucrt:wcscat_s.obj
 0001:00044cac       _wcscpy_s                  10045cac f   libucrt:wcscpy_s.obj
 0001:00044e4c       _wcsncat_s                 10045e4c f   libucrt:wcsncat_s.obj
 0001:00044edc       _strcat_s                  10045edc f   libucrt:strcat_s.obj
 0001:00045063       _strncat_s                 10046063 f   libucrt:strncat_s.obj
 0001:000451ba       ??$message_box@$$TABQBDABQBDK@?$__crt_char_traits@D@@SAH$$QA$$TABQBD1$$QAK@Z 100461ba f i libucrt:crtmbox.obj
 0001:000451e2       ??$message_box@$$TABQB_WABQB_WK@?$__crt_char_traits@_W@@SAH$$QA$$TABQB_W1$$QAK@Z 100461e2 f i libucrt:crtmbox.obj
 0001:0004520a       ??$message_box@PAUHWND__@@ABQBDABQBDABI@?$__crt_char_traits@D@@SAH$$QAPAUHWND__@@ABQBD1ABI@Z 1004620a f i libucrt:crtmbox.obj
 0001:00045232       ??$message_box@PAUHWND__@@ABQB_WABQB_WABI@?$__crt_char_traits@_W@@SAH$$QAPAUHWND__@@ABQB_W1ABI@Z 10046232 f i libucrt:crtmbox.obj
 0001:0004525a       ??$output_debug_string@ABQBD@?$__crt_char_traits@D@@SAXABQBD@Z 1004625a f i libucrt:crtmbox.obj
 0001:00045270       ??$output_debug_string@ABQB_W@?$__crt_char_traits@_W@@SAXABQB_W@Z 10046270 f i libucrt:crtmbox.obj
 0001:00045286       ___acrt_show_narrow_message_box 10046286 f   libucrt:crtmbox.obj
 0001:00045293       ___acrt_show_wide_message_box 10046293 f   libucrt:crtmbox.obj
 0001:000452a0       ??$?RV<lambda_70c0770dcc4f6ec6272bb01dc82d3c91>@@AAV<lambda_ca71763b3c0644891230e4f79ea54fa6>@@V<lambda_ca266f0f09348b8765c113e3a39a2bc1>@@@?$__crt_seh_guarded_call@H@@QAEH$$QAV<lambda_70c0770dcc4f6ec6272bb01dc82d3c91>@@AAV<lambda_ca71763b3c0644891230e4f79ea54fa6>@@$$QAV<lambda_ca266f0f09348b8765c113e3a39a2bc1>@@@Z 100462a0 f i libucrt:setvbuf.obj
 0001:00045305       ??$__acrt_lock_stream_and_call@V<lambda_ca71763b3c0644891230e4f79ea54fa6>@@@@YAHQAU_iobuf@@$$QAV<lambda_ca71763b3c0644891230e4f79ea54fa6>@@@Z 10046305 f i libucrt:setvbuf.obj
 0001:000454a2       _setvbuf                   100464a2 f   libucrt:setvbuf.obj
 0001:00045535       ??$?B$$A6AXH@Z@__crt_fast_encoded_nullptr_t@@QBEP6AXH@ZXZ 10046535 f i libucrt:signal.obj
 0001:00045553       ??$?RV<lambda_cbab9ec6f41b0180b23cc171c22676b0>@@AAV<lambda_44731a7d0e6d81c3e6aa82d741081786>@@V<lambda_4b292cb8dd18144e164572427af410ab>@@@?$__crt_seh_guarded_call@P6AXH@Z@@QAEP6AXH@Z$$QAV<lambda_cbab9ec6f41b0180b23cc171c22676b0>@@AAV<lambda_44731a7d0e6d81c3e6aa82d741081786>@@$$QAV<lambda_4b292cb8dd18144e164572427af410ab>@@@Z 10046553 f i libucrt:signal.obj
 0001:000455c3       ??$__acrt_lock_and_call@V<lambda_44731a7d0e6d81c3e6aa82d741081786>@@@@YAP6AXH@ZW4__acrt_lock_id@@$$QAV<lambda_44731a7d0e6d81c3e6aa82d741081786>@@@Z 100465c3 f i libucrt:signal.obj
 0001:000455f5       ??$__crt_fast_decode_pointer@P6AXH@Z@@YAP6AXH@ZQ6AXH@Z@Z 100465f5 f i libucrt:signal.obj
 0001:00045610       ??$__crt_fast_encode_pointer@P6AXH@Z@@YAP6AXH@ZQ6AXH@Z@Z 10046610 f i libucrt:signal.obj
 0001:000457ba       ?initialize@?$dual_state_global@P6AXH@Z@__crt_state_management@@QAEXQ6AXH@Z@Z 100467ba f i libucrt:signal.obj
 0001:00045866       ?value@?$dual_state_global@P6AXH@Z@__crt_state_management@@QAEAAP6AXH@ZXZ 10046866 f i libucrt:signal.obj
 0001:00045869       ___acrt_get_sigabrt_handler 10046869 f   libucrt:signal.obj
 0001:00045885       ___acrt_initialize_signal_handlers 10046885 f   libucrt:signal.obj
 0001:000458ce       ___fpecode                 100468ce f   libucrt:signal.obj
 0001:000458d9       ___pxcptinfoptrs           100468d9 f   libucrt:signal.obj
 0001:000458e4       _raise                     100468e4 f   libucrt:signal.obj
 0001:00045b6e       _signal                    10046b6e f   libucrt:signal.obj
 0001:00045d8c       __realloc_base             10046d8c f   libucrt:realloc_base.obj
 0001:00045e0f       ___acrt_initialize_locks   10046e0f f   libucrt:locks.obj
 0001:00045e60       ___acrt_lock               10046e60 f   libucrt:locks.obj
 0001:00045e7c       ___acrt_uninitialize_locks 10046e7c f   libucrt:locks.obj
 0001:00045eb9       ___acrt_unlock             10046eb9 f   libucrt:locks.obj
 0001:00045ed5       __lock_locales             10046ed5 f   libucrt:locks.obj
 0001:00045ee0       __unlock_locales           10046ee0 f   libucrt:locks.obj
 0001:000460b2       ___acrt_get_begin_thread_init_policy 100470b2 f   libucrt:win_policies.obj
 0001:000460f0       ___acrt_get_developer_information_policy 100470f0 f   libucrt:win_policies.obj
 0001:0004612e       ___acrt_get_process_end_policy 1004712e f   libucrt:win_policies.obj
 0001:00046156       ___acrt_get_windowing_model_policy 10047156 f   libucrt:win_policies.obj
 0001:000461b7       ??$?RV<lambda_218ce3db14220d0be481dae8ef3383b6>@@AAV<lambda_628dfdc04ba53c8bfc02c9951375f3f5>@@V<lambda_57dc472bd5c9d5f3b2cbca59b8a843ae>@@@?$__crt_seh_guarded_call@H@@QAEH$$QAV<lambda_218ce3db14220d0be481dae8ef3383b6>@@AAV<lambda_628dfdc04ba53c8bfc02c9951375f3f5>@@$$QAV<lambda_57dc472bd5c9d5f3b2cbca59b8a843ae>@@@Z 100471b7 f i libucrt:close.obj
 0001:00046259       ??$__acrt_lowio_lock_fh_and_call@V<lambda_628dfdc04ba53c8bfc02c9951375f3f5>@@@@YAHH$$QAV<lambda_628dfdc04ba53c8bfc02c9951375f3f5>@@@Z 10047259 f i libucrt:close.obj
 0001:000463ac       __close                    100473ac f   libucrt:close.obj
 0001:0004644a       __close_nolock             1004744a f   libucrt:close.obj
 0001:0004650d       ??$?RU__crt_stdio_stream_data@@@__crt_internal_free_policy@@QBEXQBU__crt_stdio_stream_data@@@Z 1004750d f i libucrt:stream.obj
 0001:00046523       ??0?$__crt_unique_heap_ptr@U__crt_stdio_stream_data@@U__crt_internal_free_policy@@@@QAE@QAU__crt_stdio_stream_data@@@Z 10047523 f i libucrt:stream.obj
 0001:00046537       ??0__crt_stdio_stream@@QAE@XZ 10047537 f i libucrt:stream.obj
 0001:0004653d       ??1?$__crt_unique_heap_ptr@U__crt_stdio_stream_data@@U__crt_internal_free_policy@@@@QAE@XZ 1004753d f i libucrt:stream.obj
 0001:00046553       ?__acrt_stdio_allocate_stream@@YA?AV__crt_stdio_stream@@XZ 10047553 f   libucrt:stream.obj
 0001:000465c9       ?__acrt_stdio_free_stream@@YAXV__crt_stdio_stream@@@Z 100475c9 f   libucrt:stream.obj
 0001:00046612       ?deallocate@__crt_stdio_stream@@QAEXXZ 10047612 f i libucrt:stream.obj
 0001:0004661e       ?detach@?$__crt_unique_heap_ptr@U__crt_stdio_stream_data@@U__crt_internal_free_policy@@@@QAEPAU__crt_stdio_stream_data@@XZ 1004761e f i libucrt:stream.obj
 0001:00046717       ?lock@__crt_stdio_stream@@QBEXXZ 10047717 f i libucrt:stream.obj
 0001:00046722       ?release@?$__crt_unique_heap_ptr@U__crt_stdio_stream_data@@U__crt_internal_free_policy@@@@QAEXXZ 10047722 f i libucrt:stream.obj
 0001:00046738       ?try_allocate@__crt_stdio_stream@@QAE_NXZ 10047738 f i libucrt:stream.obj
 0001:00046761       ??$__acrt_stdio_parse_mode@D@@YA?AU__acrt_stdio_stream_mode@@QBD@Z 10047761 f i libucrt:openfile.obj
 0001:00046a1f       ??$__acrt_stdio_parse_mode@_W@@YA?AU__acrt_stdio_stream_mode@@QB_W@Z 10047a1f f i libucrt:openfile.obj
 0001:00046e40       ??$tcsncmp@AAPBDAAY02$$CBDI@?$__crt_char_traits@D@@SAHAAPBDAAY02$$CBD$$QAI@Z 10047e40 f i libucrt:openfile.obj
 0001:00046e63       ??$tcsncmp@AAPB_WAAY02$$CB_WI@?$__crt_char_traits@_W@@SAHAAPB_WAAY02$$CB_W$$QAI@Z 10047e63 f i libucrt:openfile.obj
 0001:00046e86       ??$tcsnicmp@AAPBDAAY04$$CBDI@?$__crt_char_traits@D@@SAHAAPBDAAY04$$CBD$$QAI@Z 10047e86 f i libucrt:openfile.obj
 0001:00046ea9       ??$tcsnicmp@AAPBDAAY06$$CBDI@?$__crt_char_traits@D@@SAHAAPBDAAY06$$CBD$$QAI@Z 10047ea9 f i libucrt:openfile.obj
 0001:00046ecc       ??$tcsnicmp@AAPBDAAY07$$CBDI@?$__crt_char_traits@D@@SAHAAPBDAAY07$$CBD$$QAI@Z 10047ecc f i libucrt:openfile.obj
 0001:00046eef       ??$tcsnicmp@AAPB_WAAY04$$CB_WI@?$__crt_char_traits@_W@@SAHAAPB_WAAY04$$CB_W$$QAI@Z 10047eef f i libucrt:openfile.obj
 0001:00046f12       ??$tcsnicmp@AAPB_WAAY06$$CB_WI@?$__crt_char_traits@_W@@SAHAAPB_WAAY06$$CB_W$$QAI@Z 10047f12 f i libucrt:openfile.obj
 0001:00046f35       ??$tcsnicmp@AAPB_WAAY07$$CB_WI@?$__crt_char_traits@_W@@SAHAAPB_WAAY07$$CB_W$$QAI@Z 10047f35 f i libucrt:openfile.obj
 0001:00046f58       ??$tsopen_s@PAHABQBDABHABHH@?$__crt_char_traits@D@@SAH$$QAPAHABQBDABH2$$QAH@Z 10047f58 f i libucrt:openfile.obj
 0001:00046f8a       ??$tsopen_s@PAHABQB_WABHABHH@?$__crt_char_traits@_W@@SAH$$QAPAHABQB_WABH2$$QAH@Z 10047f8a f i libucrt:openfile.obj
 0001:00046fbc       ?__acrt_stdio_parse_mode_D@@YA_NAAU__acrt_stdio_stream_mode@@@Z 10047fbc f i libucrt:openfile.obj
 0001:00046fdd       ?__acrt_stdio_parse_mode_N@@YA_NAAU__acrt_stdio_stream_mode@@@Z 10047fdd f i libucrt:openfile.obj
 0001:00046ff3       ?__acrt_stdio_parse_mode_R@@YA_NAAU__acrt_stdio_stream_mode@@AA_N@Z 10047ff3 f i libucrt:openfile.obj
 0001:00047018       ?__acrt_stdio_parse_mode_S@@YA_NAAU__acrt_stdio_stream_mode@@AA_N@Z 10048018 f i libucrt:openfile.obj
 0001:0004703d       ?__acrt_stdio_parse_mode_T@@YA_NAAU__acrt_stdio_stream_mode@@@Z 1004803d f i libucrt:openfile.obj
 0001:00047063       ?__acrt_stdio_parse_mode_b@@YA_NAAU__acrt_stdio_stream_mode@@@Z 10048063 f i libucrt:openfile.obj
 0001:0004708b       ?__acrt_stdio_parse_mode_c@@YA_NAAU__acrt_stdio_stream_mode@@AA_N@Z 1004808b f i libucrt:openfile.obj
 0001:000470b5       ?__acrt_stdio_parse_mode_n@@YA_NAAU__acrt_stdio_stream_mode@@AA_N@Z 100480b5 f i libucrt:openfile.obj
 0001:000470df       ?__acrt_stdio_parse_mode_plus@@YA_NAAU__acrt_stdio_stream_mode@@AA_N@Z 100480df f i libucrt:openfile.obj
 0001:00047121       ?__acrt_stdio_parse_mode_t@@YA_NAAU__acrt_stdio_stream_mode@@@Z 10048121 f i libucrt:openfile.obj
 0001:00047149       __openfile                 10048149 f   libucrt:openfile.obj
 0001:00047156       __wopenfile                10048156 f   libucrt:openfile.obj
 0001:000477ef       __read                     100487ef f   libucrt:read.obj
 0001:00047946       __read_nolock              10048946 f   libucrt:read.obj
 0001:000482e2       ___acrt_stdio_refill_and_read_narrow_nolock 100492e2 f   libucrt:_filbuf.obj
 0001:000482ef       ___acrt_stdio_refill_and_read_wide_nolock 100492ef f   libucrt:_filbuf.obj
 0001:00048a65       __write                    10049a65 f   libucrt:write.obj
 0001:00048b8a       __write_nolock             10049b8a f   libucrt:write.obj
 0001:000492e0       ___acrt_stdio_flush_and_write_narrow_nolock 1004a2e0 f   libucrt:_flsbuf.obj
 0001:000492ed       ___acrt_stdio_flush_and_write_wide_nolock 1004a2ed f   libucrt:_flsbuf.obj
 0001:000492fa       ___acrt_copy_path_to_wide_string 1004a2fa f   libucrt:string_utilities.obj
 0001:000493f2       ___acrt_copy_to_char       1004a3f2 f   libucrt:string_utilities.obj
 0001:000494dd       __wremove                  1004a4dd f   libucrt:wunlink.obj
 0001:0004950f       __wunlink                  1004a50f f   libucrt:wunlink.obj
 0001:00049983       __lseek                    1004a983 f   libucrt:lseek.obj
 0001:00049990       __lseek_nolock             1004a990 f   libucrt:lseek.obj
 0001:0004999d       __lseeki64                 1004a99d f   libucrt:lseek.obj
 0001:000499be       __lseeki64_nolock          1004a9be f   libucrt:lseek.obj
 0001:000499df       __chgsign                  1004a9df f   libucrt:ieeemisc.obj
 0001:00049a19       __chgsignf                 1004aa19 f   libucrt:ieeemisc.obj
 0001:00049a44       __copysign                 1004aa44 f   libucrt:ieeemisc.obj
 0001:00049a78       __copysignf                1004aa78 f   libucrt:ieeemisc.obj
 0001:00049a9d       __finite                   1004aa9d f   libucrt:ieeemisc.obj
 0001:00049abd       __fpclass                  1004aabd f   libucrt:ieeemisc.obj
 0001:00049b8a       __isnan                    1004ab8a f   libucrt:ieeemisc.obj
 0001:00049bcd       __logb                     1004abcd f   libucrt:ieeemisc.obj
 0001:00049cd2       __nextafter                1004acd2 f   libucrt:ieeemisc.obj
 0001:00049cf8       __scalb                    1004acf8 f   libucrt:ieeemisc.obj
 0001:00049d18       __add_exp                  1004ad18 f   libucrt:util.obj
 0001:00049d52       __decomp                   1004ad52 f   libucrt:util.obj
 0001:00049e5b       __get_exp                  1004ae5b f   libucrt:util.obj
 0001:00049e7a       __set_bexp                 1004ae7a f   libucrt:util.obj
 0001:00049ead       __set_exp                  1004aead f   libucrt:util.obj
 0001:00049ee7       __sptype                   1004aee7 f   libucrt:util.obj
 0001:00049f5c       ___clrfp_sse2              1004af5c f   libucrt:fpctrl.obj
 0001:00049f85       ___ctrlfp_sse2             1004af85 f   libucrt:fpctrl.obj
 0001:00049fce       ___fclrf_sse2              1004afce f   libucrt:fpctrl.obj
 0001:00049ff4       ___get_fpsr_sse2           1004aff4 f   libucrt:fpctrl.obj
 0001:0004a019       ___set_fpsr_sse2           1004b019 f   libucrt:fpctrl.obj
 0001:0004a0ac       ___set_statfp_sse2         1004b0ac f   libucrt:fpctrl.obj
 0001:0004a0cd       ___statfp_sse2             1004b0cd f   libucrt:fpctrl.obj
 0001:0004a0e7       __clrfp                    1004b0e7 f   libucrt:fpctrl.obj
 0001:0004a0fe       __ctrlfp                   1004b0fe f   libucrt:fpctrl.obj
 0001:0004a135       __set_statfp               1004b135 f   libucrt:fpctrl.obj
 0001:0004a1a6       __statfp                   1004b1a6 f   libucrt:fpctrl.obj
 0001:0004a1bc       ??$__crt_fast_decode_pointer@P6AHPAU_exception@@@Z@@YAP6AHPAU_exception@@@ZQ6AH0@Z@Z 1004b1bc f i libucrt:matherr.obj
 0001:0004a1d7       ??$__crt_fast_encode_pointer@P6AHPAU_exception@@@Z@@YAP6AHPAU_exception@@@ZQ6AH0@Z@Z 1004b1d7 f i libucrt:matherr.obj
 0001:0004a1fd       ?initialize@?$dual_state_global@P6AHPAU_exception@@@Z@__crt_state_management@@QAEXQ6AHPAU_exception@@@Z@Z 1004b1fd f i libucrt:matherr.obj
 0001:0004a23a       ?value@?$dual_state_global@P6AHPAU_exception@@@Z@__crt_state_management@@QAEAAP6AHPAU_exception@@@ZXZ 1004b23a f i libucrt:matherr.obj
 0001:0004a23d       ___acrt_has_user_matherr   1004b23d f   libucrt:matherr.obj
 0001:0004a25c       ___acrt_initialize_user_matherr 1004b25c f   libucrt:matherr.obj
 0001:0004a275       ___acrt_invoke_user_matherr 1004b275 f   libucrt:matherr.obj
 0001:0004a2d0       ___setusermatherr          1004b2d0 f   libucrt:matherr.obj
 0001:0004adb9       ??$find_first_file_ex@ABQADW4_FINDEX_INFO_LEVELS@@PAU_WIN32_FIND_DATAA@@W4_FINDEX_SEARCH_OPS@@$$TH@?$__crt_char_traits@D@@SAPAXABQAD$$QAW4_FINDEX_INFO_LEVELS@@$$QAPAU_WIN32_FIND_DATAA@@$$QAW4_FINDEX_SEARCH_OPS@@$$QA$$T$$QAH@Z 1004bdb9 f i libucrt:argv_wildcards.obj
 0001:0004adee       ??$find_first_file_ex@ABQA_WW4_FINDEX_INFO_LEVELS@@PAU_WIN32_FIND_DATAW@@W4_FINDEX_SEARCH_OPS@@$$TH@?$__crt_char_traits@_W@@SAPAXABQA_W$$QAW4_FINDEX_INFO_LEVELS@@$$QAPAU_WIN32_FIND_DATAW@@$$QAW4_FINDEX_SEARCH_OPS@@$$QA$$T$$QAH@Z 1004bdee f i libucrt:argv_wildcards.obj
 0001:0004ae23       ??$find_next_file@PAXPAU_WIN32_FIND_DATAA@@@?$__crt_char_traits@D@@SAH$$QAPAX$$QAPAU_WIN32_FIND_DATAA@@@Z 1004be23 f i libucrt:argv_wildcards.obj
 0001:0004ae3f       ??$find_next_file@PAXPAU_WIN32_FIND_DATAW@@@?$__crt_char_traits@_W@@SAH$$QAPAX$$QAPAU_WIN32_FIND_DATAW@@@Z 1004be3f f i libucrt:argv_wildcards.obj
 0001:0004ae5b       ??$tcsncpy_s@AAPADIAAPADABI@?$__crt_char_traits@D@@SAHAAPAD$$QAI0ABI@Z 1004be5b f i libucrt:argv_wildcards.obj
 0001:0004ae86       ??$tcsncpy_s@AAPA_WIAAPA_WABI@?$__crt_char_traits@_W@@SAHAAPA_W$$QAI0ABI@Z 1004be86 f i libucrt:argv_wildcards.obj
 0001:0004aeb1       ??$tcsncpy_s@PADABIABQBDABI@?$__crt_char_traits@D@@SAH$$QAPADABIABQBD1@Z 1004beb1 f i libucrt:argv_wildcards.obj
 0001:0004aedc       ??$tcsncpy_s@PADIABQBDABI@?$__crt_char_traits@D@@SAH$$QAPAD$$QAIABQBDABI@Z 1004bedc f i libucrt:argv_wildcards.obj
 0001:0004af07       ??$tcsncpy_s@PA_WABIABQB_WABI@?$__crt_char_traits@_W@@SAH$$QAPA_WABIABQB_W1@Z 1004bf07 f i libucrt:argv_wildcards.obj
 0001:0004af32       ??$tcsncpy_s@PA_WIABQB_WABI@?$__crt_char_traits@_W@@SAH$$QAPA_W$$QAIABQB_WABI@Z 1004bf32 f i libucrt:argv_wildcards.obj
 0001:0004af5d       ??$tcspbrk@AAPADAAY02$$CBD@?$__crt_char_traits@D@@SAPADAAPADAAY02$$CBD@Z 1004bf5d f i libucrt:argv_wildcards.obj
 0001:0004af78       ??$tcspbrk@AAPA_WAAY02$$CB_W@?$__crt_char_traits@_W@@SAPA_WAAPA_WAAY02$$CB_W@Z 1004bf78 f i libucrt:argv_wildcards.obj
 0001:0004af93       ??0?$__crt_unique_handle_t@U__crt_findfile_traits@@@@QAE@QAX@Z 1004bf93 f i libucrt:argv_wildcards.obj
 0001:0004afc7       ??1?$__crt_unique_handle_t@U__crt_findfile_traits@@@@QAE@XZ 1004bfc7 f i libucrt:argv_wildcards.obj
 0001:0004b169       ?close@?$__crt_unique_handle_t@U__crt_findfile_traits@@@@QAEXXZ 1004c169 f i libucrt:argv_wildcards.obj
 0001:0004b185       ?close@__crt_findfile_traits@@SA_NPAX@Z 1004c185 f i libucrt:argv_wildcards.obj
 0001:0004b2f8       ?get@?$__crt_unique_handle_t@U__crt_findfile_traits@@@@QBEPAXXZ 1004c2f8 f i libucrt:argv_wildcards.obj
 0001:0004b2fb       ?get_invalid_value@__crt_findfile_traits@@SAPAXXZ 1004c2fb f i libucrt:argv_wildcards.obj
 0001:0004b332       ?strpbrk@@YAPADQADQBD@Z    1004c332 f i libucrt:argv_wildcards.obj
 0001:0004b33f       ?wcspbrk@@YAPA_WPA_WPB_W@Z 1004c33f f i libucrt:argv_wildcards.obj
 0001:0004b34c       ___acrt_expand_narrow_argv_wildcards 1004c34c f   libucrt:argv_wildcards.obj
 0001:0004b359       ___acrt_expand_wide_argv_wildcards 1004c359 f   libucrt:argv_wildcards.obj
 0001:0004b366       ??$?RV<lambda_ceb1ee4838e85a9d631eb091e2fbe199>@@AAV<lambda_ae742caa10f662c28703da3d2ea5e57e>@@V<lambda_cd08b5d6af4937fe54fc07d0c9bf6b37>@@@?$__crt_seh_guarded_call@X@@QAEX$$QAV<lambda_ceb1ee4838e85a9d631eb091e2fbe199>@@AAV<lambda_ae742caa10f662c28703da3d2ea5e57e>@@$$QAV<lambda_cd08b5d6af4937fe54fc07d0c9bf6b37>@@@Z 1004c366 f i libucrt:mbctype.obj
 0001:0004b3b9       ??$__acrt_lock_and_call@V<lambda_ae742caa10f662c28703da3d2ea5e57e>@@@@YAXW4__acrt_lock_id@@$$QAV<lambda_ae742caa10f662c28703da3d2ea5e57e>@@@Z 1004c3b9 f i libucrt:mbctype.obj
 0001:0004b3eb       ??$initialize_from_array@$$BY10BAA@E@?$dual_state_global@PAE@__crt_state_management@@QAAXAAY10BAA@E@Z 1004c3eb f i libucrt:mbctype.obj
 0001:0004b3fd       ??$initialize_from_array@$$BY10BAB@E@?$dual_state_global@PAE@__crt_state_management@@QAAXAAY10BAB@E@Z 1004c3fd f i libucrt:mbctype.obj
 0001:0004b55c       ?dangerous_get_state_array@?$dual_state_global@PAE@__crt_state_management@@QAEPAPAEXZ 1004c55c f i libucrt:mbctype.obj
 0001:0004b55f       ?dangerous_get_state_array@?$dual_state_global@PAU__crt_multibyte_data@@@__crt_state_management@@QAEPAPAU__crt_multibyte_data@@XZ 1004c55f f i libucrt:mbctype.obj
 0001:0004b5f1       ?initialize@?$dual_state_global@PAU__crt_multibyte_data@@@__crt_state_management@@QAEXQAU__crt_multibyte_data@@@Z 1004c5f1 f i libucrt:mbctype.obj
 0001:0004baac       ?value@?$dual_state_global@PAE@__crt_state_management@@QAEAAPAEXZ 1004caac f i libucrt:mbctype.obj
 0001:0004baaf       ___acrt_initialize_multibyte 1004caaf f   libucrt:mbctype.obj
 0001:0004bb0f       ___acrt_update_thread_multibyte_data 1004cb0f f   libucrt:mbctype.obj
 0001:0004bb28       ___p__mbcasemap            1004cb28 f   libucrt:mbctype.obj
 0001:0004bb2e       ___p__mbctype              1004cb2e f   libucrt:mbctype.obj
 0001:0004bb34       __getmbcp                  1004cb34 f   libucrt:mbctype.obj
 0001:0004bb77       __setmbcp                  1004cb77 f   libucrt:mbctype.obj
 0001:0004bb9d       __setmbcp_nolock           1004cb9d f   libucrt:mbctype.obj
 0001:0004bf1a       __ismbbalnum               1004cf1a f   libucrt:ismbbyte.obj
 0001:0004bf3b       __ismbbalnum_l             1004cf3b f   libucrt:ismbbyte.obj
 0001:0004bf5e       __ismbbalpha               1004cf5e f   libucrt:ismbbyte.obj
 0001:0004bf7f       __ismbbalpha_l             1004cf7f f   libucrt:ismbbyte.obj
 0001:0004bfa2       __ismbbblank               1004cfa2 f   libucrt:ismbbyte.obj
 0001:0004bfcd       __ismbbblank_l             1004cfcd f   libucrt:ismbbyte.obj
 0001:0004bffa       __ismbbgraph               1004cffa f   libucrt:ismbbyte.obj
 0001:0004c01b       __ismbbgraph_l             1004d01b f   libucrt:ismbbyte.obj
 0001:0004c03e       __ismbbkalnum              1004d03e f   libucrt:ismbbyte.obj
 0001:0004c05c       __ismbbkalnum_l            1004d05c f   libucrt:ismbbyte.obj
 0001:0004c07b       __ismbbkana                1004d07b f   libucrt:ismbbyte.obj
 0001:0004c092       __ismbbkana_l              1004d092 f   libucrt:ismbbyte.obj
 0001:0004c0f7       __ismbbkprint              1004d0f7 f   libucrt:ismbbyte.obj
 0001:0004c115       __ismbbkprint_l            1004d115 f   libucrt:ismbbyte.obj
 0001:0004c134       __ismbbkpunct              1004d134 f   libucrt:ismbbyte.obj
 0001:0004c152       __ismbbkpunct_l            1004d152 f   libucrt:ismbbyte.obj
 0001:0004c171       __ismbblead                1004d171 f   libucrt:ismbbyte.obj
 0001:0004c18f       __ismbblead_l              1004d18f f   libucrt:ismbbyte.obj
 0001:0004c1ae       __ismbbprint               1004d1ae f   libucrt:ismbbyte.obj
 0001:0004c1cf       __ismbbprint_l             1004d1cf f   libucrt:ismbbyte.obj
 0001:0004c1f2       __ismbbpunct               1004d1f2 f   libucrt:ismbbyte.obj
 0001:0004c210       __ismbbpunct_l             1004d210 f   libucrt:ismbbyte.obj
 0001:0004c22f       __ismbbtrail               1004d22f f   libucrt:ismbbyte.obj
 0001:0004c24d       __ismbbtrail_l             1004d24d f   libucrt:ismbbyte.obj
 0001:0004c26c       ___acrt_initialize_command_line 1004d26c f   libucrt:argv_data.obj
 0001:0004c28b       ___acrt_uninitialize_command_line 1004d28b f   libucrt:argv_data.obj
 0001:0004c28e       ___p___argc                1004d28e f   libucrt:argv_data.obj
 0001:0004c294       ___p___argv                1004d294 f   libucrt:argv_data.obj
 0001:0004c29a       ___p___wargv               1004d29a f   libucrt:argv_data.obj
 0001:0004c2a0       ___p__acmdln               1004d2a0 f   libucrt:argv_data.obj
 0001:0004c2a6       ___p__pgmptr               1004d2a6 f   libucrt:argv_data.obj
 0001:0004c2ac       ___p__wcmdln               1004d2ac f   libucrt:argv_data.obj
 0001:0004c2b2       ___p__wpgmptr              1004d2b2 f   libucrt:argv_data.obj
 0001:0004c2b8       __get_pgmptr               1004d2b8 f   libucrt:argv_data.obj
 0001:0004c2f5       __get_wpgmptr              1004d2f5 f   libucrt:argv_data.obj
 0001:0004c332       ??0?$__crt_unique_handle_t@Uenvironment_strings_traits@?A0x1bf47908@@@@QAE@QA_W@Z 1004d332 f i libucrt:get_environment_from_os.obj
 0001:0004c346       ??1?$__crt_unique_handle_t@Uenvironment_strings_traits@?A0x1bf47908@@@@QAE@XZ 1004d346 f i libucrt:get_environment_from_os.obj
 0001:0004c362       ??B?$__crt_unique_handle_t@Uenvironment_strings_traits@?A0x1bf47908@@@@QBE_NXZ 1004d362 f i libucrt:get_environment_from_os.obj
 0001:0004c36c       ?close@?$__crt_unique_handle_t@Uenvironment_strings_traits@?A0x1bf47908@@@@QAEXXZ 1004d36c f i libucrt:get_environment_from_os.obj
 0001:0004c3e2       ?get@?$__crt_unique_handle_t@Uenvironment_strings_traits@?A0x1bf47908@@@@QBEPA_WXZ 1004d3e2 f i libucrt:get_environment_from_os.obj
 0001:0004c3e8       ?is_valid@?$__crt_unique_handle_t@Uenvironment_strings_traits@?A0x1bf47908@@@@QBE_NXZ 1004d3e8 f i libucrt:get_environment_from_os.obj
 0001:0004c3f2       ___dcrt_get_narrow_environment_from_os 1004d3f2 f   libucrt:get_environment_from_os.obj
 0001:0004c495       ___dcrt_get_wide_environment_from_os 1004d495 f   libucrt:get_environment_from_os.obj
 0001:0004cd8a       ??$get_or_create_environment_nolock@$$V@?$__crt_char_traits@D@@SAPAPADXZ 1004dd8a f i libucrt:setenv.obj
 0001:0004cd8f       ??$get_or_create_environment_nolock@$$V@?$__crt_char_traits@_W@@SAPAPA_WXZ 1004dd8f f i libucrt:setenv.obj
 0001:0004cd94       ??$set_environment_variable@ABQADQAD@?$__crt_char_traits@D@@SAHABQAD$$QBQAD@Z 1004dd94 f i libucrt:setenv.obj
 0001:0004cdb0       ??$set_environment_variable@ABQA_WQA_W@?$__crt_char_traits@_W@@SAHABQA_W$$QBQA_W@Z 1004ddb0 f i libucrt:setenv.obj
 0001:0004cdcc       ??$tcschr@ABQADD@?$__crt_char_traits@D@@SAPADABQAD$$QAD@Z 1004ddcc f i libucrt:setenv.obj
 0001:0004cdec       ??$tcschr@ABQA_WD@?$__crt_char_traits@_W@@SAPA_WABQA_W$$QAD@Z 1004ddec f i libucrt:setenv.obj
 0001:0004ce11       ??$tcscpy_s@AAPADABIAAPAD@?$__crt_char_traits@D@@SAHAAPADABI0@Z 1004de11 f i libucrt:setenv.obj
 0001:0004ce36       ??$tcscpy_s@AAPA_WABIAAPA_W@?$__crt_char_traits@_W@@SAHAAPA_WABI0@Z 1004de36 f i libucrt:setenv.obj
 0001:0004ce5b       ??$tcscpy_s@ABQADABIABQAD@?$__crt_char_traits@D@@SAHABQADABI0@Z 1004de5b f i libucrt:setenv.obj
 0001:0004ce80       ??$tcscpy_s@ABQA_WABIABQA_W@?$__crt_char_traits@_W@@SAHABQA_WABI0@Z 1004de80 f i libucrt:setenv.obj
 0001:0004cea5       ??$tcsnicoll@ABQBDAAPADABI@?$__crt_char_traits@D@@SAHABQBDAAPADABI@Z 1004dea5 f i libucrt:setenv.obj
 0001:0004ceca       ??$tcsnicoll@ABQB_WAAPA_WABI@?$__crt_char_traits@_W@@SAHABQB_WAAPA_WABI@Z 1004deca f i libucrt:setenv.obj
 0001:0004cf13       ?strchr@@YAPADQADH@Z       1004df13 f i libucrt:setenv.obj
 0001:0004cf20       ?wcschr@@YAPA_WPA_W_W@Z    1004df20 f i libucrt:setenv.obj
 0001:0004cf2d       ___dcrt_set_variable_in_narrow_environment_nolock 1004df2d f   libucrt:setenv.obj
 0001:0004cf3a       ___dcrt_set_variable_in_wide_environment_nolock 1004df3a f   libucrt:setenv.obj
 0001:0004cf47       __recalloc                 1004df47 f   libucrt:recalloc.obj
 0001:0004cf54       __recalloc_base            1004df54 f   libucrt:recalloc.obj
 0001:0004cfdc       ___acrt_getheap            1004dfdc f   libucrt:heap_handle.obj
 0001:0004cfe2       ___acrt_initialize_heap    1004dfe2 f   libucrt:heap_handle.obj
 0001:0004cff7       ___acrt_uninitialize_heap  1004dff7 f   libucrt:heap_handle.obj
 0001:0004d003       __get_heap_handle          1004e003 f   libucrt:heap_handle.obj
 0001:0004d009       ___acrt_execute_initializers 1004e009 f   libucrt:shared_initialization.obj
 0001:0004d0ac       ___acrt_execute_uninitializers 1004e0ac f   libucrt:shared_initialization.obj
 0001:0004d10c       ??$?B$$A6AHI@Z@__crt_fast_encoded_nullptr_t@@QBEP6AHI@ZXZ 1004e10c f i libucrt:new_handler.obj
 0001:0004d12a       ??$__crt_fast_decode_pointer@P6AHI@Z@@YAP6AHI@ZQ6AHI@Z@Z 1004e12a f i libucrt:new_handler.obj
 0001:0004d145       ??$__crt_fast_encode_pointer@P6AHI@Z@@YAP6AHI@ZQ6AHI@Z@Z 1004e145 f i libucrt:new_handler.obj
 0001:0004d16b       ?_set_new_handler@@YAP6AHI@ZH@Z 1004e16b f   libucrt:new_handler.obj
 0001:0004d191       ?initialize@?$dual_state_global@P6AHI@Z@__crt_state_management@@QAEXQ6AHI@Z@Z 1004e191 f i libucrt:new_handler.obj
 0001:0004d1ce       ?value@?$dual_state_global@P6AHI@Z@__crt_state_management@@QAEAAP6AHI@ZXZ 1004e1ce f i libucrt:new_handler.obj
 0001:0004d1d1       ___acrt_initialize_new_handler 1004e1d1 f   libucrt:new_handler.obj
 0001:0004d1ea       __callnewh                 1004e1ea f   libucrt:new_handler.obj
 0001:0004d23f       __query_new_handler        1004e23f f   libucrt:new_handler.obj
 0001:0004d2a5       __set_new_handler          1004e2a5 f   libucrt:new_handler.obj
 0001:0004d31d       ?value@?$dual_state_global@J@__crt_state_management@@QAEAAJXZ 1004e31d f i libucrt:new_mode.obj
 0001:0004d320       __query_new_mode           1004e320 f   libucrt:new_mode.obj
 0001:0004d326       __set_new_mode             1004e326 f   libucrt:new_mode.obj
 0001:0004d360       ___pctype_func             1004e360 f   libucrt:ctype.obj
 0001:0004d38f       ___pwctype_func            1004e38f f   libucrt:ctype.obj
 0001:0004d395       __iswctype_l               1004e395 f   libucrt:iswctype.obj
 0001:0004d3ae       _iswctype                  1004e3ae f   libucrt:iswctype.obj
 0001:0004d424       __isctype                  1004e424 f   libucrt:isctype.obj
 0001:0004d461       __isctype_l                1004e461 f   libucrt:isctype.obj
 0001:0004d567       _wcsncmp                   1004e567 f   libucrt:wcsncmp.obj
 0001:0004d770       ___acrt_DownlevelLCIDToLocaleName 1004e770 f   libucrt:lcidtoname_downlevel.obj
 0001:0004d844       ___acrt_DownlevelLocaleNameToLCID 1004e844 f   libucrt:lcidtoname_downlevel.obj
 0001:0004d87b       ??$?RV<lambda_9e9de3de5fa147e2223d7db92bc10aa6>@@AAV<lambda_38ce7e780aa69e748d6df282ebc68efe>@@V<lambda_8ca6da459f0f6780f1cff60fdc3d00e5>@@@?$__crt_seh_guarded_call@H@@QAEH$$QAV<lambda_9e9de3de5fa147e2223d7db92bc10aa6>@@AAV<lambda_38ce7e780aa69e748d6df282ebc68efe>@@$$QAV<lambda_8ca6da459f0f6780f1cff60fdc3d00e5>@@@Z 1004e87b f i libucrt:commit.obj
 0001:0004d939       ??$__acrt_lowio_lock_fh_and_call@V<lambda_38ce7e780aa69e748d6df282ebc68efe>@@@@YAHH$$QAV<lambda_38ce7e780aa69e748d6df282ebc68efe>@@@Z 1004e939 f i libucrt:commit.obj
 0001:0004da2b       __commit                   1004ea2b f   libucrt:commit.obj
 0001:0004dab5       ??$?RU__crt_lowio_handle_data@@@__crt_internal_free_policy@@QBEXQBU__crt_lowio_handle_data@@@Z 1004eab5 f i libucrt:osfinfo.obj
 0001:0004dacb       ??0?$__crt_unique_heap_ptr@U__crt_lowio_handle_data@@U__crt_internal_free_policy@@@@QAE@QAU__crt_lowio_handle_data@@@Z 1004eacb f i libucrt:osfinfo.obj
 0001:0004dadf       ??1?$__crt_unique_heap_ptr@U__crt_lowio_handle_data@@U__crt_internal_free_policy@@@@QAE@XZ 1004eadf f i libucrt:osfinfo.obj
 0001:0004daf5       ??B?$__crt_unique_heap_ptr@U__crt_lowio_handle_data@@U__crt_internal_free_policy@@@@QBE_NXZ 1004eaf5 f i libucrt:osfinfo.obj
 0001:0004daff       ?detach@?$__crt_unique_heap_ptr@U__crt_lowio_handle_data@@U__crt_internal_free_policy@@@@QAEPAU__crt_lowio_handle_data@@XZ 1004eaff f i libucrt:osfinfo.obj
 0001:0004db05       ?get@?$__crt_unique_heap_ptr@U__crt_lowio_handle_data@@U__crt_internal_free_policy@@@@QBEPAU__crt_lowio_handle_data@@XZ 1004eb05 f i libucrt:osfinfo.obj
 0001:0004db08       ?is_valid@?$__crt_unique_heap_ptr@U__crt_lowio_handle_data@@U__crt_internal_free_policy@@@@QBE_NXZ 1004eb08 f i libucrt:osfinfo.obj
 0001:0004db12       ?release@?$__crt_unique_heap_ptr@U__crt_lowio_handle_data@@U__crt_internal_free_policy@@@@QAEXXZ 1004eb12 f i libucrt:osfinfo.obj
 0001:0004db28       ___acrt_lowio_create_handle_array 1004eb28 f   libucrt:osfinfo.obj
 0001:0004dbc0       ___acrt_lowio_destroy_handle_array 1004ebc0 f   libucrt:osfinfo.obj
 0001:0004dc02       ___acrt_lowio_ensure_fh_exists 1004ec02 f   libucrt:osfinfo.obj
 0001:0004dcc0       ___acrt_lowio_lock_fh      1004ecc0 f   libucrt:osfinfo.obj
 0001:0004dceb       ___acrt_lowio_set_os_handle 1004eceb f   libucrt:osfinfo.obj
 0001:0004dda4       ___acrt_lowio_unlock_fh    1004eda4 f   libucrt:osfinfo.obj
 0001:0004ddcf       __alloc_osfhnd             1004edcf f   libucrt:osfinfo.obj
 0001:0004df25       __free_osfhnd              1004ef25 f   libucrt:osfinfo.obj
 0001:0004dfda       __get_osfhandle            1004efda f   libucrt:osfinfo.obj
 0001:0004e05e       __open_osfhandle           1004f05e f   libucrt:osfinfo.obj
 0001:0004e1af       ___iswcsym                 1004f1af f i libucrt:_wctype.obj
 0001:0004e1de       ___iswcsymf                1004f1de f i libucrt:_wctype.obj
 0001:0004e20d       __isleadbyte_l             1004f20d f i libucrt:_wctype.obj
 0001:0004e254       __iswalnum_l               1004f254 f i libucrt:_wctype.obj
 0001:0004e26f       __iswalpha_l               1004f26f f i libucrt:_wctype.obj
 0001:0004e28a       __iswblank_l               1004f28a f i libucrt:_wctype.obj
 0001:0004e2ae       __iswcntrl_l               1004f2ae f i libucrt:_wctype.obj
 0001:0004e2c5       __iswcsym_l                1004f2c5 f i libucrt:_wctype.obj
 0001:0004e2f4       __iswcsymf_l               1004f2f4 f i libucrt:_wctype.obj
 0001:0004e323       __iswdigit_l               1004f323 f i libucrt:_wctype.obj
 0001:0004e33a       __iswgraph_l               1004f33a f i libucrt:_wctype.obj
 0001:0004e355       __iswlower_l               1004f355 f i libucrt:_wctype.obj
 0001:0004e36c       __iswprint_l               1004f36c f i libucrt:_wctype.obj
 0001:0004e387       __iswpunct_l               1004f387 f i libucrt:_wctype.obj
 0001:0004e39e       __iswspace_l               1004f39e f i libucrt:_wctype.obj
 0001:0004e3b5       __iswupper_l               1004f3b5 f i libucrt:_wctype.obj
 0001:0004e3cc       __iswxdigit_l              1004f3cc f i libucrt:_wctype.obj
 0001:0004e3e7       _isleadbyte                1004f3e7 f i libucrt:_wctype.obj
 0001:0004e3fe       _iswalnum                  1004f3fe f i libucrt:_wctype.obj
 0001:0004e419       _iswalpha                  1004f419 f i libucrt:_wctype.obj
 0001:0004e434       _iswascii                  1004f434 f i libucrt:_wctype.obj
 0001:0004e44d       _iswblank                  1004f44d f i libucrt:_wctype.obj
 0001:0004e471       _iswcntrl                  1004f471 f i libucrt:_wctype.obj
 0001:0004e488       _iswdigit                  1004f488 f i libucrt:_wctype.obj
 0001:0004e49f       _iswgraph                  1004f49f f i libucrt:_wctype.obj
 0001:0004e4ba       _iswlower                  1004f4ba f i libucrt:_wctype.obj
 0001:0004e4d1       _iswprint                  1004f4d1 f i libucrt:_wctype.obj
 0001:0004e4ec       _iswpunct                  1004f4ec f i libucrt:_wctype.obj
 0001:0004e503       _iswspace                  1004f503 f i libucrt:_wctype.obj
 0001:0004e51a       _iswupper                  1004f51a f i libucrt:_wctype.obj
 0001:0004e531       _iswxdigit                 1004f531 f i libucrt:_wctype.obj
 0001:0004e54c       ??0?$__crt_scoped_stack_ptr@_W@@QAE@U?$__crt_scoped_stack_ptr_tag@_W@@@Z 1004f54c f i libucrt:lcmapstringa.obj
 0001:0004e560       ??0?$__crt_scoped_stack_ptr_tag@_W@@QAE@QA_W@Z 1004f560 f i libucrt:lcmapstringa.obj
 0001:0004e574       ??1?$__crt_scoped_stack_ptr@_W@@QAE@XZ 1004f574 f i libucrt:lcmapstringa.obj
 0001:0004e57f       ??B?$__crt_scoped_stack_ptr@_W@@QBE_NXZ 1004f57f f i libucrt:lcmapstringa.obj
 0001:0004e82d       ?get@?$__crt_scoped_stack_ptr@_W@@QBEPA_WXZ 1004f82d f i libucrt:lcmapstringa.obj
 0001:0004e830       __MallocaComputeSize       1004f830 f i libucrt:lcmapstringa.obj
 0001:0004e847       __MarkAllocaS              1004f847 f i libucrt:lcmapstringa.obj
 0001:0004e862       ___acrt_LCMapStringA       1004f862 f   libucrt:lcmapstringa.obj
 0001:0004e8bf       __freea_crt                1004f8bf f i libucrt:lcmapstringa.obj
 0001:0004e8e7       ??$?RG@__crt_internal_free_policy@@QBEXQBG@Z 1004f8e7 f i libucrt:initctype.obj
 0001:0004e8fd       ??$?RJ@__crt_internal_free_policy@@QBEXQBJ@Z 1004f8fd f i libucrt:initctype.obj
 0001:0004e913       ??0?$__crt_unique_heap_ptr@GU__crt_internal_free_policy@@@@QAE@QAG@Z 1004f913 f i libucrt:initctype.obj
 0001:0004e927       ??0?$__crt_unique_heap_ptr@JU__crt_internal_free_policy@@@@QAE@QAJ@Z 1004f927 f i libucrt:initctype.obj
 0001:0004e93b       ??1?$__crt_unique_heap_ptr@GU__crt_internal_free_policy@@@@QAE@XZ 1004f93b f i libucrt:initctype.obj
 0001:0004e951       ??1?$__crt_unique_heap_ptr@JU__crt_internal_free_policy@@@@QAE@XZ 1004f951 f i libucrt:initctype.obj
 0001:0004e967       ?detach@?$__crt_unique_heap_ptr@GU__crt_internal_free_policy@@@@QAEPAGXZ 1004f967 f i libucrt:initctype.obj
 0001:0004e96d       ?detach@?$__crt_unique_heap_ptr@JU__crt_internal_free_policy@@@@QAEPAJXZ 1004f96d f i libucrt:initctype.obj
 0001:0004e973       ?release@?$__crt_unique_heap_ptr@GU__crt_internal_free_policy@@@@QAEXXZ 1004f973 f i libucrt:initctype.obj
 0001:0004e989       ?release@?$__crt_unique_heap_ptr@JU__crt_internal_free_policy@@@@QAEXXZ 1004f989 f i libucrt:initctype.obj
 0001:0004e99f       ____lc_codepage_func       1004f99f f   libucrt:initctype.obj
 0001:0004e9cf       ____lc_collate_cp_func     1004f9cf f   libucrt:initctype.obj
 0001:0004e9ff       ____lc_locale_name_func    1004f9ff f   libucrt:initctype.obj
 0001:0004ea32       ____mb_cur_max_func        1004fa32 f   libucrt:initctype.obj
 0001:0004ea62       ____mb_cur_max_l_func      1004fa62 f   libucrt:initctype.obj
 0001:0004ea81       ___acrt_locale_initialize_ctype 1004fa81 f   libucrt:initctype.obj
 0001:0004ef06       ___acrt_add_locale_ref     1004ff06 f   libucrt:locale_refcounting.obj
 0001:0004efa2       ___acrt_free_locale        1004ffa2 f   libucrt:locale_refcounting.obj
 0001:0004f13e       ___acrt_locale_add_lc_time_reference 1005013e f   libucrt:locale_refcounting.obj
 0001:0004f171       ___acrt_locale_free_lc_time_if_unreferenced 10050171 f   libucrt:locale_refcounting.obj
 0001:0004f1ad       ___acrt_locale_release_lc_time_reference 100501ad f   libucrt:locale_refcounting.obj
 0001:0004f1e0       ___acrt_release_locale_ref 100501e0 f   libucrt:locale_refcounting.obj
 0001:0004f281       ___acrt_update_thread_locale_data 10050281 f   libucrt:locale_refcounting.obj
 0001:0004f315       __updatetlocinfoEx_nolock  10050315 f   libucrt:locale_refcounting.obj
 0001:0004f379       ___acrt_fp_strflt_to_string 10050379 f   libucrt:_fptostr.obj
 0001:00050bb0       ??0big_integer@__crt_strtox@@QAE@ABU01@@Z 10051bb0 f i libucrt:cfout.obj
 0001:00050bf0       ??0big_integer@__crt_strtox@@QAE@XZ 10051bf0 f i libucrt:cfout.obj
 0001:00050c40       ??4big_integer@__crt_strtox@@QAEAAU01@ABU01@@Z 10051c40 f i libucrt:cfout.obj
 0001:00050c80       ??8__crt_strtox@@YA_NABUbig_integer@0@0@Z 10051c80 f i libucrt:cfout.obj
 0001:00050cd0       ??9__crt_strtox@@YA_NABUbig_integer@0@0@Z 10051cd0 f i libucrt:cfout.obj
 0001:00050d30       ?add_carry@__crt_strtox@@YAIAAIII@Z 10051d30 f i libucrt:cfout.obj
 0001:00050d60       ?add_multiply_carry@__crt_strtox@@YAIAAIIII@Z 10051d60 f i libucrt:cfout.obj
 0001:00050d90       ?bit_scan_reverse@__crt_strtox@@YAII@Z 10051d90 f i libucrt:cfout.obj
 0001:00050dc0       ?count_sequential_high_zeroes@__crt_strtox@@YAII@Z 10051dc0 f i libucrt:cfout.obj
 0001:00050df0       ?divide@__crt_strtox@@YA_KAAUbig_integer@1@ABU21@@Z 10051df0 f i libucrt:cfout.obj
 0001:000513d0       ?is_zero@__crt_strtox@@YA_NABUbig_integer@1@@Z 100523d0 f i libucrt:cfout.obj
 0001:000513f0       ?make_big_integer@__crt_strtox@@YA?AUbig_integer@1@_K@Z 100523f0 f i libucrt:cfout.obj
 0001:00051420       ?make_big_integer_power_of_two@__crt_strtox@@YA?AUbig_integer@1@I@Z 10052420 f i libucrt:cfout.obj
 0001:00051480       ?multiply@__crt_strtox@@YA_NAAUbig_integer@1@ABU21@@Z 10052480 f i libucrt:cfout.obj
 0001:00051930       ?multiply@__crt_strtox@@YA_NAAUbig_integer@1@I@Z 10052930 f i libucrt:cfout.obj
 0001:00051a30       ?multiply_64_32@__crt_strtox@@YA_K_KI@Z 10052a30 f i libucrt:cfout.obj
 0001:00051a50       ?multiply_by_power_of_ten@__crt_strtox@@YA_NAAUbig_integer@1@I@Z 10052a50 f i libucrt:cfout.obj
 0001:00052150       ?multiply_core@__crt_strtox@@YAIQAIII@Z 10053150 f i libucrt:cfout.obj
 0001:000521a0       ?shift_left@__crt_strtox@@YA_NAAUbig_integer@1@I@Z 100531a0 f i libucrt:cfout.obj
 0001:00052351       ___acrt_fltout             10053351 f   libucrt:cfout.obj
 0001:00053ce3       __isatty                   10054ce3 f   libucrt:isatty.obj
 0001:00053d4e       ??$?RUlconv@@@__crt_internal_free_policy@@QBEXQBUlconv@@@Z 10054d4e f i libucrt:initmon.obj
 0001:00053d64       ??0?$__crt_unique_heap_ptr@Ulconv@@U__crt_internal_free_policy@@@@QAE@QAUlconv@@@Z 10054d64 f i libucrt:initmon.obj
 0001:00053d78       ??1?$__crt_unique_heap_ptr@Ulconv@@U__crt_internal_free_policy@@@@QAE@XZ 10054d78 f i libucrt:initmon.obj
 0001:00053d8e       ?detach@?$__crt_unique_heap_ptr@Ulconv@@U__crt_internal_free_policy@@@@QAEPAUlconv@@XZ 10054d8e f i libucrt:initmon.obj
 0001:00053d94       ?release@?$__crt_unique_heap_ptr@Ulconv@@U__crt_internal_free_policy@@@@QAEXXZ 10054d94 f i libucrt:initmon.obj
 0001:00053daa       ___acrt_locale_free_monetary 10054daa f   libucrt:initmon.obj
 0001:00053ee7       ___acrt_locale_initialize_monetary 10054ee7 f   libucrt:initmon.obj
 0001:000543da       ___acrt_locale_free_numeric 100553da f   libucrt:initnum.obj
 0001:0005445d       ___acrt_locale_initialize_numeric 1005545d f   libucrt:initnum.obj
 0001:00054748       ??$?RU__crt_lc_time_data@@@__crt_internal_free_policy@@QBEXQBU__crt_lc_time_data@@@Z 10055748 f i libucrt:inittime.obj
 0001:000547e8       ??0?$__crt_unique_heap_ptr@U__crt_lc_time_data@@U__crt_internal_free_policy@@@@QAE@QAU__crt_lc_time_data@@@Z 100557e8 f i libucrt:inittime.obj
 0001:000547fc       ??1?$__crt_unique_heap_ptr@U__crt_lc_time_data@@U__crt_internal_free_policy@@@@QAE@XZ 100557fc f i libucrt:inittime.obj
 0001:00054812       ??B?$__crt_unique_heap_ptr@U__crt_lc_time_data@@U__crt_internal_free_policy@@@@QBE_NXZ 10055812 f i libucrt:inittime.obj
 0001:0005481c       ?detach@?$__crt_unique_heap_ptr@U__crt_lc_time_data@@U__crt_internal_free_policy@@@@QAEPAU__crt_lc_time_data@@XZ 1005581c f i libucrt:inittime.obj
 0001:0005486d       ?get@?$__crt_unique_heap_ptr@U__crt_lc_time_data@@U__crt_internal_free_policy@@@@QBEPAU__crt_lc_time_data@@XZ 1005586d f i libucrt:inittime.obj
 0001:00054c05       ?is_valid@?$__crt_unique_heap_ptr@U__crt_lc_time_data@@U__crt_internal_free_policy@@@@QBE_NXZ 10055c05 f i libucrt:inittime.obj
 0001:00054c0f       ?release@?$__crt_unique_heap_ptr@U__crt_lc_time_data@@U__crt_internal_free_policy@@@@QAEXXZ 10055c0f f i libucrt:inittime.obj
 0001:00054c25       ___acrt_locale_free_time   10055c25 f   libucrt:inittime.obj
 0001:00054d42       ___acrt_locale_initialize_time 10055d42 f   libucrt:inittime.obj
 0001:00054ee0       _wcsncpy_s                 10055ee0 f   libucrt:wcsncpy_s.obj
 0001:00054eed       _wcscspn                   10055eed f   libucrt:wcscspn.obj
 0001:00054f51       _wcspbrk                   10055f51 f   libucrt:wcspbrk.obj
 0001:00054fa7       ___acrt_GetStringTypeA     10055fa7 f   libucrt:getstringtypea.obj
 0001:00055a1b       ___acrt_get_qualified_locale 10056a1b f   libucrt:get_qualified_locale.obj
 0001:000565c2       ___acrt_get_qualified_locale_downlevel 100575c2 f   libucrt:getqloc_downlevel.obj
 0001:0005684a       _localeconv                1005784a f   libucrt:localeconv.obj
 0001:0005687e       ___setfflag                1005787e f   libucrt:fp_flags.obj
 0001:00056898       __87except                 10057898 f   libucrt:87except.obj
 0001:000569e5       __wcsnicmp                 100579e5 f   libucrt:wcsnicmp.obj
 0001:00056acd       __wcsnicmp_l               10057acd f   libucrt:wcsnicmp.obj
 0001:00056c10       _strncmp                   10057c10 f   libucrt:strncmp.obj
 0001:00056ca6       __strnicmp                 10057ca6 f   libucrt:strnicmp.obj
 0001:00056d2e       __strnicmp_l               10057d2e f   libucrt:strnicmp.obj
 0001:00056e12       ??$__vcrt_va_start_verify_argument_type@$$CBH@@YAXXZ 10057e12 f i libucrt:open.obj
 0001:000571c9       ??$tsopen_nolock@PAHABQAHABQBDABHABHABHABH@?$__crt_char_traits@D@@SAH$$QAPAHABQAHABQBDABH333@Z 100581c9 f i libucrt:open.obj
 0001:00057207       ??$tsopen_nolock@PAHABQAHABQB_WABHABHABHABH@?$__crt_char_traits@_W@@SAH$$QAPAHABQAHABQB_WABH333@Z 10058207 f i libucrt:open.obj
 0001:00057245       ??$tsopen_nolock@PAHPAHABQBDABHHABHH@?$__crt_char_traits@D@@SAH$$QAPAH0ABQBDABH$$QAH23@Z 10058245 f i libucrt:open.obj
 0001:00057283       ??$tsopen_nolock@PAHPAHABQB_WABHHABHH@?$__crt_char_traits@_W@@SAH$$QAPAH0ABQB_WABH$$QAH23@Z 10058283 f i libucrt:open.obj
 0001:00057a4d       __open                     10058a4d f   libucrt:open.obj
 0001:00057a6b       __sopen                    10058a6b f   libucrt:open.obj
 0001:00057aad       __sopen_dispatch           10058aad f   libucrt:open.obj
 0001:00057aba       __sopen_nolock             10058aba f   libucrt:open.obj
 0001:00057b1f       __sopen_s                  10058b1f f   libucrt:open.obj
 0001:00057b47       __wopen                    10058b47 f   libucrt:open.obj
 0001:00057b65       __wsopen                   10058b65 f   libucrt:open.obj
 0001:00057ba7       __wsopen_dispatch          10058ba7 f   libucrt:open.obj
 0001:00057bb4       __wsopen_nolock            10058bb4 f   libucrt:open.obj
 0001:00057fa7       __wsopen_s                 10058fa7 f   libucrt:open.obj
 0001:00057fcf       ___p__commode              10058fcf f   libucrt:ncommode.obj
 0001:00057fd5       ___acrt_stdio_allocate_buffer_nolock 10058fd5 f   libucrt:_getbuf.obj
 0001:00058049       ??$?RV<lambda_f828341fbe69b7c0d4c527b01f22877f>@@AAV<lambda_9e0b6ab72a5b3ae37ad997d08b519f50>@@V<lambda_f01deac0a8d65d6e0411edf7e0af5775>@@@?$__crt_seh_guarded_call@G@@QAEG$$QAV<lambda_f828341fbe69b7c0d4c527b01f22877f>@@AAV<lambda_9e0b6ab72a5b3ae37ad997d08b519f50>@@$$QAV<lambda_f01deac0a8d65d6e0411edf7e0af5775>@@@Z 10059049 f i libucrt:putwch.obj
 0001:000580be       ??$__acrt_lock_and_call@V<lambda_9e0b6ab72a5b3ae37ad997d08b519f50>@@@@YAGW4__acrt_lock_id@@$$QAV<lambda_9e0b6ab72a5b3ae37ad997d08b519f50>@@@Z 100590be f i libucrt:putwch.obj
 0001:00058156       __putwch                   10059156 f   libucrt:putwch.obj
 0001:0005817a       __putwch_nolock            1005917a f   libucrt:putwch.obj
 0001:000581d0       _nextafter                 100591d0 f   libucrt:nextafter.obj
 0001:00058310       _qsort                     10059310 f   libucrt:qsort.obj
 0001:0005886d       _strncpy_s                 1005986d f   libucrt:strncpy_s.obj
 0001:00058880       _strpbrk                   10059880 f   libucrt:strpbrk.obj
 0001:000588d0       __mbsdec                   100598d0 f   libucrt:mbsdec.obj
 0001:000588ec       __mbsdec_l                 100598ec f   libucrt:mbsdec.obj
 0001:000589ae       __wcsnicoll                100599ae f   libucrt:wcsnicol.obj
 0001:00058ab2       __wcsnicoll_l              10059ab2 f   libucrt:wcsnicol.obj
 0001:00058c2a       __strnicoll                10059c2a f   libucrt:strnicol.obj
 0001:00058c5d       __strnicoll_l              10059c5d f   libucrt:strnicol.obj
 0001:00058d59       __msize                    10059d59 f   libucrt:msize.obj
 0001:00058d66       __msize_base               10059d66 f   libucrt:msize.obj
 0001:00058da5       ___strncnt                 10059da5 f   libucrt:strncnt.obj
 0001:00058f01       ___acrt_GetLocaleInfoA     10059f01 f   libucrt:getlocaleinfoa.obj
 0001:0005911f       _fegetenv                  1005a11f f   libucrt:fegetenv.obj
 0001:00059143       _fesetenv                  1005a143 f   libucrt:fesetenv.obj
 0001:0005919e       _feholdexcept              1005a19e f   libucrt:feholdexcept.obj
 0001:00059200       _log10                     1005a200 f   libucrt:log10.obj
 0001:00059240       __CIlog10                  1005a240 f   libucrt:log10.obj
 0001:0005927b       __CIlog10_default          1005a27b f   libucrt:log10.obj
 0001:0005928f       __log10_default            1005a28f     libucrt:log10.obj
 0001:000593b0       _ceil                      1005a3b0 f   libucrt:ceil_pentium4.obj
 0001:000593f0       __ceil_pentium4            1005a3f0 f   libucrt:ceil_pentium4.obj
 0001:00059514       __wcsicmp                  1005a514 f   libucrt:wcsicmp.obj
 0001:000595ce       __wcsicmp_l                1005a5ce f   libucrt:wcsicmp.obj
 0001:000596e6       __towlower_l               1005a6e6 f   libucrt:towlower.obj
 0001:000597e1       _towlower                  1005a7e1 f   libucrt:towlower.obj
 0001:00059800       ___ascii_strnicmp          1005a800 f   libucrt:_strnicm.obj
 0001:00059879       ??$__crt_interlocked_read@H@@YAHPDH@Z 1005a879 f i libucrt:setmode.obj
 0001:00059888       ?value@?$dual_state_global@H@__crt_state_management@@QAEAAHXZ 1005a888 f i libucrt:setmode.obj
 0001:0005988b       __get_fmode                1005a88b f   libucrt:setmode.obj
 0001:000598c2       __set_fmode                1005a8c2 f   libucrt:setmode.obj
 0001:0005990e       __setmode                  1005a90e f   libucrt:setmode.obj
 0001:00059a5f       __setmode_nolock           1005aa5f f   libucrt:setmode.obj
 0001:00059b64       ??$?RV<lambda_3b12a17125e8c5b5e6e6f6c6050db0c1>@@AAV<lambda_522ac1b1e1a1180d6f374a882b81d1c8>@@V<lambda_e92b96cac182f562f30acc9fb7872857>@@@?$__crt_seh_guarded_call@H@@QAEH$$QAV<lambda_3b12a17125e8c5b5e6e6f6c6050db0c1>@@AAV<lambda_522ac1b1e1a1180d6f374a882b81d1c8>@@$$QAV<lambda_e92b96cac182f562f30acc9fb7872857>@@@Z 1005ab64 f i libucrt:chsize.obj
 0001:00059c0e       ??$__acrt_lowio_lock_fh_and_call@V<lambda_522ac1b1e1a1180d6f374a882b81d1c8>@@@@YAHH$$QAV<lambda_522ac1b1e1a1180d6f374a882b81d1c8>@@@Z 1005ac0e f i libucrt:chsize.obj
 0001:00059cf0       __chsize                   1005acf0 f   libucrt:chsize.obj
 0001:00059d13       __chsize_nolock            1005ad13 f   libucrt:chsize.obj
 0001:00059f08       __chsize_s                 1005af08 f   libucrt:chsize.obj
 0001:00059fc9       __umask                    1005afc9 f   libucrt:umask.obj
 0001:00059ff7       __umask_s                  1005aff7 f   libucrt:umask.obj
 0001:0005a040       ___dcrt_lowio_initialize_console_output 1005b040 f   libucrt:initcon.obj
 0001:0005a066       ___dcrt_terminate_console_output 1005b066 f   libucrt:initcon.obj
 0001:0005a082       _nexttoward                1005b082 f   libucrt:nexttoward.obj
 0001:0005a233       ___acrt_CompareStringW     1005b233 f   libucrt:comparestringw.obj
 0001:0005a607       ___acrt_CompareStringA     1005b607 f   libucrt:comparestringa.obj
 0001:0005a661       ___acrt_fenv_get_fp_status_word_from_exception_mask 1005b661 f   libucrt:_fenvutils.obj
 0001:0005aaa4       __getfpcontrolword         1005baa4 f   libucrt:_fenvutils.obj
 0001:0005aaf7       __getfpstatusword          1005baf7 f   libucrt:_fenvutils.obj
 0001:0005abc9       __setfpcontrolword         1005bbc9 f   libucrt:_fenvutils.obj
 0001:0005ac69       __setfpstatusword          1005bc69 f   libucrt:_fenvutils.obj
 0001:0005ae9f       ___control87_2             1005be9f f   libucrt:ieee87.obj
 0001:0005b473       ___fpreset_sse2            1005c473 f   libucrt:ieee87.obj
 0001:0005b6c6       __clearfp                  1005c6c6 f   libucrt:ieee87.obj
 0001:0005b7db       __control87                1005c7db f   libucrt:ieee87.obj
 0001:0005bb9d       __controlfp                1005cb9d f   libucrt:ieee87.obj
 0001:0005bbbd       __fpreset                  1005cbbd f   libucrt:ieee87.obj
 0001:0005bcba       __set_controlfp            1005ccba f   libucrt:ieee87.obj
 0001:0005bd50       __statusfp                 1005cd50 f   libucrt:ieee87.obj
 0001:0005be13       __statusfp2                1005ce13 f   libucrt:ieee87.obj
 0001:0005be90       ___acrt_initialize_sse2    1005ce90 f   libucrt:mathfcns.obj
 0001:0005bea2       __set_SSE2_enable          1005cea2 f   libucrt:mathfcns.obj
 0001:0005bed0       __CIlog10_pentium4         1005ced0 f   libucrt:log10_pentium4.obj
 0001:0005bee8       __log10_pentium4           1005cee8     libucrt:log10_pentium4.obj
 0001:0005c221       __fFEXP                    1005d221     libucrt:87tran.obj
 0001:0005c278       __rtinfpopse               1005d278     libucrt:87tran.obj
 0001:0005c27a       __rtinfnpopse              1005d27a     libucrt:87tran.obj
 0001:0005c28a       __fFLN                     1005d28a     libucrt:87tran.obj
 0001:0005c33f       __rtinfpop                 1005d33f     libucrt:87tran.obj
 0001:0005c341       __rtinfnpop                1005d341     libucrt:87tran.obj
 0001:0005c35e       __ffexpm1                  1005d35e     libucrt:87tran.obj
 0001:0005c490       __twoToTOS                 1005d490 f   libucrt:common.obj
 0001:0005c4a5       __load_CW                  1005d4a5 f   libucrt:common.obj
 0001:0005c4bc       __convertTOStoQNaN         1005d4bc f   libucrt:common.obj
 0001:0005c4d5       __fload_withFB             1005d4d5 f   libucrt:common.obj
 0001:0005c518       __checkTOS_withFB          1005d518 f   libucrt:common.obj
 0001:0005c52e       __fast_exit                1005d52e f   libucrt:common.obj
 0001:0005c53b       __math_exit                1005d53b f   libucrt:common.obj
 0001:0005c565       __check_overflow_exit      1005d565 f   libucrt:common.obj
 0001:0005c579       __check_range_exit         1005d579 f   libucrt:common.obj
 0001:0005c680       __startTwoArgErrorHandling 1005d680 f   libucrt:genexcep.obj
 0001:0005c697       __startOneArgErrorHandling 1005d697 f   libucrt:genexcep.obj
 0001:0005c6e7       ___libm_error_support      1005d6e7 f   libucrt:libm_error.obj
 0001:0005c985       ___libm_setusermatherr     1005d985 f   libucrt:libm_error.obj
 0001:0005c9be       __ceil_default             1005d9be f   libucrt:ceil.obj
 0001:0005caa5       ___acrt_LCMapStringW       1005daa5 f   libucrt:lcmapstringw.obj
 0001:0005caf2       ___p__fmode                1005daf2 f   libucrt:txtmode.obj
 0001:0005caf8       __d_int                    1005daf8 f   libucrt:_test.obj
 0001:0005cc40       __dtest                    1005dc40 f   libucrt:_test.obj
 0001:0005ccbd       __fd_int                   1005dcbd f   libucrt:_test.obj
 0001:0005cdc1       __fdtest                   1005ddc1 f   libucrt:_test.obj
 0001:0005ce22       __fperrraise               1005de22 f   libucrt:_test.obj
 0001:0005ce4d       __ld_int                   1005de4d f   libucrt:_test.obj
 0001:0005ce5a       __ldtest                   1005de5a f   libucrt:_test.obj
 0001:0005ceff       __controlfp_s              1005deff f   libucrt:contrlfp.obj
 0001:0005cf75       __d_inttype                1005df75 f   libucrt:powhlp.obj
 0001:0005cff9       __powhlp                   1005dff9 f   libucrt:powhlp.obj
 0001:0005d16e       __frnd                     1005e16e f   libucrt:frnd.obj
 0001:0005d189       _fegetexceptflag           1005e189 f   libucrt:fegetexceptflag.obj
 0001:0005d1c6       _fesetexceptflag           1005e1c6 f   libucrt:fesetexceptflag.obj
 0001:0005d227       _fetestexcept              1005e227 f   libucrt:fetestexcept.obj
 0001:0005d260       __FindPESection            1005e260 f   LIBCMT:pesect.obj
 0001:0005d2c0       __IsNonwritableInCurrentImage 1005e2c0 f   LIBCMT:pesect.obj
 0001:0005d3b0       __ValidateImageBase        1005e3b0 f   LIBCMT:pesect.obj
 0001:0005d3f0       __aulldvrm                 1005e3f0 f   LIBCMT:ulldvrm.obj
 0001:0005d4aa       ??1type_info@@UAE@XZ       1005e4aa f   LIBCMT:std_type_info_static.obj
 0001:0005d4b1       ??_Etype_info@@UAEPAXI@Z   1005e4b1 f i LIBCMT:std_type_info_static.obj
 0001:0005d4b1       ??_Gtype_info@@UAEPAXI@Z   1005e4b1 f i LIBCMT:std_type_info_static.obj
 0001:0005d4e0       __SEH_prolog4_GS           1005e4e0 f   LIBCMT:_sehprolg4gs_.obj
 0001:0005d529       __SEH_epilog4_GS           1005e529 f   LIBCMT:_sehprolg4gs_.obj
 0001:0005d550       __allmul                   1005e550 f   LIBCMT:llmul.obj
 0001:0005d5a0       __alldvrm                  1005e5a0 f   LIBCMT:lldvrm.obj
 0001:0005d6c0       __aullshr                  1005e6c0 f   LIBCMT:ullshr.obj
 0001:0005d6f0       __chkstk                   1005e6f0 f   LIBCMT:chkstk.obj
 0001:0005d6f0       __alloca_probe             1005e6f0 f   LIBCMT:chkstk.obj
 0001:0005d730       __alloca_probe_16          1005e730 f   LIBCMT:alloca16.obj
 0001:0005d746       __alloca_probe_8           1005e746     LIBCMT:alloca16.obj
 0001:0005d770       __allshl                   1005e770 f   LIBCMT:llshl.obj
 0001:0005d7a0       __ftol2_sse                1005e7a0 f   LIBCMT:_ftol2_.obj
 0001:0005d7a9       __ftol2_pentium4           1005e7a9 f   LIBCMT:_ftol2_.obj
 0001:0005d7bc       __ftol2_sse_excpt          1005e7bc f   LIBCMT:_ftol2_.obj
 0001:0005d7e0       __ftol2                    1005e7e0 f   LIBCMT:_ftol2_.obj
 0001:0005d882       __initialize_default_precision 1005e882 f   LIBCMT:default_precision.obj
 0001:0005d8ab       ??3@YAXPAXI@Z              1005e8ab f   LIBCMT:delete_scalar_size.obj
 0001:0005d8bc       ??3@YAXPAX@Z               1005e8bc f   LIBCMT:delete_scalar.obj
 0001:0005d8c2       _InterlockedPushEntrySList@8 1005e8c2 f   kernel32:KERNEL32.dll
 0001:0005d8c8       _InterlockedFlushSList@4   1005e8c8 f   kernel32:KERNEL32.dll
 0001:0005d8ce       _RtlUnwind@16              1005e8ce f   kernel32:KERNEL32.dll
 0001:0005d8d4       _GetLastError@0            1005e8d4 f   kernel32:KERNEL32.dll
 0001:0005d8da       _SetLastError@4            1005e8da f   kernel32:KERNEL32.dll
 0001:0005d8e0       _EnterCriticalSection@4    1005e8e0 f   kernel32:KERNEL32.dll
 0001:0005d8e6       _LeaveCriticalSection@4    1005e8e6 f   kernel32:KERNEL32.dll
 0001:0005d8ec       _DeleteCriticalSection@4   1005e8ec f   kernel32:KERNEL32.dll
 0001:0005d8f2       _InitializeCriticalSectionAndSpinCount@8 1005e8f2 f   kernel32:KERNEL32.dll
 0001:0005d8f8       _TlsAlloc@0                1005e8f8 f   kernel32:KERNEL32.dll
 0001:0005d8fe       _TlsGetValue@4             1005e8fe f   kernel32:KERNEL32.dll
 0001:0005d904       _TlsSetValue@8             1005e904 f   kernel32:KERNEL32.dll
 0001:0005d90a       _TlsFree@4                 1005e90a f   kernel32:KERNEL32.dll
 0001:0005d910       _FreeLibrary@4             1005e910 f   kernel32:KERNEL32.dll
 0001:0005d916       _LoadLibraryExW@12         1005e916 f   kernel32:KERNEL32.dll
 0001:0005d91c       _GetStdHandle@4            1005e91c f   kernel32:KERNEL32.dll
 0001:0005d922       _GetFileType@4             1005e922 f   kernel32:KERNEL32.dll
 0001:0005d928       _GetModuleFileNameA@12     1005e928 f   kernel32:KERNEL32.dll
 0001:0005d92e       _GetModuleFileNameW@12     1005e92e f   kernel32:KERNEL32.dll
 0001:0005d934       _GetModuleHandleExW@12     1005e934 f   kernel32:KERNEL32.dll
 0001:0005d93a       _WriteConsoleW@20          1005e93a f   kernel32:KERNEL32.dll
 0001:0005d940       _ExitProcess@4             1005e940 f   kernel32:KERNEL32.dll
 0001:0005d946       _RaiseException@16         1005e946 f   kernel32:KERNEL32.dll
 0001:0005d94c       _MultiByteToWideChar@24    1005e94c f   kernel32:KERNEL32.dll
 0001:0005d952       _WideCharToMultiByte@32    1005e952 f   kernel32:KERNEL32.dll
 0001:0005d958       _HeapFree@12               1005e958 f   kernel32:KERNEL32.dll
 0001:0005d95e       _HeapAlloc@12              1005e95e f   kernel32:KERNEL32.dll
 0001:0005d964       _GetDateFormatW@24         1005e964 f   kernel32:KERNEL32.dll
 0001:0005d96a       _GetTimeFormatW@24         1005e96a f   kernel32:KERNEL32.dll
 0001:0005d970       _CompareStringW@24         1005e970 f   kernel32:KERNEL32.dll
 0001:0005d976       _LCMapStringW@24           1005e976 f   kernel32:KERNEL32.dll
 0001:0005d97c       _GetLocaleInfoW@16         1005e97c f   kernel32:KERNEL32.dll
 0001:0005d982       _IsValidLocale@8           1005e982 f   kernel32:KERNEL32.dll
 0001:0005d988       _GetUserDefaultLCID@0      1005e988 f   kernel32:KERNEL32.dll
 0001:0005d98e       _EnumSystemLocalesW@8      1005e98e f   kernel32:KERNEL32.dll
 0001:0005d994       _GetCurrentThread@0        1005e994 f   kernel32:KERNEL32.dll
 0001:0005d99a       _GetACP@0                  1005e99a f   kernel32:KERNEL32.dll
 0001:0005d9a0       _WriteFile@20              1005e9a0 f   kernel32:KERNEL32.dll
 0001:0005d9a6       _OutputDebugStringA@4      1005e9a6 f   kernel32:KERNEL32.dll
 0001:0005d9ac       _OutputDebugStringW@4      1005e9ac f   kernel32:KERNEL32.dll
 0001:0005d9b2       _SetConsoleCtrlHandler@8   1005e9b2 f   kernel32:KERNEL32.dll
 0001:0005d9b8       _HeapReAlloc@16            1005e9b8 f   kernel32:KERNEL32.dll
 0001:0005d9be       _CloseHandle@4             1005e9be f   kernel32:KERNEL32.dll
 0001:0005d9c4       _ReadFile@20               1005e9c4 f   kernel32:KERNEL32.dll
 0001:0005d9ca       _GetConsoleMode@8          1005e9ca f   kernel32:KERNEL32.dll
 0001:0005d9d0       _ReadConsoleW@20           1005e9d0 f   kernel32:KERNEL32.dll
 0001:0005d9d6       _GetConsoleCP@0            1005e9d6 f   kernel32:KERNEL32.dll
 0001:0005d9dc       _DeleteFileW@4             1005e9dc f   kernel32:KERNEL32.dll
 0001:0005d9e2       _SetFilePointerEx@20       1005e9e2 f   kernel32:KERNEL32.dll
 0001:0005d9e8       _FindClose@4               1005e9e8 f   kernel32:KERNEL32.dll
 0001:0005d9ee       _FindFirstFileExA@24       1005e9ee f   kernel32:KERNEL32.dll
 0001:0005d9f4       _FindFirstFileExW@24       1005e9f4 f   kernel32:KERNEL32.dll
 0001:0005d9fa       _FindNextFileA@8           1005e9fa f   kernel32:KERNEL32.dll
 0001:0005da00       _FindNextFileW@8           1005ea00 f   kernel32:KERNEL32.dll
 0001:0005da06       _IsValidCodePage@4         1005ea06 f   kernel32:KERNEL32.dll
 0001:0005da0c       _GetOEMCP@0                1005ea0c f   kernel32:KERNEL32.dll
 0001:0005da12       _GetCPInfo@8               1005ea12 f   kernel32:KERNEL32.dll
 0001:0005da18       _GetCommandLineA@0         1005ea18 f   kernel32:KERNEL32.dll
 0001:0005da1e       _GetCommandLineW@0         1005ea1e f   kernel32:KERNEL32.dll
 0001:0005da24       _GetEnvironmentStringsW@0  1005ea24 f   kernel32:KERNEL32.dll
 0001:0005da2a       _FreeEnvironmentStringsW@4 1005ea2a f   kernel32:KERNEL32.dll
 0001:0005da30       _SetEnvironmentVariableA@8 1005ea30 f   kernel32:KERNEL32.dll
 0001:0005da36       _SetEnvironmentVariableW@8 1005ea36 f   kernel32:KERNEL32.dll
 0001:0005da3c       _GetProcessHeap@0          1005ea3c f   kernel32:KERNEL32.dll
 0001:0005da42       _GetStringTypeW@16         1005ea42 f   kernel32:KERNEL32.dll
 0001:0005da48       _FlushFileBuffers@4        1005ea48 f   kernel32:KERNEL32.dll
 0001:0005da4e       _SetStdHandle@8            1005ea4e f   kernel32:KERNEL32.dll
 0001:0005da54       _CreateFileW@28            1005ea54 f   kernel32:KERNEL32.dll
 0001:0005da5a       _HeapSize@12               1005ea5a f   kernel32:KERNEL32.dll
 0001:0005da60       _SetEndOfFile@4            1005ea60 f   kernel32:KERNEL32.dll
 0001:0005da66       _EncodePointer@4           1005ea66 f   kernel32:KERNEL32.dll
 0001:0005da6c       _DecodePointer@4           1005ea6c f   kernel32:KERNEL32.dll
 0001:0005da80       _strrchr                   1005ea80 f   libvcruntime:strrchr.obj
 0001:0005dd67       _memcmp                    1005ed67 f   libvcruntime:_memcmp_.obj
 0001:0006184f       _wcschr                    1006284f f   libvcruntime:wcschr.obj
 0002:00000000       ___xc_a                    10063000     LIBCMT:initializers.obj
 0002:00000104       ___xc_z                    10063104     LIBCMT:initializers.obj
 0002:00000208       ___xi_a                    10063208     LIBCMT:initializers.obj
 0002:0000030c       ___acrt_stdio_initializer  1006330c     libucrt:stdio_initializer.obj
 0002:00000310       ___acrt_multibyte_initializer 10063310     libucrt:multibyte_initializer.obj
 0002:00000314       ___acrt_tran_sse2_initializer 10063314     libucrt:sse2_initializer.obj
 0002:0000041c       ___xi_z                    1006341c     LIBCMT:initializers.obj
 0002:00000520       ___xp_a                    10063520     LIBCMT:initializers.obj
 0002:00000624       ___acrt_locale_terminator  10063624     libucrt:locale_initializer.obj
 0002:00000628       ___dcrt_console_output_terminator 10063628     libucrt:console_output_initializer.obj
 0002:00000730       ___acrt_stdio_terminator   10063730     libucrt:stdio_initializer.obj
 0002:00000834       ___xp_z                    10063834     LIBCMT:initializers.obj
 0002:00000938       ___xt_a                    10063938     LIBCMT:initializers.obj
 0002:00000a3c       ___xt_z                    10063a3c     LIBCMT:initializers.obj
 0002:00000b40       _custom_pwm_M              10063b40     custom_pwm.obj
 0002:00000b44       ??_C@_0BI@PHJEPFFP@Error?5creating?5scope?51?6?$AA@ 10063b44     custom_pwm.obj
 0002:00000b60       ??_C@_0CG@INCPPJDL@Programmable?5Pulse?5Generator?1Pro@ 10063b60     custom_pwm.obj
 0002:00000b90       ??_C@_0BC@OJJPBDHH@FixedStepDiscrete?$AA@ 10063b90     custom_pwm.obj
 0002:00000ba8       ??_C@_04EPKDLPPB@tout?$AA@ 10063ba8     custom_pwm.obj
 0002:00000bae       ??_C@_00CNPNBAHC@?$AA@     10063bae     custom_pwm.obj
 0002:00000bb0       ??_C@_03HBFGMJOD@rt_?$AA@  10063bb0     custom_pwm.obj
 0002:00000bb8       __real@0000000000000000    10063bb8     custom_pwm.obj
 0002:00000bc8       __real@3cb0000000000000    10063bc8     custom_pwm.obj
 0002:00000bd8       __real@3f2a36e2eb1c432d    10063bd8     custom_pwm.obj
 0002:00000be8       __real@3fe0000000000000    10063be8     custom_pwm.obj
 0002:00000bf8       __real@3ff0000000000000    10063bf8     custom_pwm.obj
 0002:00000c08       __real@4014000000000000    10063c08     custom_pwm.obj
 0002:00000c18       __real@406f400000000000    10063c18     custom_pwm.obj
 0002:00000c28       __real@41f0000000000000    10063c28     custom_pwm.obj
 0002:00000c38       __real@4330000000000000    10063c38     custom_pwm.obj
 0002:00000c48       __real@8000000000000000    10063c48     custom_pwm.obj
 0002:00000c58       __real@bff0000000000000    10063c58     custom_pwm.obj
 0002:00000c70       __xmm@00000007000000080000000f00000002 10063c70     custom_pwm.obj
 0002:00000c90       __xmm@3f2a36e2eb1c432d0000000000000000 10063c90     custom_pwm.obj
 0002:00000cb0       __xmm@41f00000000000000000000000000000 10063cb0     custom_pwm.obj
 0002:00000cd0       __xmm@7fffffffffffffff7fffffffffffffff 10063cd0     custom_pwm.obj
 0002:00000f94       ??_C@_0CD@GJLEFLMP@Programmable?5Pulse?5Generator?1Clo@ 10063f94     custom_pwm_capi.obj
 0002:00000fc0       ??_C@_0DC@CCFMPLGK@Programmable?5Pulse?5Generator?1Dat@ 10063fc0     custom_pwm_capi.obj
 0002:00000ffc       ??_C@_0CB@FBNODEKP@Programmable?5Pulse?5Generator?1mod@ 10063ffc     custom_pwm_capi.obj
 0002:00001024       ??_C@_0CF@HGCKMOCF@Programmable?5Pulse?5Generator?1Pro@ 10064024     custom_pwm_capi.obj
 0002:00001050       ??_C@_0DB@LLBPADMK@Programmable?5Pulse?5Generator?1Rel@ 10064050     custom_pwm_capi.obj
 0002:0000108c       ??_C@_0CC@IFCMLOKP@Programmable?5Pulse?5Generator?1Sum@ 1006408c     custom_pwm_capi.obj
 0002:000010b4       ??_C@_0DA@BGPOJFAO@Programmable?5Pulse?5Generator?1Pha@ 100640b4     custom_pwm_capi.obj
 0002:000010f0       ??_C@_09IHLJOMI@Amplitude?$AA@ 100640f0     custom_pwm_capi.obj
 0002:000010fc       ??_C@_05LPIJGKJ@Value?$AA@ 100640fc     custom_pwm_capi.obj
 0002:00001104       ??_C@_02PIBHICFM@PD?$AA@   10064104     custom_pwm_capi.obj
 0002:00001108       ??_C@_02JJPIMDMO@PW?$AA@   10064108     custom_pwm_capi.obj
 0002:0000110c       ??_C@_06JOFJHOEH@Period?$AA@ 1006410c     custom_pwm_capi.obj
 0002:00001114       ??_C@_0CG@EMKOOGDP@Programmable?5Pulse?5Generator?1Con@ 10064114     custom_pwm_capi.obj
 0002:00001144       ??_C@_0CH@HAHHIEGJ@Programmable?5Pulse?5Generator?1Con@ 10064144     custom_pwm_capi.obj
 0002:00001174       ??_C@_09HLCHFPPJ@Threshold?$AA@ 10064174     custom_pwm_capi.obj
 0002:00001180       ??_C@_06BNJCAIGJ@double?$AA@ 10064180     custom_pwm_capi.obj
 0002:00001188       ??_C@_06CNMIJIPB@real_T?$AA@ 10064188     custom_pwm_capi.obj
 0002:00001190       ??_C@_0O@PPAIJIHF@unsigned?5char?$AA@ 10064190     custom_pwm_capi.obj
 0002:000011a0       ??_C@_09JBMFCIMO@boolean_T?$AA@ 100641a0     custom_pwm_capi.obj
 0002:000011ac       ??_C@_05KNFBNCOH@float?$AA@ 100641ac     custom_pwm_capi.obj
 0002:000011b4       _serialfifoground          100641b4     xpc_datatype_ground.obj
 0002:000011c0       _bcmsg1553ground           100641c0     xpc_datatype_ground.obj
 0002:000011d0       _bcstatground              100641d0     xpc_datatype_ground.obj
 0002:000011e8       _bmmsg1553ground           100641e8     xpc_datatype_ground.obj
 0002:00001224       ??_C@_0BI@INNPNFJN@Memory?5Allocation?5Error?$AA@ 10064224     rtw_modelmap_utils.obj
 0002:00001240       ??_C@_1FC@GIONDGJJ@?$AAD?$AA?3?$AA?2?$AAM?$AAA?$AAT?$AAL?$AAA?$AAB?$AA?2?$AAr?$AAt?$AAw?$AA?2?$AAc?$AA?2?$AAs?$AAr?$AAc?$AA?2?$AAr?$AAt?$AAw?$AA_?$AAm?$AAo?$AAd?$AAe?$AAl?$AAm?$AAa?$AAp@ 10064240     rtw_modelmap_utils.obj
 0002:000012a4       ??_C@_1CI@OEAJCJND@?$AAj?$AA?5?$AA?$DN?$AA?$DN?$AA?5?$AAe?$AAn?$AAc?$AAo?$AAd?$AAe?$AAd?$AAP?$AAa?$AAt?$AAh?$AAL?$AAe?$AAn?$AA?$AA@ 100642a4     rtw_modelmap_utils.obj
 0002:000012d4       ??_C@_1DC@NFAOIFKB@?$AAe?$AAn?$AAc?$AAo?$AAd?$AAe?$AAd?$AAP?$AAa?$AAt?$AAh?$AA?$FL?$AAj?$AA?9?$AA1?$AA?$FN?$AA?5?$AA?$DN?$AA?$DN?$AA?5?$AA?8?$AA?2?$AA0?$AA?8?$AA?$AA@ 100642d4     rtw_modelmap_utils.obj
 0002:00001310       ??_C@_1DI@FLNJGPEE@?$AAs?$AAi?$AAg?$AAC?$AAo?$AAm?$AAp?$AAl?$AAe?$AAx?$AAi?$AAt?$AAy?$AA?$FL?$AA?$CK?$AAs?$AAi?$AAg?$AAI?$AAd?$AAx?$AA?$FN?$AA?5?$AA?$CB?$AA?$DN?$AA?5?$AA1?$AA?$AA@ 10064310     rtw_modelmap_utils.obj
 0002:00001358       ??_C@_1KI@OFELMGBG@?$AA?$CI?$AA?$CI?$AA?$CI?$AAd?$AAa?$AAt?$AAa?$AAT?$AAy?$AAp?$AAe?$AAM?$AAa?$AAp?$AA?$CJ?$AA?$FL?$AA?$CI?$AA?$CI?$AA?$CI?$AAs?$AAt?$AAa?$AAt?$AAe?$AAs?$AA?$CJ?$AA?$FL?$AA?$CI?$AAi?$AA?$CJ?$AA?$FN?$AA?4@ 10064358     rtw_modelmap_utils.obj
 0002:00001424       ??_C@_1DA@ILCMPHNE@?$AAf?$AAu?$AAl?$AAl?$AAP?$AAa?$AAt?$AAh?$AA?5?$AA?$CB?$AA?$DN?$AA?5?$AA?$CI?$AA?$CI?$AAv?$AAo?$AAi?$AAd?$AA?5?$AA?$CK?$AA?$CJ?$AA0?$AA?$CJ?$AA?$AA@ 10064424     rtw_modelmap_utils.obj
 0002:00001460       ??_C@_1CI@OEPPFCCA@?$AAp?$AAa?$AAt?$AAh?$AA?5?$AA?$CB?$AA?$DN?$AA?5?$AA?$CI?$AA?$CI?$AAv?$AAo?$AAi?$AAd?$AA?5?$AA?$CK?$AA?$CJ?$AA0?$AA?$CJ?$AA?$AA@ 10064460     rtw_modelmap_utils.obj
 0002:00001490       ??_C@_1FK@GLJIMFHB@?$AA?$CI?$AA?$CI?$AAm?$AAm?$AAi?$AA?$CJ?$AA?9?$AA?$DO?$AAI?$AAn?$AAs?$AAt?$AAa?$AAn?$AAc?$AAe?$AAM?$AAa?$AAp?$AA?4?$AAf?$AAu?$AAl?$AAl?$AAP?$AAa?$AAt?$AAh?$AA?$CJ?$AA?5?$AA?$DN?$AA?$DN@ 10064490     rtw_modelmap_utils.obj
 0002:000014fc       ??_C@_1DG@HPCJGNCE@?$AAm?$AAm?$AAi?$AAP?$AAa?$AAt?$AAh?$AA?$FL?$AAp?$AAa?$AAt?$AAh?$AAL?$AAe?$AAn?$AA?9?$AA1?$AA?$FN?$AA?5?$AA?$DN?$AA?$DN?$AA?5?$AA?8?$AA?2?$AA0?$AA?8?$AA?$AA@ 100644fc     rtw_modelmap_utils.obj
 0002:0000153c       ??_C@_1DM@DBAOGGOO@?$AAm?$AAm?$AAi?$AAP?$AAa?$AAt?$AAh?$AA?$FL?$AAm?$AAm?$AAi?$AAP?$AAa?$AAt?$AAh?$AAL?$AAe?$AAn?$AA?9?$AA1?$AA?$FN?$AA?5?$AA?$DN?$AA?$DN?$AA?5?$AA?8?$AA?2?$AA0?$AA?8?$AA?$AA@ 1006453c     rtw_modelmap_utils.obj
 0002:00001584       ??_C@_1DC@LHIAKAFE@?$AAb?$AAl?$AAo?$AAc?$AAk?$AAP?$AAa?$AAt?$AAh?$AA?5?$AA?$CB?$AA?$DN?$AA?5?$AA?$CI?$AA?$CI?$AAv?$AAo?$AAi?$AAd?$AA?5?$AA?$CK?$AA?$CJ?$AA0?$AA?$CJ?$AA?$AA@ 10064584     rtw_modelmap_utils.obj
 0002:000015c0       ??_C@_1GI@KIEJKPGC@?$AAf?$AAu?$AAl?$AAl?$AAS?$AAt?$AAa?$AAt?$AAe?$AAB?$AAl?$AAo?$AAc?$AAk?$AAP?$AAa?$AAt?$AAh?$AA?$FL?$AAf?$AAu?$AAl?$AAl?$AAS?$AAt?$AAa?$AAt?$AAe?$AAB?$AAl?$AAo?$AAc@ 100645c0     rtw_modelmap_utils.obj
 0002:00001640       ??_C@_1EE@DNPIBJHC@?$AA?$CI?$AA?$CI?$AAd?$AAi?$AAm?$AAM?$AAa?$AAp?$AA?$CJ?$AA?$FL?$AA?$CI?$AAm?$AAa?$AAp?$AAI?$AAd?$AAx?$AA?$CJ?$AA?$FN?$AA?4?$AAn?$AAu?$AAm?$AAD?$AAi?$AAm?$AAs?$AA?$CJ?$AA?5?$AA?$DN?$AA?$DN?$AA?5@ 10064640     rtw_modelmap_utils.obj
 0002:00001694       ??_C@_06JFOKFOED@CSTATE?$AA@ 10064694     rtw_modelmap_utils.obj
 0002:0000169c       ??_C@_06FAENGAMN@DSTATE?$AA@ 1006469c     rtw_modelmap_utils.obj
 0002:000016a4       ??_C@_1BI@LEBJNOGG@?$AAc?$AAs?$AAv?$AAI?$AAd?$AAx?$AA?5?$AA?$DO?$AA?$DN?$AA?5?$AA0?$AA?$AA@ 100646a4     rtw_modelmap_utils.obj
 0002:000016c0       ??_C@_1BA@KDMGHCHP@?$AAT?$AAI?$AAD?$AA?$DN?$AA?$DN?$AA?9?$AA1?$AA?$AA@ 100646c0     rtw_modelmap_utils.obj
 0002:000016d4       ??_C@_1DM@DHGKBPCE@?$AAs?$AAi?$AAg?$AAP?$AAa?$AAt?$AAh?$AA?$FL?$AAs?$AAi?$AAg?$AAP?$AAa?$AAt?$AAh?$AAL?$AAe?$AAn?$AA?9?$AA1?$AA?$FN?$AA?5?$AA?$DN?$AA?$DN?$AA?5?$AA?8?$AA?2?$AA0?$AA?8?$AA?$AA@ 100646d4     rtw_modelmap_utils.obj
 0002:00001f80       ??_C@_0DJ@FHKINPLE@Unexpected?5itemKind?5?$DN?5DATA_ITEM?5@ 10064f80     rt_logging.obj
 0002:00001fc4       ??_C@_0DA@IEHFPFCJ@Unexpected?5itemKind?$DN?$CFd?5in?5rt_Pro@ 10064fc4     rt_logging.obj
 0002:00002000       ??_C@_0DA@IFLHJPBO@Unexpected?5itemKind?$DN?$CFd?5in?5rt_Pro@ 10065000     rt_logging.obj
 0002:0000203c       ??_C@_0DA@IAPIIJJL@Unexpected?5itemKind?$DN?$CFd?5in?5rt_Pro@ 1006503c     rt_logging.obj
 0002:00002078       ??_C@_0BE@LCIGPJIG@MATLAB?55?40?5MAT?9file?$AA@ 10065078     rt_logging.obj
 0002:00002090       ??_C@_0FB@PCJEAJIB@?$CK?$CK?$CK?5Log?5variable?5?$CFs?5has?5wrapped?5@ 10065090     rt_logging.obj
 0002:000020f8       ??_C@_0MG@NKMLMOGF@?$CK?$CK?$CK?5To?5avoid?5wrapping?0?5explicitl@ 100650f8     rt_logging.obj
 0002:000021e8       ??_C@_0N@IPAEOLLP@_rtw_tmw?4tmw?$AA@ 100651e8     rt_logging.obj
 0002:000021f8       ??_C@_04HDOCAJNK@?$CFs?$CFs?$AA@ 100651f8     rt_logging.obj
 0002:00002200       ??_C@_03ELIABIOC@w?$CLb?$AA@ 10065200     rt_logging.obj
 0002:00002204       ??_C@_0BF@JPILDDFA@?$CK?$CK?$CK?5Error?5opening?5?$CFs?$AA@ 10065204     rt_logging.obj
 0002:00002220       ??_C@_0BK@EEMDELA@unable?5to?5open?5data?5file?6?$AA@ 10065220     rt_logging.obj
 0002:00002240       ??_C@_04CGFJFPFD@none?$AA@ 10065240     rt_logging.obj
 0002:00002248       ??_C@_0EE@LCGFPNON@?$CK?$CK?$CK?5Error?5creating?5signals?5struc@ 10065248     rt_logging.obj
 0002:0000229c       ??_C@_0CE@NHECEDMK@?$CK?$CK?$CK?5Error?5creating?5log?5variable?5@ 1006529c     rt_logging.obj
 0002:000022c8       ??_C@_0DB@IOCGKAGH@?$CK?$CK?$CK?5Errors?5occurred?5when?5startin@ 100652c8     rt_logging.obj
 0002:00002304       ??_C@_0BO@BBLOGEBK@?$CK?$CK?$CK?5Memory?5allocation?5error?4?6?$AA@ 10065304     rt_logging.obj
 0002:00002328       ??_C@_0N@LGFBAGEL@?5?$CIreal?5part?$CJ?$AA@ 10065328     rt_logging.obj
 0002:00002338       ??_C@_0KH@CGNMHNFE@?5?5?5?5varName?5?5?5?5?5?5?5?5?5?5?$DN?5?$CFs?$CFs?6?5?5?5?5@ 10065338     rt_logging.obj
 0002:00002400       ??_C@_0LE@OALKKEFM@?5?5?5?5varName?5?5?5?5?5?5?5?5?5?5?$DN?5?$CFs?5?$CIcompl@ 10065400     rt_logging.obj
 0002:000024d8       ??_C@_0KF@JDDLEOKO@?5?5?5?5varName?5?5?5?5?5?5?5?5?5?5?$DN?5?$CFs?6?5?5?5?5nR@ 100654d8     rt_logging.obj
 0002:000025a0       ??_C@_0DP@HPDMIOFM@?$CK?$CK?$CK?5Using?5a?5default?5buffer?5of?5si@ 100655a0     rt_logging.obj
 0002:000025f0       ??_C@_0KE@JEFOLKNF@?6?$CK?$CK?$CK?5Memory?5required?5to?5log?5vari@ 100655f0     rt_logging.obj
 0002:000026b8       ??_C@_0JP@DKLMHCBI@?$CK?$CK?$CK?5Details?3?6?5?5?5?5?5?5?5varName?5?5?5?5?5@ 100656b8     rt_logging.obj
 0002:00002778       ??_C@_0CM@CAMILBED@?$CK?$CK?$CK?5Error?5allocating?5memory?5for?5@ 10065778     rt_logging.obj
 0002:000027ac       ??_C@_0DF@BBCNMOPM@?$CK?$CK?$CK?5Error?5allocating?5memory?5for?5@ 100657ac     rt_logging.obj
 0002:000027f0       ??_C@_0JP@DBCLPCCI@?$CK?$CK?$CK?5Details?3?6?5?5?5?5?5?5?5varName?5?5?5?5?5@ 100657f0     rt_logging.obj
 0002:000028b0       ??_C@_0FK@DPGAOBGA@?$CK?$CK?$CK?5Error?5allocating?5memory?5for?5@ 100658b0     rt_logging.obj
 0002:0000291c       ??_C@_0BI@GGDNPHLJ@?$CK?$CK?$CK?5Error?5writing?5to?5?$CFs?$AA@ 1006591c     rt_logging.obj
 0002:00002938       ??_C@_0CB@IBGJGELG@?$CK?$CK?$CK?5Error?5writing?5?$CFs?5due?5to?3?5?$CFs?6@ 10065938     rt_logging.obj
 0002:00002960       ??_C@_0CN@FLMCHCPB@?$CK?$CK?$CK?5Error?5writing?5log?5variable?5?$CF@ 10065960     rt_logging.obj
 0002:00002998       ??_C@_0DH@GAJCNOJP@?$CK?$CK?$CK?5Error?5writing?5structure?5log?5@ 10065998     rt_logging.obj
 0002:000029dc       ??_C@_0BD@POEALECL@?$CK?$CK?5created?5?$CFs?5?$CK?$CK?6?6?$AA@ 100659dc     rt_logging.obj
 0002:000029f8       __real@4020000000000000    100659f8     rt_logging.obj
 0002:00002a08       __real@41dfffffffc00000    10065a08     rt_logging.obj
 0002:00002a18       __real@41efffffffe00000    10065a18     rt_logging.obj
 0002:00002a28       __real@bfbf9add3afd2773    10065a28     rt_logging.obj
 0002:00002a38       __real@c000000000000000    10065a38     rt_logging.obj
 0002:00002a50       __xmm@20202020202020202020202020202020 10065a50     rt_logging.obj
 0002:00002a64       ??_C@_0L@DFBPCDLN@custom_pwm?$AA@ 10065a64     xpctarget.obj
 0002:00002a74       _ptsetfilename             10065a74     xpctarget.obj
 0002:00002a78       _xmlfile                   10065a78     xpctarget.obj
 0002:00002a80       ??_C@_0L@CHBJKKFC@xpceSetVar?$AA@ 10065a80     xpctarget.obj
 0002:00002a90       ??_C@_03LADEHNAB@6?46?$AA@ 10065a90     xpctarget.obj
 0002:00002a98       __real@3fb999999999999a    10065a98     xpctarget.obj
 0002:00002aa8       __real@40b3880000000000    10065aa8     xpctarget.obj
 0002:00002ab8       _custom_pwm_BIOMAP         10065ab8     appmappingData.obj
 0002:00002b24       _custom_pwm_SBIO           10065b24     appmappingData.obj
 0002:00002b48       _custom_pwm_LBLMAP         10065b48     appmappingData.obj
 0002:00002bb4       _custom_pwm_SLBL           10065bb4     appmappingData.obj
 0002:00002bd8       _custom_pwm_SIDMAP         10065bd8     appmappingData.obj
 0002:00002c48       _custom_pwm_PTIDSMAP       10065c48     appmappingData.obj
 0002:00002c88       _custom_pwm_PTNAMESMAP     10065c88     appmappingData.obj
 0002:00002cc8       _custom_pwm_SPTMAP         10065cc8     appmappingData.obj
 0002:00002ce8       _custom_pwm_dtmap          10065ce8     appmappingData.obj
 0002:00002d00       _appInfo                   10065d00     appmappingData.obj
 0002:00002dd0       ??_C@_0CC@DMFKNLL@VendorId?5?$DN?50x?$CFx?0?5DeviceId?5?$DN?50x?$CFx@ 10065dd0     xpcruntime:xpcimports.obj
 0002:00002df8       ??_C@_0DH@OHCBLNMG@Subsystem?5Device?5ID?5?$DN?50x?$CFx?6Subsy@ 10065df8     xpcruntime:xpcimports.obj
 0002:00002e3c       ??_C@_0BD@MMMMEFCM@Class?5Code?5?$DN?50x?$CFx?6?$AA@ 10065e3c     xpcruntime:xpcimports.obj
 0002:00002e54       ??_C@_0BE@OLDDDNHM@InterruptLine?5?$DN?5?$CFd?6?$AA@ 10065e54     xpcruntime:xpcimports.obj
 0002:00002e6c       ??_C@_0BF@OLKLEKBD@bus?5?$DN?5?$CFd?0?5slot?5?$DN?5?$CFd?6?$AA@ 10065e6c     xpcruntime:xpcimports.obj
 0002:00002e88       ??_C@_0CE@DGLLGDFH@?5?5?5?5Phys?5?5?5Virtual?5?5?5Length?5IO?1M@ 10065e88     xpcruntime:xpcimports.obj
 0002:00002eb4       ??_C@_0BI@FEOPLEMG@?$CF08x?5?$CF08x?5?$CF08x?5?5?5?5?5?5?$CFc?6?$AA@ 10065eb4     xpcruntime:xpcimports.obj
 0002:00002ed0       ??_C@_0BB@BNNCEDPC@rl32eScopeExists?$AA@ 10065ed0     xpcruntime:xpcimports.obj
 0002:00002ee4       ??_C@_0BM@FJBFEGFG@rl32eScopeExists?5not?5found?6?$AA@ 10065ee4     xpcruntime:xpcimports.obj
 0002:00002f08       ??_C@_0O@BNNGKJEA@rl32eDefScope?$AA@ 10065f08     xpcruntime:xpcimports.obj
 0002:00002f18       ??_C@_0BJ@CDNOENKA@rl32eDefScope?5not?5found?6?$AA@ 10065f18     xpcruntime:xpcimports.obj
 0002:00002f38       ??_C@_0P@CKNKILDP@rl32eAddSignal?$AA@ 10065f38     xpcruntime:xpcimports.obj
 0002:00002f4c       ??_C@_0BK@GMJAJBAI@rl32eAddSignal?5not?5found?6?$AA@ 10065f4c     xpcruntime:xpcimports.obj
 0002:00002f6c       ??_C@_0BB@LDMIHGCE@rl32eGetSignalNo?$AA@ 10065f6c     xpcruntime:xpcimports.obj
 0002:00002f80       ??_C@_0BM@LGAMBAID@rl32eGetSignalNo?5not?5found?6?$AA@ 10065f80     xpcruntime:xpcimports.obj
 0002:00002fa4       ??_C@_0O@CFDGALBP@rl32eSetScope?$AA@ 10065fa4     xpcruntime:xpcimports.obj
 0002:00002fb4       ??_C@_0BJ@JCLHHIN@rl32eSetScope?5not?5found?6?$AA@ 10065fb4     xpcruntime:xpcimports.obj
 0002:00002fd4       ??_C@_0P@IKMCBMHH@xpceFSScopeSet?$AA@ 10065fd4     xpcruntime:xpcimports.obj
 0002:00002fe8       ??_C@_0BK@JODJPNNH@xpceFSScopeSet?5not?5found?6?$AA@ 10065fe8     xpcruntime:xpcimports.obj
 0002:00003008       ??_C@_0BE@DLACEEJM@rl32eSetTargetScope?$AA@ 10066008     xpcruntime:xpcimports.obj
 0002:00003020       ??_C@_0BP@JCHFMKPJ@rl32eSetTargetScope?5not?5found?6?$AA@ 10066020     xpcruntime:xpcimports.obj
 0002:00003048       ??_C@_0BJ@LIDLNDHC@rl32eSetTargetScopeSigFt?$AA@ 10066048     xpcruntime:xpcimports.obj
 0002:00003068       ??_C@_0CE@JLGHCFHI@rl32eSetTargetScopeSigFt?5not?5fou@ 10066068     xpcruntime:xpcimports.obj
 0002:00003094       ??_C@_0BI@JAPOIDNG@rl32eRestartAcquisition?$AA@ 10066094     xpcruntime:xpcimports.obj
 0002:000030b0       ??_C@_0CD@LLBEFFBO@rl32eRestartAcquisition?5not?5foun@ 100660b0     xpcruntime:xpcimports.obj
 0002:000030dc       ??_C@_0P@IEIIADJB@xpceScopeAcqOK?$AA@ 100660dc     xpcruntime:xpcimports.obj
 0002:000030f0       ??_C@_0BK@NJCKNFPN@xpceScopeAcqOK?5not?5found?6?$AA@ 100660f0     xpcruntime:xpcimports.obj
 0002:00003110       ??_C@_0BA@IJINKAHF@xpceRegisterISR?$AA@ 10066110     xpcruntime:xpcimports.obj
 0002:00003124       ??_C@_0BL@NNDLOEJE@xpceRegisterISR?5not?5found?6?$AA@ 10066124     xpcruntime:xpcimports.obj
 0002:00003144       ??_C@_0BC@NLBADGKF@xpceDeRegisterISR?$AA@ 10066144     xpcruntime:xpcimports.obj
 0002:0000315c       ??_C@_0BN@DCAIKFFD@xpceDeRegisterISR?5not?5found?6?$AA@ 1006615c     xpcruntime:xpcimports.obj
 0002:00003180       ??_C@_07JPMEPILD@xpcInpB?$AA@ 10066180     xpcruntime:xpcimports.obj
 0002:0000318c       ??_C@_0BD@PGABEJOL@xpcInpB?5not?5found?6?$AA@ 1006618c     xpcruntime:xpcimports.obj
 0002:000031a4       ??_C@_07KIHBBOKH@xpcInpW?$AA@ 100661a4     xpcruntime:xpcimports.obj
 0002:000031b0       ??_C@_0BD@FPCJFMCC@xpcInpW?5not?5found?6?$AA@ 100661b0     xpcruntime:xpcimports.obj
 0002:000031c8       ??_C@_08KDIAJBOP@xpcInpDW?$AA@ 100661c8     xpcruntime:xpcimports.obj
 0002:000031d4       ??_C@_0BE@PIELDNIL@xpcInpDW?5not?5found?6?$AA@ 100661d4     xpcruntime:xpcimports.obj
 0002:000031ec       ??_C@_08PJFMOIGO@xpcOutpB?$AA@ 100661ec     xpcruntime:xpcimports.obj
 0002:000031f8       ??_C@_0BE@HCKNCEKF@xpcOutpB?5not?5found?6?$AA@ 100661f8     xpcruntime:xpcimports.obj
 0002:00003210       ??_C@_08MOOJAOHK@xpcOutpW?$AA@ 10066210     xpcruntime:xpcimports.obj
 0002:0000321c       ??_C@_0BE@NLIFDBGM@xpcOutpW?5not?5found?6?$AA@ 1006621c     xpcruntime:xpcimports.obj
 0002:00003234       ??_C@_09FLIEKHJG@xpcOutpDW?$AA@ 10066234     xpcruntime:xpcimports.obj
 0002:00003240       ??_C@_0BF@GJKLPNHB@xpcOutpDW?5not?5found?6?$AA@ 10066240     xpcruntime:xpcimports.obj
 0002:0000325c       ??_C@_0BH@EHOLELHH@xpcReserveMemoryRegion?$AA@ 1006625c     xpcruntime:xpcimports.obj
 0002:00003278       ??_C@_0CC@KAAAGPI@xpcReserveMemoryRegion?5not?5found@ 10066278     xpcruntime:xpcimports.obj
 0002:000032a0       ??_C@_0BA@JGPMHGAF@rl32eShowPCIDev?$AA@ 100662a0     xpcruntime:xpcimports.obj
 0002:000032b4       ??_C@_0BL@DDFFLNHI@rl32eShowPCIDev?5not?5found?6?$AA@ 100662b4     xpcruntime:xpcimports.obj
 0002:000032d4       ??_C@_0BB@KBCOJPFB@rl32eShowPCIInfo?$AA@ 100662d4     xpcruntime:xpcimports.obj
 0002:000032e8       ??_C@_0BM@IFDMAGLO@rl32eShowPCIInfo?5not?5found?6?$AA@ 100662e8     xpcruntime:xpcimports.obj
 0002:0000330c       ??_C@_0BA@BGPAADB@rl32eGetPCIInfo?$AA@ 1006630c     xpcruntime:xpcimports.obj
 0002:00003320       ??_C@_0BL@IGOMLDCK@rl32eGetPCIInfo?5not?5found?6?$AA@ 10066320     xpcruntime:xpcimports.obj
 0002:00003340       ??_C@_0BG@NJPFKFDP@rl32eGetPCIInfoAtSlot?$AA@ 10066340     xpcruntime:xpcimports.obj
 0002:0000335c       ??_C@_0CB@BBKIPMLA@rl32eGetPCIInfoAtSlot?5not?5found?6@ 1006635c     xpcruntime:xpcimports.obj
 0002:00003384       ??_C@_0BH@OKBOPNFG@xpceAssignPCIInterrupt?$AA@ 10066384     xpcruntime:xpcimports.obj
 0002:000033a0       ??_C@_0CC@CDNDNJBJ@xpceAssignPCIInterrupt?5not?5found@ 100663a0     xpcruntime:xpcimports.obj
 0002:000033c8       ??_C@_0BD@PCKOKHO@xpceGetSignalValue?$AA@ 100663c8     xpcruntime:xpcimports.obj
 0002:000033e0       ??_C@_0BO@GCBDJHMB@xpceGetSignalValue?5not?5found?6?$AA@ 100663e0     xpcruntime:xpcimports.obj
 0002:00003404       ??_C@_0BB@BJONJAGA@xpceSetParameter?$AA@ 10066404     xpcruntime:xpcimports.obj
 0002:00003418       ??_C@_0BM@BJIKDLHA@xpceSetParameter?5not?5found?6?$AA@ 10066418     xpcruntime:xpcimports.obj
 0002:0000343c       ??_C@_0BB@GNFDFMCM@xpceGetParameter?$AA@ 1006643c     xpcruntime:xpcimports.obj
 0002:00003450       ??_C@_0BM@POHNKBC@xpceGetParameter?5not?5found?6?$AA@ 10066450     xpcruntime:xpcimports.obj
 0002:00003474       ??_C@_0BB@CEIJLFCD@xpceGetParamDims?$AA@ 10066474     xpcruntime:xpcimports.obj
 0002:00003488       ??_C@_0BM@OABDBKAO@xpceGetParamDims?5not?5found?6?$AA@ 10066488     xpcruntime:xpcimports.obj
 0002:000034ac       ??_C@_0L@OCBLLHBM@xpceGetTET?$AA@ 100664ac     xpcruntime:xpcimports.obj
 0002:000034bc       ??_C@_0BG@HNOFBOB@xpceGetTET?5not?5found?6?$AA@ 100664bc     xpcruntime:xpcimports.obj
 0002:000034d8       ??_C@_0P@OKGNGAGH@xpcIsModelInit?$AA@ 100664d8     xpcruntime:xpcimports.obj
 0002:000034ec       ??_C@_0BK@DHEMLBIM@xpcIsModelInit?5not?5found?6?$AA@ 100664ec     xpcruntime:xpcimports.obj
 0002:0000350c       ??_C@_0BH@KJJLCAOJ@xpcAllocPhysicalMemory?$AA@ 1006650c     xpcruntime:xpcimports.obj
 0002:00003528       ??_C@_0CC@MOJPNHKL@xpcAllocPhysicalMemory?5not?5found@ 10066528     xpcruntime:xpcimports.obj
 0002:00003550       ??_C@_0BG@CBNPGAEL@xpcFreePhysicalMemory?$AA@ 10066550     xpcruntime:xpcimports.obj
 0002:0000356c       ??_C@_0CB@PKJEBPOG@xpcFreePhysicalMemory?5not?5found?6@ 1006656c     xpcruntime:xpcimports.obj
 0002:00003594       ??_C@_0BC@JGKNLICL@xpcGetElapsedTime?$AA@ 10066594     xpcruntime:xpcimports.obj
 0002:000035ac       ??_C@_0BN@OEOAHCIO@xpcGetElapsedTime?5not?5found?6?$AA@ 100665ac     xpcruntime:xpcimports.obj
 0002:000035d0       ??_C@_0M@ICBLMODA@xpcBusyWait?$AA@ 100665d0     xpcruntime:xpcimports.obj
 0002:000035e0       ??_C@_0BH@FBOPECBI@xpcBusyWait?5not?5found?6?$AA@ 100665e0     xpcruntime:xpcimports.obj
 0002:000035fc       ??_C@_0N@LKKJEKKA@TBCreateSpin?$AA@ 100665fc     xpcruntime:xpcimports.obj
 0002:0000360c       ??_C@_0BI@FHKMLKOE@TBCreateSpin?5not?5found?6?$AA@ 1006660c     xpcruntime:xpcimports.obj
 0002:00003628       ??_C@_0N@HOAJHNBD@TBDeleteSpin?$AA@ 10066628     xpcruntime:xpcimports.obj
 0002:00003638       ??_C@_0BI@BKCPAAG@TBDeleteSpin?5not?5found?6?$AA@ 10066638     xpcruntime:xpcimports.obj
 0002:00003654       ??_C@_0P@DAHDDBJG@TBTakeSpinFast?$AA@ 10066654     xpcruntime:xpcimports.obj
 0002:00003668       ??_C@_0BK@NKAIBHGB@TBTakeSpinFast?5not?5found?6?$AA@ 10066668     xpcruntime:xpcimports.obj
 0002:00003688       ??_C@_0P@FKNAAELA@TBGiveSpinFast?$AA@ 10066688     xpcruntime:xpcimports.obj
 0002:0000369c       ??_C@_0BK@KGPJBJND@TBGiveSpinFast?5not?5found?6?$AA@ 1006669c     xpcruntime:xpcimports.obj
 0002:000036bc       ??_C@_0BE@IIGBFDHK@xpceCreateSemaphore?$AA@ 100666bc     xpcruntime:xpcimports.obj
 0002:000036d4       ??_C@_0BP@KFBAFFKJ@xpceCreateSemaphore?5not?5found?6?$AA@ 100666d4     xpcruntime:xpcimports.obj
 0002:000036fc       ??_C@_0BC@IFNIONKJ@xpceWaitSemaphore?$AA@ 100666fc     xpcruntime:xpcimports.obj
 0002:00003714       ??_C@_0BN@NMFAADIO@xpceWaitSemaphore?5not?5found?6?$AA@ 10066714     xpcruntime:xpcimports.obj
 0002:00003738       ??_C@_0BE@NNDIOBKE@xpceSignalSemaphore?$AA@ 10066738     xpcruntime:xpcimports.obj
 0002:00003750       ??_C@_0BP@LBANMHJP@xpceSignalSemaphore?5not?5found?6?$AA@ 10066750     xpcruntime:xpcimports.obj
 0002:00003778       ??_C@_0BE@MEBEKOIM@xpceDeleteSemaphore?$AA@ 10066778     xpcruntime:xpcimports.obj
 0002:00003790       ??_C@_0BP@OFNCKOJH@xpceDeleteSemaphore?5not?5found?6?$AA@ 10066790     xpcruntime:xpcimports.obj
 0002:000037b8       ??_C@_0BD@MFNDMBOF@FindUsbVideoDevice?$AA@ 100667b8     xpcruntime:xpcimports.obj
 0002:000037d0       ??_C@_0BO@POKLDHMI@FindUsbVideoDevice?5not?5found?6?$AA@ 100667d0     xpcruntime:xpcimports.obj
 0002:000037f4       ??_C@_0BA@PLPAPNAB@GetVideoConfigs?$AA@ 100667f4     xpcruntime:xpcimports.obj
 0002:00003808       ??_C@_0BL@DALDHKHC@GetVideoConfigs?5not?5found?6?$AA@ 10066808     xpcruntime:xpcimports.obj
 0002:00003828       ??_C@_0L@GBAEMHMH@StartVideo?$AA@ 10066828     xpcruntime:xpcimports.obj
 0002:00003838       ??_C@_0BG@HDCELEBP@StartVideo?5not?5found?6?$AA@ 10066838     xpcruntime:xpcimports.obj
 0002:00003854       ??_C@_0BA@FDNPOCLN@ReadFrameBuffer?$AA@ 10066854     xpcruntime:xpcimports.obj
 0002:00003868       ??_C@_0BL@JHGHPNBI@ReadFrameBuffer?5not?5found?6?$AA@ 10066868     xpcruntime:xpcimports.obj
 0002:00003888       ??_C@_09FAHCLKAG@StopVideo?$AA@ 10066888     xpcruntime:xpcimports.obj
 0002:00003894       ??_C@_0BF@NKGKKADL@StopVideo?5not?5found?6?$AA@ 10066894     xpcruntime:xpcimports.obj
 0002:000038b0       ??_C@_0O@MCPKDLLL@ConvertUImage?$AA@ 100668b0     xpcruntime:xpcimports.obj
 0002:000038c0       ??_C@_0BJ@PHJKOAFL@ConvertUImage?5not?5found?6?$AA@ 100668c0     xpcruntime:xpcimports.obj
 0002:000038e0       ??_C@_0BD@NKCBPBJJ@CreateVideoDisplay?$AA@ 100668e0     xpcruntime:xpcimports.obj
 0002:000038f8       ??_C@_0BO@HPPLLNFP@CreateVideoDisplay?5not?5found?6?$AA@ 100668f8     xpcruntime:xpcimports.obj
 0002:0000391c       ??_C@_0BE@KJCKGPHA@DestroyVideoDisplay?$AA@ 1006691c     xpcruntime:xpcimports.obj
 0002:00003934       ??_C@_0BP@FMGLJAIJ@DestroyVideoDisplay?5not?5found?6?$AA@ 10066934     xpcruntime:xpcimports.obj
 0002:0000395c       ??_C@_0BC@HCMIMIDN@StartVideoDisplay?$AA@ 1006695c     xpcruntime:xpcimports.obj
 0002:00003974       ??_C@_0BN@EFIEBGOO@StartVideoDisplay?5not?5found?6?$AA@ 10066974     xpcruntime:xpcimports.obj
 0002:00003998       ??_C@_0BB@JBBLMILG@StopVideoDisplay?$AA@ 10066998     xpcruntime:xpcimports.obj
 0002:000039ac       ??_C@_0BM@DBJBPLEL@StopVideoDisplay?5not?5found?6?$AA@ 100669ac     xpcruntime:xpcimports.obj
 0002:000039d0       ??_C@_0M@MFJEGMHC@StreamVideo?$AA@ 100669d0     xpcruntime:xpcimports.obj
 0002:000039e0       ??_C@_0BH@OINCDMLA@StreamVideo?5not?5found?6?$AA@ 100669e0     xpcruntime:xpcimports.obj
 0002:000039fc       ??_C@_0N@IGGLCIGE@xpceaddEvent?$AA@ 100669fc     xpcruntime:xpcimports.obj
 0002:00003a0c       ??_C@_0BI@NHJNFMKH@xpceaddEvent?5not?5found?6?$AA@ 10066a0c     xpcruntime:xpcimports.obj
 0002:00003a28       ??_C@_0BB@HDPOIJAB@xpceDAQPostEvent?$AA@ 10066a28     xpcruntime:xpcimports.obj
 0002:00003a3c       ??_C@_0BM@IHANBKGN@xpceDAQPostEvent?5not?5found?6?$AA@ 10066a3c     xpcruntime:xpcimports.obj
 0002:00003a60       ??_C@_0BH@MBACMOD@xpceDAQUpdateTimeStamp?$AA@ 10066a60     xpcruntime:xpcimports.obj
 0002:00003a7c       ??_C@_0CC@DAKBBINL@xpceDAQUpdateTimeStamp?5not?5found@ 10066a7c     xpcruntime:xpcimports.obj
 0002:00003aa4       ??_C@_0BN@HJOHIFOM@xpceGetIntTimerGranularityNS?$AA@ 10066aa4     xpcruntime:xpcimports.obj
 0002:00003ac8       ??_C@_0CI@OADDPMKB@xpceGetIntTimerGranularityNS?5not@ 10066ac8     xpcruntime:xpcimports.obj
 0002:00003af8       ??_C@_0BG@CCHICKPN@slrteSetStepSizeDelta?$AA@ 10066af8     xpcruntime:xpcimports.obj
 0002:00003b14       ??_C@_0CB@MKHINEIJ@slrteSetStepSizeDelta?5not?5found?6@ 10066b14     xpcruntime:xpcimports.obj
 0002:00003b3c       ??_C@_0BI@CLNBLDKJ@slrteGetCurrentStepSize?$AA@ 10066b3c     xpcruntime:xpcimports.obj
 0002:00003b58       ??_C@_0CD@GIOJPGJA@slrteGetCurrentStepSize?5not?5foun@ 10066b58     xpcruntime:xpcimports.obj
 0002:00003b84       ??_C@_0BE@FCLCBOC@registerPTPTimeRead?$AA@ 10066b84     xpcruntime:xpcimports.obj
 0002:00003b9c       ??_C@_0BP@LHPKAJIP@registerPTPTimeRead?5not?5found?6?$AA@ 10066b9c     xpcruntime:xpcimports.obj
 0002:00003bc4       ??_C@_0BG@KIGCDDJI@unRegisterPTPTimeRead?$AA@ 10066bc4     xpcruntime:xpcimports.obj
 0002:00003be0       ??_C@_0CB@MLFFBFCM@unRegisterPTPTimeRead?5not?5found?6@ 10066be0     xpcruntime:xpcimports.obj
 0002:00003c08       ??_C@_0BB@IPMDDBHK@slTestInitialize?$AA@ 10066c08     xpcruntime:xpcimports.obj
 0002:00003c1c       ??_C@_0BM@LAJFCCJH@slTestInitialize?5not?5found?6?$AA@ 10066c1c     xpcruntime:xpcimports.obj
 0002:00003c40       ??_C@_0BF@OOMPMEBC@slTestLogAssessments?$AA@ 10066c40     xpcruntime:xpcimports.obj
 0002:00003c5c       ??_C@_0CA@FGJCEBAG@slTestLogAssessments?5not?5found?6?$AA@ 10066c5c     xpcruntime:xpcimports.obj
 0002:00003c84       ??_C@_0BB@HJHKONHO@slTestEvalOnFail?$AA@ 10066c84     xpcruntime:xpcimports.obj
 0002:00003c98       ??_C@_0BM@JIKCFFNJ@slTestEvalOnFail?5not?5found?6?$AA@ 10066c98     xpcruntime:xpcimports.obj
 0002:00003cbc       ??_C@_0BA@LBHLABFP@slTestTerminate?$AA@ 10066cbc     xpcruntime:xpcimports.obj
 0002:00003cd0       ??_C@_0BL@EMFGKAPA@slTestTerminate?5not?5found?6?$AA@ 10066cd0     xpcruntime:xpcimports.obj
 0002:00003cf0       ??_C@_0BE@JPNPBBEO@slTestRegAssessment?$AA@ 10066cf0     xpcruntime:xpcimports.obj
 0002:00003d08       ??_C@_0BP@FBDEJJJH@slTestRegAssessment?5not?5found?6?$AA@ 10066d08     xpcruntime:xpcimports.obj
 0002:00003d30       ??_C@_0O@NCLGDNIB@slrteSetupMSI?$AA@ 10066d30     xpcruntime:xpcimports.obj
 0002:00003d40       ??_C@_0BJ@HEFMECLM@slrteSetupMSI?5not?5found?6?$AA@ 10066d40     xpcruntime:xpcimports.obj
 0002:00003d60       ??_C@_0BH@BPOLALHD@slrtGetCRBScratchSpace?$AA@ 10066d60     xpcruntime:xpcimports.obj
 0002:00003d7c       ??_C@_0CC@KCKAJKKJ@slrtGetCRBScratchSpace?5not?5found@ 10066d7c     xpcruntime:xpcimports.obj
 0002:00003da4       ??_C@_0BC@MKFDAKOL@slrtGetSgCRBSpace?$AA@ 10066da4     xpcruntime:xpcimports.obj
 0002:00003dbc       ??_C@_0BN@JDPHPLHL@slrtGetSgCRBSpace?5not?5found?6?$AA@ 10066dbc     xpcruntime:xpcimports.obj
 0002:00003de0       ??_C@_0P@EPAPKLIF@slrtfsOpenFile?$AA@ 10066de0     xpcruntime:xpcimports.obj
 0002:00003df4       ??_C@_0BK@FIHCBOHG@slrtfsOpenFile?5not?5found?6?$AA@ 10066df4     xpcruntime:xpcimports.obj
 0002:00003e14       ??_C@_0BA@LILAFDDL@slrtfsCloseFile?$AA@ 10066e14     xpcruntime:xpcimports.obj
 0002:00003e28       ??_C@_0BL@DEGHJFIB@slrtfsCloseFile?5not?5found?6?$AA@ 10066e28     xpcruntime:xpcimports.obj
 0002:00003e48       ??_C@_0BC@OKMJDIEH@slrtfsWriteToFile?$AA@ 10066e48     xpcruntime:xpcimports.obj
 0002:00003e60       ??_C@_0BN@KCFLCLAH@slrtfsWriteToFile?5not?5found?6?$AA@ 10066e60     xpcruntime:xpcimports.obj
 0002:00003e84       ??_C@_0BK@GIPNFFFF@slrtfsGetFileErrorMessage?$AA@ 10066e84     xpcruntime:xpcimports.obj
 0002:00003ea4       ??_C@_0CF@BCBLMKLE@slrtfsGetFileErrorMessage?5not?5fo@ 10066ea4     xpcruntime:xpcimports.obj
 0002:00003ed0       ??_C@_0BD@ICBOKMK@slrtfsGetFileError?$AA@ 10066ed0     xpcruntime:xpcimports.obj
 0002:00003ee8       ??_C@_0BO@FNBANAE@slrtfsGetFileError?5not?5found?6?$AA@ 10066ee8     xpcruntime:xpcimports.obj
 0002:00003f0c       ??_C@_0BE@PPAJMHJP@slrtfsOpenFileAsync?$AA@ 10066f0c     xpcruntime:xpcimports.obj
 0002:00003f24       ??_C@_0BP@HKBMMJOK@slrtfsOpenFileAsync?5not?5found?6?$AA@ 10066f24     xpcruntime:xpcimports.obj
 0002:00003f4c       ??_C@_0BF@IGNDIBPF@slrtfsCloseFileAsync?$AA@ 10066f4c     xpcruntime:xpcimports.obj
 0002:00003f68       ??_C@_0CA@GJPFDBKN@slrtfsCloseFileAsync?5not?5found?6?$AA@ 10066f68     xpcruntime:xpcimports.obj
 0002:00003f90       ??_C@_0BE@IOLEBNB@slrtfsGetFileStatus?$AA@ 10066f90     xpcruntime:xpcimports.obj
 0002:00003fa8       ??_C@_0BP@PEFHDGHL@slrtfsGetFileStatus?5not?5found?6?$AA@ 10066fa8     xpcruntime:xpcimports.obj
 0002:00003fd0       ??_C@_0M@HKIJIMG@slrtfsFread?$AA@ 10066fd0     xpcruntime:xpcimports.obj
 0002:00003fe0       ??_C@_0BH@OOKBGONO@slrtfsFread?5not?5found?6?$AA@ 10066fe0     xpcruntime:xpcimports.obj
 0002:00003ffc       ??_C@_0BE@OGCMPLAP@slrtGetDefaultDrive?$AA@ 10066ffc     xpcruntime:xpcimports.obj
 0002:00004014       ??_C@_0BP@HKFGLHOE@slrtGetDefaultDrive?5not?5found?6?$AA@ 10067014     xpcruntime:xpcimports.obj
 0002:0000403c       ??_C@_0N@NAJIKFFI@slrtLogEvent?$AA@ 1006703c     xpcruntime:xpcimports.obj
 0002:0000404c       ??_C@_0BI@NKCEACND@slrtLogEvent?5not?5found?6?$AA@ 1006704c     xpcruntime:xpcimports.obj
 0002:00004068       ??_C@_0N@IDKFJOHI@getlasterror?$AA@ 10067068     xpcruntime:xpcimports.obj
 0002:00004078       ??_C@_0BI@MIHMCHGL@getlasterror?5not?5found?6?$AA@ 10067078     xpcruntime:xpcimports.obj
 0002:00004094       ??_C@_0P@OKHGKJKN@geterrorstring?$AA@ 10067094     xpcruntime:xpcimports.obj
 0002:000040a8       ??_C@_0BK@NOHFDMLP@geterrorstring?5not?5found?6?$AA@ 100670a8     xpcruntime:xpcimports.obj
 0002:000040c8       ??_C@_0BD@HNFFKMGJ@slrtGetCPUTCelsius?$AA@ 100670c8     xpcruntime:xpcimports.obj
 0002:000040e0       ??_C@_0BO@LHBFKLIH@slrtGetCPUTCelsius?5not?5found?6?$AA@ 100670e0     xpcruntime:xpcimports.obj
 0002:00004104       ??_C@_0M@OONCNCLM@slrtWarning?$AA@ 10067104     xpcruntime:xpcimports.obj
 0002:00004114       ??_C@_0BH@ICKGIEMB@slrtWarning?5not?5found?6?$AA@ 10067114     xpcruntime:xpcimports.obj
 0002:00004130       ??_C@_0N@EAAOMIIE@isUsedByRTIP?$AA@ 10067130     xpcruntime:xpcimports.obj
 0002:00004140       ??_C@_0BI@GNHHHICK@isUsedByRTIP?5not?5found?6?$AA@ 10067140     xpcruntime:xpcimports.obj
 0002:0000415c       ??_C@_0BC@HLDKJAG@SetIPTASKPriority?$AA@ 1006715c     xpcruntime:xpcimports.obj
 0002:00004174       ??_C@_0BN@OGKMHHAE@SetIPTASKPriority?5not?5found?6?$AA@ 10067174     xpcruntime:xpcimports.obj
 0002:00004198       ??_C@_0O@LHENMBDD@OpenInterface?$AA@ 10067198     xpcruntime:xpcimports.obj
 0002:000041a8       ??_C@_0BJ@PFGDBKHB@OpenInterface?5not?5found?6?$AA@ 100671a8     xpcruntime:xpcimports.obj
 0002:000041c8       ??_C@_0P@IINFELKD@CloseInterface?$AA@ 100671c8     xpcruntime:xpcimports.obj
 0002:000041dc       ??_C@_0BK@PAPDNDBK@CloseInterface?5not?5found?6?$AA@ 100671dc     xpcruntime:xpcimports.obj
 0002:000041fc       ??_C@_05LEFIAAOI@SetIP?$AA@ 100671fc     xpcruntime:xpcimports.obj
 0002:00004204       ??_C@_0BB@CGLIBAMM@SetIP?5not?5found?6?$AA@ 10067204     xpcruntime:xpcimports.obj
 0002:00004218       ??_C@_0BA@HIJJHHMD@AddGatewayRoute?$AA@ 10067218     xpcruntime:xpcimports.obj
 0002:0000422c       ??_C@_0BL@BFCFMDMN@AddGatewayRoute?5not?5found?6?$AA@ 1006722c     xpcruntime:xpcimports.obj
 0002:0000424c       ??_C@_0M@PHMABFPI@DeleteRoute?$AA@ 1006724c     xpcruntime:xpcimports.obj
 0002:0000425c       ??_C@_0BH@JPJGLLID@DeleteRoute?5not?5found?6?$AA@ 1006725c     xpcruntime:xpcimports.obj
 0002:00004278       ??_C@_0BA@FCDIMKIJ@GetHostTarIPAdd?$AA@ 10067278     xpcruntime:xpcimports.obj
 0002:0000428c       ??_C@_0BL@MBKDGKBO@GetHostTarIPAdd?5not?5found?6?$AA@ 1006728c     xpcruntime:xpcimports.obj
 0002:000042ac       ??_C@_0M@HPMIPIBI@GetDCUUsage?$AA@ 100672ac     xpcruntime:xpcimports.obj
 0002:000042bc       ??_C@_0BH@EBLJKCJC@GetDCUUsage?5not?5found?6?$AA@ 100672bc     xpcruntime:xpcimports.obj
 0002:000042d8       ??_C@_06MPKMECK@accept?$AA@ 100672d8     xpcruntime:xpcimports.obj
 0002:000042e0       ??_C@_0BC@GBGIEMNO@accept?5not?5found?6?$AA@ 100672e0     xpcruntime:xpcimports.obj
 0002:000042f8       ??_C@_04NPNJNMMP@bind?$AA@ 100672f8     xpcruntime:xpcimports.obj
 0002:00004300       ??_C@_0BA@DAJNENLO@bind?5not?5found?6?$AA@ 10067300     xpcruntime:xpcimports.obj
 0002:00004314       ??_C@_0L@CKHNIFCM@setsockopt?$AA@ 10067314     xpcruntime:xpcimports.obj
 0002:00004324       ??_C@_0BG@MFIIOMFE@setsockopt?5not?5found?6?$AA@ 10067324     xpcruntime:xpcimports.obj
 0002:00004340       ??_C@_0M@ODDJDCDK@closesocket?$AA@ 10067340     xpcruntime:xpcimports.obj
 0002:00004350       ??_C@_0BH@JHGHMIL@closesocket?5not?5found?6?$AA@ 10067350     xpcruntime:xpcimports.obj
 0002:0000436c       ??_C@_07KAIBNCHO@connect?$AA@ 1006736c     xpcruntime:xpcimports.obj
 0002:00004378       ??_C@_0BD@MKLLMBM@connect?5not?5found?6?$AA@ 10067378     xpcruntime:xpcimports.obj
 0002:00004390       ??_C@_0M@PBPOCKDG@ioctlsocket?$AA@ 10067390     xpcruntime:xpcimports.obj
 0002:000043a0       ??_C@_0BH@NFCNHHIH@ioctlsocket?5not?5found?6?$AA@ 100673a0     xpcruntime:xpcimports.obj
 0002:000043bc       ??_C@_06OODDLKLE@listen?$AA@ 100673bc     xpcruntime:xpcimports.obj
 0002:000043c4       ??_C@_0BC@NHBILEKI@listen?5not?5found?6?$AA@ 100673c4     xpcruntime:xpcimports.obj
 0002:000043dc       ??_C@_08HMBBGFHE@recvfrom?$AA@ 100673dc     xpcruntime:xpcimports.obj
 0002:000043e8       ??_C@_0BE@BJAJFFLF@recvfrom?5not?5found?6?$AA@ 100673e8     xpcruntime:xpcimports.obj
 0002:00004400       ??_C@_06MEPBGKEC@sendto?$AA@ 10067400     xpcruntime:xpcimports.obj
 0002:00004408       ??_C@_0BC@BHPIMDJO@sendto?5not?5found?6?$AA@ 10067408     xpcruntime:xpcimports.obj
 0002:00004420       ??_C@_09JKBDEEOB@inet_addr?$AA@ 10067420     xpcruntime:xpcimports.obj
 0002:0000442c       ??_C@_0BF@HKJPGECN@inet_addr?5not?5found?6?$AA@ 1006742c     xpcruntime:xpcimports.obj
 0002:00004448       ??_C@_06HBELJPBO@socket?$AA@ 10067448     xpcruntime:xpcimports.obj
 0002:00004450       ??_C@_0BC@NAGFFJGA@socket?5not?5found?6?$AA@ 10067450     xpcruntime:xpcimports.obj
 0002:00004468       ??_C@_09ICJIFGNC@GetSocket?$AA@ 10067468     xpcruntime:xpcimports.obj
 0002:00004474       ??_C@_0BF@KDBCKMOJ@GetSocket?5not?5found?6?$AA@ 10067474     xpcruntime:xpcimports.obj
 0002:00004490       ??_C@_0P@KJEGJMJI@GetSocketState?$AA@ 10067490     xpcruntime:xpcimports.obj
 0002:000044a4       ??_C@_0BK@IALBJHEB@GetSocketState?5not?5found?6?$AA@ 100674a4     xpcruntime:xpcimports.obj
 0002:000044c4       ??_C@_0L@MEAJHNHB@SocketSend?$AA@ 100674c4     xpcruntime:xpcimports.obj
 0002:000044d4       ??_C@_0BG@EOCMBFJA@SocketSend?5not?5found?6?$AA@ 100674d4     xpcruntime:xpcimports.obj
 0002:000044f0       ??_C@_0O@PFPCLEMF@SocketReceive?$AA@ 100674f0     xpcruntime:xpcimports.obj
 0002:00004500       ??_C@_0BJ@HIBADDFO@SocketReceive?5not?5found?6?$AA@ 10067500     xpcruntime:xpcimports.obj
 0002:00004520       ??_C@_0BD@OOGFNAIK@CreateServerSocket?$AA@ 10067520     xpcruntime:xpcimports.obj
 0002:00004538       ??_C@_0BO@GKIJHIPH@CreateServerSocket?5not?5found?6?$AA@ 10067538     xpcruntime:xpcimports.obj
 0002:0000455c       ??_C@_0BB@KGHJGFFO@OpenServerListen?$AA@ 1006755c     xpcruntime:xpcimports.obj
 0002:00004570       ??_C@_0BM@NFMMLIO@OpenServerListen?5not?5found?6?$AA@ 10067570     xpcruntime:xpcimports.obj
 0002:00004594       ??_C@_0BE@BAJLDJAH@ConnectServerSocket?$AA@ 10067594     xpcruntime:xpcimports.obj
 0002:000045ac       ??_C@_0BP@KJNODIKE@ConnectServerSocket?5not?5found?6?$AA@ 100675ac     xpcruntime:xpcimports.obj
 0002:000045d4       ??_C@_0BC@PLKKJDIM@CloseServerSocket?$AA@ 100675d4     xpcruntime:xpcimports.obj
 0002:000045ec       ??_C@_0BN@KEJEPNMB@CloseServerSocket?5not?5found?6?$AA@ 100675ec     xpcruntime:xpcimports.obj
 0002:00004610       ??_C@_0BD@MCLPKCPP@CreateClientSocket?$AA@ 10067610     xpcruntime:xpcimports.obj
 0002:00004628       ??_C@_0BO@DILAGPFN@CreateClientSocket?5not?5found?6?$AA@ 10067628     xpcruntime:xpcimports.obj
 0002:0000464c       ??_C@_0BB@DAPKNNLG@BindClientSocket?$AA@ 1006764c     xpcruntime:xpcimports.obj
 0002:00004660       ??_C@_0BM@LLLMMDFN@BindClientSocket?5not?5found?6?$AA@ 10067660     xpcruntime:xpcimports.obj
 0002:00004684       ??_C@_0BE@DMEBELHC@ConnectClientSocket?$AA@ 10067684     xpcruntime:xpcimports.obj
 0002:0000469c       ??_C@_0BP@PLOHCPAO@ConnectClientSocket?5not?5found?6?$AA@ 1006769c     xpcruntime:xpcimports.obj
 0002:000046c4       ??_C@_0BC@NHHAOBPJ@CloseClientSocket?$AA@ 100676c4     xpcruntime:xpcimports.obj
 0002:000046dc       ??_C@_0BN@PGKNOKGL@CloseClientSocket?5not?5found?6?$AA@ 100676dc     xpcruntime:xpcimports.obj
 0002:000047ac       __pRawDllMain              100677ac     LIBCMT:dll_dllmain.obj
 0002:000047ac       __pDefaultRawDllMain       100677ac     LIBCMT:dll_dllmain.obj
 0002:000047c4       ??_C@_1BC@DNHGCMLG@?$AAa?$AAd?$AAv?$AAa?$AAp?$AAi?$AA3?$AA2?$AA?$AA@ 100677c4     libvcruntime:winapi_downlevel.obj
 0002:000047dc       ??_C@_1DM@KHCHBNEB@?$AAa?$AAp?$AAi?$AA?9?$AAm?$AAs?$AA?9?$AAw?$AAi?$AAn?$AA?9?$AAc?$AAo?$AAr?$AAe?$AA?9?$AAf?$AAi?$AAb?$AAe?$AAr?$AAs?$AA?9?$AAl?$AA1?$AA?9?$AA1?$AA?9?$AA1?$AA?$AA@ 100677dc     libvcruntime:winapi_downlevel.obj
 0002:00004824       ??_C@_1DK@LPPGFMPP@?$AAa?$AAp?$AAi?$AA?9?$AAm?$AAs?$AA?9?$AAw?$AAi?$AAn?$AA?9?$AAc?$AAo?$AAr?$AAe?$AA?9?$AAs?$AAy?$AAn?$AAc?$AAh?$AA?9?$AAl?$AA1?$AA?9?$AA2?$AA?9?$AA0?$AA?$AA@ 10067824     libvcruntime:winapi_downlevel.obj
 0002:0000486c       ??_C@_1BC@GDMECMAK@?$AAk?$AAe?$AAr?$AAn?$AAe?$AAl?$AA3?$AA2?$AA?$AA@ 1006786c     libvcruntime:winapi_downlevel.obj
 0002:00004888       ??_C@_0O@BAMBGLIE@EventRegister?$AA@ 10067888     libvcruntime:winapi_downlevel.obj
 0002:0000489c       ??_C@_0BE@BJEEGHGK@EventSetInformation?$AA@ 1006789c     libvcruntime:winapi_downlevel.obj
 0002:000048b8       ??_C@_0BA@FAKLIPIC@EventUnregister?$AA@ 100678b8     libvcruntime:winapi_downlevel.obj
 0002:000048d0       ??_C@_0BD@PKLHJPHD@EventWriteTransfer?$AA@ 100678d0     libvcruntime:winapi_downlevel.obj
 0002:000048f4       ??_C@_08KNHFBNJ@FlsAlloc?$AA@ 100678f4     libvcruntime:winapi_downlevel.obj
 0002:0000490c       ??_C@_07PEJMOBNF@FlsFree?$AA@ 1006790c     libvcruntime:winapi_downlevel.obj
 0002:00004924       ??_C@_0M@GDNOONDI@FlsGetValue?$AA@ 10067924     libvcruntime:winapi_downlevel.obj
 0002:00004940       ??_C@_0M@JCPCPOEF@FlsSetValue?$AA@ 10067940     libvcruntime:winapi_downlevel.obj
 0002:0000495c       ??_C@_0BM@HCFOFFN@InitializeCriticalSectionEx?$AA@ 1006795c     libvcruntime:winapi_downlevel.obj
 0002:00004b60       ??_C@_08EHJDFFNH@__based?$CI?$AA@ 10067b60     libvcruntime:undname.obj
 0002:00004b6c       ??_C@_07KOLFKCDI@__cdecl?$AA@ 10067b6c     libvcruntime:undname.obj
 0002:00004b78       ??_C@_08GHMPAG@__pascal?$AA@ 10067b78     libvcruntime:undname.obj
 0002:00004b84       ??_C@_09IFJBGAPI@__stdcall?$AA@ 10067b84     libvcruntime:undname.obj
 0002:00004b90       ??_C@_0L@NPHFGOKO@__thiscall?$AA@ 10067b90     libvcruntime:undname.obj
 0002:00004ba0       ??_C@_0L@JMKHOMEK@__fastcall?$AA@ 10067ba0     libvcruntime:undname.obj
 0002:00004bb0       ??_C@_0N@BCKKPABJ@__vectorcall?$AA@ 10067bb0     libvcruntime:undname.obj
 0002:00004bc0       ??_C@_09HIJEGCPM@__clrcall?$AA@ 10067bc0     libvcruntime:undname.obj
 0002:00004bcc       ??_C@_06GHPCKEAG@__eabi?$AA@ 10067bcc     libvcruntime:undname.obj
 0002:00004bd4       ??_C@_07JOMMBBKO@__ptr64?$AA@ 10067bd4     libvcruntime:undname.obj
 0002:00004be0       ??_C@_0L@PILCLIHE@__restrict?$AA@ 10067be0     libvcruntime:undname.obj
 0002:00004bf0       ??_C@_0M@GFIIJFMG@__unaligned?$AA@ 10067bf0     libvcruntime:undname.obj
 0002:00004c00       ??_C@_09DHDLOLLB@restrict?$CI?$AA@ 10067c00     libvcruntime:undname.obj
 0002:00004c0c       ??_C@_04NIHEBCM@?5new?$AA@ 10067c0c     libvcruntime:undname.obj
 0002:00004c14       ??_C@_07FPCDHGMM@?5delete?$AA@ 10067c14     libvcruntime:undname.obj
 0002:00004c20       ??_C@_01NEMOKFLO@?$DN?$AA@ 10067c20     libvcruntime:undname.obj
 0002:00004c24       ??_C@_02GPIOPFAK@?$DO?$DO?$AA@ 10067c24     libvcruntime:undname.obj
 0002:00004c28       ??_C@_02FODMEDOG@?$DM?$DM?$AA@ 10067c28     libvcruntime:undname.obj
 0002:00004c2c       ??_C@_01DCLJPIOD@?$CB?$AA@ 10067c2c     libvcruntime:undname.obj
 0002:00004c30       ??_C@_02EGOFBIJA@?$DN?$DN?$AA@ 10067c30     libvcruntime:undname.obj
 0002:00004c34       ??_C@_02FDNJECIE@?$CB?$DN?$AA@ 10067c34     libvcruntime:undname.obj
 0002:00004c38       ??_C@_02GPECMEKF@?$FL?$FN?$AA@ 10067c38     libvcruntime:undname.obj
 0002:00004c3c       ??_C@_08LHJFAFGD@operator?$AA@ 10067c3c     libvcruntime:undname.obj
 0002:00004c48       ??_C@_02HBOOOICD@?9?$DO?$AA@ 10067c48     libvcruntime:undname.obj
 0002:00004c4c       ??_C@_01NBENCBCI@?$CK?$AA@ 10067c4c     libvcruntime:undname.obj
 0002:00004c50       ??_C@_02ECNGHCIF@?$CL?$CL?$AA@ 10067c50     libvcruntime:undname.obj
 0002:00004c54       ??_C@_02BAABKJLB@?9?9?$AA@ 10067c54     libvcruntime:undname.obj
 0002:00004c58       ??_C@_01JOAMLHOP@?9?$AA@   10067c58     libvcruntime:undname.obj
 0002:00004c5c       ??_C@_01MIFGBAGJ@?$CL?$AA@ 10067c5c     libvcruntime:undname.obj
 0002:00004c60       ??_C@_01HNPIGOCE@?$CG?$AA@ 10067c60     libvcruntime:undname.obj
 0002:00004c64       ??_C@_03MNHNFDLC@?9?$DO?$CK?$AA@ 10067c64     libvcruntime:undname.obj
 0002:00004c68       ??_C@_01KMDKNFGN@?1?$AA@   10067c68     libvcruntime:undname.obj
 0002:00004c6c       ??_C@_01FGNFDNOH@?$CF?$AA@ 10067c6c     libvcruntime:undname.obj
 0002:00004c70       ??_C@_01MNNFJEPP@?$DM?$AA@ 10067c70     libvcruntime:undname.obj
 0002:00004c74       ??_C@_02EHCHHCKH@?$DM?$DN?$AA@ 10067c74     libvcruntime:undname.obj
 0002:00004c78       ??_C@_01PPODPGHN@?$DO?$AA@ 10067c78     libvcruntime:undname.obj
 0002:00004c7c       ??_C@_02EEKDKGMJ@?$DO?$DN?$AA@ 10067c7c     libvcruntime:undname.obj
 0002:00004c80       ??_C@_01IHBHIGKO@?0?$AA@   10067c80     libvcruntime:undname.obj
 0002:00004c84       ??_C@_02HCKGKOFO@?$CI?$CJ?$AA@ 10067c84     libvcruntime:undname.obj
 0002:00004c88       ??_C@_01PJKLJHI@?$HO?$AA@  10067c88     libvcruntime:undname.obj
 0002:00004c8c       ??_C@_01JKBOJNNK@?$FO?$AA@ 10067c8c     libvcruntime:undname.obj
 0002:00004c90       ??_C@_01DNKMNLPK@?$HM?$AA@ 10067c90     libvcruntime:undname.obj
 0002:00004c94       ??_C@_02PPKAJPJL@?$CG?$CG?$AA@ 10067c94     libvcruntime:undname.obj
 0002:00004c98       ??_C@_02NONPIBCD@?$HM?$HM?$AA@ 10067c98     libvcruntime:undname.obj
 0002:00004c9c       ??_C@_02FPIMKNGF@?$CK?$DN?$AA@ 10067c9c     libvcruntime:undname.obj
 0002:00004ca0       ??_C@_02FOEOMHFC@?$CL?$DN?$AA@ 10067ca0     libvcruntime:undname.obj
 0002:00004ca4       ??_C@_02FKMDLLOA@?9?$DN?$AA@ 10067ca4     libvcruntime:undname.obj
 0002:00004ca8       ??_C@_02FJEHGPIO@?1?$DN?$AA@ 10067ca8     libvcruntime:undname.obj
 0002:00004cac       ??_C@_02FENAOKFI@?$CF?$DN?$AA@ 10067cac     libvcruntime:undname.obj
 0002:00004cb0       ??_C@_03IKFCCPFF@?$DO?$DO?$DN?$AA@ 10067cb0     libvcruntime:undname.obj
 0002:00004cb4       ??_C@_03CDNPDDLA@?$DM?$DM?$DN?$AA@ 10067cb4     libvcruntime:undname.obj
 0002:00004cb8       ??_C@_02FGJGFEAB@?$CG?$DN?$AA@ 10067cb8     libvcruntime:undname.obj
 0002:00004cbc       ??_C@_02DHLNPPGH@?$HM?$DN?$AA@ 10067cbc     libvcruntime:undname.obj
 0002:00004cc0       ??_C@_02MHEGNOJ@?$FO?$DN?$AA@ 10067cc0     libvcruntime:undname.obj
 0002:00004cc4       ??_C@_09IFPLHPGF@?$GAvftable?8?$AA@ 10067cc4     libvcruntime:undname.obj
 0002:00004cd0       ??_C@_09BLBHBJP@?$GAvbtable?8?$AA@ 10067cd0     libvcruntime:undname.obj
 0002:00004cdc       ??_C@_07FEEIOKP@?$GAvcall?8?$AA@ 10067cdc     libvcruntime:undname.obj
 0002:00004ce8       ??_C@_08LLFFHHDJ@?$GAtypeof?8?$AA@ 10067ce8     libvcruntime:undname.obj
 0002:00004cf4       ??_C@_0BF@KDPPACIK@?$GAlocal?5static?5guard?8?$AA@ 10067cf4     libvcruntime:undname.obj
 0002:00004d10       ??_C@_08OBABFOLI@?$GAstring?8?$AA@ 10067d10     libvcruntime:undname.obj
 0002:00004d1c       ??_C@_0BD@JDLKDPAB@?$GAvbase?5destructor?8?$AA@ 10067d1c     libvcruntime:undname.obj
 0002:00004d34       ??_C@_0BN@DEGPLNFK@?$GAvector?5deleting?5destructor?8?$AA@ 10067d34     libvcruntime:undname.obj
 0002:00004d58       ??_C@_0BO@OBMKPJIG@?$GAdefault?5constructor?5closure?8?$AA@ 10067d58     libvcruntime:undname.obj
 0002:00004d7c       ??_C@_0BN@IMDCHIKM@?$GAscalar?5deleting?5destructor?8?$AA@ 10067d7c     libvcruntime:undname.obj
 0002:00004da0       ??_C@_0BO@PFGOCPJJ@?$GAvector?5constructor?5iterator?8?$AA@ 10067da0     libvcruntime:undname.obj
 0002:00004dc4       ??_C@_0BN@LFPFMEDL@?$GAvector?5destructor?5iterator?8?$AA@ 10067dc4     libvcruntime:undname.obj
 0002:00004de8       ??_C@_0CE@IKBNEHA@?$GAvector?5vbase?5constructor?5iterat@ 10067de8     libvcruntime:undname.obj
 0002:00004e14       ??_C@_0BL@NILFHHPC@?$GAvirtual?5displacement?5map?8?$AA@ 10067e14     libvcruntime:undname.obj
 0002:00004e34       ??_C@_0CB@JONCMFFK@?$GAeh?5vector?5constructor?5iterator?8@ 10067e34     libvcruntime:undname.obj
 0002:00004e5c       ??_C@_0CA@GCEOPDGL@?$GAeh?5vector?5destructor?5iterator?8?$AA@ 10067e5c     libvcruntime:undname.obj
 0002:00004e84       ??_C@_0CH@OOJPLCPH@?$GAeh?5vector?5vbase?5constructor?5ite@ 10067e84     libvcruntime:undname.obj
 0002:00004eb4       ??_C@_0BL@LLKPOHJI@?$GAcopy?5constructor?5closure?8?$AA@ 10067eb4     libvcruntime:undname.obj
 0002:00004ed4       ??_C@_0BA@KBCDOMBN@?$GAudt?5returning?8?$AA@ 10067ed4     libvcruntime:undname.obj
 0002:00004ee8       ??_C@_03KLGMFNMG@?$GAEH?$AA@ 10067ee8     libvcruntime:undname.obj
 0002:00004eec       ??_C@_05KHLCHHI@?$GARTTI?$AA@ 10067eec     libvcruntime:undname.obj
 0002:00004ef4       ??_C@_0BA@KKLDJDLB@?$GAlocal?5vftable?8?$AA@ 10067ef4     libvcruntime:undname.obj
 0002:00004f08       ??_C@_0CE@IIHCMGGL@?$GAlocal?5vftable?5constructor?5closu@ 10067f08     libvcruntime:undname.obj
 0002:00004f34       ??_C@_06FHBGPFGH@?5new?$FL?$FN?$AA@ 10067f34     libvcruntime:undname.obj
 0002:00004f3c       ??_C@_09LBNFPBCA@?5delete?$FL?$FN?$AA@ 10067f3c     libvcruntime:undname.obj
 0002:00004f48       ??_C@_0P@HJKNJFNN@?$GAomni?5callsig?8?$AA@ 10067f48     libvcruntime:undname.obj
 0002:00004f5c       ??_C@_0BL@CNOONJFP@?$GAplacement?5delete?5closure?8?$AA@ 10067f5c     libvcruntime:undname.obj
 0002:00004f7c       ??_C@_0BN@CKNJLHMB@?$GAplacement?5delete?$FL?$FN?5closure?8?$AA@ 10067f7c     libvcruntime:undname.obj
 0002:00004fa0       ??_C@_0CG@CFDHKGGD@?$GAmanaged?5vector?5constructor?5iter@ 10067fa0     libvcruntime:undname.obj
 0002:00004fd0       ??_C@_0CF@IMGKMJNO@?$GAmanaged?5vector?5destructor?5itera@ 10067fd0     libvcruntime:undname.obj
 0002:00004ffc       ??_C@_0CG@HLDDJMAG@?$GAeh?5vector?5copy?5constructor?5iter@ 10067ffc     libvcruntime:undname.obj
 0002:0000502c       ??_C@_0CM@FCBBDIGB@?$GAeh?5vector?5vbase?5copy?5constructo@ 1006802c     libvcruntime:undname.obj
 0002:00005060       ??_C@_0BL@CLIPGLGB@?$GAdynamic?5initializer?5for?5?8?$AA@ 10068060     libvcruntime:undname.obj
 0002:00005080       ??_C@_0CB@PDBIFEP@?$GAdynamic?5atexit?5destructor?5for?5?8@ 10068080     libvcruntime:undname.obj
 0002:000050a8       ??_C@_0CD@CGAJBKEJ@?$GAvector?5copy?5constructor?5iterato@ 100680a8     libvcruntime:undname.obj
 0002:000050d4       ??_C@_0CJ@GJELGAMM@?$GAvector?5vbase?5copy?5constructor?5i@ 100680d4     libvcruntime:undname.obj
 0002:00005108       ??_C@_0CL@FGIJHLCE@?$GAmanaged?5vector?5copy?5constructor@ 10068108     libvcruntime:undname.obj
 0002:0000513c       ??_C@_0BM@PMGGMLDN@?$GAlocal?5static?5thread?5guard?8?$AA@ 1006813c     libvcruntime:undname.obj
 0002:00005160       ??_C@_0N@BDNMDMOL@operator?5?$CC?$CC?5?$AA@ 10068160     libvcruntime:undname.obj
 0002:00005170       ??_C@_0BC@DAFEJGAK@?5Type?5Descriptor?8?$AA@ 10068170     libvcruntime:undname.obj
 0002:00005188       ??_C@_0BM@LDKODKLH@?5Base?5Class?5Descriptor?5at?5?$CI?$AA@ 10068188     libvcruntime:undname.obj
 0002:000051ac       ??_C@_0BD@LGICGFMM@?5Base?5Class?5Array?8?$AA@ 100681ac     libvcruntime:undname.obj
 0002:000051c4       ??_C@_0BN@MECKDCOJ@?5Class?5Hierarchy?5Descriptor?8?$AA@ 100681c4     libvcruntime:undname.obj
 0002:000051e8       ??_C@_0BK@CFCOFLF@?5Complete?5Object?5Locator?8?$AA@ 100681e8     libvcruntime:undname.obj
 0002:00005208       ??_C@_04HEJADOOB@CV?3?5?$AA@ 10068208     libvcruntime:undname.obj
 0002:00005210       ??_C@_02MOLJINC@?3?3?$AA@  10068210     libvcruntime:undname.obj
 0002:00005214       ??_C@_0BE@JAEOCHPE@template?9parameter?9?$AA@ 10068214     libvcruntime:undname.obj
 0002:0000522c       ??_C@_0O@KHGCOMHP@generic?9type?9?$AA@ 1006822c     libvcruntime:undname.obj
 0002:0000523c       ??_C@_01NLNLIGKH@?$GA?$AA@ 1006823c     libvcruntime:undname.obj
 0002:00005240       ??_C@_01GEODFPGF@?8?$AA@   10068240     libvcruntime:undname.obj
 0002:00005244       ??_C@_0BG@JNJLAMPM@?$GAanonymous?5namespace?8?$AA@ 10068244     libvcruntime:undname.obj
 0002:00005260       ??_C@_02OHHJMEON@?8?8?$AA@ 10068260     libvcruntime:undname.obj
 0002:00005264       ??_C@_0BN@IBLMMFAP@?$GAnon?9type?9template?9parameter?$AA@ 10068264     libvcruntime:undname.obj
 0002:00005288       ??_C@_04GKJNKENE@void?$AA@ 10068288     libvcruntime:undname.obj
 0002:00005290       ??_C@_0BE@EODMJLIF@?$GAtemplate?9parameter?$AA@ 10068290     libvcruntime:undname.obj
 0002:000052a8       ??_C@_03KHICJKCI@?4?4?4?$AA@ 100682a8     libvcruntime:undname.obj
 0002:000052ac       ??_C@_04HIBGFPH@NULL?$AA@  100682ac     libvcruntime:undname.obj
 0002:000052b4       ??_C@_02DPKJAMEF@?$CFd?$AA@ 100682b4     libvcruntime:undname.obj
 0002:000052b8       ??_C@_0BK@IHCCFNEL@?$GAtemplate?9type?9parameter?9?$AA@ 100682b8     libvcruntime:undname.obj
 0002:000052d8       ??_C@_0BK@OFCNNNKO@?$GAgeneric?9class?9parameter?9?$AA@ 100682d8     libvcruntime:undname.obj
 0002:000052f8       ??_C@_0BL@NGJBLFIL@?$GAgeneric?9method?9parameter?9?$AA@ 100682f8     libvcruntime:undname.obj
 0002:00005318       ??_C@_03OPGICMGF@?$HN?8?5?$AA@ 10068318     libvcruntime:undname.obj
 0002:0000531c       ??_C@_02IGFCGPIL@?$HN?8?$AA@ 1006831c     libvcruntime:undname.obj
 0002:00005320       ??_C@_01CLKCMJKC@?5?$AA@   10068320     libvcruntime:undname.obj
 0002:00005324       ??_C@_0N@CBHHHENL@?$GAvtordispex?$HL?$AA@ 10068324     libvcruntime:undname.obj
 0002:00005334       ??_C@_0L@GHPFDFH@?$GAvtordisp?$HL?$AA@ 10068334     libvcruntime:undname.obj
 0002:00005344       ??_C@_0L@HNGCOGAE@?$GAadjustor?$HL?$AA@ 10068344     libvcruntime:undname.obj
 0002:00005354       ??_C@_0CB@KJDOOODE@?$GAlocal?5static?5destructor?5helper?8@ 10068354     libvcruntime:undname.obj
 0002:0000537c       ??_C@_0DB@ILEFOCIJ@?$GAtemplate?5static?5data?5member?5con@ 1006837c     libvcruntime:undname.obj
 0002:000053b8       ??_C@_0DA@HGFJFBBE@?$GAtemplate?5static?5data?5member?5des@ 100683b8     libvcruntime:undname.obj
 0002:000053f4       ??_C@_07PGOEDBHP@static?5?$AA@ 100683f4     libvcruntime:undname.obj
 0002:00005400       ??_C@_08NIEOINHE@virtual?5?$AA@ 10068400     libvcruntime:undname.obj
 0002:0000540c       ??_C@_09LAPHOOG@private?3?5?$AA@ 1006840c     libvcruntime:undname.obj
 0002:00005418       ??_C@_0M@GAIFPFIP@protected?3?5?$AA@ 10068418     libvcruntime:undname.obj
 0002:00005428       ??_C@_08GPDDCMKI@public?3?5?$AA@ 10068428     libvcruntime:undname.obj
 0002:00005434       ??_C@_08KJLFOPNE@?$FLthunk?$FN?3?$AA@ 10068434     libvcruntime:undname.obj
 0002:00005440       ??_C@_0M@DHNBOJMP@extern?5?$CCC?$CC?5?$AA@ 10068440     libvcruntime:undname.obj
 0002:00005450       ??_C@_02KCKGHPCA@?$CJ?5?$AA@ 10068450     libvcruntime:undname.obj
 0002:00005454       ??_C@_05CIHEBHNO@char?5?$AA@ 10068454     libvcruntime:undname.obj
 0002:0000545c       ??_C@_06EHJMALKF@short?5?$AA@ 1006845c     libvcruntime:undname.obj
 0002:00005464       ??_C@_04LAHKHJMA@int?5?$AA@ 10068464     libvcruntime:undname.obj
 0002:0000546c       ??_C@_05CJIMAING@long?5?$AA@ 1006846c     libvcruntime:undname.obj
 0002:00005474       ??_C@_09EBBEKKIH@unsigned?5?$AA@ 10068474     libvcruntime:undname.obj
 0002:00005480       ??_C@_05BEFAKPML@void?5?$AA@ 10068480     libvcruntime:undname.obj
 0002:00005488       ??_C@_08PABEKFH@volatile?$AA@ 10068488     libvcruntime:undname.obj
 0002:00005494       ??_C@_0BA@LKIJLKPP@std?3?3nullptr_t?5?$AA@ 10068494     libvcruntime:undname.obj
 0002:000054a8       ??_C@_0P@GCOCNKDM@std?3?3nullptr_t?$AA@ 100684a8     libvcruntime:undname.obj
 0002:000054bc       ??_C@_0L@EGPHHEKN@?$DMellipsis?$DO?$AA@ 100684bc     libvcruntime:undname.obj
 0002:000054cc       ??_C@_04EENFHACM@?0?4?4?4?$AA@ 100684cc     libvcruntime:undname.obj
 0002:000054d4       ??_C@_0M@ELJOJFFH@?0?$DMellipsis?$DO?$AA@ 100684d4     libvcruntime:undname.obj
 0002:000054e4       ??_C@_07HDJPLPEK@?5throw?$CI?$AA@ 100684e4     libvcruntime:undname.obj
 0002:000054f0       ??_C@_03PBJBJNON@cpu?$AA@  100684f0     libvcruntime:undname.obj
 0002:000054f4       ??_C@_03DCBBJBAA@amp?$AA@  100684f4     libvcruntime:undname.obj
 0002:000054f8       ??_C@_02KEGNLNML@?0?5?$AA@ 100684f8     libvcruntime:undname.obj
 0002:000054fc       ??_C@_04ENMBGAPA@char?$AA@ 100684fc     libvcruntime:undname.obj
 0002:00005504       ??_C@_05BFKKPKCG@short?$AA@ 10068504     libvcruntime:undname.obj
 0002:0000550c       ??_C@_03JBIPMCLC@int?$AA@  1006850c     libvcruntime:undname.obj
 0002:00005510       ??_C@_04GOKPGOLB@long?$AA@ 10068510     libvcruntime:undname.obj
 0002:00005518       ??_C@_04DDKJGDCM@bool?$AA@ 10068518     libvcruntime:undname.obj
 0002:00005520       ??_C@_06EBGKOKIG@__int8?$AA@ 10068520     libvcruntime:undname.obj
 0002:00005528       ??_C@_07ICFHOGAF@__int16?$AA@ 10068528     libvcruntime:undname.obj
 0002:00005534       ??_C@_07OFLPPHGP@__int32?$AA@ 10068534     libvcruntime:undname.obj
 0002:00005540       ??_C@_07LFCOJCAC@__int64?$AA@ 10068540     libvcruntime:undname.obj
 0002:0000554c       ??_C@_08GAHOLHEO@__int128?$AA@ 1006854c     libvcruntime:undname.obj
 0002:00005558       ??_C@_09EEKGDCPH@?$DMunknown?$DO?$AA@ 10068558     libvcruntime:undname.obj
 0002:00005564       ??_C@_08HBIPOFJB@char16_t?$AA@ 10068564     libvcruntime:undname.obj
 0002:00005570       ??_C@_08IECNCBKG@char32_t?$AA@ 10068570     libvcruntime:undname.obj
 0002:0000557c       ??_C@_07CLGGIAMF@wchar_t?$AA@ 1006857c     libvcruntime:undname.obj
 0002:00005588       ??_C@_06GCICPBLB@__w64?5?$AA@ 10068588     libvcruntime:undname.obj
 0002:00005590       ??_C@_07NFANNNEC@UNKNOWN?$AA@ 10068590     libvcruntime:undname.obj
 0002:0000559c       ??_C@_07EDHNAJHC@signed?5?$AA@ 1006859c     libvcruntime:undname.obj
 0002:000055a8       ??_C@_05BNCCCJPP@const?$AA@ 100685a8     libvcruntime:undname.obj
 0002:000055b0       ??_C@_09EFNPDFFP@?5volatile?$AA@ 100685b0     libvcruntime:undname.obj
 0002:000055bc       ??_C@_0P@GCIFDJCJ@?$GAunknown?5ecsu?8?$AA@ 100685bc     libvcruntime:undname.obj
 0002:000055d0       ??_C@_06MOJHIBMG@union?5?$AA@ 100685d0     libvcruntime:undname.obj
 0002:000055d8       ??_C@_07DIBCDNGL@struct?5?$AA@ 100685d8     libvcruntime:undname.obj
 0002:000055e4       ??_C@_06LJBABKPM@class?5?$AA@ 100685e4     libvcruntime:undname.obj
 0002:000055ec       ??_C@_08KOFANOFK@coclass?5?$AA@ 100685ec     libvcruntime:undname.obj
 0002:000055f8       ??_C@_0N@DLIEFKNA@cointerface?5?$AA@ 100685f8     libvcruntime:undname.obj
 0002:00005608       ??_C@_05LJGMCFOG@enum?5?$AA@ 10068608     libvcruntime:undname.obj
 0002:00005610       ??_C@_09GAIEOBLP@volatile?5?$AA@ 10068610     libvcruntime:undname.obj
 0002:0000561c       ??_C@_06LIJLOJAG@const?5?$AA@ 1006861c     libvcruntime:undname.obj
 0002:00005624       ??_C@_02KJPKDIBN@?$CG?5?$AA@ 10068624     libvcruntime:undname.obj
 0002:00005628       ??_C@_03PCKGMOPB@?$CG?$CG?5?$AA@ 10068628     libvcruntime:undname.obj
 0002:0000562c       ??_C@_0M@EALIELKG@cli?3?3array?$DM?$AA@ 1006862c     libvcruntime:undname.obj
 0002:0000563c       ??_C@_0O@GKABPPIF@cli?3?3pin_ptr?$DM?$AA@ 1006863c     libvcruntime:undname.obj
 0002:0000564c       ??_C@_02GOGNNPBN@?$CJ?$FL?$AA@ 1006864c     libvcruntime:undname.obj
 0002:00005650       ??_C@_06EEGAIFAK@?$HLflat?$HN?$AA@ 10068650     libvcruntime:undname.obj
 0002:00005658       ??_C@_05JIBOFOHK@?$HLfor?5?$AA@ 10068658     libvcruntime:undname.obj
 0002:00005660       ??_C@_02MDINNEEG@s?5?$AA@  10068660     libvcruntime:undname.obj
 0002:00005668       ??_7DNameNode@@6B@         10068668     libvcruntime:undname.obj
 0002:0000567c       ??_7charNode@@6B@          1006867c     libvcruntime:undname.obj
 0002:00005690       ??_7pcharNode@@6B@         10068690     libvcruntime:undname.obj
 0002:000056a4       ??_7pDNameNode@@6B@        100686a4     libvcruntime:undname.obj
 0002:000056b8       ??_7DNameStatusNode@@6B@   100686b8     libvcruntime:undname.obj
 0002:000056cc       ??_7pairNode@@6B@          100686cc     libvcruntime:undname.obj
 0002:000056dc       ??_C@_04OKOHEJBO@?5?$DP?$DP?5?$AA@ 100686dc     libvcruntime:undname.obj
 0002:000056e8       _standard_lookup_table     100686e8     libucrt:output.obj
 0002:00005758       _format_validation_lookup_table 10068758     libucrt:output.obj
 0002:000057c8       ??_C@_1O@CEDCILHN@?$AA?$CI?$AAn?$AAu?$AAl?$AAl?$AA?$CJ?$AA?$AA@ 100687c8     libucrt:output.obj
 0002:000057d8       ??_C@_06OJHGLDPL@?$CInull?$CJ?$AA@ 100687d8     libucrt:output.obj
 0002:000057e0       __OP_FMODjmptab            100687e0     libucrt:87fmod.obj
 0002:00005840       ??_C@_0CF@GOGNBNAK@Microsoft?5Visual?5C?$CL?$CL?5Runtime?5Lib@ 10068840     libucrt:assert.obj
 0002:00005870       ??_C@_1EK@MBDPDCGA@?$AAM?$AAi?$AAc?$AAr?$AAo?$AAs?$AAo?$AAf?$AAt?$AA?5?$AAV?$AAi?$AAs?$AAu?$AAa?$AAl?$AA?5?$AAC?$AA?$CL?$AA?$CL?$AA?5?$AAR?$AAu?$AAn?$AAt?$AAi?$AAm?$AAe?$AA?5?$AAL?$AAi?$AAb@ 10068870     libucrt:assert.obj
 0002:000058c8       ??_C@_0CK@CFPGFGGO@Assertion?5failed?3?5?$CFTs?0?5file?5?$CFTs?0@ 100688c8     libucrt:assert.obj
 0002:00005900       ??_C@_1FE@LHBLIKM@?$AAA?$AAs?$AAs?$AAe?$AAr?$AAt?$AAi?$AAo?$AAn?$AA?5?$AAf?$AAa?$AAi?$AAl?$AAe?$AAd?$AA?3?$AA?5?$AA?$CF?$AAT?$AAs?$AA?0?$AA?5?$AAf?$AAi?$AAl?$AAe?$AA?5?$AA?$CF?$AAT?$AAs?$AA?0@ 10068900     libucrt:assert.obj
 0002:00005964       ??_C@_0BC@LAIDCHCH@Assertion?5failed?$CB?$AA@ 10068964     libucrt:assert.obj
 0002:0000597c       ??_C@_1CE@OJBNHDMO@?$AAA?$AAs?$AAs?$AAe?$AAr?$AAt?$AAi?$AAo?$AAn?$AA?5?$AAf?$AAa?$AAi?$AAl?$AAe?$AAd?$AA?$CB?$AA?$AA@ 1006897c     libucrt:assert.obj
 0002:000059a8       ??_C@_09KLGCKDOD@Program?3?5?$AA@ 100689a8     libucrt:assert.obj
 0002:000059b4       ??_C@_1BE@PHKBBGE@?$AAP?$AAr?$AAo?$AAg?$AAr?$AAa?$AAm?$AA?3?$AA?5?$AA?$AA@ 100689b4     libucrt:assert.obj
 0002:000059cc       ??_C@_06IGPBOHMJ@File?3?5?$AA@ 100689cc     libucrt:assert.obj
 0002:000059d4       ??_C@_1O@HEMHKNDC@?$AAF?$AAi?$AAl?$AAe?$AA?3?$AA?5?$AA?$AA@ 100689d4     libucrt:assert.obj
 0002:000059e4       ??_C@_06FIEBOLOH@Line?3?5?$AA@ 100689e4     libucrt:assert.obj
 0002:000059ec       ??_C@_1O@KCAFKHJE@?$AAL?$AAi?$AAn?$AAe?$AA?3?$AA?5?$AA?$AA@ 100689ec     libucrt:assert.obj
 0002:000059fc       ??_C@_0N@MEECIJGN@Expression?3?5?$AA@ 100689fc     libucrt:assert.obj
 0002:00005a0c       ??_C@_1BK@PEDCIPMA@?$AAE?$AAx?$AAp?$AAr?$AAe?$AAs?$AAs?$AAi?$AAo?$AAn?$AA?3?$AA?5?$AA?$AA@ 10068a0c     libucrt:assert.obj
 0002:00005a30       ??_C@_0HA@OJHAGA@For?5information?5on?5how?5your?5prog@ 10068a30     libucrt:assert.obj
 0002:00005ab8       ??_C@_1OA@EGMLFBHJ@?$AAF?$AAo?$AAr?$AA?5?$AAi?$AAn?$AAf?$AAo?$AAr?$AAm?$AAa?$AAt?$AAi?$AAo?$AAn?$AA?5?$AAo?$AAn?$AA?5?$AAh?$AAo?$AAw?$AA?5?$AAy?$AAo?$AAu?$AAr?$AA?5?$AAp?$AAr?$AAo?$AAg@ 10068ab8     libucrt:assert.obj
 0002:00005bc4       ??_C@_0DN@EBBNMLME@?$CIPress?5Retry?5to?5debug?5the?5applic@ 10068bc4     libucrt:assert.obj
 0002:00005c10       ??_C@_1HK@POCJMFGK@?$AA?$CI?$AAP?$AAr?$AAe?$AAs?$AAs?$AA?5?$AAR?$AAe?$AAt?$AAr?$AAy?$AA?5?$AAt?$AAo?$AA?5?$AAd?$AAe?$AAb?$AAu?$AAg?$AA?5?$AAt?$AAh?$AAe?$AA?5?$AAa?$AAp?$AAp?$AAl?$AAi?$AAc@ 10068c10     libucrt:assert.obj
 0002:00005ca4       ??_C@_17LGKOMLJ@?$AA?4?$AA?4?$AA?4?$AA?$AA@ 10068ca4     libucrt:assert.obj
 0002:00005cb0       ??_C@_01EEMJAFIK@?6?$AA@   10068cb0     libucrt:assert.obj
 0002:00005cb4       ??_C@_13LBAGMAIH@?$AA?6?$AA?$AA@ 10068cb4     libucrt:assert.obj
 0002:00005cb8       ??_C@_02PHMGELLB@?6?6?$AA@ 10068cb8     libucrt:assert.obj
 0002:00005cbc       ??_C@_15IABLJNFO@?$AA?6?$AA?6?$AA?$AA@ 10068cbc     libucrt:assert.obj
 0002:00005cc4       ??_C@_0BH@DNAGHKFM@?$DMprogram?5name?5unknown?$DO?$AA@ 10068cc4     libucrt:assert.obj
 0002:00005ce0       ??_C@_1CO@EAEJAADC@?$AA?$DM?$AAp?$AAr?$AAo?$AAg?$AAr?$AAa?$AAm?$AA?5?$AAn?$AAa?$AAm?$AAe?$AA?5?$AAu?$AAn?$AAk?$AAn?$AAo?$AAw?$AAn?$AA?$DO?$AA?$AA@ 10068ce0     libucrt:assert.obj
 0002:00005d18       _RtlNtPathSeperatorString  10068d18     libucrt:exit.obj
 0002:00005d24       ??_C@_13FPGAJAPJ@?$AA?2?$AA?$AA@ 10068d24     libucrt:exit.obj
 0002:00005d28       _RtlDosPathSeperatorsString 10068d28     libucrt:exit.obj
 0002:00005d34       ??_C@_15MNCACJLI@?$AA?2?$AA?1?$AA?$AA@ 10068d34     libucrt:exit.obj
 0002:00005d3c       _RtlAlternateDosPathSeperatorString 10068d3c     libucrt:exit.obj
 0002:00005d48       ??_C@_13CGOKJPIL@?$AA?1?$AA?$AA@ 10068d48     libucrt:exit.obj
 0002:00005d4c       ??_C@_1BI@BGOHAHKC@?$AAm?$AAs?$AAc?$AAo?$AAr?$AAe?$AAe?$AA?4?$AAd?$AAl?$AAl?$AA?$AA@ 10068d4c     libucrt:exit.obj
 0002:00005d68       ??_C@_0P@MIGLKIOC@CorExitProcess?$AA@ 10068d68     libucrt:exit.obj
 0002:00005e98       ??_C@_03KHJOGHMM@exp?$AA@  10068e98     libucrt:fpexcept.obj
 0002:00005e9c       ??_C@_03JGHBODFD@pow?$AA@  10068e9c     libucrt:fpexcept.obj
 0002:00005ea0       ??_C@_03MGHMBJCF@log?$AA@  10068ea0     libucrt:fpexcept.obj
 0002:00005ea4       ??_C@_05HGHHAHAP@log10?$AA@ 10068ea4     libucrt:fpexcept.obj
 0002:00005eac       ??_C@_04COOMCNPB@sinh?$AA@ 10068eac     libucrt:fpexcept.obj
 0002:00005eb4       ??_C@_04HPJJNFIM@cosh?$AA@ 10068eb4     libucrt:fpexcept.obj
 0002:00005ebc       ??_C@_04FJHINJAO@tanh?$AA@ 10068ebc     libucrt:fpexcept.obj
 0002:00005ec4       ??_C@_04FIHNOPOL@asin?$AA@ 10068ec4     libucrt:fpexcept.obj
 0002:00005ecc       ??_C@_04PDIFKINK@acos?$AA@ 10068ecc     libucrt:fpexcept.obj
 0002:00005ed4       ??_C@_04MLLJIGOK@atan?$AA@ 10068ed4     libucrt:fpexcept.obj
 0002:00005edc       ??_C@_05KNGEOGJB@atan2?$AA@ 10068edc     libucrt:fpexcept.obj
 0002:00005ee4       ??_C@_04EIAKFFMI@sqrt?$AA@ 10068ee4     libucrt:fpexcept.obj
 0002:00005eec       ??_C@_03BLEJJJBH@sin?$AA@  10068eec     libucrt:fpexcept.obj
 0002:00005ef0       ??_C@_03LALBNOCG@cos?$AA@  10068ef0     libucrt:fpexcept.obj
 0002:00005ef4       ??_C@_03IIINPABG@tan?$AA@  10068ef4     libucrt:fpexcept.obj
 0002:00005ef8       ??_C@_04GFPJNGEK@ceil?$AA@ 10068ef8     libucrt:fpexcept.obj
 0002:00005f00       ??_C@_05PBJFFIGL@floor?$AA@ 10068f00     libucrt:fpexcept.obj
 0002:00005f08       ??_C@_04ODHECPBC@fabs?$AA@ 10068f08     libucrt:fpexcept.obj
 0002:00005f10       ??_C@_04EHEDPDJG@modf?$AA@ 10068f10     libucrt:fpexcept.obj
 0002:00005f18       ??_C@_05CEJMAHNP@ldexp?$AA@ 10068f18     libucrt:fpexcept.obj
 0002:00005f20       ??_C@_05KBKMEMPO@_cabs?$AA@ 10068f20     libucrt:fpexcept.obj
 0002:00005f28       ??_C@_06MEIMCGCF@_hypot?$AA@ 10068f28     libucrt:fpexcept.obj
 0002:00005f30       ??_C@_04KEPJIHGP@fmod?$AA@ 10068f30     libucrt:fpexcept.obj
 0002:00005f38       ??_C@_05GKKHEGJL@frexp?$AA@ 10068f38     libucrt:fpexcept.obj
 0002:00005f40       ??_C@_03MJLDFKDL@_y0?$AA@  10068f40     libucrt:fpexcept.obj
 0002:00005f44       ??_C@_03NAKIGLHK@_y1?$AA@  10068f44     libucrt:fpexcept.obj
 0002:00005f48       ??_C@_03ONILCKOB@_yn?$AA@  10068f48     libucrt:fpexcept.obj
 0002:00005f4c       ??_C@_05JGDBENOH@_logb?$AA@ 10068f4c     libucrt:fpexcept.obj
 0002:00005f54       ??_C@_0L@KDOEJCKC@_nextafter?$AA@ 10068f54     libucrt:fpexcept.obj
 0002:00005f68       ___acrt_exception_action_table 10068f68     libucrt:exception_filter.obj
 0002:00006014       ___acrt_signal_action_table_count 10069014     libucrt:exception_filter.obj
 0002:00006018       ___acrt_signal_action_table_size 10069018     libucrt:exception_filter.obj
 0002:0000601c       ___acrt_signal_action_first_fpe_index 1006901c     libucrt:exception_filter.obj
 0002:00006020       ___acrt_signal_action_fpe_count 10069020     libucrt:exception_filter.obj
 0002:000060b8       ??_C@_1BG@HHIFPOEK@?$AAm?$AAs?$AAv?$AAc?$AAr?$AAt?$AA?4?$AAd?$AAl?$AAl?$AA?$AA@ 100690b8     libucrt:free_base.obj
 0002:000060d4       __Fenv0                    100690d4     libucrt:atox.obj
 0002:000062e8       ??_C@_1EA@JGEFHKEI@?$AAa?$AAp?$AAi?$AA?9?$AAm?$AAs?$AA?9?$AAw?$AAi?$AAn?$AA?9?$AAc?$AAo?$AAr?$AAe?$AA?9?$AAd?$AAa?$AAt?$AAe?$AAt?$AAi?$AAm?$AAe?$AA?9?$AAl?$AA1?$AA?9?$AA1?$AA?9?$AA1?$AA?$AA@ 100692e8     libucrt:winapi_thunks.obj
 0002:00006338       ??_C@_1EI@MPIAOHOC@?$AAa?$AAp?$AAi?$AA?9?$AAm?$AAs?$AA?9?$AAw?$AAi?$AAn?$AA?9?$AAc?$AAo?$AAr?$AAe?$AA?9?$AAl?$AAo?$AAc?$AAa?$AAl?$AAi?$AAz?$AAa?$AAt?$AAi?$AAo?$AAn?$AA?9?$AAl?$AA1?$AA?9@ 10069338     libucrt:winapi_thunks.obj
 0002:00006390       ??_C@_1FK@FPHCKFIE@?$AAa?$AAp?$AAi?$AA?9?$AAm?$AAs?$AA?9?$AAw?$AAi?$AAn?$AA?9?$AAc?$AAo?$AAr?$AAe?$AA?9?$AAl?$AAo?$AAc?$AAa?$AAl?$AAi?$AAz?$AAa?$AAt?$AAi?$AAo?$AAn?$AA?9?$AAo?$AAb?$AAs@ 10069390     libucrt:winapi_thunks.obj
 0002:00006400       ??_C@_1EM@DILCGIIO@?$AAa?$AAp?$AAi?$AA?9?$AAm?$AAs?$AA?9?$AAw?$AAi?$AAn?$AA?9?$AAc?$AAo?$AAr?$AAe?$AA?9?$AAp?$AAr?$AAo?$AAc?$AAe?$AAs?$AAs?$AAt?$AAh?$AAr?$AAe?$AAa?$AAd?$AAs?$AA?9?$AAl@ 10069400     libucrt:winapi_thunks.obj
 0002:0000645c       ??_C@_1DM@LNCGDDPN@?$AAa?$AAp?$AAi?$AA?9?$AAm?$AAs?$AA?9?$AAw?$AAi?$AAn?$AA?9?$AAc?$AAo?$AAr?$AAe?$AA?9?$AAs?$AAt?$AAr?$AAi?$AAn?$AAg?$AA?9?$AAl?$AA1?$AA?9?$AA1?$AA?9?$AA0?$AA?$AA@ 1006945c     libucrt:winapi_thunks.obj
 0002:000064a4       ??_C@_1DO@FPAPJEMD@?$AAa?$AAp?$AAi?$AA?9?$AAm?$AAs?$AA?9?$AAw?$AAi?$AAn?$AA?9?$AAc?$AAo?$AAr?$AAe?$AA?9?$AAs?$AAy?$AAs?$AAi?$AAn?$AAf?$AAo?$AA?9?$AAl?$AA1?$AA?9?$AA2?$AA?9?$AA1?$AA?$AA@ 100694a4     libucrt:winapi_thunks.obj
 0002:000064f0       ??_C@_1DK@NDHNAHIO@?$AAa?$AAp?$AAi?$AA?9?$AAm?$AAs?$AA?9?$AAw?$AAi?$AAn?$AA?9?$AAc?$AAo?$AAr?$AAe?$AA?9?$AAw?$AAi?$AAn?$AAr?$AAt?$AA?9?$AAl?$AA1?$AA?9?$AA1?$AA?9?$AA0?$AA?$AA@ 100694f0     libucrt:winapi_thunks.obj
 0002:00006538       ??_C@_1DM@KGHDGBCM@?$AAa?$AAp?$AAi?$AA?9?$AAm?$AAs?$AA?9?$AAw?$AAi?$AAn?$AA?9?$AAc?$AAo?$AAr?$AAe?$AA?9?$AAx?$AAs?$AAt?$AAa?$AAt?$AAe?$AA?9?$AAl?$AA2?$AA?9?$AA1?$AA?9?$AA0?$AA?$AA@ 10069538     libucrt:winapi_thunks.obj
 0002:00006580       ??_C@_1EO@IJIOEFOH@?$AAa?$AAp?$AAi?$AA?9?$AAm?$AAs?$AA?9?$AAw?$AAi?$AAn?$AA?9?$AAr?$AAt?$AAc?$AAo?$AAr?$AAe?$AA?9?$AAn?$AAt?$AAu?$AAs?$AAe?$AAr?$AA?9?$AAw?$AAi?$AAn?$AAd?$AAo?$AAw?$AA?9@ 10069580     libucrt:winapi_thunks.obj
 0002:000065e0       ??_C@_1FG@HHGEKANL@?$AAa?$AAp?$AAi?$AA?9?$AAm?$AAs?$AA?9?$AAw?$AAi?$AAn?$AA?9?$AAs?$AAe?$AAc?$AAu?$AAr?$AAi?$AAt?$AAy?$AA?9?$AAs?$AAy?$AAs?$AAt?$AAe?$AAm?$AAf?$AAu?$AAn?$AAc?$AAt?$AAi@ 100695e0     libucrt:winapi_thunks.obj
 0002:00006648       ??_C@_1EG@DBIOJECG@?$AAe?$AAx?$AAt?$AA?9?$AAm?$AAs?$AA?9?$AAw?$AAi?$AAn?$AA?9?$AAn?$AAt?$AAu?$AAs?$AAe?$AAr?$AA?9?$AAd?$AAi?$AAa?$AAl?$AAo?$AAg?$AAb?$AAo?$AAx?$AA?9?$AAl?$AA1?$AA?9?$AA1@ 10069648     libucrt:winapi_thunks.obj
 0002:000066a0       ??_C@_1EO@FIHMJCLF@?$AAe?$AAx?$AAt?$AA?9?$AAm?$AAs?$AA?9?$AAw?$AAi?$AAn?$AA?9?$AAn?$AAt?$AAu?$AAs?$AAe?$AAr?$AA?9?$AAw?$AAi?$AAn?$AAd?$AAo?$AAw?$AAs?$AAt?$AAa?$AAt?$AAi?$AAo?$AAn?$AA?9@ 100696a0     libucrt:winapi_thunks.obj
 0002:00006700       ??_C@_1M@OAIMIKLP@?$AAn?$AAt?$AAd?$AAl?$AAl?$AA?$AA@ 10069700     libucrt:winapi_thunks.obj
 0002:00006710       ??_C@_1EG@DPGNFKGC@?$AAa?$AAp?$AAi?$AA?9?$AAm?$AAs?$AA?9?$AAw?$AAi?$AAn?$AA?9?$AAa?$AAp?$AAp?$AAm?$AAo?$AAd?$AAe?$AAl?$AA?9?$AAr?$AAu?$AAn?$AAt?$AAi?$AAm?$AAe?$AA?9?$AAl?$AA1?$AA?9?$AA1@ 10069710     libucrt:winapi_thunks.obj
 0002:00006764       ??_C@_1O@BCCLBEOE@?$AAu?$AAs?$AAe?$AAr?$AA3?$AA2?$AA?$AA@ 10069764     libucrt:winapi_thunks.obj
 0002:00006774       ??_C@_1BA@PFFKHIOG@?$AAa?$AAp?$AAi?$AA?9?$AAm?$AAs?$AA?9?$AA?$AA@ 10069774     libucrt:winapi_thunks.obj
 0002:00006788       ??_C@_1BA@IAIFMGEF@?$AAe?$AAx?$AAt?$AA?9?$AAm?$AAs?$AA?9?$AA?$AA@ 10069788     libucrt:winapi_thunks.obj
 0002:000067a0       ??_C@_0BA@FHFNEAED@AreFileApisANSI?$AA@ 100697a0     libucrt:winapi_thunks.obj
 0002:000067c0       ??_C@_0BA@IHGNDAEB@CompareStringEx?$AA@ 100697c0     libucrt:winapi_thunks.obj
 0002:000067e0       ??_C@_0BE@LJANKFHF@EnumSystemLocalesEx?$AA@ 100697e0     libucrt:winapi_thunks.obj
 0002:00006834       ??_C@_0BA@HNOPNCHB@GetActiveWindow?$AA@ 10069834     libucrt:winapi_thunks.obj
 0002:00006854       ??_C@_0BA@EPCJIIPD@GetDateFormatEx?$AA@ 10069854     libucrt:winapi_thunks.obj
 0002:00006874       ??_C@_0BJ@DIBIJBHA@GetEnabledXStateFeatures?$AA@ 10069874     libucrt:winapi_thunks.obj
 0002:000068a0       ??_C@_0BD@HHGDFDBJ@GetLastActivePopup?$AA@ 100698a0     libucrt:winapi_thunks.obj
 0002:000068c4       ??_C@_0BA@ONOKGCMP@GetLocaleInfoEx?$AA@ 100698c4     libucrt:winapi_thunks.obj
 0002:000068e4       ??_C@_0BI@DFKBFLJE@GetProcessWindowStation?$AA@ 100698e4     libucrt:winapi_thunks.obj
 0002:00006904       ??_C@_0BP@FPNJPEJC@GetSystemTimePreciseAsFileTime?$AA@ 10069904     libucrt:winapi_thunks.obj
 0002:00006938       ??_C@_0BA@CIJJKCJJ@GetTimeFormatEx?$AA@ 10069938     libucrt:winapi_thunks.obj
 0002:00006958       ??_C@_0BJ@PBCCBIPI@GetUserDefaultLocaleName?$AA@ 10069958     libucrt:winapi_thunks.obj
 0002:00006984       ??_C@_0BK@DEKFELLI@GetUserObjectInformationW?$AA@ 10069984     libucrt:winapi_thunks.obj
 0002:000069b0       ??_C@_0BG@IKLDMBLM@GetXStateFeaturesMask?$AA@ 100699b0     libucrt:winapi_thunks.obj
 0002:000069e4       ??_C@_0BC@CELBKLLA@IsValidLocaleName?$AA@ 100699e4     libucrt:winapi_thunks.obj
 0002:00006a08       ??_C@_0O@KKBNKAPF@LCMapStringEx?$AA@ 10069a08     libucrt:winapi_thunks.obj
 0002:00006a24       ??_C@_0BB@CDHDDLLP@LCIDToLocaleName?$AA@ 10069a24     libucrt:winapi_thunks.obj
 0002:00006a44       ??_C@_0BB@HBDEELFH@LocaleNameToLCID?$AA@ 10069a44     libucrt:winapi_thunks.obj
 0002:00006a64       ??_C@_0BE@KINNKFDA@LocateXStateFeature?$AA@ 10069a64     libucrt:winapi_thunks.obj
 0002:00006a88       ??_C@_0M@CHKKJDAI@MessageBoxA?$AA@ 10069a88     libucrt:winapi_thunks.obj
 0002:00006aa4       ??_C@_0M@DLDCCGNP@MessageBoxW?$AA@ 10069aa4     libucrt:winapi_thunks.obj
 0002:00006ab8       ??_C@_0N@PPOMPGGK@RoInitialize?$AA@ 10069ab8     libucrt:winapi_thunks.obj
 0002:00006acc       ??_C@_0P@LLFHBIJD@RoUninitialize?$AA@ 10069acc     libucrt:winapi_thunks.obj
 0002:00006ae4       ??_C@_0CF@OJOFEIGO@AppPolicyGetProcessTerminationMe@ 10069ae4     libucrt:winapi_thunks.obj
 0002:00006b14       ??_C@_0CF@NNDFDCOC@AppPolicyGetThreadInitialization@ 10069b14     libucrt:winapi_thunks.obj
 0002:00006b44       ??_C@_0CE@OICFMIKE@AppPolicyGetShowDeveloperDiagnos@ 10069b44     libucrt:winapi_thunks.obj
 0002:00006b74       ??_C@_0BL@ODDJNEDA@AppPolicyGetWindowingModel?$AA@ 10069b74     libucrt:winapi_thunks.obj
 0002:00006ba0       ??_C@_0BI@BKLFFAPO@SetThreadStackGuarantee?$AA@ 10069ba0     libucrt:winapi_thunks.obj
 0002:00006bc8       ??_C@_0BC@JEAENNKH@SystemFunction036?$AA@ 10069bc8     libucrt:winapi_thunks.obj
 0002:00006be0       ??_C@_03OEIAHPBN@INF?$AA@  10069be0     libucrt:cvt.obj
 0002:00006be4       ??_C@_03OJHLLCGB@inf?$AA@  10069be4     libucrt:cvt.obj
 0002:00006be8       ??_C@_03LKNCIKJB@NAN?$AA@  10069be8     libucrt:cvt.obj
 0002:00006bec       ??_C@_03LHCJEHON@nan?$AA@  10069bec     libucrt:cvt.obj
 0002:00006bf0       ??_C@_09OFJJIMPC@NAN?$CISNAN?$CJ?$AA@ 10069bf0     libucrt:cvt.obj
 0002:00006bfc       ??_C@_09IPFBKMDL@nan?$CIsnan?$CJ?$AA@ 10069bfc     libucrt:cvt.obj
 0002:00006c08       ??_C@_08IKHNHAJ@NAN?$CIIND?$CJ?$AA@ 10069c08     libucrt:cvt.obj
 0002:00006c14       ??_C@_08OFCDMILK@nan?$CIind?$CJ?$AA@ 10069c14     libucrt:cvt.obj
 0002:00006c20       ??_C@_05KLBDPFGC@e?$CL000?$AA@ 10069c20     libucrt:cvt.obj
 0002:00006c28       ___lc_category             10069c28     libucrt:wsetlocale.obj
 0002:00006c80       ??_C@_1O@GIFLHMA@?$AAL?$AAC?$AA_?$AAA?$AAL?$AAL?$AA?$AA@ 10069c80     libucrt:wsetlocale.obj
 0002:00006c90       ??_C@_1BG@PPOMIBNJ@?$AAL?$AAC?$AA_?$AAC?$AAO?$AAL?$AAL?$AAA?$AAT?$AAE?$AA?$AA@ 10069c90     libucrt:wsetlocale.obj
 0002:00006cac       ??_C@_1BC@FFJGAPJM@?$AAL?$AAC?$AA_?$AAC?$AAT?$AAY?$AAP?$AAE?$AA?$AA@ 10069cac     libucrt:wsetlocale.obj
 0002:00006cc4       ??_C@_1BI@PCKFNJFB@?$AAL?$AAC?$AA_?$AAM?$AAO?$AAN?$AAE?$AAT?$AAA?$AAR?$AAY?$AA?$AA@ 10069cc4     libucrt:wsetlocale.obj
 0002:00006ce0       ??_C@_1BG@ENIEDKID@?$AAL?$AAC?$AA_?$AAN?$AAU?$AAM?$AAE?$AAR?$AAI?$AAC?$AA?$AA@ 10069ce0     libucrt:wsetlocale.obj
 0002:00006cfc       ??_C@_1BA@HAAOMIIG@?$AAL?$AAC?$AA_?$AAT?$AAI?$AAM?$AAE?$AA?$AA@ 10069cfc     libucrt:wsetlocale.obj
 0002:00006da8       ??_C@_15NBPDDFIP@?$AA?$DN?$AA?$DL?$AA?$AA@ 10069da8     libucrt:wsetlocale.obj
 0002:00006db0       ??_C@_13PJJBFPED@?$AA?$DL?$AA?$AA@ 10069db0     libucrt:wsetlocale.obj
 0002:00006db4       ??_C@_13NMPKAAJP@?$AA?$DN?$AA?$AA@ 10069db4     libucrt:wsetlocale.obj
 0002:00006db8       ??_C@_13FHBKNHDA@?$AAC?$AA?$AA@ 10069db8     libucrt:wsetlocale.obj
 0002:00006dbc       ??_C@_17MBJJLFDM@?$AA_?$AA?4?$AA?0?$AA?$AA@ 10069dbc     libucrt:wsetlocale.obj
 0002:00006dc8       ??_C@_13ENNFDPBH@?$AA_?$AA?$AA@ 10069dc8     libucrt:wsetlocale.obj
 0002:00006dcc       ??_C@_13JOFGPIOO@?$AA?4?$AA?$AA@ 10069dcc     libucrt:wsetlocale.obj
 0002:00006dd0       ??_C@_03KOEHGMDN@Sun?$AA@  10069dd0     libucrt:nlsdata.obj
 0002:00006dd4       ??_C@_03PDAGKDH@Mon?$AA@   10069dd4     libucrt:nlsdata.obj
 0002:00006dd8       ??_C@_03NAGEINEP@Tue?$AA@  10069dd8     libucrt:nlsdata.obj
 0002:00006ddc       ??_C@_03MHOMLAJA@Wed?$AA@  10069ddc     libucrt:nlsdata.obj
 0002:00006de0       ??_C@_03IOFIKPDN@Thu?$AA@  10069de0     libucrt:nlsdata.obj
 0002:00006de4       ??_C@_03IDIOELNC@Fri?$AA@  10069de4     libucrt:nlsdata.obj
 0002:00006de8       ??_C@_03FEFJNEK@Sat?$AA@   10069de8     libucrt:nlsdata.obj
 0002:00006dec       ??_C@_06OOPIFAJ@Sunday?$AA@ 10069dec     libucrt:nlsdata.obj
 0002:00006df4       ??_C@_06JLEDEDGH@Monday?$AA@ 10069df4     libucrt:nlsdata.obj
 0002:00006dfc       ??_C@_07BAAGCFCM@Tuesday?$AA@ 10069dfc     libucrt:nlsdata.obj
 0002:00006e08       ??_C@_09DLIGFAKA@Wednesday?$AA@ 10069e08     libucrt:nlsdata.obj
 0002:00006e14       ??_C@_08HACCIKIA@Thursday?$AA@ 10069e14     libucrt:nlsdata.obj
 0002:00006e20       ??_C@_06JECMNKMI@Friday?$AA@ 10069e20     libucrt:nlsdata.obj
 0002:00006e28       ??_C@_08INBOOONO@Saturday?$AA@ 10069e28     libucrt:nlsdata.obj
 0002:00006e34       ??_C@_03JIHJHPIE@Jan?$AA@  10069e34     libucrt:nlsdata.obj
 0002:00006e38       ??_C@_03HJBDCHOM@Feb?$AA@  10069e38     libucrt:nlsdata.obj
 0002:00006e3c       ??_C@_03ODNJBKGA@Mar?$AA@  10069e3c     libucrt:nlsdata.obj
 0002:00006e40       ??_C@_03LEOLGMJP@Apr?$AA@  10069e40     libucrt:nlsdata.obj
 0002:00006e44       ??_C@_03CNMDKL@May?$AA@    10069e44     libucrt:nlsdata.obj
 0002:00006e48       ??_C@_03IDFGHECI@Jun?$AA@  10069e48     libucrt:nlsdata.obj
 0002:00006e4c       ??_C@_03LBGABGKK@Jul?$AA@  10069e4c     libucrt:nlsdata.obj
 0002:00006e50       ??_C@_03IFJFEIGA@Aug?$AA@  10069e50     libucrt:nlsdata.obj
 0002:00006e54       ??_C@_03GGCAPAJC@Sep?$AA@  10069e54     libucrt:nlsdata.obj
 0002:00006e58       ??_C@_03BMAOKBAD@Oct?$AA@  10069e58     libucrt:nlsdata.obj
 0002:00006e5c       ??_C@_03JPJOFNIA@Nov?$AA@  10069e5c     libucrt:nlsdata.obj
 0002:00006e60       ??_C@_03MKABNOCG@Dec?$AA@  10069e60     libucrt:nlsdata.obj
 0002:00006e64       ??_C@_07CGJPFGJA@January?$AA@ 10069e64     libucrt:nlsdata.obj
 0002:00006e70       ??_C@_08GNJGEPFN@February?$AA@ 10069e70     libucrt:nlsdata.obj
 0002:00006e7c       ??_C@_05HPCKOFNC@March?$AA@ 10069e7c     libucrt:nlsdata.obj
 0002:00006e84       ??_C@_05DMJDNLEJ@April?$AA@ 10069e84     libucrt:nlsdata.obj
 0002:00006e8c       ??_C@_04CNLMGBGM@June?$AA@ 10069e8c     libucrt:nlsdata.obj
 0002:00006e94       ??_C@_04MIEPOIFP@July?$AA@ 10069e94     libucrt:nlsdata.obj
 0002:00006e9c       ??_C@_06LBBHFDDG@August?$AA@ 10069e9c     libucrt:nlsdata.obj
 0002:00006ea4       ??_C@_09BHHEALKD@September?$AA@ 10069ea4     libucrt:nlsdata.obj
 0002:00006eb0       ??_C@_07JJNFCEND@October?$AA@ 10069eb0     libucrt:nlsdata.obj
 0002:00006ebc       ??_C@_08HCHEGEOA@November?$AA@ 10069ebc     libucrt:nlsdata.obj
 0002:00006ec8       ??_C@_08EDHMEBNP@December?$AA@ 10069ec8     libucrt:nlsdata.obj
 0002:00006ed4       ??_C@_02DEDBPAFC@AM?$AA@   10069ed4     libucrt:nlsdata.obj
 0002:00006ed8       ??_C@_02CJNFDJBF@PM?$AA@   10069ed8     libucrt:nlsdata.obj
 0002:00006edc       ??_C@_08BPBNCDIB@MM?1dd?1yy?$AA@ 10069edc     libucrt:nlsdata.obj
 0002:00006ee8       ??_C@_0BE@CKGJFCPC@dddd?0?5MMMM?5dd?0?5yyyy?$AA@ 10069ee8     libucrt:nlsdata.obj
 0002:00006f00       ??_C@_08JCCMCCIL@HH?3mm?3ss?$AA@ 10069f00     libucrt:nlsdata.obj
 0002:00006f0c       ??_C@_17MBGCMIPB@?$AAS?$AAu?$AAn?$AA?$AA@ 10069f0c     libucrt:nlsdata.obj
 0002:00006f18       ??_C@_17KBOMKBF@?$AAM?$AAo?$AAn?$AA?$AA@ 10069f18     libucrt:nlsdata.obj
 0002:00006f24       ??_C@_17BMKGEGOJ@?$AAT?$AAu?$AAe?$AA?$AA@ 10069f24     libucrt:nlsdata.obj
 0002:00006f30       ??_C@_17CJEDCEPE@?$AAW?$AAe?$AAd?$AA?$AA@ 10069f30     libucrt:nlsdata.obj
 0002:00006f3c       ??_C@_17PDPHAADD@?$AAT?$AAh?$AAu?$AA?$AA@ 10069f3c     libucrt:nlsdata.obj
 0002:00006f48       ??_C@_17HFOLPPLP@?$AAF?$AAr?$AAi?$AA?$AA@ 10069f48     libucrt:nlsdata.obj
 0002:00006f54       ??_C@_17GGIBDPIH@?$AAS?$AAa?$AAt?$AA?$AA@ 10069f54     libucrt:nlsdata.obj
 0002:00006f60       ??_C@_1O@IHNHDHPB@?$AAS?$AAu?$AAn?$AAd?$AAa?$AAy?$AA?$AA@ 10069f60     libucrt:nlsdata.obj
 0002:00006f70       ??_C@_1O@MMNBFLIA@?$AAM?$AAo?$AAn?$AAd?$AAa?$AAy?$AA?$AA@ 10069f70     libucrt:nlsdata.obj
 0002:00006f80       ??_C@_1BA@ENFBFFEK@?$AAT?$AAu?$AAe?$AAs?$AAd?$AAa?$AAy?$AA?$AA@ 10069f80     libucrt:nlsdata.obj
 0002:00006f94       ??_C@_1BE@EBOGMDOH@?$AAW?$AAe?$AAd?$AAn?$AAe?$AAs?$AAd?$AAa?$AAy?$AA?$AA@ 10069f94     libucrt:nlsdata.obj
 0002:00006fac       ??_C@_1BC@HHMNLIHE@?$AAT?$AAh?$AAu?$AAr?$AAs?$AAd?$AAa?$AAy?$AA?$AA@ 10069fac     libucrt:nlsdata.obj
 0002:00006fc4       ??_C@_1O@PDICJHAG@?$AAF?$AAr?$AAi?$AAd?$AAa?$AAy?$AA?$AA@ 10069fc4     libucrt:nlsdata.obj
 0002:00006fd4       ??_C@_1BC@ENMNNPAJ@?$AAS?$AAa?$AAt?$AAu?$AAr?$AAd?$AAa?$AAy?$AA?$AA@ 10069fd4     libucrt:nlsdata.obj
 0002:00006fec       ??_C@_17DKNBKCHM@?$AAJ?$AAa?$AAn?$AA?$AA@ 10069fec     libucrt:nlsdata.obj
 0002:00006ff8       ??_C@_17LMDJEKJN@?$AAF?$AAe?$AAb?$AA?$AA@ 10069ff8     libucrt:nlsdata.obj
 0002:00007004       ??_C@_17CKNLEDEC@?$AAM?$AAa?$AAr?$AA?$AA@ 1006a004     libucrt:nlsdata.obj
 0002:00007010       ??_C@_17LFPOIHDD@?$AAA?$AAp?$AAr?$AA?$AA@ 1006a010     libucrt:nlsdata.obj
 0002:0000701c       ??_C@_17PNNKMEED@?$AAM?$AAa?$AAy?$AA?$AA@ 1006a01c     libucrt:nlsdata.obj
 0002:00007028       ??_C@_17KCJGOCPB@?$AAJ?$AAu?$AAn?$AA?$AA@ 1006a028     libucrt:nlsdata.obj
 0002:00007034       ??_C@_17IJPCKHK@?$AAJ?$AAu?$AAl?$AA?$AA@ 1006a034     libucrt:nlsdata.obj
 0002:00007040       ??_C@_17ICPELBCN@?$AAA?$AAu?$AAg?$AA?$AA@ 1006a040     libucrt:nlsdata.obj
 0002:0000704c       ??_C@_17HCHCOKMG@?$AAS?$AAe?$AAp?$AA?$AA@ 1006a04c     libucrt:nlsdata.obj
 0002:00007058       ??_C@_17FNLKOI@?$AAO?$AAc?$AAt?$AA?$AA@ 1006a058     libucrt:nlsdata.obj
 0002:00007064       ??_C@_17BBDMLCIG@?$AAN?$AAo?$AAv?$AA?$AA@ 1006a064     libucrt:nlsdata.obj
 0002:00007070       ??_C@_17EGKACKIF@?$AAD?$AAe?$AAc?$AA?$AA@ 1006a070     libucrt:nlsdata.obj
 0002:0000707c       ??_C@_1BA@EFMEIEBA@?$AAJ?$AAa?$AAn?$AAu?$AAa?$AAr?$AAy?$AA?$AA@ 1006a07c     libucrt:nlsdata.obj
 0002:00007090       ??_C@_1BC@JGDDFFAM@?$AAF?$AAe?$AAb?$AAr?$AAu?$AAa?$AAr?$AAy?$AA?$AA@ 1006a090     libucrt:nlsdata.obj
 0002:000070a8       ??_C@_1M@IKEENEDF@?$AAM?$AAa?$AAr?$AAc?$AAh?$AA?$AA@ 1006a0a8     libucrt:nlsdata.obj
 0002:000070b8       ??_C@_1M@GJNLMHFD@?$AAA?$AAp?$AAr?$AAi?$AAl?$AA?$AA@ 1006a0b8     libucrt:nlsdata.obj
 0002:000070c8       ??_C@_19EPFLPGAP@?$AAJ?$AAu?$AAn?$AAe?$AA?$AA@ 1006a0c8     libucrt:nlsdata.obj
 0002:000070d4       ??_C@_19BIFMLPCD@?$AAJ?$AAu?$AAl?$AAy?$AA?$AA@ 1006a0d4     libucrt:nlsdata.obj
 0002:000070e0       ??_C@_1O@PAHLKOAC@?$AAA?$AAu?$AAg?$AAu?$AAs?$AAt?$AA?$AA@ 1006a0e0     libucrt:nlsdata.obj
 0002:000070f0       ??_C@_1BE@DKAAMBJL@?$AAS?$AAe?$AAp?$AAt?$AAe?$AAm?$AAb?$AAe?$AAr?$AA?$AA@ 1006a0f0     libucrt:nlsdata.obj
 0002:00007108       ??_C@_1BA@EPANDLNG@?$AAO?$AAc?$AAt?$AAo?$AAb?$AAe?$AAr?$AA?$AA@ 1006a108     libucrt:nlsdata.obj
 0002:0000711c       ??_C@_1BC@BGLIFPF@?$AAN?$AAo?$AAv?$AAe?$AAm?$AAb?$AAe?$AAr?$AA?$AA@ 1006a11c     libucrt:nlsdata.obj
 0002:00007134       ??_C@_1BC@FEMKIFH@?$AAD?$AAe?$AAc?$AAe?$AAm?$AAb?$AAe?$AAr?$AA?$AA@ 1006a134     libucrt:nlsdata.obj
 0002:0000714c       ??_C@_15ODEHAHHF@?$AAA?$AAM?$AA?$AA@ 1006a14c     libucrt:nlsdata.obj
 0002:00007154       ??_C@_15CLMNNGEL@?$AAP?$AAM?$AA?$AA@ 1006a154     libucrt:nlsdata.obj
 0002:0000715c       ??_C@_1BC@IEBCMHCM@?$AAM?$AAM?$AA?1?$AAd?$AAd?$AA?1?$AAy?$AAy?$AA?$AA@ 1006a15c     libucrt:nlsdata.obj
 0002:00007174       ??_C@_1CI@KNAKOEBC@?$AAd?$AAd?$AAd?$AAd?$AA?0?$AA?5?$AAM?$AAM?$AAM?$AAM?$AA?5?$AAd?$AAd?$AA?0?$AA?5?$AAy?$AAy?$AAy?$AAy?$AA?$AA@ 1006a174     libucrt:nlsdata.obj
 0002:000071a4       ??_C@_1BC@GDGBMEMK@?$AAH?$AAH?$AA?3?$AAm?$AAm?$AA?3?$AAs?$AAs?$AA?$AA@ 1006a1a4     libucrt:nlsdata.obj
 0002:000071bc       ??_C@_1M@BMHNFIME@?$AAe?$AAn?$AA?9?$AAU?$AAS?$AA?$AA@ 1006a1bc     libucrt:nlsdata.obj
 0002:000071d0       ___lc_time_c               1006a1d0     libucrt:nlsdata.obj
 0002:000073c0       __indefinite               1006a3c0     libucrt:87disp.obj
 0002:000073ca       __piby2                    1006a3ca     libucrt:87disp.obj
 0002:000073d4       __piby4                    1006a3d4     libucrt:87disp.obj
 0002:0000740c       ??_C@_1DE@JNGNBFGO@?$AAR?$AAu?$AAn?$AAt?$AAi?$AAm?$AAe?$AA?5?$AAE?$AAr?$AAr?$AAo?$AAr?$AA?$CB?$AA?6?$AA?6?$AAP?$AAr?$AAo?$AAg?$AAr?$AAa?$AAm?$AA?3?$AA?5?$AA?$AA@ 1006a40c     libucrt:report_runtime_error.obj
 0002:0000744c       ?ccs@?1???$__acrt_stdio_parse_mode@D@@YA?AU__acrt_stdio_stream_mode@@QBD@Z@4QBDB 1006a44c     libucrt:openfile.obj
 0002:00007450       ?utf8_encoding@?1???$__acrt_stdio_parse_mode@D@@YA?AU__acrt_stdio_stream_mode@@QBD@Z@4QBDB 1006a450     libucrt:openfile.obj
 0002:00007458       ?utf16_encoding@?1???$__acrt_stdio_parse_mode@D@@YA?AU__acrt_stdio_stream_mode@@QBD@Z@4QBDB 1006a458     libucrt:openfile.obj
 0002:00007464       ?unicode_encoding@?1???$__acrt_stdio_parse_mode@D@@YA?AU__acrt_stdio_stream_mode@@QBD@Z@4QBDB 1006a464     libucrt:openfile.obj
 0002:0000746c       ?ccs@?1???$__acrt_stdio_parse_mode@_W@@YA?AU__acrt_stdio_stream_mode@@QB_W@Z@4QB_WB 1006a46c     libucrt:openfile.obj
 0002:00007474       ?utf8_encoding@?1???$__acrt_stdio_parse_mode@_W@@YA?AU__acrt_stdio_stream_mode@@QB_W@Z@4QB_WB 1006a474     libucrt:openfile.obj
 0002:00007480       ?utf16_encoding@?1???$__acrt_stdio_parse_mode@_W@@YA?AU__acrt_stdio_stream_mode@@QB_W@Z@4QB_WB 1006a480     libucrt:openfile.obj
 0002:00007494       ?unicode_encoding@?1???$__acrt_stdio_parse_mode@_W@@YA?AU__acrt_stdio_stream_mode@@QB_W@Z@4QB_WB 1006a494     libucrt:openfile.obj
 0002:000074a8       __d_inf                    1006a4a8     libucrt:util.obj
 0002:000074b8       __d_ind                    1006a4b8     libucrt:util.obj
 0002:000074c8       __d_max                    1006a4c8     libucrt:util.obj
 0002:000074d8       __d_min                    1006a4d8     libucrt:util.obj
 0002:000074e8       __d_mzero                  1006a4e8     libucrt:util.obj
 0002:00007528       ??_C@_1M@HPNHIDJI@?$AAj?$AAa?$AA?9?$AAJ?$AAP?$AA?$AA@ 1006a528     libucrt:mbctype.obj
 0002:00007538       ??_C@_1M@BIBDDEMK@?$AAz?$AAh?$AA?9?$AAC?$AAN?$AA?$AA@ 1006a538     libucrt:mbctype.obj
 0002:00007548       ??_C@_1M@JLOOOEGK@?$AAk?$AAo?$AA?9?$AAK?$AAR?$AA?$AA@ 1006a548     libucrt:mbctype.obj
 0002:00007558       ??_C@_1M@CLNBBOPM@?$AAz?$AAh?$AA?9?$AAT?$AAW?$AA?$AA@ 1006a558     libucrt:mbctype.obj
 0002:00007568       __wctype                   1006a568     libucrt:ctype.obj
 0002:000077d8       ___newctype                1006a7d8     libucrt:ctype.obj
 0002:00007b78       ___newclmap                1006ab78     libucrt:ctype.obj
 0002:00007d48       ___newcumap                1006ad48     libucrt:ctype.obj
 0002:000087a4       ??_C@_15EMKDOKLE@?$AAa?$AAr?$AA?$AA@ 1006b7a4     libucrt:lcidtoname_downlevel.obj
 0002:000087ac       ??_C@_15KNPADPLH@?$AAb?$AAg?$AA?$AA@ 1006b7ac     libucrt:lcidtoname_downlevel.obj
 0002:000087b4       ??_C@_15EDMHLDMO@?$AAc?$AAa?$AA?$AA@ 1006b7b4     libucrt:lcidtoname_downlevel.obj
 0002:000087bc       ??_C@_1O@BPEAJADD@?$AAz?$AAh?$AA?9?$AAC?$AAH?$AAS?$AA?$AA@ 1006b7bc     libucrt:lcidtoname_downlevel.obj
 0002:000087cc       ??_C@_15LJNHCMNK@?$AAc?$AAs?$AA?$AA@ 1006b7cc     libucrt:lcidtoname_downlevel.obj
 0002:000087d4       ??_C@_15FOMCIDHG@?$AAd?$AAa?$AA?$AA@ 1006b7d4     libucrt:lcidtoname_downlevel.obj
 0002:000087dc       ??_C@_15NBKABECB@?$AAd?$AAe?$AA?$AA@ 1006b7dc     libucrt:lcidtoname_downlevel.obj
 0002:000087e4       ??_C@_15GHPEIIAO@?$AAe?$AAl?$AA?$AA@ 1006b7e4     libucrt:lcidtoname_downlevel.obj
 0002:000087ec       ??_C@_15MNPNEAIF@?$AAe?$AAn?$AA?$AA@ 1006b7ec     libucrt:lcidtoname_downlevel.obj
 0002:000087f4       ??_C@_15GPIOMPMH@?$AAe?$AAs?$AA?$AA@ 1006b7f4     libucrt:lcidtoname_downlevel.obj
 0002:000087fc       ??_C@_15NGLOAKJC@?$AAf?$AAi?$AA?$AA@ 1006b7fc     libucrt:lcidtoname_downlevel.obj
 0002:00008804       ??_C@_15FBKGNKAM@?$AAf?$AAr?$AA?$AA@ 1006b804     libucrt:lcidtoname_downlevel.obj
 0002:0000880c       ??_C@_15KGGCNEFK@?$AAh?$AAe?$AA?$AA@ 1006b80c     libucrt:lcidtoname_downlevel.obj
 0002:00008814       ??_C@_15PGHLIDMF@?$AAh?$AAu?$AA?$AA@ 1006b814     libucrt:lcidtoname_downlevel.obj
 0002:0000881c       ??_C@_15BIEMAPLM@?$AAi?$AAs?$AA?$AA@ 1006b81c     libucrt:lcidtoname_downlevel.obj
 0002:00008824       ??_C@_15IFJLDHAF@?$AAi?$AAt?$AA?$AA@ 1006b824     libucrt:lcidtoname_downlevel.obj
 0002:0000882c       ??_C@_15GEMIOCAG@?$AAj?$AAa?$AA?$AA@ 1006b82c     libucrt:lcidtoname_downlevel.obj
 0002:00008834       ??_C@_15EPELEGJA@?$AAk?$AAo?$AA?$AA@ 1006b834     libucrt:lcidtoname_downlevel.obj
 0002:0000883c       ??_C@_15NDDHIMN@?$AAn?$AAl?$AA?$AA@ 1006b83c     libucrt:lcidtoname_downlevel.obj
 0002:00008844       ??_C@_15BPIGNHCD@?$AAn?$AAo?$AA?$AA@ 1006b844     libucrt:lcidtoname_downlevel.obj
 0002:0000884c       ??_C@_15DEOPBLCG@?$AAp?$AAl?$AA?$AA@ 1006b84c     libucrt:lcidtoname_downlevel.obj
 0002:00008854       ??_C@_15KBECGEFG@?$AAp?$AAt?$AA?$AA@ 1006b854     libucrt:lcidtoname_downlevel.obj
 0002:0000885c       ??_C@_15GLJCBFMD@?$AAr?$AAo?$AA?$AA@ 1006b85c     libucrt:lcidtoname_downlevel.obj
 0002:00008864       ??_C@_15FEDGKCDI@?$AAr?$AAu?$AA?$AA@ 1006b864     libucrt:lcidtoname_downlevel.obj
 0002:0000886c       ??_C@_15GLKMLLHM@?$AAh?$AAr?$AA?$AA@ 1006b86c     libucrt:lcidtoname_downlevel.obj
 0002:00008874       ??_C@_15CPKMFBDB@?$AAs?$AAk?$AA?$AA@ 1006b874     libucrt:lcidtoname_downlevel.obj
 0002:0000887c       ??_C@_15BAAIOGMK@?$AAs?$AAq?$AA?$AA@ 1006b87c     libucrt:lcidtoname_downlevel.obj
 0002:00008884       ??_C@_15INNPNOHD@?$AAs?$AAv?$AA?$AA@ 1006b884     libucrt:lcidtoname_downlevel.obj
 0002:0000888c       ??_C@_15CABMMOGH@?$AAt?$AAh?$AA?$AA@ 1006b88c     libucrt:lcidtoname_downlevel.obj
 0002:00008894       ??_C@_15BPLIHJJM@?$AAt?$AAr?$AA?$AA@ 1006b894     libucrt:lcidtoname_downlevel.obj
 0002:0000889c       ??_C@_15NEOEKKDJ@?$AAu?$AAr?$AA?$AA@ 1006b89c     libucrt:lcidtoname_downlevel.obj
 0002:000088a4       ??_C@_15NFICGAJK@?$AAi?$AAd?$AA?$AA@ 1006b8a4     libucrt:lcidtoname_downlevel.obj
 0002:000088ac       ??_C@_15PJPFLCCM@?$AAu?$AAk?$AA?$AA@ 1006b8ac     libucrt:lcidtoname_downlevel.obj
 0002:000088b4       ??_C@_15HPJPHDM@?$AAb?$AAe?$AA?$AA@ 1006b8b4     libucrt:lcidtoname_downlevel.obj
 0002:000088bc       ??_C@_15LCHLGJII@?$AAs?$AAl?$AA?$AA@ 1006b8bc     libucrt:lcidtoname_downlevel.obj
 0002:000088c4       ??_C@_15PCFJPHHO@?$AAe?$AAt?$AA?$AA@ 1006b8c4     libucrt:lcidtoname_downlevel.obj
 0002:000088cc       ??_C@_15HPFPGODN@?$AAl?$AAv?$AA?$AA@ 1006b8cc     libucrt:lcidtoname_downlevel.obj
 0002:000088d4       ??_C@_15NFFGKGLG@?$AAl?$AAt?$AA?$AA@ 1006b8d4     libucrt:lcidtoname_downlevel.obj
 0002:000088dc       ??_C@_15BDAKCCHN@?$AAf?$AAa?$AA?$AA@ 1006b8dc     libucrt:lcidtoname_downlevel.obj
 0002:000088e4       ??_C@_15NFGIAIAJ@?$AAv?$AAi?$AA?$AA@ 1006b8e4     libucrt:lcidtoname_downlevel.obj
 0002:000088ec       ??_C@_15LMKNDMHN@?$AAh?$AAy?$AA?$AA@ 1006b8ec     libucrt:lcidtoname_downlevel.obj
 0002:000088f4       ??_C@_15IJBHMCFL@?$AAa?$AAz?$AA?$AA@ 1006b8f4     libucrt:lcidtoname_downlevel.obj
 0002:000088fc       ??_C@_15EKOFJABL@?$AAe?$AAu?$AA?$AA@ 1006b8fc     libucrt:lcidtoname_downlevel.obj
 0002:00008904       ??_C@_15BGHADCNK@?$AAm?$AAk?$AA?$AA@ 1006b904     libucrt:lcidtoname_downlevel.obj
 0002:0000890c       ??_C@_15JDNICKHM@?$AAa?$AAf?$AA?$AA@ 1006b90c     libucrt:lcidtoname_downlevel.obj
 0002:00008914       ??_C@_15KPJEDBKD@?$AAk?$AAa?$AA?$AA@ 1006b914     libucrt:lcidtoname_downlevel.obj
 0002:0000891c       ??_C@_15PDNFFFEO@?$AAf?$AAo?$AA?$AA@ 1006b91c     libucrt:lcidtoname_downlevel.obj
 0002:00008924       ??_C@_15OMLEGLOC@?$AAh?$AAi?$AA?$AA@ 1006b924     libucrt:lcidtoname_downlevel.obj
 0002:0000892c       ??_C@_15IDNNENKK@?$AAm?$AAs?$AA?$AA@ 1006b92c     libucrt:lcidtoname_downlevel.obj
 0002:00008934       ??_C@_15MACJNBMH@?$AAk?$AAk?$AA?$AA@ 1006b934     libucrt:lcidtoname_downlevel.obj
 0002:0000893c       ??_C@_15DKDJEOND@?$AAk?$AAy?$AA?$AA@ 1006b93c     libucrt:lcidtoname_downlevel.obj
 0002:00008944       ??_C@_15DFGDLJBG@?$AAs?$AAw?$AA?$AA@ 1006b944     libucrt:lcidtoname_downlevel.obj
 0002:0000894c       ??_C@_15BBFAICNG@?$AAu?$AAz?$AA?$AA@ 1006b94c     libucrt:lcidtoname_downlevel.obj
 0002:00008954       ??_C@_15DKNDCGEA@?$AAt?$AAt?$AA?$AA@ 1006b954     libucrt:lcidtoname_downlevel.obj
 0002:0000895c       ??_C@_15MGIFMDPL@?$AAp?$AAa?$AA?$AA@ 1006b95c     libucrt:lcidtoname_downlevel.obj
 0002:00008964       ??_C@_15HCNDBBA@?$AAg?$AAu?$AA?$AA@ 1006b964     libucrt:lcidtoname_downlevel.obj
 0002:0000896c       ??_C@_15FNBEIBON@?$AAt?$AAa?$AA?$AA@ 1006b96c     libucrt:lcidtoname_downlevel.obj
 0002:00008974       ??_C@_15NCHGBGLK@?$AAt?$AAe?$AA?$AA@ 1006b974     libucrt:lcidtoname_downlevel.obj
 0002:0000897c       ??_C@_15PHPHCBPF@?$AAk?$AAn?$AA?$AA@ 1006b97c     libucrt:lcidtoname_downlevel.obj
 0002:00008984       ??_C@_15DLGBCKMP@?$AAm?$AAr?$AA?$AA@ 1006b984     libucrt:lcidtoname_downlevel.obj
 0002:0000898c       ??_C@_15EABBLBFF@?$AAs?$AAa?$AA?$AA@ 1006b98c     libucrt:lcidtoname_downlevel.obj
 0002:00008994       ??_C@_15CBKOMCOI@?$AAm?$AAn?$AA?$AA@ 1006b994     libucrt:lcidtoname_downlevel.obj
 0002:0000899c       ??_C@_15CKDMCJAF@?$AAg?$AAl?$AA?$AA@ 1006b99c     libucrt:lcidtoname_downlevel.obj
 0002:000089a4       ??_C@_17CNJFBPG@?$AAk?$AAo?$AAk?$AA?$AA@ 1006b9a4     libucrt:lcidtoname_downlevel.obj
 0002:000089b0       ??_C@_17FFBJICPL@?$AAs?$AAy?$AAr?$AA?$AA@ 1006b9b0     libucrt:lcidtoname_downlevel.obj
 0002:000089bc       ??_C@_17KPNDCPAF@?$AAd?$AAi?$AAv?$AA?$AA@ 1006b9bc     libucrt:lcidtoname_downlevel.obj
 0002:000089c8       ??_C@_11LOCGONAA@?$AA?$AA@ 1006b9c8     libucrt:lcidtoname_downlevel.obj
 0002:000089cc       ??_C@_1M@OKAHONE@?$AAa?$AAr?$AA?9?$AAS?$AAA?$AA?$AA@ 1006b9cc     libucrt:lcidtoname_downlevel.obj
 0002:000089dc       ??_C@_1M@FFFIGIGK@?$AAb?$AAg?$AA?9?$AAB?$AAG?$AA?$AA@ 1006b9dc     libucrt:lcidtoname_downlevel.obj
 0002:000089ec       ??_C@_1M@BJNKEDC@?$AAc?$AAa?$AA?9?$AAE?$AAS?$AA?$AA@ 1006b9ec     libucrt:lcidtoname_downlevel.obj
 0002:000089fc       ??_C@_1M@IJJHFJHA@?$AAc?$AAs?$AA?9?$AAC?$AAZ?$AA?$AA@ 1006b9fc     libucrt:lcidtoname_downlevel.obj
 0002:00008a0c       ??_C@_1M@CLPEOBGI@?$AAd?$AAa?$AA?9?$AAD?$AAK?$AA?$AA@ 1006ba0c     libucrt:lcidtoname_downlevel.obj
 0002:00008a1c       ??_C@_1M@MCMADGCB@?$AAd?$AAe?$AA?9?$AAD?$AAE?$AA?$AA@ 1006ba1c     libucrt:lcidtoname_downlevel.obj
 0002:00008a2c       ??_C@_1M@OOCKEMAM@?$AAe?$AAl?$AA?9?$AAG?$AAR?$AA?$AA@ 1006ba2c     libucrt:lcidtoname_downlevel.obj
 0002:00008a3c       ??_C@_1M@DDNJFGID@?$AAf?$AAi?$AA?9?$AAF?$AAI?$AA?$AA@ 1006ba3c     libucrt:lcidtoname_downlevel.obj
 0002:00008a4c       ??_C@_1M@GLIPPMAC@?$AAf?$AAr?$AA?9?$AAF?$AAR?$AA?$AA@ 1006ba4c     libucrt:lcidtoname_downlevel.obj
 0002:00008a5c       ??_C@_1M@GFMCHPE@?$AAh?$AAe?$AA?9?$AAI?$AAL?$AA?$AA@ 1006ba5c     libucrt:lcidtoname_downlevel.obj
 0002:00008a6c       ??_C@_1M@MHLPGNKM@?$AAh?$AAu?$AA?9?$AAH?$AAU?$AA?$AA@ 1006ba6c     libucrt:lcidtoname_downlevel.obj
 0002:00008a7c       ??_C@_1M@LPDDNNPN@?$AAi?$AAs?$AA?9?$AAI?$AAS?$AA?$AA@ 1006ba7c     libucrt:lcidtoname_downlevel.obj
 0002:00008a8c       ??_C@_1M@MADIPODN@?$AAi?$AAt?$AA?9?$AAI?$AAT?$AA?$AA@ 1006ba8c     libucrt:lcidtoname_downlevel.obj
 0002:00008a9c       ??_C@_1M@IHBJJGG@?$AAn?$AAl?$AA?9?$AAN?$AAL?$AA?$AA@ 1006ba9c     libucrt:lcidtoname_downlevel.obj
 0002:00008aac       ??_C@_1M@EANAGDL@?$AAn?$AAb?$AA?9?$AAN?$AAO?$AA?$AA@ 1006baac     libucrt:lcidtoname_downlevel.obj
 0002:00008abc       ??_C@_1M@NEIEMEGP@?$AAp?$AAl?$AA?9?$AAP?$AAL?$AA?$AA@ 1006babc     libucrt:lcidtoname_downlevel.obj
 0002:00008acc       ??_C@_1M@BOCFIGEP@?$AAp?$AAt?$AA?9?$AAB?$AAR?$AA?$AA@ 1006bacc     libucrt:lcidtoname_downlevel.obj
 0002:00008adc       ??_C@_1M@IMPFOPBG@?$AAr?$AAo?$AA?9?$AAR?$AAO?$AA?$AA@ 1006badc     libucrt:lcidtoname_downlevel.obj
 0002:00008aec       ??_C@_1M@IDNNEJMM@?$AAr?$AAu?$AA?9?$AAR?$AAU?$AA?$AA@ 1006baec     libucrt:lcidtoname_downlevel.obj
 0002:00008afc       ??_C@_1M@LILEEOGM@?$AAh?$AAr?$AA?9?$AAH?$AAR?$AA?$AA@ 1006bafc     libucrt:lcidtoname_downlevel.obj
 0002:00008b0c       ??_C@_1M@FKIFEHPB@?$AAs?$AAk?$AA?9?$AAS?$AAK?$AA?$AA@ 1006bb0c     libucrt:lcidtoname_downlevel.obj
 0002:00008b1c       ??_C@_1M@LJMAMNPJ@?$AAs?$AAq?$AA?9?$AAA?$AAL?$AA?$AA@ 1006bb1c     libucrt:lcidtoname_downlevel.obj
 0002:00008b2c       ??_C@_1M@GIAKDKJK@?$AAs?$AAv?$AA?9?$AAS?$AAE?$AA?$AA@ 1006bb2c     libucrt:lcidtoname_downlevel.obj
 0002:00008b3c       ??_C@_1M@MKJKIKCL@?$AAt?$AAh?$AA?9?$AAT?$AAH?$AA?$AA@ 1006bb3c     libucrt:lcidtoname_downlevel.obj
 0002:00008b4c       ??_C@_1M@MFLCCMPB@?$AAt?$AAr?$AA?9?$AAT?$AAR?$AA?$AA@ 1006bb4c     libucrt:lcidtoname_downlevel.obj
 0002:00008b5c       ??_C@_1M@OIJHDKJN@?$AAu?$AAr?$AA?9?$AAP?$AAK?$AA?$AA@ 1006bb5c     libucrt:lcidtoname_downlevel.obj
 0002:00008b6c       ??_C@_1M@LHIPCIEK@?$AAi?$AAd?$AA?9?$AAI?$AAD?$AA?$AA@ 1006bb6c     libucrt:lcidtoname_downlevel.obj
 0002:00008b7c       ??_C@_1M@MFMOBGI@?$AAu?$AAk?$AA?9?$AAU?$AAA?$AA?$AA@ 1006bb7c     libucrt:lcidtoname_downlevel.obj
 0002:00008b8c       ??_C@_1M@OBGLJIPL@?$AAb?$AAe?$AA?9?$AAB?$AAY?$AA?$AA@ 1006bb8c     libucrt:lcidtoname_downlevel.obj
 0002:00008b9c       ??_C@_1M@BCFAJEAD@?$AAs?$AAl?$AA?9?$AAS?$AAI?$AA?$AA@ 1006bb9c     libucrt:lcidtoname_downlevel.obj
 0002:00008bac       ??_C@_1M@FKFFEDDN@?$AAe?$AAt?$AA?9?$AAE?$AAE?$AA?$AA@ 1006bbac     libucrt:lcidtoname_downlevel.obj
 0002:00008bbc       ??_C@_1M@KGKKAACI@?$AAl?$AAv?$AA?9?$AAL?$AAV?$AA?$AA@ 1006bbbc     libucrt:lcidtoname_downlevel.obj
 0002:00008bcc       ??_C@_1M@IFGBIJO@?$AAl?$AAt?$AA?9?$AAL?$AAT?$AA?$AA@ 1006bbcc     libucrt:lcidtoname_downlevel.obj
 0002:00008bdc       ??_C@_1M@FGEAHEDM@?$AAf?$AAa?$AA?9?$AAI?$AAR?$AA?$AA@ 1006bbdc     libucrt:lcidtoname_downlevel.obj
 0002:00008bec       ??_C@_1M@KBMAIBFN@?$AAv?$AAi?$AA?9?$AAV?$AAN?$AA?$AA@ 1006bbec     libucrt:lcidtoname_downlevel.obj
 0002:00008bfc       ??_C@_1M@GPCBKDJK@?$AAh?$AAy?$AA?9?$AAA?$AAM?$AA?$AA@ 1006bbfc     libucrt:lcidtoname_downlevel.obj
 0002:00008c0c       ??_C@_1BG@BECMDDJB@?$AAa?$AAz?$AA?9?$AAA?$AAZ?$AA?9?$AAL?$AAa?$AAt?$AAn?$AA?$AA@ 1006bc0c     libucrt:lcidtoname_downlevel.obj
 0002:00008c28       ??_C@_1M@MAOFCAEA@?$AAe?$AAu?$AA?9?$AAE?$AAS?$AA?$AA@ 1006bc28     libucrt:lcidtoname_downlevel.obj
 0002:00008c38       ??_C@_1M@IGHABKPI@?$AAm?$AAk?$AA?9?$AAM?$AAK?$AA?$AA@ 1006bc38     libucrt:lcidtoname_downlevel.obj
 0002:00008c48       ??_C@_1M@IAIGNEJG@?$AAt?$AAn?$AA?9?$AAZ?$AAA?$AA?$AA@ 1006bc48     libucrt:lcidtoname_downlevel.obj
 0002:00008c58       ??_C@_1M@IIJCOJFA@?$AAx?$AAh?$AA?9?$AAZ?$AAA?$AA?$AA@ 1006bc58     libucrt:lcidtoname_downlevel.obj
 0002:00008c68       ??_C@_1M@LGPJHNJH@?$AAz?$AAu?$AA?9?$AAZ?$AAA?$AA?$AA@ 1006bc68     libucrt:lcidtoname_downlevel.obj
 0002:00008c78       ??_C@_1M@HOKAOIO@?$AAa?$AAf?$AA?9?$AAZ?$AAA?$AA?$AA@ 1006bc78     libucrt:lcidtoname_downlevel.obj
 0002:00008c88       ??_C@_1M@DPCLHLIE@?$AAk?$AAa?$AA?9?$AAG?$AAE?$AA?$AA@ 1006bc88     libucrt:lcidtoname_downlevel.obj
 0002:00008c98       ??_C@_1M@BLKMHJBI@?$AAf?$AAo?$AA?9?$AAF?$AAO?$AA?$AA@ 1006bc98     libucrt:lcidtoname_downlevel.obj
 0002:00008ca8       ??_C@_1M@LGGJAPPB@?$AAh?$AAi?$AA?9?$AAI?$AAN?$AA?$AA@ 1006bca8     libucrt:lcidtoname_downlevel.obj
 0002:00008cb8       ??_C@_1M@FIKPIHFE@?$AAm?$AAt?$AA?9?$AAM?$AAT?$AA?$AA@ 1006bcb8     libucrt:lcidtoname_downlevel.obj
 0002:00008cc8       ??_C@_1M@HEGGPBFA@?$AAs?$AAe?$AA?9?$AAN?$AAO?$AA?$AA@ 1006bcc8     libucrt:lcidtoname_downlevel.obj
 0002:00008cd8       ??_C@_1M@EIBJEEPA@?$AAm?$AAs?$AA?9?$AAM?$AAY?$AA?$AA@ 1006bcd8     libucrt:lcidtoname_downlevel.obj
 0002:00008ce8       ??_C@_1M@FHLBGMPP@?$AAk?$AAk?$AA?9?$AAK?$AAZ?$AA?$AA@ 1006bce8     libucrt:lcidtoname_downlevel.obj
 0002:00008cf8       ??_C@_1M@NGJJLCGI@?$AAk?$AAy?$AA?9?$AAK?$AAG?$AA?$AA@ 1006bcf8     libucrt:lcidtoname_downlevel.obj
 0002:00008d08       ??_C@_1M@GIENNBFC@?$AAs?$AAw?$AA?9?$AAK?$AAE?$AA?$AA@ 1006bd08     libucrt:lcidtoname_downlevel.obj
 0002:00008d18       ??_C@_1BG@NDGMJIMJ@?$AAu?$AAz?$AA?9?$AAU?$AAZ?$AA?9?$AAL?$AAa?$AAt?$AAn?$AA?$AA@ 1006bd18     libucrt:lcidtoname_downlevel.obj
 0002:00008d34       ??_C@_1M@IDCCIHBC@?$AAt?$AAt?$AA?9?$AAR?$AAU?$AA?$AA@ 1006bd34     libucrt:lcidtoname_downlevel.obj
 0002:00008d44       ??_C@_1M@LOICPMOJ@?$AAb?$AAn?$AA?9?$AAI?$AAN?$AA?$AA@ 1006bd44     libucrt:lcidtoname_downlevel.obj
 0002:00008d54       ??_C@_1M@KPKKNEAH@?$AAp?$AAa?$AA?9?$AAI?$AAN?$AA?$AA@ 1006bd54     libucrt:lcidtoname_downlevel.obj
 0002:00008d64       ??_C@_1M@PJGPPBOG@?$AAg?$AAu?$AA?9?$AAI?$AAN?$AA?$AA@ 1006bd64     libucrt:lcidtoname_downlevel.obj
 0002:00008d74       ??_C@_1M@KMKMOPHI@?$AAt?$AAa?$AA?9?$AAI?$AAN?$AA?$AA@ 1006bd74     libucrt:lcidtoname_downlevel.obj
 0002:00008d84       ??_C@_1M@KFEHEPAC@?$AAt?$AAe?$AA?9?$AAI?$AAN?$AA?$AA@ 1006bd84     libucrt:lcidtoname_downlevel.obj
 0002:00008d94       ??_C@_1M@CDCLMGHI@?$AAk?$AAn?$AA?9?$AAI?$AAN?$AA?$AA@ 1006bd94     libucrt:lcidtoname_downlevel.obj
 0002:00008da4       ??_C@_1M@MIODLDKF@?$AAm?$AAl?$AA?9?$AAI?$AAN?$AA?$AA@ 1006bda4     libucrt:lcidtoname_downlevel.obj
 0002:00008db4       ??_C@_1M@PBIEACPO@?$AAm?$AAr?$AA?9?$AAI?$AAN?$AA?$AA@ 1006bdb4     libucrt:lcidtoname_downlevel.obj
 0002:00008dc4       ??_C@_1M@NIDEAGPH@?$AAs?$AAa?$AA?9?$AAI?$AAN?$AA?$AA@ 1006bdc4     libucrt:lcidtoname_downlevel.obj
 0002:00008dd4       ??_C@_1M@FHIHCBIO@?$AAm?$AAn?$AA?9?$AAM?$AAN?$AA?$AA@ 1006bdd4     libucrt:lcidtoname_downlevel.obj
 0002:00008de4       ??_C@_1M@JAIJPENP@?$AAc?$AAy?$AA?9?$AAG?$AAB?$AA?$AA@ 1006bde4     libucrt:lcidtoname_downlevel.obj
 0002:00008df4       ??_C@_1M@PHGFBEPN@?$AAg?$AAl?$AA?9?$AAE?$AAS?$AA?$AA@ 1006bdf4     libucrt:lcidtoname_downlevel.obj
 0002:00008e04       ??_C@_1O@KPIPDNCP@?$AAk?$AAo?$AAk?$AA?9?$AAI?$AAN?$AA?$AA@ 1006be04     libucrt:lcidtoname_downlevel.obj
 0002:00008e14       ??_C@_1O@KNHJLDJA@?$AAs?$AAy?$AAr?$AA?9?$AAS?$AAY?$AA?$AA@ 1006be14     libucrt:lcidtoname_downlevel.obj
 0002:00008e24       ??_C@_1O@MKEKBLAH@?$AAd?$AAi?$AAv?$AA?9?$AAM?$AAV?$AA?$AA@ 1006be24     libucrt:lcidtoname_downlevel.obj
 0002:00008e34       ??_C@_1O@OHDCKDDF@?$AAq?$AAu?$AAz?$AA?9?$AAB?$AAO?$AA?$AA@ 1006be34     libucrt:lcidtoname_downlevel.obj
 0002:00008e44       ??_C@_1M@LEPJNLFD@?$AAn?$AAs?$AA?9?$AAZ?$AAA?$AA?$AA@ 1006be44     libucrt:lcidtoname_downlevel.obj
 0002:00008e54       ??_C@_1M@OMLEIIJB@?$AAm?$AAi?$AA?9?$AAN?$AAZ?$AA?$AA@ 1006be54     libucrt:lcidtoname_downlevel.obj
 0002:00008e64       ??_C@_1M@PMPEAILG@?$AAa?$AAr?$AA?9?$AAI?$AAQ?$AA?$AA@ 1006be64     libucrt:lcidtoname_downlevel.obj
 0002:00008e74       ??_C@_1M@CNKPNOEE@?$AAd?$AAe?$AA?9?$AAC?$AAH?$AA?$AA@ 1006be74     libucrt:lcidtoname_downlevel.obj
 0002:00008e84       ??_C@_1M@LKMGMLKO@?$AAe?$AAn?$AA?9?$AAG?$AAB?$AA?$AA@ 1006be84     libucrt:lcidtoname_downlevel.obj
 0002:00008e94       ??_C@_1M@PGKJFFGL@?$AAe?$AAs?$AA?9?$AAM?$AAX?$AA?$AA@ 1006be94     libucrt:lcidtoname_downlevel.obj
 0002:00008ea4       ??_C@_1M@DNNANBDC@?$AAf?$AAr?$AA?9?$AAB?$AAE?$AA?$AA@ 1006bea4     libucrt:lcidtoname_downlevel.obj
 0002:00008eb4       ??_C@_1M@HLGMDFHM@?$AAi?$AAt?$AA?9?$AAC?$AAH?$AA?$AA@ 1006beb4     libucrt:lcidtoname_downlevel.obj
 0002:00008ec4       ??_C@_1M@CLLBGJH@?$AAn?$AAl?$AA?9?$AAB?$AAE?$AA?$AA@ 1006bec4     libucrt:lcidtoname_downlevel.obj
 0002:00008ed4       ??_C@_1M@BODBOGLF@?$AAn?$AAn?$AA?9?$AAN?$AAO?$AA?$AA@ 1006bed4     libucrt:lcidtoname_downlevel.obj
 0002:00008ee4       ??_C@_1M@HFFAHKAD@?$AAp?$AAt?$AA?9?$AAP?$AAT?$AA?$AA@ 1006bee4     libucrt:lcidtoname_downlevel.obj
 0002:00008ef4       ??_C@_1BG@LNOAKHIE@?$AAs?$AAr?$AA?9?$AAS?$AAP?$AA?9?$AAL?$AAa?$AAt?$AAn?$AA?$AA@ 1006bef4     libucrt:lcidtoname_downlevel.obj
 0002:00008f10       ??_C@_1M@HBMHBGAK@?$AAs?$AAv?$AA?9?$AAF?$AAI?$AA?$AA@ 1006bf10     libucrt:lcidtoname_downlevel.obj
 0002:00008f20       ??_C@_1BG@DGCJGJBE@?$AAa?$AAz?$AA?9?$AAA?$AAZ?$AA?9?$AAC?$AAy?$AAr?$AAl?$AA?$AA@ 1006bf20     libucrt:lcidtoname_downlevel.obj
 0002:00008f3c       ??_C@_1M@KEJDAAHB@?$AAs?$AAe?$AA?9?$AAS?$AAE?$AA?$AA@ 1006bf3c     libucrt:lcidtoname_downlevel.obj
 0002:00008f4c       ??_C@_1M@HEIBJJAD@?$AAm?$AAs?$AA?9?$AAB?$AAN?$AA?$AA@ 1006bf4c     libucrt:lcidtoname_downlevel.obj
 0002:00008f5c       ??_C@_1BG@PBGJMCEM@?$AAu?$AAz?$AA?9?$AAU?$AAZ?$AA?9?$AAC?$AAy?$AAr?$AAl?$AA?$AA@ 1006bf5c     libucrt:lcidtoname_downlevel.obj
 0002:00008f78       ??_C@_1O@LAOBCMDF@?$AAq?$AAu?$AAz?$AA?9?$AAE?$AAC?$AA?$AA@ 1006bf78     libucrt:lcidtoname_downlevel.obj
 0002:00008f88       ??_C@_1M@POEEMAIO@?$AAa?$AAr?$AA?9?$AAE?$AAG?$AA?$AA@ 1006bf88     libucrt:lcidtoname_downlevel.obj
 0002:00008f98       ??_C@_1M@EFAKDEDL@?$AAz?$AAh?$AA?9?$AAH?$AAK?$AA?$AA@ 1006bf98     libucrt:lcidtoname_downlevel.obj
 0002:00008fa8       ??_C@_1M@HKKIJHGI@?$AAd?$AAe?$AA?9?$AAA?$AAT?$AA?$AA@ 1006bfa8     libucrt:lcidtoname_downlevel.obj
 0002:00008fb8       ??_C@_1M@KBFBEHJF@?$AAe?$AAn?$AA?9?$AAA?$AAU?$AA?$AA@ 1006bfb8     libucrt:lcidtoname_downlevel.obj
 0002:00008fc8       ??_C@_1M@MNPLFAAH@?$AAe?$AAs?$AA?9?$AAE?$AAS?$AA?$AA@ 1006bfc8     libucrt:lcidtoname_downlevel.obj
 0002:00008fd8       ??_C@_1M@HJOOJFMA@?$AAf?$AAr?$AA?9?$AAC?$AAA?$AA?$AA@ 1006bfd8     libucrt:lcidtoname_downlevel.obj
 0002:00008fe8       ??_C@_1BG@JPOFPNAB@?$AAs?$AAr?$AA?9?$AAS?$AAP?$AA?9?$AAC?$AAy?$AAr?$AAl?$AA?$AA@ 1006bfe8     libucrt:lcidtoname_downlevel.obj
 0002:00009004       ??_C@_1M@LNFOCMOB@?$AAs?$AAe?$AA?9?$AAF?$AAI?$AA?$AA@ 1006c004     libucrt:lcidtoname_downlevel.obj
 0002:00009014       ??_C@_1O@MGJBOAMB@?$AAq?$AAu?$AAz?$AA?9?$AAP?$AAE?$AA?$AA@ 1006c014     libucrt:lcidtoname_downlevel.obj
 0002:00009024       ??_C@_1M@GJINLBOK@?$AAa?$AAr?$AA?9?$AAL?$AAY?$AA?$AA@ 1006c024     libucrt:lcidtoname_downlevel.obj
 0002:00009034       ??_C@_1M@GGMNHJNL@?$AAz?$AAh?$AA?9?$AAS?$AAG?$AA?$AA@ 1006c034     libucrt:lcidtoname_downlevel.obj
 0002:00009044       ??_C@_1M@HOIKODND@?$AAd?$AAe?$AA?9?$AAL?$AAU?$AA?$AA@ 1006c044     libucrt:lcidtoname_downlevel.obj
 0002:00009054       ??_C@_1M@DDOCCGFG@?$AAe?$AAn?$AA?9?$AAC?$AAA?$AA?$AA@ 1006c054     libucrt:lcidtoname_downlevel.obj
 0002:00009064       ??_C@_1M@BNOEMJLF@?$AAe?$AAs?$AA?9?$AAG?$AAT?$AA?$AA@ 1006c064     libucrt:lcidtoname_downlevel.obj
 0002:00009074       ??_C@_1M@EOGNKEK@?$AAf?$AAr?$AA?9?$AAC?$AAH?$AA?$AA@ 1006c074     libucrt:lcidtoname_downlevel.obj
 0002:00009084       ??_C@_1M@FLIDJFHL@?$AAh?$AAr?$AA?9?$AAB?$AAA?$AA?$AA@ 1006c084     libucrt:lcidtoname_downlevel.obj
 0002:00009094       ??_C@_1O@FMCELNAJ@?$AAs?$AAm?$AAj?$AA?9?$AAN?$AAO?$AA?$AA@ 1006c094     libucrt:lcidtoname_downlevel.obj
 0002:000090a4       ??_C@_1M@JHGLJMGJ@?$AAa?$AAr?$AA?9?$AAD?$AAZ?$AA?$AA@ 1006c0a4     libucrt:lcidtoname_downlevel.obj
 0002:000090b4       ??_C@_1M@JKKFDCNP@?$AAz?$AAh?$AA?9?$AAM?$AAO?$AA?$AA@ 1006c0b4     libucrt:lcidtoname_downlevel.obj
 0002:000090c4       ??_C@_1M@GEEFALPE@?$AAd?$AAe?$AA?9?$AAL?$AAI?$AA?$AA@ 1006c0c4     libucrt:lcidtoname_downlevel.obj
 0002:000090d4       ??_C@_1M@IGEOFBG@?$AAe?$AAn?$AA?9?$AAN?$AAZ?$AA?$AA@ 1006c0d4     libucrt:lcidtoname_downlevel.obj
 0002:000090e4       ??_C@_1M@KDBONEHP@?$AAe?$AAs?$AA?9?$AAC?$AAR?$AA?$AA@ 1006c0e4     libucrt:lcidtoname_downlevel.obj
 0002:000090f4       ??_C@_1M@FHMDOHNN@?$AAf?$AAr?$AA?9?$AAL?$AAU?$AA?$AA@ 1006c0f4     libucrt:lcidtoname_downlevel.obj
 0002:00009104       ??_C@_1BG@NFKKMAFG@?$AAb?$AAs?$AA?9?$AAB?$AAA?$AA?9?$AAL?$AAa?$AAt?$AAn?$AA?$AA@ 1006c104     libucrt:lcidtoname_downlevel.obj
 0002:00009120       ??_C@_1O@IMNBEMCI@?$AAs?$AAm?$AAj?$AA?9?$AAS?$AAE?$AA?$AA@ 1006c120     libucrt:lcidtoname_downlevel.obj
 0002:00009130       ??_C@_1M@DHHMBNDP@?$AAa?$AAr?$AA?9?$AAM?$AAA?$AA?$AA@ 1006c130     libucrt:lcidtoname_downlevel.obj
 0002:00009140       ??_C@_1M@BNBLJCGH@?$AAe?$AAn?$AA?9?$AAI?$AAE?$AA?$AA@ 1006c140     libucrt:lcidtoname_downlevel.obj
 0002:00009150       ??_C@_1M@GEPAFMDL@?$AAe?$AAs?$AA?9?$AAP?$AAA?$AA?$AA@ 1006c150     libucrt:lcidtoname_downlevel.obj
 0002:00009160       ??_C@_1M@OJONDMDL@?$AAf?$AAr?$AA?9?$AAM?$AAC?$AA?$AA@ 1006c160     libucrt:lcidtoname_downlevel.obj
 0002:00009170       ??_C@_1BG@OBCNFJB@?$AAs?$AAr?$AA?9?$AAB?$AAA?$AA?9?$AAL?$AAa?$AAt?$AAn?$AA?$AA@ 1006c170     libucrt:lcidtoname_downlevel.obj
 0002:0000918c       ??_C@_1O@KEMEEGPO@?$AAs?$AAm?$AAa?$AA?9?$AAN?$AAO?$AA?$AA@ 1006c18c     libucrt:lcidtoname_downlevel.obj
 0002:0000919c       ??_C@_1M@ELMGFODK@?$AAa?$AAr?$AA?9?$AAT?$AAN?$AA?$AA@ 1006c19c     libucrt:lcidtoname_downlevel.obj
 0002:000091ac       ??_C@_1M@BHDLHFAF@?$AAe?$AAn?$AA?9?$AAZ?$AAA?$AA?$AA@ 1006c1ac     libucrt:lcidtoname_downlevel.obj
 0002:000091bc       ??_C@_1M@BMGIGLIF@?$AAe?$AAs?$AA?9?$AAD?$AAO?$AA?$AA@ 1006c1bc     libucrt:lcidtoname_downlevel.obj
 0002:000091cc       ??_C@_1BG@CMBHIPBE@?$AAs?$AAr?$AA?9?$AAB?$AAA?$AA?9?$AAC?$AAy?$AAr?$AAl?$AA?$AA@ 1006c1cc     libucrt:lcidtoname_downlevel.obj
 0002:000091e8       ??_C@_1O@HEDBLHNP@?$AAs?$AAm?$AAa?$AA?9?$AAS?$AAE?$AA?$AA@ 1006c1e8     libucrt:lcidtoname_downlevel.obj
 0002:000091f8       ??_C@_1M@DAGCADIM@?$AAa?$AAr?$AA?9?$AAO?$AAM?$AA?$AA@ 1006c1f8     libucrt:lcidtoname_downlevel.obj
 0002:00009208       ??_C@_1M@FODLMICG@?$AAe?$AAn?$AA?9?$AAJ?$AAM?$AA?$AA@ 1006c208     libucrt:lcidtoname_downlevel.obj
 0002:00009218       ??_C@_1M@DNMLCIHB@?$AAe?$AAs?$AA?9?$AAV?$AAE?$AA?$AA@ 1006c218     libucrt:lcidtoname_downlevel.obj
 0002:00009228       ??_C@_1O@EOKHMKJK@?$AAs?$AAm?$AAs?$AA?9?$AAF?$AAI?$AA?$AA@ 1006c228     libucrt:lcidtoname_downlevel.obj
 0002:00009238       ??_C@_1M@CAFJMKOF@?$AAa?$AAr?$AA?9?$AAY?$AAE?$AA?$AA@ 1006c238     libucrt:lcidtoname_downlevel.obj
 0002:00009248       ??_C@_1M@CBFHIJLI@?$AAe?$AAn?$AA?9?$AAC?$AAB?$AA?$AA@ 1006c248     libucrt:lcidtoname_downlevel.obj
 0002:00009258       ??_C@_1M@BGNFLDN@?$AAe?$AAs?$AA?9?$AAC?$AAO?$AA?$AA@ 1006c258     libucrt:lcidtoname_downlevel.obj
 0002:00009268       ??_C@_1O@JMPHMAMC@?$AAs?$AAm?$AAn?$AA?9?$AAF?$AAI?$AA?$AA@ 1006c268     libucrt:lcidtoname_downlevel.obj
 0002:00009278       ??_C@_1M@JLANABKE@?$AAa?$AAr?$AA?9?$AAS?$AAY?$AA?$AA@ 1006c278     libucrt:lcidtoname_downlevel.obj
 0002:00009288       ??_C@_1M@HPKGCFGN@?$AAe?$AAn?$AA?9?$AAB?$AAZ?$AA?$AA@ 1006c288     libucrt:lcidtoname_downlevel.obj
 0002:00009298       ??_C@_1M@OLJCMLGM@?$AAe?$AAs?$AA?9?$AAP?$AAE?$AA?$AA@ 1006c298     libucrt:lcidtoname_downlevel.obj
 0002:000092a8       ??_C@_1M@MKKGFKLE@?$AAa?$AAr?$AA?9?$AAJ?$AAO?$AA?$AA@ 1006c2a8     libucrt:lcidtoname_downlevel.obj
 0002:000092b8       ??_C@_1M@EKPGLDNI@?$AAe?$AAn?$AA?9?$AAT?$AAT?$AA?$AA@ 1006c2b8     libucrt:lcidtoname_downlevel.obj
 0002:000092c8       ??_C@_1M@OONGHFHE@?$AAe?$AAs?$AA?9?$AAA?$AAR?$AA?$AA@ 1006c2c8     libucrt:lcidtoname_downlevel.obj
 0002:000092d8       ??_C@_1M@OOJFGBHE@?$AAa?$AAr?$AA?9?$AAL?$AAB?$AA?$AA@ 1006c2d8     libucrt:lcidtoname_downlevel.obj
 0002:000092e8       ??_C@_1M@GCEJHNEG@?$AAe?$AAn?$AA?9?$AAZ?$AAW?$AA?$AA@ 1006c2e8     libucrt:lcidtoname_downlevel.obj
 0002:000092f8       ??_C@_1M@JNOCAHJI@?$AAe?$AAs?$AA?9?$AAE?$AAC?$AA?$AA@ 1006c2f8     libucrt:lcidtoname_downlevel.obj
 0002:00009308       ??_C@_1M@JEFHPGGB@?$AAa?$AAr?$AA?9?$AAK?$AAW?$AA?$AA@ 1006c308     libucrt:lcidtoname_downlevel.obj
 0002:00009318       ??_C@_1M@MLKIBJOJ@?$AAe?$AAn?$AA?9?$AAP?$AAH?$AA?$AA@ 1006c318     libucrt:lcidtoname_downlevel.obj
 0002:00009328       ??_C@_1M@BDNIPEND@?$AAe?$AAs?$AA?9?$AAC?$AAL?$AA?$AA@ 1006c328     libucrt:lcidtoname_downlevel.obj
 0002:00009338       ??_C@_1M@MPNMEKBD@?$AAa?$AAr?$AA?9?$AAA?$AAE?$AA?$AA@ 1006c338     libucrt:lcidtoname_downlevel.obj
 0002:00009348       ??_C@_1M@KBJALCPI@?$AAe?$AAs?$AA?9?$AAU?$AAY?$AA?$AA@ 1006c348     libucrt:lcidtoname_downlevel.obj
 0002:00009358       ??_C@_1M@LLCCOAGA@?$AAa?$AAr?$AA?9?$AAB?$AAH?$AA?$AA@ 1006c358     libucrt:lcidtoname_downlevel.obj
 0002:00009368       ??_C@_1M@PBFNCDEL@?$AAe?$AAs?$AA?9?$AAP?$AAY?$AA?$AA@ 1006c368     libucrt:lcidtoname_downlevel.obj
 0002:00009378       ??_C@_1M@EDGINPNP@?$AAa?$AAr?$AA?9?$AAQ?$AAA?$AA?$AA@ 1006c378     libucrt:lcidtoname_downlevel.obj
 0002:00009388       ??_C@_1M@MKDBIIJI@?$AAe?$AAs?$AA?9?$AAB?$AAO?$AA?$AA@ 1006c388     libucrt:lcidtoname_downlevel.obj
 0002:00009398       ??_C@_1M@CPKKEBLD@?$AAe?$AAs?$AA?9?$AAS?$AAV?$AA?$AA@ 1006c398     libucrt:lcidtoname_downlevel.obj
 0002:000093a8       ??_C@_1M@NDBGMMJL@?$AAe?$AAs?$AA?9?$AAH?$AAN?$AA?$AA@ 1006c3a8     libucrt:lcidtoname_downlevel.obj
 0002:000093b8       ??_C@_1M@JIJIBHDP@?$AAe?$AAs?$AA?9?$AAN?$AAI?$AA?$AA@ 1006c3b8     libucrt:lcidtoname_downlevel.obj
 0002:000093c8       ??_C@_1M@CGFMKEEK@?$AAe?$AAs?$AA?9?$AAP?$AAR?$AA?$AA@ 1006c3c8     libucrt:lcidtoname_downlevel.obj
 0002:000093d8       ??_C@_1O@ICJHKIIK@?$AAz?$AAh?$AA?9?$AAC?$AAH?$AAT?$AA?$AA@ 1006c3d8     libucrt:lcidtoname_downlevel.obj
 0002:000093e8       ??_C@_15CLNEJCE@?$AAs?$AAr?$AA?$AA@ 1006c3e8     libucrt:lcidtoname_downlevel.obj
 0002:00009c7c       ??_C@_1M@KAHEKEIG@?$AAa?$AAf?$AA?9?$AAz?$AAa?$AA?$AA@ 1006cc7c     libucrt:lcidtoname_downlevel.obj
 0002:00009c8c       ??_C@_1M@GIECOABL@?$AAa?$AAr?$AA?9?$AAa?$AAe?$AA?$AA@ 1006cc8c     libucrt:lcidtoname_downlevel.obj
 0002:00009c9c       ??_C@_1M@BMLMEKGI@?$AAa?$AAr?$AA?9?$AAb?$AAh?$AA?$AA@ 1006cc9c     libucrt:lcidtoname_downlevel.obj
 0002:00009cac       ??_C@_1M@DAPFDGGB@?$AAa?$AAr?$AA?9?$AAd?$AAz?$AA?$AA@ 1006ccac     libucrt:lcidtoname_downlevel.obj
 0002:00009cbc       ??_C@_1M@FJNKGKIG@?$AAa?$AAr?$AA?9?$AAe?$AAg?$AA?$AA@ 1006ccbc     libucrt:lcidtoname_downlevel.obj
 0002:00009ccc       ??_C@_1M@FLGKKCLO@?$AAa?$AAr?$AA?9?$AAi?$AAq?$AA?$AA@ 1006cccc     libucrt:lcidtoname_downlevel.obj
 0002:00009cdc       ??_C@_1M@GNDIPALM@?$AAa?$AAr?$AA?9?$AAj?$AAo?$AA?$AA@ 1006ccdc     libucrt:lcidtoname_downlevel.obj
 0002:00009cec       ??_C@_1M@DDMJFMGJ@?$AAa?$AAr?$AA?9?$AAk?$AAw?$AA?$AA@ 1006ccec     libucrt:lcidtoname_downlevel.obj
 0002:00009cfc       ??_C@_1M@EJALMLHM@?$AAa?$AAr?$AA?9?$AAl?$AAb?$AA?$AA@ 1006ccfc     libucrt:lcidtoname_downlevel.obj
 0002:00009d0c       ??_C@_1M@MOBDBLOC@?$AAa?$AAr?$AA?9?$AAl?$AAy?$AA?$AA@ 1006cd0c     libucrt:lcidtoname_downlevel.obj
 0002:00009d1c       ??_C@_1M@JAOCLHDH@?$AAa?$AAr?$AA?9?$AAm?$AAa?$AA?$AA@ 1006cd1c     libucrt:lcidtoname_downlevel.obj
 0002:00009d2c       ??_C@_1M@JHPMKJIE@?$AAa?$AAr?$AA?9?$AAo?$AAm?$AA?$AA@ 1006cd2c     libucrt:lcidtoname_downlevel.obj
 0002:00009d3c       ??_C@_1M@OEPGHFNH@?$AAa?$AAr?$AA?9?$AAq?$AAa?$AA?$AA@ 1006cd3c     libucrt:lcidtoname_downlevel.obj
 0002:00009d4c       ??_C@_1M@KJDONENM@?$AAa?$AAr?$AA?9?$AAs?$AAa?$AA?$AA@ 1006cd4c     libucrt:lcidtoname_downlevel.obj
 0002:00009d5c       ??_C@_1M@DMJDKLKM@?$AAa?$AAr?$AA?9?$AAs?$AAy?$AA?$AA@ 1006cd5c     libucrt:lcidtoname_downlevel.obj
 0002:00009d6c       ??_C@_1M@OMFIPEDC@?$AAa?$AAr?$AA?9?$AAt?$AAn?$AA?$AA@ 1006cd6c     libucrt:lcidtoname_downlevel.obj
 0002:00009d7c       ??_C@_1M@IHMHGAON@?$AAa?$AAr?$AA?9?$AAy?$AAe?$AA?$AA@ 1006cd7c     libucrt:lcidtoname_downlevel.obj
 0002:00009d8c       ??_C@_1BG@KDCPGJGB@?$AAa?$AAz?$AA?9?$AAa?$AAz?$AA?9?$AAc?$AAy?$AAr?$AAl?$AA?$AA@ 1006cd8c     libucrt:lcidtoname_downlevel.obj
 0002:00009da8       ??_C@_1BG@IBCKDDOE@?$AAa?$AAz?$AA?9?$AAa?$AAz?$AA?9?$AAl?$AAa?$AAt?$AAn?$AA?$AA@ 1006cda8     libucrt:lcidtoname_downlevel.obj
 0002:00009dc4       ??_C@_1M@EGPFDCPD@?$AAb?$AAe?$AA?9?$AAb?$AAy?$AA?$AA@ 1006cdc4     libucrt:lcidtoname_downlevel.obj
 0002:00009dd4       ??_C@_1M@PCMGMCGC@?$AAb?$AAg?$AA?9?$AAb?$AAg?$AA?$AA@ 1006cdd4     libucrt:lcidtoname_downlevel.obj
 0002:00009de4       ??_C@_1M@BJBMFGOB@?$AAb?$AAn?$AA?9?$AAi?$AAn?$AA?$AA@ 1006cde4     libucrt:lcidtoname_downlevel.obj
 0002:00009df4       ??_C@_1BG@EAKMMACD@?$AAb?$AAs?$AA?9?$AAb?$AAa?$AA?9?$AAl?$AAa?$AAt?$AAn?$AA?$AA@ 1006cdf4     libucrt:lcidtoname_downlevel.obj
 0002:00009e10       ??_C@_1M@KGADAODK@?$AAc?$AAa?$AA?9?$AAe?$AAs?$AA?$AA@ 1006ce10     libucrt:lcidtoname_downlevel.obj
 0002:00009e20       ??_C@_1M@COAJPDHI@?$AAc?$AAs?$AA?9?$AAc?$AAz?$AA?$AA@ 1006ce20     libucrt:lcidtoname_downlevel.obj
 0002:00009e30       ??_C@_1M@DHBHFONH@?$AAc?$AAy?$AA?9?$AAg?$AAb?$AA?$AA@ 1006ce30     libucrt:lcidtoname_downlevel.obj
 0002:00009e40       ??_C@_1M@IMGKELGA@?$AAd?$AAa?$AA?9?$AAd?$AAk?$AA?$AA@ 1006ce40     libucrt:lcidtoname_downlevel.obj
 0002:00009e50       ??_C@_1M@NNDGDNGA@?$AAd?$AAe?$AA?9?$AAa?$AAt?$AA?$AA@ 1006ce50     libucrt:lcidtoname_downlevel.obj
 0002:00009e60       ??_C@_1M@IKDBHEEM@?$AAd?$AAe?$AA?9?$AAc?$AAh?$AA?$AA@ 1006ce60     libucrt:lcidtoname_downlevel.obj
 0002:00009e70       ??_C@_1M@GFFOJMCJ@?$AAd?$AAe?$AA?9?$AAd?$AAe?$AA?$AA@ 1006ce70     libucrt:lcidtoname_downlevel.obj
 0002:00009e80       ??_C@_1M@MDNLKBPM@?$AAd?$AAe?$AA?9?$AAl?$AAi?$AA?$AA@ 1006ce80     libucrt:lcidtoname_downlevel.obj
 0002:00009e90       ??_C@_1M@NJBEEJNL@?$AAd?$AAe?$AA?9?$AAl?$AAu?$AA?$AA@ 1006ce90     libucrt:lcidtoname_downlevel.obj
 0002:00009ea0       ??_C@_1O@GNNELBAP@?$AAd?$AAi?$AAv?$AA?9?$AAm?$AAv?$AA?$AA@ 1006cea0     libucrt:lcidtoname_downlevel.obj
 0002:00009eb0       ??_C@_1M@EJLEOGAE@?$AAe?$AAl?$AA?9?$AAg?$AAr?$AA?$AA@ 1006ceb0     libucrt:lcidtoname_downlevel.obj
 0002:00009ec0       ??_C@_1M@GMPONJN@?$AAe?$AAn?$AA?9?$AAa?$AAu?$AA?$AA@ 1006cec0     libucrt:lcidtoname_downlevel.obj
 0002:00009ed0       ??_C@_1M@NIDIIPGF@?$AAe?$AAn?$AA?9?$AAb?$AAz?$AA?$AA@ 1006ced0     libucrt:lcidtoname_downlevel.obj
 0002:00009ee0       ??_C@_1M@JEHMIMFO@?$AAe?$AAn?$AA?9?$AAc?$AAa?$AA?$AA@ 1006cee0     libucrt:lcidtoname_downlevel.obj
 0002:00009ef0       ??_C@_1M@IGMJCDLA@?$AAe?$AAn?$AA?9?$AAc?$AAb?$AA?$AA@ 1006cef0     libucrt:lcidtoname_downlevel.obj
 0002:00009f00       ??_C@_1M@BNFIGBKG@?$AAe?$AAn?$AA?9?$AAg?$AAb?$AA?$AA@ 1006cf00     libucrt:lcidtoname_downlevel.obj
 0002:00009f10       ??_C@_1M@LKIFDIGP@?$AAe?$AAn?$AA?9?$AAi?$AAe?$AA?$AA@ 1006cf10     libucrt:lcidtoname_downlevel.obj
 0002:00009f20       ??_C@_1M@PJKFGCCO@?$AAe?$AAn?$AA?9?$AAj?$AAm?$AA?$AA@ 1006cf20     libucrt:lcidtoname_downlevel.obj
 0002:00009f30       ??_C@_1M@KPPKEPBO@?$AAe?$AAn?$AA?9?$AAn?$AAz?$AA?$AA@ 1006cf30     libucrt:lcidtoname_downlevel.obj
 0002:00009f40       ??_C@_1M@GMDGLDOB@?$AAe?$AAn?$AA?9?$AAp?$AAh?$AA?$AA@ 1006cf40     libucrt:lcidtoname_downlevel.obj
 0002:00009f50       ??_C@_1M@ONGIBJNA@?$AAe?$AAn?$AA?9?$AAt?$AAt?$AA?$AA@ 1006cf50     libucrt:lcidtoname_downlevel.obj
 0002:00009f60       ??_C@_1M@LLODPCMM@?$AAe?$AAn?$AA?9?$AAu?$AAs?$AA?$AA@ 1006cf60     libucrt:lcidtoname_downlevel.obj
 0002:00009f70       ??_C@_1M@LAKFNPAN@?$AAe?$AAn?$AA?9?$AAz?$AAa?$AA?$AA@ 1006cf70     libucrt:lcidtoname_downlevel.obj
 0002:00009f80       ??_C@_1M@MFNHNHEO@?$AAe?$AAn?$AA?9?$AAz?$AAw?$AA?$AA@ 1006cf80     libucrt:lcidtoname_downlevel.obj
 0002:00009f90       ??_C@_1M@EJEINPHM@?$AAe?$AAs?$AA?9?$AAa?$AAr?$AA?$AA@ 1006cf90     libucrt:lcidtoname_downlevel.obj
 0002:00009fa0       ??_C@_1M@GNKPCCJA@?$AAe?$AAs?$AA?9?$AAb?$AAo?$AA?$AA@ 1006cfa0     libucrt:lcidtoname_downlevel.obj
 0002:00009fb0       ??_C@_1M@LEEGFONL@?$AAe?$AAs?$AA?9?$AAc?$AAl?$AA?$AA@ 1006cfb0     libucrt:lcidtoname_downlevel.obj
 0002:00009fc0       ??_C@_1M@KGPDPBDF@?$AAe?$AAs?$AA?9?$AAc?$AAo?$AA?$AA@ 1006cfc0     libucrt:lcidtoname_downlevel.obj
 0002:00009fd0       ??_C@_1M@EIAHOHH@?$AAe?$AAs?$AA?9?$AAc?$AAr?$AA?$AA@ 1006cfd0     libucrt:lcidtoname_downlevel.obj
 0002:00009fe0       ??_C@_1M@LLPGMBIN@?$AAe?$AAs?$AA?9?$AAd?$AAo?$AA?$AA@ 1006cfe0     libucrt:lcidtoname_downlevel.obj
 0002:00009ff0       ??_C@_1M@DKHMKNJA@?$AAe?$AAs?$AA?9?$AAe?$AAc?$AA?$AA@ 1006cff0     libucrt:lcidtoname_downlevel.obj
 0002:0000a000       ??_C@_1M@GKGFPKAP@?$AAe?$AAs?$AA?9?$AAe?$AAs?$AA?$AA@ 1006d000     libucrt:lcidtoname_downlevel.obj
 0002:0000a010       ??_C@_1M@LKHKGDLN@?$AAe?$AAs?$AA?9?$AAg?$AAt?$AA?$AA@ 1006d010     libucrt:lcidtoname_downlevel.obj
 0002:0000a020       ??_C@_1M@HEIIGGJD@?$AAe?$AAs?$AA?9?$AAh?$AAn?$AA?$AA@ 1006d020     libucrt:lcidtoname_downlevel.obj
 0002:0000a030       ??_C@_1M@FBDHPPGD@?$AAe?$AAs?$AA?9?$AAm?$AAx?$AA?$AA@ 1006d030     libucrt:lcidtoname_downlevel.obj
